

Microchip MPLAB XC8 Assembler V2.40 build 20220703182018 
                                                                                               Wed Dec 14 23:14:57 2022

Microchip MPLAB XC8 C Compiler v2.40 (Free license) build 20220703182018 Og1 
     1                           	processor	18F4520
     2                           	fnconf	rparam,??,?,0
     3                           	pagewidth 120
     4                           	opt	flic
     5                           	psect	idataCOMRAM,global,class=CODE,delta=1,noexec
     6                           	psect	idataBANK0,global,class=CODE,delta=1,noexec
     7                           	psect	idataBANK1,global,class=CODE,delta=1,noexec
     8                           	psect	smallconst,global,reloc=2,class=SMALLCONST,delta=1,noexec
     9                           	psect	cinit,global,reloc=2,class=CODE,delta=1
    10                           	psect	bssCOMRAM,global,class=COMRAM,space=1,delta=1,lowdata,noexec
    11                           	psect	dataCOMRAM,global,class=COMRAM,space=1,delta=1,lowdata,noexec
    12                           	psect	bssBANK0,global,class=BANK0,space=1,delta=1,lowdata,noexec
    13                           	psect	dataBANK0,global,class=BANK0,space=1,delta=1,lowdata,noexec
    14                           	psect	dataBANK1,global,class=BANK1,space=1,delta=1,lowdata,noexec
    15                           	psect	cstackBANK0,global,class=BANK0,space=1,delta=1,lowdata,noexec
    16                           	psect	cstackCOMRAM,global,class=COMRAM,space=1,delta=1,lowdata,noexec
    17                           	psect	text0,global,reloc=2,class=CODE,delta=1
    18                           	psect	text1,global,reloc=2,class=CODE,delta=1
    19                           	psect	text2,global,reloc=2,class=CODE,delta=1
    20                           	psect	text3,global,reloc=2,class=CODE,delta=1
    21                           	psect	text4,global,reloc=2,class=CODE,delta=1
    22                           	psect	text5,global,reloc=2,class=CODE,delta=1
    23                           	psect	text6,global,reloc=2,class=CODE,delta=1
    24                           	psect	text7,global,reloc=2,class=CODE,delta=1
    25                           	psect	text8,global,reloc=2,class=CODE,delta=1
    26                           	psect	text9,global,reloc=2,class=CODE,delta=1
    27                           	psect	text10,global,reloc=2,class=CODE,delta=1
    28                           	psect	text11,global,reloc=2,class=CODE,delta=1
    29                           	psect	text12,global,reloc=2,class=CODE,delta=1
    30                           	psect	text13,global,reloc=2,class=CODE,delta=1,group=1
    31                           	psect	text14,global,reloc=2,class=CODE,delta=1,group=1
    32                           	psect	text15,global,reloc=2,class=CODE,delta=1,group=1
    33                           	psect	text16,global,reloc=2,class=CODE,delta=1,group=1
    34                           	psect	text17,global,reloc=2,class=CODE,delta=1,group=1
    35                           	psect	text18,global,reloc=2,class=CODE,delta=1,group=1
    36                           	psect	intcode,global,reloc=2,class=CODE,delta=1
    37                           	psect	intcode_body,global,reloc=2,class=CODE,delta=1
    38                           	psect	text20,global,reloc=2,class=CODE,delta=1
    39                           	psect	text21,global,reloc=2,class=CODE,delta=1
    40                           	psect	text22,global,reloc=2,class=CODE,delta=1
    41                           	psect	text23,global,reloc=2,class=CODE,delta=1
    42                           	psect	text24,global,reloc=2,class=CODE,delta=1
    43                           	psect	text25,global,reloc=2,class=CODE,delta=1
    44                           	psect	text26,global,reloc=2,class=CODE,delta=1
    45                           	psect	text27,global,reloc=2,class=CODE,delta=1
    46                           	psect	text28,global,reloc=2,class=CODE,delta=1
    47                           	psect	text29,global,reloc=2,class=CODE,delta=1
    48                           	psect	text30,global,reloc=2,class=CODE,delta=1
    49                           	psect	text31,global,reloc=2,class=CODE,delta=1
    50                           	psect	text32,global,reloc=2,class=CODE,delta=1
    51                           	psect	text33,global,reloc=2,class=CODE,delta=1,group=1
    52                           	psect	text34,global,reloc=2,class=CODE,delta=1
    53                           	psect	text35,global,reloc=2,class=CODE,delta=1
    54                           	psect	text36,global,reloc=2,class=CODE,delta=1
    55                           	psect	text37,global,reloc=2,class=CODE,delta=1
    56                           	psect	text38,global,reloc=2,class=CODE,delta=1
    57                           	psect	text39,global,reloc=2,class=CODE,delta=1
    58                           	psect	text40,global,reloc=2,class=CODE,delta=1
    59                           	psect	text41,global,reloc=2,class=CODE,delta=1
    60                           	psect	intsave_regs,global,class=BIGRAM,space=1,delta=1,noexec
    61                           	psect	rparam,global,class=COMRAM,space=1,delta=1,noexec
    62                           	psect	temp,global,ovrld,common,class=COMRAM,space=1,delta=1
    63                           	psect	idloc,global,abs,ovrld,class=IDLOC,space=5,delta=1,noexec
    64                           	psect	config,global,abs,ovrld,class=CONFIG,space=4,delta=1,noexec
    65   000000                     
    66                           ; Version 2.40
    67                           ; Generated 17/11/2021 GMT
    68                           ; 
    69                           ; Copyright © 2021, Microchip Technology Inc. and its subsidiaries ("Microchip")
    70                           ; All rights reserved.
    71                           ; 
    72                           ; This software is developed by Microchip Technology Inc. and its subsidiaries ("Microch
      +                          ip").
    73                           ; 
    74                           ; Redistribution and use in source and binary forms, with or without modification, are
    75                           ; permitted provided that the following conditions are met:
    76                           ; 
    77                           ;     1. Redistributions of source code must retain the above copyright notice, this lis
      +                          t of
    78                           ;        conditions and the following disclaimer.
    79                           ; 
    80                           ;     2. Redistributions in binary form must reproduce the above copyright notice, this 
      +                          list
    81                           ;        of conditions and the following disclaimer in the documentation and/or other
    82                           ;        materials provided with the distribution. Publication is not required when
    83                           ;        this file is used in an embedded application.
    84                           ; 
    85                           ;     3. Microchip's name may not be used to endorse or promote products derived from th
      +                          is
    86                           ;        software without specific prior written permission.
    87                           ; 
    88                           ; THIS SOFTWARE IS PROVIDED BY MICROCHIP "AS IS" AND ANY EXPRESS OR IMPLIED WARRANTIES,
    89                           ; INCLUDING, BUT NOT LIMITED TO, THE IMPLIED WARRANTIES OF MERCHANTABILITY AND FITNESS F
      +                          OR
    90                           ; PURPOSE ARE DISCLAIMED.  IN NO EVENT SHALL MICROCHIP BE LIABLE FOR ANY DIRECT, INDIREC
      +                          T,
    91                           ; INCIDENTAL, SPECIAL, EXEMPLARY, OR CONSEQUENTIAL DAMAGES (INCLUDING BUT NOT LIMITED TO
    92                           ; PROCUREMENT OF SUBSTITUTE GOODS OR SERVICES; LOSS OF USE, DATA OR PROFITS; OR BUSINESS
    93                           ; INTERRUPTION) HOWSOEVER CAUSED AND ON ANY THEORY OF LIABILITY, WHETHER IN CONTRACT, ST
      +                          RICT
    94                           ; LIABILITY, OR TORT (INCLUDING NEGLIGENCE OR OTHERWISE) ARISING IN ANY WAY OUT OF THE U
      +                          SE OF
    95                           ; THIS SOFTWARE, EVEN IF ADVISED OF THE POSSIBILITY OF SUCH DAMAGE.
    96                           ; 
    97                           ; 
    98                           ; Code-generator required, PIC18F4520 Definitions
    99                           ; 
   100                           ; SFR Addresses
   101   000000                     
   102                           	psect	idataCOMRAM
   103   0027B6                     __pidataCOMRAM:
   104                           	callstack 0
   105                           
   106                           ;initializer for f_timers@counter3
   107   0027B6  0001               	dw	1
   108                           
   109                           ;initializer for f_timers@counter2
   110   0027B8  0001               	dw	1
   111                           
   112                           ;initializer for f_timers@counter1
   113   0027BA  0001               	dw	1
   114                           
   115                           ;initializer for f_timers@counter0
   116   0027BC  0001               	dw	1
   117                           
   118                           	psect	idataBANK0
   119   0026E4                     __pidataBANK0:
   120                           	callstack 0
   121                           
   122                           ;initializer for _linha1
   123   0026E4  41                 	db	65
   124   0026E5  42                 	db	66
   125   0026E6  43                 	db	67
   126   0026E7  44                 	db	68
   127   0026E8  45                 	db	69
   128   0026E9  46                 	db	70
   129   0026EA  47                 	db	71
   130   0026EB  48                 	db	72
   131   0026EC  49                 	db	73
   132   0026ED  4A                 	db	74
   133   0026EE  00                 	db	0
   134   0026EF  00                 	db	0
   135   0026F0  00                 	db	0
   136   0026F1  00                 	db	0
   137   0026F2  00                 	db	0
   138   0026F3  00                 	db	0
   139   0026F4  00                 	db	0
   140                           
   141                           ;initializer for _conv7seg
   142   0026F5  3F                 	db	63
   143   0026F6  06                 	db	6
   144   0026F7  5B                 	db	91
   145   0026F8  4F                 	db	79
   146   0026F9  66                 	db	102
   147   0026FA  6D                 	db	109
   148   0026FB  7D                 	db	125
   149   0026FC  07                 	db	7
   150   0026FD  7F                 	db	127
   151   0026FE  6F                 	db	111
   152   0026FF  77                 	db	119
   153   002700  7C                 	db	124
   154   002701  39                 	db	57
   155   002702  5E                 	db	94
   156   002703  79                 	db	121
   157   002704  71                 	db	113
   158   002705  00                 	db	0
   159                           
   160                           	psect	idataBANK1
   161   002764                     __pidataBANK1:
   162                           	callstack 0
   163                           
   164                           ;initializer for _linha2
   165   002764  41                 	db	65
   166   002765  42                 	db	66
   167   002766  43                 	db	67
   168   002767  44                 	db	68
   169   002768  45                 	db	69
   170   002769  46                 	db	70
   171   00276A  47                 	db	71
   172   00276B  48                 	db	72
   173   00276C  49                 	db	73
   174   00276D  4A                 	db	74
   175   00276E  00                 	db	0
   176   00276F  00                 	db	0
   177   002770  00                 	db	0
   178   002771  00                 	db	0
   179   002772  00                 	db	0
   180   002773  00                 	db	0
   181   002774  00                 	db	0
   182   000000                     _INTCON2	set	4081
   183   000000                     _LATC	set	3979
   184   000000                     _LATB	set	3978
   185   000000                     _LATD	set	3980
   186   000000                     _INTCON3	set	4080
   187   000000                     _INTCON	set	4082
   188   000000                     _LATA	set	3977
   189   000000                     _RC5	set	31765
   190   000000                     _TMR0IE	set	32661
   191   000000                     _GIE	set	32663
   192   000000                     _PEIE	set	32662
   193   000000                     _INT2IE	set	32644
   194   000000                     _INT2IF	set	32641
   195   000000                     _INT1IE	set	32643
   196   000000                     _INT0IE	set	32660
   197   000000                     _INT0IF	set	32657
   198   000000                     _LATA4	set	31820
   199   000000                     _LATA3	set	31819
   200   000000                     _LATA5	set	31821
   201   000000                     _GO	set	32273
   202   000000                     _PORTC	set	3970
   203   000000                     _TRISA	set	3986
   204   000000                     _ADCON2	set	4032
   205   000000                     _ADCON1	set	4033
   206   000000                     _ADCON0	set	4034
   207   000000                     _LATA2	set	31818
   208   000000                     _ADRES	set	4035
   209   000000                     _T2CON	set	4042
   210   000000                     _TRISE	set	3990
   211   000000                     _TRISD	set	3989
   212   000000                     _TRISC	set	3988
   213   000000                     _TRISB	set	3987
   214   000000                     _CCP1CON	set	4029
   215   000000                     _ADIE	set	31982
   216   000000                     _ADIF	set	31990
   217   000000                     _LATE	set	3981
   218   000000                     _TMR0	set	4054
   219   000000                     _PR2	set	4043
   220   000000                     _IPEN	set	32391
   221   000000                     _TMR0IF	set	32658
   222   000000                     _CCPR1L	set	4030
   223   000000                     _INT1IF	set	32640
   224   000000                     _T0CON	set	4053
   225   000000                     _PORTEbits	set	3972
   226   000000                     _PORTD	set	3971
   227                           
   228                           	psect	smallconst
   229   000600                     __psmallconst:
   230                           	callstack 0
   231   000600  00                 	db	0
   232   000601                     STR_1:
   233   000601  20                 	db	32
   234   000602  20                 	db	32
   235   000603  20                 	db	32
   236   000604  00                 	db	0
   237   000605  00                 	db	0	; dummy byte at the end
   238   000000                     
   239                           ; #config settings
   240                           
   241                           	psect	cinit
   242   0022B4                     __pcinit:
   243                           	callstack 0
   244   0022B4                     start_initialization:
   245                           	callstack 0
   246   0022B4                     __initialization:
   247                           	callstack 0
   248                           
   249                           ; Initialize objects allocated to BANK1 (17 bytes)
   250                           ; load TBLPTR registers with __pidataBANK1
   251   0022B4  0E64               	movlw	low __pidataBANK1
   252   0022B6  6EF6               	movwf	tblptrl,c
   253   0022B8  0E27               	movlw	high __pidataBANK1
   254   0022BA  6EF7               	movwf	tblptrh,c
   255   0022BC  0E00               	movlw	low (__pidataBANK1 shr (0+16))
   256   0022BE  6EF8               	movwf	tblptru,c
   257   0022C0  EE01  F000         	lfsr	0,__pdataBANK1
   258   0022C4  EE10 F011          	lfsr	1,17
   259   0022C8                     copy_data0:
   260   0022C8  0009               	tblrd		*+
   261   0022CA  CFF5 FFEE          	movff	tablat,postinc0
   262   0022CE  50E5               	movf	postdec1,w,c
   263   0022D0  50E1               	movf	fsr1l,w,c
   264   0022D2  E1FA               	bnz	copy_data0
   265                           
   266                           ; Initialize objects allocated to BANK0 (34 bytes)
   267                           ; load TBLPTR registers with __pidataBANK0
   268   0022D4  0EE4               	movlw	low __pidataBANK0
   269   0022D6  6EF6               	movwf	tblptrl,c
   270   0022D8  0E26               	movlw	high __pidataBANK0
   271   0022DA  6EF7               	movwf	tblptrh,c
   272   0022DC  0E00               	movlw	low (__pidataBANK0 shr (0+16))
   273   0022DE  6EF8               	movwf	tblptru,c
   274   0022E0  EE00  F0CA         	lfsr	0,__pdataBANK0
   275   0022E4  EE10 F022          	lfsr	1,34
   276   0022E8                     copy_data1:
   277   0022E8  0009               	tblrd		*+
   278   0022EA  CFF5 FFEE          	movff	tablat,postinc0
   279   0022EE  50E5               	movf	postdec1,w,c
   280   0022F0  50E1               	movf	fsr1l,w,c
   281   0022F2  E1FA               	bnz	copy_data1
   282                           
   283                           ; Initialize objects allocated to COMRAM (8 bytes)
   284                           ; load TBLPTR registers with __pidataCOMRAM
   285   0022F4  0EB6               	movlw	low __pidataCOMRAM
   286   0022F6  6EF6               	movwf	tblptrl,c
   287   0022F8  0E27               	movlw	high __pidataCOMRAM
   288   0022FA  6EF7               	movwf	tblptrh,c
   289   0022FC  0E00               	movlw	low (__pidataCOMRAM shr (0+16))
   290   0022FE  6EF8               	movwf	tblptru,c
   291   002300  EE00  F077         	lfsr	0,__pdataCOMRAM
   292   002304  EE10 F008          	lfsr	1,8
   293   002308                     copy_data2:
   294   002308  0009               	tblrd		*+
   295   00230A  CFF5 FFEE          	movff	tablat,postinc0
   296   00230E  50E5               	movf	postdec1,w,c
   297   002310  50E1               	movf	fsr1l,w,c
   298   002312  E1FA               	bnz	copy_data2
   299                           
   300                           ; Clear objects allocated to BANK0 (19 bytes)
   301   002314  EE00  F0EC         	lfsr	0,__pbssBANK0
   302   002318  0E13               	movlw	19
   303   00231A                     clear_0:
   304   00231A  6AEE               	clrf	postinc0,c
   305   00231C  06E8               	decf	wreg,f,c
   306   00231E  E1FD               	bnz	clear_0
   307                           
   308                           ; Clear objects allocated to COMRAM (32 bytes)
   309   002320  EE00  F057         	lfsr	0,__pbssCOMRAM
   310   002324  0E20               	movlw	32
   311   002326                     clear_1:
   312   002326  6AEE               	clrf	postinc0,c
   313   002328  06E8               	decf	wreg,f,c
   314   00232A  E1FD               	bnz	clear_1
   315   00232C                     end_of_initialization:
   316                           	callstack 0
   317   00232C                     __end_of__initialization:
   318                           	callstack 0
   319   00232C  907F               	bcf	int$flags,0,c	;clear compiler interrupt flag (level 1)
   320   00232E  927F               	bcf	int$flags,1,c	;clear compiler interrupt flag (level 2)
   321   002330  0E00               	movlw	low (__Lmediumconst shr (0+16))
   322   002332  6EF8               	movwf	tblptru,c
   323   002334  0100               	movlb	0
   324   002336  EFBB  F013         	goto	_main	;jump to C main() function
   325                           
   326                           	psect	bssCOMRAM
   327   000057                     __pbssCOMRAM:
   328                           	callstack 0
   329   000057                     _pwm:
   330                           	callstack 0
   331   000057                     	ds	2
   332   000059                     _giro:
   333                           	callstack 0
   334   000059                     	ds	2
   335   00005B                     _TM:
   336                           	callstack 0
   337   00005B                     	ds	2
   338   00005D                     _T2:
   339                           	callstack 0
   340   00005D                     	ds	2
   341   00005F                     _T1:
   342                           	callstack 0
   343   00005F                     	ds	2
   344   000061                     _temp:
   345                           	callstack 0
   346   000061                     	ds	2
   347   000063                     _temporizador1:
   348                           	callstack 0
   349   000063                     	ds	2
   350   000065                     controlador_ventoinha@heater:
   351                           	callstack 0
   352   000065                     	ds	1
   353   000066                     read_RPM@contagem_de_pulsos:
   354                           	callstack 0
   355   000066                     	ds	1
   356   000067                     imprime_temperatura@old_latd:
   357                           	callstack 0
   358   000067                     	ds	1
   359   000068                     _digito4_temperatura:
   360                           	callstack 0
   361   000068                     	ds	1
   362   000069                     _digito3_temperatura:
   363                           	callstack 0
   364   000069                     	ds	1
   365   00006A                     _digito2_temperatura:
   366                           	callstack 0
   367   00006A                     	ds	1
   368   00006B                     _digito1_temperatura:
   369                           	callstack 0
   370   00006B                     	ds	1
   371   00006C                     mux_display@estado:
   372                           	callstack 0
   373   00006C                     	ds	1
   374   00006D                     _estado_sequencia02:
   375                           	callstack 0
   376   00006D                     	ds	1
   377   00006E                     _estado_sequencia01:
   378                           	callstack 0
   379   00006E                     	ds	1
   380   00006F                     _display1:
   381                           	callstack 0
   382   00006F                     	ds	1
   383   000070                     ADC_maq@estado:
   384                           	callstack 0
   385   000070                     	ds	1
   386   000071                     _AD_data:
   387                           	callstack 0
   388   000071                     	ds	6
   389                           
   390                           	psect	dataCOMRAM
   391   000077                     __pdataCOMRAM:
   392                           	callstack 0
   393   000077                     f_timers@counter3:
   394                           	callstack 0
   395   000077                     	ds	2
   396   000079                     f_timers@counter2:
   397                           	callstack 0
   398   000079                     	ds	2
   399   00007B                     f_timers@counter1:
   400                           	callstack 0
   401   00007B                     	ds	2
   402   00007D                     f_timers@counter0:
   403                           	callstack 0
   404   00007D                     	ds	2
   405                           
   406                           	psect	bssBANK0
   407   0000EC                     __pbssBANK0:
   408                           	callstack 0
   409   0000EC                     _buffer:
   410                           	callstack 0
   411   0000EC                     	ds	10
   412   0000F6                     _HZ:
   413                           	callstack 0
   414   0000F6                     	ds	2
   415   0000F8                     _temperature:
   416                           	callstack 0
   417   0000F8                     	ds	2
   418   0000FA                     _temporizador2:
   419                           	callstack 0
   420   0000FA                     	ds	2
   421   0000FC                     _display4:
   422                           	callstack 0
   423   0000FC                     	ds	1
   424   0000FD                     _display3:
   425                           	callstack 0
   426   0000FD                     	ds	1
   427   0000FE                     _display2:
   428                           	callstack 0
   429   0000FE                     	ds	1
   430                           
   431                           	psect	dataBANK0
   432   0000CA                     __pdataBANK0:
   433                           	callstack 0
   434   0000CA                     _linha1:
   435                           	callstack 0
   436   0000CA                     	ds	17
   437   0000DB                     _conv7seg:
   438                           	callstack 0
   439   0000DB                     	ds	17
   440                           
   441                           	psect	dataBANK1
   442   000100                     __pdataBANK1:
   443                           	callstack 0
   444   000100                     _linha2:
   445                           	callstack 0
   446   000100                     	ds	17
   447                           
   448                           	psect	cstackBANK0
   449   000080                     __pcstackBANK0:
   450                           	callstack 0
   451   000080                     ?___lwmod:
   452                           	callstack 0
   453   000080                     ?___xxtofl:
   454                           	callstack 0
   455   000080                     lcd_wr@val:
   456                           	callstack 0
   457   000080                     ___lwmod@dividend:
   458                           	callstack 0
   459   000080                     ___xxtofl@val:
   460                           	callstack 0
   461                           
   462                           ; 4 bytes @ 0x0
   463   000080                     	ds	1
   464   000081                     lcd_cmd@val:
   465                           	callstack 0
   466                           
   467                           ; 1 bytes @ 0x1
   468   000081                     	ds	1
   469   000082                     ??_lcd_init:
   470   000082                     ___lwmod@divisor:
   471                           	callstack 0
   472                           
   473                           ; 2 bytes @ 0x2
   474   000082                     	ds	1
   475   000083                     
   476                           ; 1 bytes @ 0x3
   477   000083                     	ds	1
   478   000084                     ??___xxtofl:
   479   000084                     ___lwmod@counter:
   480                           	callstack 0
   481                           
   482                           ; 1 bytes @ 0x4
   483   000084                     	ds	1
   484   000085                     ?___lwdiv:
   485                           	callstack 0
   486   000085                     ___lwdiv@dividend:
   487                           	callstack 0
   488                           
   489                           ; 2 bytes @ 0x5
   490   000085                     	ds	2
   491   000087                     ___lwdiv@divisor:
   492                           	callstack 0
   493                           
   494                           ; 2 bytes @ 0x7
   495   000087                     	ds	1
   496   000088                     ___xxtofl@sign:
   497                           	callstack 0
   498                           
   499                           ; 1 bytes @ 0x8
   500   000088                     	ds	1
   501   000089                     ___xxtofl@exp:
   502                           	callstack 0
   503   000089                     ___lwdiv@quotient:
   504                           	callstack 0
   505                           
   506                           ; 2 bytes @ 0x9
   507   000089                     	ds	1
   508   00008A                     ___xxtofl@arg:
   509                           	callstack 0
   510                           
   511                           ; 4 bytes @ 0xA
   512   00008A                     	ds	1
   513   00008B                     ___lwdiv@counter:
   514                           	callstack 0
   515                           
   516                           ; 1 bytes @ 0xB
   517   00008B                     	ds	3
   518   00008E                     ?___flmul:
   519                           	callstack 0
   520   00008E                     ___flmul@b:
   521                           	callstack 0
   522                           
   523                           ; 4 bytes @ 0xE
   524   00008E                     	ds	4
   525   000092                     ___flmul@a:
   526                           	callstack 0
   527                           
   528                           ; 4 bytes @ 0x12
   529   000092                     	ds	4
   530   000096                     ??___flmul:
   531                           
   532                           ; 1 bytes @ 0x16
   533   000096                     	ds	4
   534   00009A                     ___flmul@sign:
   535                           	callstack 0
   536                           
   537                           ; 1 bytes @ 0x1A
   538   00009A                     	ds	1
   539   00009B                     ___flmul@grs:
   540                           	callstack 0
   541                           
   542                           ; 4 bytes @ 0x1B
   543   00009B                     	ds	4
   544   00009F                     ___flmul@aexp:
   545                           	callstack 0
   546                           
   547                           ; 1 bytes @ 0x1F
   548   00009F                     	ds	1
   549   0000A0                     ___flmul@bexp:
   550                           	callstack 0
   551                           
   552                           ; 1 bytes @ 0x20
   553   0000A0                     	ds	1
   554   0000A1                     ___flmul@prod:
   555                           	callstack 0
   556                           
   557                           ; 4 bytes @ 0x21
   558   0000A1                     	ds	4
   559   0000A5                     ___flmul@temp:
   560                           	callstack 0
   561                           
   562                           ; 2 bytes @ 0x25
   563   0000A5                     	ds	2
   564   0000A7                     ?___fldiv:
   565                           	callstack 0
   566   0000A7                     ___fldiv@b:
   567                           	callstack 0
   568                           
   569                           ; 4 bytes @ 0x27
   570   0000A7                     	ds	4
   571   0000AB                     ___fldiv@a:
   572                           	callstack 0
   573                           
   574                           ; 4 bytes @ 0x2B
   575   0000AB                     	ds	4
   576   0000AF                     ??___fldiv:
   577                           
   578                           ; 1 bytes @ 0x2F
   579   0000AF                     	ds	4
   580   0000B3                     ___fldiv@rem:
   581                           	callstack 0
   582                           
   583                           ; 4 bytes @ 0x33
   584   0000B3                     	ds	4
   585   0000B7                     ___fldiv@sign:
   586                           	callstack 0
   587                           
   588                           ; 1 bytes @ 0x37
   589   0000B7                     	ds	1
   590   0000B8                     ___fldiv@new_exp:
   591                           	callstack 0
   592                           
   593                           ; 2 bytes @ 0x38
   594   0000B8                     	ds	2
   595   0000BA                     ___fldiv@grs:
   596                           	callstack 0
   597                           
   598                           ; 4 bytes @ 0x3A
   599   0000BA                     	ds	4
   600   0000BE                     ___fldiv@bexp:
   601                           	callstack 0
   602                           
   603                           ; 1 bytes @ 0x3E
   604   0000BE                     	ds	1
   605   0000BF                     ___fldiv@aexp:
   606                           	callstack 0
   607                           
   608                           ; 1 bytes @ 0x3F
   609   0000BF                     	ds	1
   610   0000C0                     ?___fltol:
   611                           	callstack 0
   612   0000C0                     ___fltol@f1:
   613                           	callstack 0
   614                           
   615                           ; 4 bytes @ 0x40
   616   0000C0                     	ds	4
   617   0000C4                     ??___fltol:
   618                           
   619                           ; 1 bytes @ 0x44
   620   0000C4                     	ds	4
   621   0000C8                     ___fltol@sign1:
   622                           	callstack 0
   623                           
   624                           ; 1 bytes @ 0x48
   625   0000C8                     	ds	1
   626   0000C9                     ___fltol@exp1:
   627                           	callstack 0
   628                           
   629                           ; 1 bytes @ 0x49
   630   0000C9                     	ds	1
   631   0000CA                     
   632                           ; 1 bytes @ 0x4A
   633                           
   634                           	psect	cstackCOMRAM
   635   000001                     __pcstackCOMRAM:
   636                           	callstack 0
   637   000001                     ??_mux_display:
   638   000001                     ?___wmul:
   639                           	callstack 0
   640   000001                     ?i2___lwdiv:
   641                           	callstack 0
   642   000001                     ?i2___lwmod:
   643                           	callstack 0
   644   000001                     ?i2___xxtofl:
   645                           	callstack 0
   646   000001                     select_channel@channel:
   647                           	callstack 0
   648   000001                     i2lcd_wr@val:
   649                           	callstack 0
   650   000001                     f_pwm@duty:
   651                           	callstack 0
   652   000001                     ___wmul@multiplier:
   653                           	callstack 0
   654   000001                     i2___lwdiv@dividend:
   655                           	callstack 0
   656   000001                     i2___lwmod@dividend:
   657                           	callstack 0
   658   000001                     i2___xxtofl@val:
   659                           	callstack 0
   660                           
   661                           ; 4 bytes @ 0x0
   662   000001                     	ds	1
   663   000002                     ??_ADC_maq:
   664   000002                     lcd_dat@val:
   665                           	callstack 0
   666   000002                     i2lcd_cmd@val:
   667                           	callstack 0
   668                           
   669                           ; 1 bytes @ 0x1
   670   000002                     	ds	1
   671   000003                     ??_f_pwm:
   672   000003                     lcd_str@str:
   673                           	callstack 0
   674   000003                     ___wmul@multiplicand:
   675                           	callstack 0
   676   000003                     i2___lwdiv@divisor:
   677                           	callstack 0
   678   000003                     i2___lwmod@divisor:
   679                           	callstack 0
   680                           
   681                           ; 2 bytes @ 0x2
   682   000003                     	ds	2
   683   000005                     ??_lcd_str:
   684   000005                     ??i2___xxtofl:
   685   000005                     i2___lwmod@counter:
   686                           	callstack 0
   687   000005                     ___wmul@product:
   688                           	callstack 0
   689   000005                     i2___lwdiv@quotient:
   690                           	callstack 0
   691                           
   692                           ; 2 bytes @ 0x4
   693   000005                     	ds	2
   694   000007                     lcd_str@i:
   695                           	callstack 0
   696   000007                     i2___lwdiv@counter:
   697                           	callstack 0
   698                           
   699                           ; 1 bytes @ 0x6
   700   000007                     	ds	1
   701   000008                     
   702                           ; 1 bytes @ 0x7
   703   000008                     	ds	1
   704   000009                     i2___xxtofl@sign:
   705                           	callstack 0
   706                           
   707                           ; 1 bytes @ 0x8
   708   000009                     	ds	1
   709   00000A                     i2___xxtofl@exp:
   710                           	callstack 0
   711                           
   712                           ; 1 bytes @ 0x9
   713   00000A                     	ds	1
   714   00000B                     i2___xxtofl@arg:
   715                           	callstack 0
   716                           
   717                           ; 4 bytes @ 0xA
   718   00000B                     	ds	4
   719   00000F                     ?i2___flmul:
   720                           	callstack 0
   721   00000F                     i2___flmul@b:
   722                           	callstack 0
   723                           
   724                           ; 4 bytes @ 0xE
   725   00000F                     	ds	4
   726   000013                     i2___flmul@a:
   727                           	callstack 0
   728                           
   729                           ; 4 bytes @ 0x12
   730   000013                     	ds	4
   731   000017                     ??i2___flmul:
   732                           
   733                           ; 1 bytes @ 0x16
   734   000017                     	ds	4
   735   00001B                     i2___flmul@sign:
   736                           	callstack 0
   737                           
   738                           ; 1 bytes @ 0x1A
   739   00001B                     	ds	1
   740   00001C                     i2___flmul@grs:
   741                           	callstack 0
   742                           
   743                           ; 4 bytes @ 0x1B
   744   00001C                     	ds	4
   745   000020                     i2___flmul@aexp:
   746                           	callstack 0
   747                           
   748                           ; 1 bytes @ 0x1F
   749   000020                     	ds	1
   750   000021                     i2___flmul@bexp:
   751                           	callstack 0
   752                           
   753                           ; 1 bytes @ 0x20
   754   000021                     	ds	1
   755   000022                     i2___flmul@prod:
   756                           	callstack 0
   757                           
   758                           ; 4 bytes @ 0x21
   759   000022                     	ds	4
   760   000026                     i2___flmul@temp:
   761                           	callstack 0
   762                           
   763                           ; 2 bytes @ 0x25
   764   000026                     	ds	2
   765   000028                     ?i2___fldiv:
   766                           	callstack 0
   767   000028                     i2___fldiv@b:
   768                           	callstack 0
   769                           
   770                           ; 4 bytes @ 0x27
   771   000028                     	ds	4
   772   00002C                     i2___fldiv@a:
   773                           	callstack 0
   774                           
   775                           ; 4 bytes @ 0x2B
   776   00002C                     	ds	4
   777   000030                     ??i2___fldiv:
   778                           
   779                           ; 1 bytes @ 0x2F
   780   000030                     	ds	4
   781   000034                     i2___fldiv@rem:
   782                           	callstack 0
   783                           
   784                           ; 4 bytes @ 0x33
   785   000034                     	ds	4
   786   000038                     i2___fldiv@sign:
   787                           	callstack 0
   788                           
   789                           ; 1 bytes @ 0x37
   790   000038                     	ds	1
   791   000039                     i2___fldiv@new_exp:
   792                           	callstack 0
   793                           
   794                           ; 2 bytes @ 0x38
   795   000039                     	ds	2
   796   00003B                     i2___fldiv@grs:
   797                           	callstack 0
   798                           
   799                           ; 4 bytes @ 0x3A
   800   00003B                     	ds	4
   801   00003F                     i2___fldiv@bexp:
   802                           	callstack 0
   803                           
   804                           ; 1 bytes @ 0x3E
   805   00003F                     	ds	1
   806   000040                     i2___fldiv@aexp:
   807                           	callstack 0
   808                           
   809                           ; 1 bytes @ 0x3F
   810   000040                     	ds	1
   811   000041                     ?i2___fltol:
   812                           	callstack 0
   813   000041                     i2___fltol@f1:
   814                           	callstack 0
   815                           
   816                           ; 4 bytes @ 0x40
   817   000041                     	ds	4
   818   000045                     ??i2___fltol:
   819                           
   820                           ; 1 bytes @ 0x44
   821   000045                     	ds	4
   822   000049                     i2___fltol@sign1:
   823                           	callstack 0
   824                           
   825                           ; 1 bytes @ 0x48
   826   000049                     	ds	1
   827   00004A                     i2___fltol@exp1:
   828                           	callstack 0
   829                           
   830                           ; 1 bytes @ 0x49
   831   00004A                     	ds	1
   832   00004B                     ??_Read_AD:
   833                           
   834                           ; 1 bytes @ 0x4A
   835   00004B                     	ds	4
   836   00004F                     ??_f_interrupt_high:
   837                           
   838                           ; 1 bytes @ 0x4E
   839   00004F                     	ds	8
   840                           
   841 ;;
   842 ;;Main: autosize = 0, tempsize = 0, incstack = 0, save=0
   843 ;;
   844 ;; *************** function _main *****************
   845 ;; Defined at:
   846 ;;		line 30 in file "main.c"
   847 ;; Parameters:    Size  Location     Type
   848 ;;		None
   849 ;; Auto vars:     Size  Location     Type
   850 ;;		None
   851 ;; Return value:  Size  Location     Type
   852 ;;                  2  346[None  ] int 
   853 ;; Registers used:
   854 ;;		wreg, status,2, status,0, prodl, prodh, cstack
   855 ;; Tracked objects:
   856 ;;		On entry : 0/0
   857 ;;		On exit  : 0/0
   858 ;;		Unchanged: 0/0
   859 ;; Data sizes:     COMRAM   BANK0   BANK1   BANK2   BANK3   BANK4   BANK5
   860 ;;      Params:         0       0       0       0       0       0       0
   861 ;;      Locals:         0       0       0       0       0       0       0
   862 ;;      Temps:          0       0       0       0       0       0       0
   863 ;;      Totals:         0       0       0       0       0       0       0
   864 ;;Total ram usage:        0 bytes
   865 ;; Hardware stack levels required when called: 10
   866 ;; This function calls:
   867 ;;		_loop
   868 ;;		_setup
   869 ;; This function is called by:
   870 ;;		Startup code after reset
   871 ;; This function uses a non-reentrant model
   872 ;;
   873                           
   874                           	psect	text0
   875   002776                     __ptext0:
   876                           	callstack 0
   877   002776                     _main:
   878                           	callstack 21
   879   002776                     
   880                           ;main.c: 33:    setup();
   881   002776  ECD9  F012         	call	_setup	;wreg free
   882   00277A                     l3534:
   883   00277A  ECC1  F00E         	call	_loop	;wreg free
   884   00277E  EFBD  F013         	goto	l3534
   885   002782  EF07  F000         	goto	start
   886   002786                     __end_of_main:
   887                           	callstack 0
   888                           
   889 ;; *************** function _setup *****************
   890 ;; Defined at:
   891 ;;		line 14 in file "IO.c"
   892 ;; Parameters:    Size  Location     Type
   893 ;;		None
   894 ;; Auto vars:     Size  Location     Type
   895 ;;		None
   896 ;; Return value:  Size  Location     Type
   897 ;;                  1    wreg      void 
   898 ;; Registers used:
   899 ;;		wreg, status,2, cstack
   900 ;; Tracked objects:
   901 ;;		On entry : 0/0
   902 ;;		On exit  : 0/0
   903 ;;		Unchanged: 0/0
   904 ;; Data sizes:     COMRAM   BANK0   BANK1   BANK2   BANK3   BANK4   BANK5
   905 ;;      Params:         0       0       0       0       0       0       0
   906 ;;      Locals:         0       0       0       0       0       0       0
   907 ;;      Temps:          0       0       0       0       0       0       0
   908 ;;      Totals:         0       0       0       0       0       0       0
   909 ;;Total ram usage:        0 bytes
   910 ;; Hardware stack levels used: 1
   911 ;; Hardware stack levels required when called: 9
   912 ;; This function calls:
   913 ;;		_AD_init
   914 ;;		_disable_interrupts
   915 ;;		_enable_interrupts
   916 ;;		_interrupt_init
   917 ;;		_lcd_init
   918 ;;		_setup_io
   919 ;;		_start_AD_conversion
   920 ;; This function is called by:
   921 ;;		_main
   922 ;; This function uses a non-reentrant model
   923 ;;
   924                           
   925                           	psect	text1
   926   0025B2                     __ptext1:
   927                           	callstack 0
   928   0025B2                     _setup:
   929                           	callstack 21
   930   0025B2                     
   931                           ;IO.c: 16:     disable_interrupts();
   932   0025B2  ECDF  F013         	call	_disable_interrupts	;wreg free
   933   0025B6                     
   934                           ;IO.c: 17:     setup_io();
   935   0025B6  EC26  F013         	call	_setup_io	;wreg free
   936   0025BA                     
   937                           ;IO.c: 18:     interrupt_init();
   938   0025BA  ECA5  F013         	call	_interrupt_init	;wreg free
   939   0025BE                     
   940                           ;IO.c: 19:     T2CON = 0b00000111;
   941   0025BE  0E07               	movlw	7
   942   0025C0  6ECA               	movwf	202,c	;volatile
   943   0025C2                     
   944                           ;IO.c: 20:     PR2 = 155;
   945   0025C2  0E9B               	movlw	155
   946   0025C4  6ECB               	movwf	203,c	;volatile
   947   0025C6                     
   948                           ;IO.c: 21:     CCP1CON = 0b00001100;
   949   0025C6  0E0C               	movlw	12
   950   0025C8  6EBD               	movwf	189,c	;volatile
   951                           
   952                           ;IO.c: 22:     AD_init();
   953   0025CA  ECC3  F013         	call	_AD_init	;wreg free
   954   0025CE                     
   955                           ;IO.c: 23:     LATA2 = 1, LATA3 = 1, LATA4 = 1, LATA5 = 1;
   956   0025CE  8489               	bsf	3977,2,c	;volatile
   957   0025D0  8689               	bsf	3977,3,c	;volatile
   958   0025D2  8889               	bsf	3977,4,c	;volatile
   959   0025D4  8A89               	bsf	3977,5,c	;volatile
   960                           
   961                           ;IO.c: 24:     lcd_init();
   962   0025D6  ECD8  F011         	call	_lcd_init	;wreg free
   963   0025DA                     
   964                           ;IO.c: 25:     display1 = 0;
   965   0025DA  0E00               	movlw	0
   966   0025DC  6E6F               	movwf	_display1^0,c
   967   0025DE                     
   968                           ;IO.c: 26:     display2 = 0;
   969   0025DE  0E00               	movlw	0
   970   0025E0  0100               	movlb	0	; () banked
   971   0025E2  6FFE               	movwf	_display2& (0+255),b
   972   0025E4                     
   973                           ; BSR set to: 0
   974                           ;IO.c: 27:     display3 = 0;
   975   0025E4  0E00               	movlw	0
   976   0025E6  6FFD               	movwf	_display3& (0+255),b
   977   0025E8                     
   978                           ; BSR set to: 0
   979                           ;IO.c: 28:     display4 = 0;
   980   0025E8  0E00               	movlw	0
   981   0025EA  6FFC               	movwf	_display4& (0+255),b
   982   0025EC                     
   983                           ; BSR set to: 0
   984                           ;IO.c: 29:     enable_interrupts();
   985   0025EC  ECD6  F013         	call	_enable_interrupts	;wreg free
   986   0025F0                     
   987                           ;IO.c: 30:     start_AD_conversion();
   988   0025F0  ECE7  F013         	call	_start_AD_conversion	;wreg free
   989   0025F4  0012               	return		;funcret
   990   0025F6                     __end_of_setup:
   991                           	callstack 0
   992                           
   993 ;; *************** function _start_AD_conversion *****************
   994 ;; Defined at:
   995 ;;		line 19 in file "ADC.c"
   996 ;; Parameters:    Size  Location     Type
   997 ;;		None
   998 ;; Auto vars:     Size  Location     Type
   999 ;;		None
  1000 ;; Return value:  Size  Location     Type
  1001 ;;                  1    wreg      void 
  1002 ;; Registers used:
  1003 ;;		None
  1004 ;; Tracked objects:
  1005 ;;		On entry : 0/0
  1006 ;;		On exit  : 0/0
  1007 ;;		Unchanged: 0/0
  1008 ;; Data sizes:     COMRAM   BANK0   BANK1   BANK2   BANK3   BANK4   BANK5
  1009 ;;      Params:         0       0       0       0       0       0       0
  1010 ;;      Locals:         0       0       0       0       0       0       0
  1011 ;;      Temps:          0       0       0       0       0       0       0
  1012 ;;      Totals:         0       0       0       0       0       0       0
  1013 ;;Total ram usage:        0 bytes
  1014 ;; Hardware stack levels used: 1
  1015 ;; Hardware stack levels required when called: 6
  1016 ;; This function calls:
  1017 ;;		Nothing
  1018 ;; This function is called by:
  1019 ;;		_setup
  1020 ;; This function uses a non-reentrant model
  1021 ;;
  1022                           
  1023                           	psect	text2
  1024   0027CE                     __ptext2:
  1025                           	callstack 0
  1026   0027CE                     _start_AD_conversion:
  1027                           	callstack 23
  1028   0027CE                     
  1029                           ;ADC.c: 21:     GO = 1;
  1030   0027CE  82C2               	bsf	4034,1,c	;volatile
  1031   0027D0  0012               	return		;funcret
  1032   0027D2                     __end_of_start_AD_conversion:
  1033                           	callstack 0
  1034                           
  1035 ;; *************** function _setup_io *****************
  1036 ;; Defined at:
  1037 ;;		line 34 in file "IO.c"
  1038 ;; Parameters:    Size  Location     Type
  1039 ;;		None
  1040 ;; Auto vars:     Size  Location     Type
  1041 ;;		None
  1042 ;; Return value:  Size  Location     Type
  1043 ;;                  1    wreg      void 
  1044 ;; Registers used:
  1045 ;;		wreg, status,2
  1046 ;; Tracked objects:
  1047 ;;		On entry : 0/0
  1048 ;;		On exit  : 0/0
  1049 ;;		Unchanged: 0/0
  1050 ;; Data sizes:     COMRAM   BANK0   BANK1   BANK2   BANK3   BANK4   BANK5
  1051 ;;      Params:         0       0       0       0       0       0       0
  1052 ;;      Locals:         0       0       0       0       0       0       0
  1053 ;;      Temps:          0       0       0       0       0       0       0
  1054 ;;      Totals:         0       0       0       0       0       0       0
  1055 ;;Total ram usage:        0 bytes
  1056 ;; Hardware stack levels used: 1
  1057 ;; Hardware stack levels required when called: 6
  1058 ;; This function calls:
  1059 ;;		Nothing
  1060 ;; This function is called by:
  1061 ;;		_setup
  1062 ;; This function uses a non-reentrant model
  1063 ;;
  1064                           
  1065                           	psect	text3
  1066   00264C                     __ptext3:
  1067                           	callstack 0
  1068   00264C                     _setup_io:
  1069                           	callstack 23
  1070   00264C                     
  1071                           ;IO.c: 36:     TRISA = 0b11000011;
  1072   00264C  0EC3               	movlw	195
  1073   00264E  6E92               	movwf	146,c	;volatile
  1074                           
  1075                           ;IO.c: 37:     TRISB = 0b00111111;
  1076   002650  0E3F               	movlw	63
  1077   002652  6E93               	movwf	147,c	;volatile
  1078                           
  1079                           ;IO.c: 38:     TRISC = 0b11011011;
  1080   002654  0EDB               	movlw	219
  1081   002656  6E94               	movwf	148,c	;volatile
  1082                           
  1083                           ;IO.c: 39:     TRISD = 0b00000000;
  1084   002658  0E00               	movlw	0
  1085   00265A  6E95               	movwf	149,c	;volatile
  1086                           
  1087                           ;IO.c: 40:     TRISE = 0b11111000;
  1088   00265C  0EF8               	movlw	248
  1089   00265E  6E96               	movwf	150,c	;volatile
  1090                           
  1091                           ;IO.c: 41:     LATA = 0b00000000;
  1092   002660  0E00               	movlw	0
  1093   002662  6E89               	movwf	137,c	;volatile
  1094                           
  1095                           ;IO.c: 42:     LATB = 0b00000000;
  1096   002664  0E00               	movlw	0
  1097   002666  6E8A               	movwf	138,c	;volatile
  1098                           
  1099                           ;IO.c: 43:     LATC = 0b00100000;
  1100   002668  0E20               	movlw	32
  1101   00266A  6E8B               	movwf	139,c	;volatile
  1102                           
  1103                           ;IO.c: 44:     LATD = 0b00000000;
  1104   00266C  0E00               	movlw	0
  1105   00266E  6E8C               	movwf	140,c	;volatile
  1106   002670  0012               	return		;funcret
  1107   002672                     __end_of_setup_io:
  1108                           	callstack 0
  1109                           
  1110 ;; *************** function _lcd_init *****************
  1111 ;; Defined at:
  1112 ;;		line 56 in file "lcd.c"
  1113 ;; Parameters:    Size  Location     Type
  1114 ;;		None
  1115 ;; Auto vars:     Size  Location     Type
  1116 ;;		None
  1117 ;; Return value:  Size  Location     Type
  1118 ;;                  1    wreg      void 
  1119 ;; Registers used:
  1120 ;;		wreg, status,2, cstack
  1121 ;; Tracked objects:
  1122 ;;		On entry : 0/0
  1123 ;;		On exit  : 0/0
  1124 ;;		Unchanged: 0/0
  1125 ;; Data sizes:     COMRAM   BANK0   BANK1   BANK2   BANK3   BANK4   BANK5
  1126 ;;      Params:         0       0       0       0       0       0       0
  1127 ;;      Locals:         0       0       0       0       0       0       0
  1128 ;;      Temps:          0       1       0       0       0       0       0
  1129 ;;      Totals:         0       1       0       0       0       0       0
  1130 ;;Total ram usage:        1 bytes
  1131 ;; Hardware stack levels used: 1
  1132 ;; Hardware stack levels required when called: 8
  1133 ;; This function calls:
  1134 ;;		_lcd_cmd
  1135 ;; This function is called by:
  1136 ;;		_setup
  1137 ;; This function uses a non-reentrant model
  1138 ;;
  1139                           
  1140                           	psect	text4
  1141   0023B0                     __ptext4:
  1142                           	callstack 0
  1143   0023B0                     _lcd_init:
  1144                           	callstack 21
  1145   0023B0                     
  1146                           ;lcd.c: 58:  PORTEbits.RE1=0;
  1147   0023B0  9284               	bcf	132,1,c	;volatile
  1148                           
  1149                           ;lcd.c: 59:  PORTEbits.RE2=0;
  1150   0023B2  9484               	bcf	132,2,c	;volatile
  1151   0023B4                     
  1152                           ;lcd.c: 60:     _delay((unsigned long)((20)*(10000000/4000.0)));
  1153   0023B4  0E41               	movlw	65
  1154   0023B6  0100               	movlb	0	; () banked
  1155   0023B8  6F82               	movwf	??_lcd_init& (0+255),b
  1156   0023BA  0EEE               	movlw	238
  1157   0023BC                     u3227:
  1158   0023BC  2EE8               	decfsz	wreg,f,c
  1159   0023BE  D7FE               	bra	u3227
  1160   0023C0  2F82               	decfsz	??_lcd_init& (0+255),f,b
  1161   0023C2  D7FC               	bra	u3227
  1162   0023C4  F000               	nop	
  1163   0023C6                     
  1164                           ;lcd.c: 61:  PORTEbits.RE1=1;
  1165   0023C6  8284               	bsf	132,1,c	;volatile
  1166   0023C8                     
  1167                           ;lcd.c: 63:  lcd_cmd(0x38);
  1168   0023C8  0E38               	movlw	56
  1169   0023CA  EC39  F013         	call	_lcd_cmd
  1170   0023CE                     
  1171                           ;lcd.c: 64:  _delay((unsigned long)((5)*(10000000/4000.0)));
  1172   0023CE  0E11               	movlw	17
  1173   0023D0  0100               	movlb	0	; () banked
  1174   0023D2  6F82               	movwf	??_lcd_init& (0+255),b
  1175   0023D4  0E3A               	movlw	58
  1176   0023D6                     u3237:
  1177   0023D6  2EE8               	decfsz	wreg,f,c
  1178   0023D8  D7FE               	bra	u3237
  1179   0023DA  2F82               	decfsz	??_lcd_init& (0+255),f,b
  1180   0023DC  D7FC               	bra	u3237
  1181   0023DE  F000               	nop	
  1182                           
  1183                           ;lcd.c: 65:  lcd_cmd(0x38);
  1184   0023E0  0E38               	movlw	56
  1185   0023E2  EC39  F013         	call	_lcd_cmd
  1186   0023E6                     
  1187                           ;lcd.c: 66:     _delay((unsigned long)((1)*(10000000/4000.0)));
  1188   0023E6  0E04               	movlw	4
  1189   0023E8  0100               	movlb	0	; () banked
  1190   0023EA  6F82               	movwf	??_lcd_init& (0+255),b
  1191   0023EC  0E3D               	movlw	61
  1192   0023EE                     u3247:
  1193   0023EE  2EE8               	decfsz	wreg,f,c
  1194   0023F0  D7FE               	bra	u3247
  1195   0023F2  2F82               	decfsz	??_lcd_init& (0+255),f,b
  1196   0023F4  D7FC               	bra	u3247
  1197   0023F6  D000               	nop2	
  1198   0023F8                     
  1199                           ;lcd.c: 67:  lcd_cmd(0x38);
  1200   0023F8  0E38               	movlw	56
  1201   0023FA  EC39  F013         	call	_lcd_cmd
  1202   0023FE                     
  1203                           ;lcd.c: 68:  lcd_cmd(0x08);
  1204   0023FE  0E08               	movlw	8
  1205   002400  EC39  F013         	call	_lcd_cmd
  1206   002404                     
  1207                           ;lcd.c: 69:  lcd_cmd(0x0F);
  1208   002404  0E0F               	movlw	15
  1209   002406  EC39  F013         	call	_lcd_cmd
  1210   00240A                     
  1211                           ;lcd.c: 70:  lcd_cmd(0x01);
  1212   00240A  0E01               	movlw	1
  1213   00240C  EC39  F013         	call	_lcd_cmd
  1214   002410                     
  1215                           ;lcd.c: 71:  lcd_cmd(0x38);
  1216   002410  0E38               	movlw	56
  1217   002412  EC39  F013         	call	_lcd_cmd
  1218   002416                     
  1219                           ;lcd.c: 72:     lcd_cmd(0x80);
  1220   002416  0E80               	movlw	128
  1221   002418  EC39  F013         	call	_lcd_cmd
  1222   00241C                     
  1223                           ;lcd.c: 73:     lcd_cmd(0x0C);
  1224   00241C  0E0C               	movlw	12
  1225   00241E  EC39  F013         	call	_lcd_cmd
  1226   002422  0012               	return		;funcret
  1227   002424                     __end_of_lcd_init:
  1228                           	callstack 0
  1229                           
  1230 ;; *************** function _lcd_cmd *****************
  1231 ;; Defined at:
  1232 ;;		line 34 in file "lcd.c"
  1233 ;; Parameters:    Size  Location     Type
  1234 ;;  val             1    wreg     unsigned char 
  1235 ;; Auto vars:     Size  Location     Type
  1236 ;;  val             1    1[BANK0 ] unsigned char 
  1237 ;; Return value:  Size  Location     Type
  1238 ;;                  1    wreg      void 
  1239 ;; Registers used:
  1240 ;;		wreg, status,2, cstack
  1241 ;; Tracked objects:
  1242 ;;		On entry : 0/0
  1243 ;;		On exit  : 0/0
  1244 ;;		Unchanged: 0/0
  1245 ;; Data sizes:     COMRAM   BANK0   BANK1   BANK2   BANK3   BANK4   BANK5
  1246 ;;      Params:         0       0       0       0       0       0       0
  1247 ;;      Locals:         0       1       0       0       0       0       0
  1248 ;;      Temps:          0       0       0       0       0       0       0
  1249 ;;      Totals:         0       1       0       0       0       0       0
  1250 ;;Total ram usage:        1 bytes
  1251 ;; Hardware stack levels used: 1
  1252 ;; Hardware stack levels required when called: 7
  1253 ;; This function calls:
  1254 ;;		_lcd_wr
  1255 ;; This function is called by:
  1256 ;;		_lcd_init
  1257 ;; This function uses a non-reentrant model
  1258 ;;
  1259                           
  1260                           	psect	text5
  1261   002672                     __ptext5:
  1262                           	callstack 0
  1263   002672                     _lcd_cmd:
  1264                           	callstack 21
  1265                           
  1266                           ;incstack = 0
  1267                           ;lcd_cmd@val stored from wreg
  1268   002672  0100               	movlb	0	; () banked
  1269   002674  6F81               	movwf	lcd_cmd@val& (0+255),b
  1270   002676                     
  1271                           ;lcd.c: 34: void lcd_cmd(unsigned char val);lcd.c: 35: {;lcd.c: 36:  PORTEbits.RE1=1;
  1272   002676  8284               	bsf	132,1,c	;volatile
  1273   002678                     
  1274                           ;lcd.c: 37:     lcd_wr(val);
  1275   002678  0100               	movlb	0	; () banked
  1276   00267A  5181               	movf	lcd_cmd@val& (0+255),w,b
  1277   00267C  ECD1  F013         	call	_lcd_wr
  1278   002680                     
  1279                           ;lcd.c: 38:     PORTEbits.RE2=0;
  1280   002680  9484               	bcf	132,2,c	;volatile
  1281   002682                     
  1282                           ;lcd.c: 39:     _delay((unsigned long)((40)*(10000000/4000000.0)));
  1283   002682  0E21               	movlw	33
  1284   002684                     u3257:
  1285   002684  2EE8               	decfsz	wreg,f,c
  1286   002686  D7FE               	bra	u3257
  1287   002688  F000               	nop	
  1288   00268A                     
  1289                           ;lcd.c: 40:     PORTEbits.RE1=0;
  1290   00268A  9284               	bcf	132,1,c	;volatile
  1291   00268C                     
  1292                           ;lcd.c: 41:     _delay((unsigned long)((40)*(10000000/4000000.0)));
  1293   00268C  0E21               	movlw	33
  1294   00268E                     u3267:
  1295   00268E  2EE8               	decfsz	wreg,f,c
  1296   002690  D7FE               	bra	u3267
  1297   002692  F000               	nop	
  1298   002694                     
  1299                           ;lcd.c: 42:  PORTEbits.RE1=1;
  1300   002694  8284               	bsf	132,1,c	;volatile
  1301   002696  0012               	return		;funcret
  1302   002698                     __end_of_lcd_cmd:
  1303                           	callstack 0
  1304                           
  1305 ;; *************** function _lcd_wr *****************
  1306 ;; Defined at:
  1307 ;;		line 29 in file "lcd.c"
  1308 ;; Parameters:    Size  Location     Type
  1309 ;;  val             1    wreg     unsigned char 
  1310 ;; Auto vars:     Size  Location     Type
  1311 ;;  val             1    0[BANK0 ] unsigned char 
  1312 ;; Return value:  Size  Location     Type
  1313 ;;                  1    wreg      void 
  1314 ;; Registers used:
  1315 ;;		wreg
  1316 ;; Tracked objects:
  1317 ;;		On entry : 0/0
  1318 ;;		On exit  : 0/0
  1319 ;;		Unchanged: 0/0
  1320 ;; Data sizes:     COMRAM   BANK0   BANK1   BANK2   BANK3   BANK4   BANK5
  1321 ;;      Params:         0       0       0       0       0       0       0
  1322 ;;      Locals:         0       1       0       0       0       0       0
  1323 ;;      Temps:          0       0       0       0       0       0       0
  1324 ;;      Totals:         0       1       0       0       0       0       0
  1325 ;;Total ram usage:        1 bytes
  1326 ;; Hardware stack levels used: 1
  1327 ;; Hardware stack levels required when called: 6
  1328 ;; This function calls:
  1329 ;;		Nothing
  1330 ;; This function is called by:
  1331 ;;		_lcd_cmd
  1332 ;; This function uses a non-reentrant model
  1333 ;;
  1334                           
  1335                           	psect	text6
  1336   0027A2                     __ptext6:
  1337                           	callstack 0
  1338   0027A2                     _lcd_wr:
  1339                           	callstack 21
  1340                           
  1341                           ;incstack = 0
  1342                           ;lcd_wr@val stored from wreg
  1343   0027A2  0100               	movlb	0	; () banked
  1344   0027A4  6F80               	movwf	lcd_wr@val& (0+255),b
  1345   0027A6                     
  1346                           ;lcd.c: 29: void lcd_wr(unsigned char val);lcd.c: 30: {;lcd.c: 31:   PORTD=val;
  1347   0027A6  C080  FF83         	movff	lcd_wr@val,3971	;volatile
  1348   0027AA  0012               	return		;funcret
  1349   0027AC                     __end_of_lcd_wr:
  1350                           	callstack 0
  1351                           
  1352 ;; *************** function _interrupt_init *****************
  1353 ;; Defined at:
  1354 ;;		line 74 in file "Interrupt.c"
  1355 ;; Parameters:    Size  Location     Type
  1356 ;;		None
  1357 ;; Auto vars:     Size  Location     Type
  1358 ;;		None
  1359 ;; Return value:  Size  Location     Type
  1360 ;;                  1    wreg      void 
  1361 ;; Registers used:
  1362 ;;		wreg, status,2
  1363 ;; Tracked objects:
  1364 ;;		On entry : 0/0
  1365 ;;		On exit  : 0/0
  1366 ;;		Unchanged: 0/0
  1367 ;; Data sizes:     COMRAM   BANK0   BANK1   BANK2   BANK3   BANK4   BANK5
  1368 ;;      Params:         0       0       0       0       0       0       0
  1369 ;;      Locals:         0       0       0       0       0       0       0
  1370 ;;      Temps:          0       0       0       0       0       0       0
  1371 ;;      Totals:         0       0       0       0       0       0       0
  1372 ;;Total ram usage:        0 bytes
  1373 ;; Hardware stack levels used: 1
  1374 ;; Hardware stack levels required when called: 6
  1375 ;; This function calls:
  1376 ;;		Nothing
  1377 ;; This function is called by:
  1378 ;;		_setup
  1379 ;; This function uses a non-reentrant model
  1380 ;;
  1381                           
  1382                           	psect	text7
  1383   00274A                     __ptext7:
  1384                           	callstack 0
  1385   00274A                     _interrupt_init:
  1386                           	callstack 23
  1387   00274A                     
  1388                           ;Interrupt.c: 76:     INTCON = 0b10010000;
  1389   00274A  0E90               	movlw	144
  1390   00274C  6EF2               	movwf	242,c	;volatile
  1391                           
  1392                           ;Interrupt.c: 77:     INTCON2 = 0b00000101;
  1393   00274E  0E05               	movlw	5
  1394   002750  6EF1               	movwf	241,c	;volatile
  1395                           
  1396                           ;Interrupt.c: 78:     INTCON3 = 0b11011000;
  1397   002752  0ED8               	movlw	216
  1398   002754  6EF0               	movwf	240,c	;volatile
  1399                           
  1400                           ;Interrupt.c: 79:     T0CON = 0b11001001;
  1401   002756  0EC9               	movlw	201
  1402   002758  6ED5               	movwf	213,c	;volatile
  1403                           
  1404                           ;Interrupt.c: 85:     TMR0 = 0x06;
  1405   00275A  0E00               	movlw	0
  1406   00275C  6ED7               	movwf	215,c	;volatile
  1407   00275E  0E06               	movlw	6
  1408   002760  6ED6               	movwf	214,c	;volatile
  1409   002762  0012               	return		;funcret
  1410   002764                     __end_of_interrupt_init:
  1411                           	callstack 0
  1412                           
  1413 ;; *************** function _enable_interrupts *****************
  1414 ;; Defined at:
  1415 ;;		line 67 in file "Interrupt.c"
  1416 ;; Parameters:    Size  Location     Type
  1417 ;;		None
  1418 ;; Auto vars:     Size  Location     Type
  1419 ;;		None
  1420 ;; Return value:  Size  Location     Type
  1421 ;;                  1    wreg      void 
  1422 ;; Registers used:
  1423 ;;		None
  1424 ;; Tracked objects:
  1425 ;;		On entry : 0/0
  1426 ;;		On exit  : 0/0
  1427 ;;		Unchanged: 0/0
  1428 ;; Data sizes:     COMRAM   BANK0   BANK1   BANK2   BANK3   BANK4   BANK5
  1429 ;;      Params:         0       0       0       0       0       0       0
  1430 ;;      Locals:         0       0       0       0       0       0       0
  1431 ;;      Temps:          0       0       0       0       0       0       0
  1432 ;;      Totals:         0       0       0       0       0       0       0
  1433 ;;Total ram usage:        0 bytes
  1434 ;; Hardware stack levels used: 1
  1435 ;; Hardware stack levels required when called: 6
  1436 ;; This function calls:
  1437 ;;		Nothing
  1438 ;; This function is called by:
  1439 ;;		_setup
  1440 ;; This function uses a non-reentrant model
  1441 ;;
  1442                           
  1443                           	psect	text8
  1444   0027AC                     __ptext8:
  1445                           	callstack 0
  1446   0027AC                     _enable_interrupts:
  1447                           	callstack 23
  1448   0027AC                     
  1449                           ;Interrupt.c: 68:     TMR0IE = 1;
  1450   0027AC  8AF2               	bsf	4082,5,c	;volatile
  1451                           
  1452                           ;Interrupt.c: 69:     ADIE = 1;
  1453   0027AE  8C9D               	bsf	3997,6,c	;volatile
  1454                           
  1455                           ;Interrupt.c: 70:     PEIE = 0;
  1456   0027B0  9CF2               	bcf	4082,6,c	;volatile
  1457                           
  1458                           ;Interrupt.c: 71:     GIE = 1;
  1459   0027B2  8EF2               	bsf	4082,7,c	;volatile
  1460   0027B4  0012               	return		;funcret
  1461   0027B6                     __end_of_enable_interrupts:
  1462                           	callstack 0
  1463                           
  1464 ;; *************** function _disable_interrupts *****************
  1465 ;; Defined at:
  1466 ;;		line 61 in file "Interrupt.c"
  1467 ;; Parameters:    Size  Location     Type
  1468 ;;		None
  1469 ;; Auto vars:     Size  Location     Type
  1470 ;;		None
  1471 ;; Return value:  Size  Location     Type
  1472 ;;                  1    wreg      void 
  1473 ;; Registers used:
  1474 ;;		None
  1475 ;; Tracked objects:
  1476 ;;		On entry : 0/0
  1477 ;;		On exit  : 0/0
  1478 ;;		Unchanged: 0/0
  1479 ;; Data sizes:     COMRAM   BANK0   BANK1   BANK2   BANK3   BANK4   BANK5
  1480 ;;      Params:         0       0       0       0       0       0       0
  1481 ;;      Locals:         0       0       0       0       0       0       0
  1482 ;;      Temps:          0       0       0       0       0       0       0
  1483 ;;      Totals:         0       0       0       0       0       0       0
  1484 ;;Total ram usage:        0 bytes
  1485 ;; Hardware stack levels used: 1
  1486 ;; Hardware stack levels required when called: 6
  1487 ;; This function calls:
  1488 ;;		Nothing
  1489 ;; This function is called by:
  1490 ;;		_setup
  1491 ;; This function uses a non-reentrant model
  1492 ;;
  1493                           
  1494                           	psect	text9
  1495   0027BE                     __ptext9:
  1496                           	callstack 0
  1497   0027BE                     _disable_interrupts:
  1498                           	callstack 23
  1499   0027BE                     
  1500                           ;Interrupt.c: 62:     IPEN = 0;
  1501   0027BE  9ED0               	bcf	4048,7,c	;volatile
  1502                           
  1503                           ;Interrupt.c: 63:     GIE = 0;
  1504   0027C0  9EF2               	bcf	4082,7,c	;volatile
  1505                           
  1506                           ;Interrupt.c: 64:     PEIE = 0;
  1507   0027C2  9CF2               	bcf	4082,6,c	;volatile
  1508   0027C4  0012               	return		;funcret
  1509   0027C6                     __end_of_disable_interrupts:
  1510                           	callstack 0
  1511                           
  1512 ;; *************** function _AD_init *****************
  1513 ;; Defined at:
  1514 ;;		line 12 in file "ADC.c"
  1515 ;; Parameters:    Size  Location     Type
  1516 ;;		None
  1517 ;; Auto vars:     Size  Location     Type
  1518 ;;		None
  1519 ;; Return value:  Size  Location     Type
  1520 ;;                  1    wreg      void 
  1521 ;; Registers used:
  1522 ;;		wreg, status,2
  1523 ;; Tracked objects:
  1524 ;;		On entry : 0/0
  1525 ;;		On exit  : 0/0
  1526 ;;		Unchanged: 0/0
  1527 ;; Data sizes:     COMRAM   BANK0   BANK1   BANK2   BANK3   BANK4   BANK5
  1528 ;;      Params:         0       0       0       0       0       0       0
  1529 ;;      Locals:         0       0       0       0       0       0       0
  1530 ;;      Temps:          0       0       0       0       0       0       0
  1531 ;;      Totals:         0       0       0       0       0       0       0
  1532 ;;Total ram usage:        0 bytes
  1533 ;; Hardware stack levels used: 1
  1534 ;; Hardware stack levels required when called: 6
  1535 ;; This function calls:
  1536 ;;		Nothing
  1537 ;; This function is called by:
  1538 ;;		_setup
  1539 ;; This function uses a non-reentrant model
  1540 ;;
  1541                           
  1542                           	psect	text10
  1543   002786                     __ptext10:
  1544                           	callstack 0
  1545   002786                     _AD_init:
  1546                           	callstack 23
  1547   002786                     
  1548                           ;ADC.c: 14:     ADCON0 = 0b00000001;
  1549   002786  0E01               	movlw	1
  1550   002788  6EC2               	movwf	194,c	;volatile
  1551                           
  1552                           ;ADC.c: 15:     ADCON1 = 0b00001101;
  1553   00278A  0E0D               	movlw	13
  1554   00278C  6EC1               	movwf	193,c	;volatile
  1555                           
  1556                           ;ADC.c: 16:     ADCON2 = 0b10010001;
  1557   00278E  0E91               	movlw	145
  1558   002790  6EC0               	movwf	192,c	;volatile
  1559   002792  0012               	return		;funcret
  1560   002794                     __end_of_AD_init:
  1561                           	callstack 0
  1562                           
  1563 ;; *************** function _loop *****************
  1564 ;; Defined at:
  1565 ;;		line 46 in file "main.c"
  1566 ;; Parameters:    Size  Location     Type
  1567 ;;		None
  1568 ;; Auto vars:     Size  Location     Type
  1569 ;;		None
  1570 ;; Return value:  Size  Location     Type
  1571 ;;                  1    wreg      void 
  1572 ;; Registers used:
  1573 ;;		wreg, status,2, status,0, prodl, prodh, cstack
  1574 ;; Tracked objects:
  1575 ;;		On entry : 0/0
  1576 ;;		On exit  : 0/0
  1577 ;;		Unchanged: 0/0
  1578 ;; Data sizes:     COMRAM   BANK0   BANK1   BANK2   BANK3   BANK4   BANK5
  1579 ;;      Params:         0       0       0       0       0       0       0
  1580 ;;      Locals:         0       0       0       0       0       0       0
  1581 ;;      Temps:          0       0       0       0       0       0       0
  1582 ;;      Totals:         0       0       0       0       0       0       0
  1583 ;;Total ram usage:        0 bytes
  1584 ;; Hardware stack levels used: 1
  1585 ;; Hardware stack levels required when called: 8
  1586 ;; This function calls:
  1587 ;;		___lwdiv
  1588 ;;		___lwmod
  1589 ;;		_read_temperature
  1590 ;; This function is called by:
  1591 ;;		_main
  1592 ;; This function uses a non-reentrant model
  1593 ;;
  1594                           
  1595                           	psect	text11
  1596   001D82                     __ptext11:
  1597                           	callstack 0
  1598   001D82                     _loop:
  1599                           	callstack 22
  1600   001D82                     
  1601                           ;main.c: 48:     display2 = (HZ)/100;
  1602   001D82  C0F6  F085         	movff	_HZ,___lwdiv@dividend
  1603   001D86  C0F7  F086         	movff	_HZ+1,___lwdiv@dividend+1
  1604   001D8A  0E00               	movlw	0
  1605   001D8C  0100               	movlb	0	; () banked
  1606   001D8E  6F88               	movwf	(___lwdiv@divisor+1)& (0+255),b
  1607   001D90  0E64               	movlw	100
  1608   001D92  6F87               	movwf	___lwdiv@divisor& (0+255),b
  1609   001D94  EC9D  F011         	call	___lwdiv	;wreg free
  1610   001D98  0100               	movlb	0	; () banked
  1611   001D9A  5185               	movf	?___lwdiv& (0+255),w,b
  1612   001D9C  6FFE               	movwf	_display2& (0+255),b
  1613                           
  1614                           ;main.c: 49:     display3 = ((HZ)%100)/10;
  1615   001D9E  0E00               	movlw	0
  1616   001DA0  6F83               	movwf	(___lwmod@divisor+1)& (0+255),b
  1617   001DA2  0E64               	movlw	100
  1618   001DA4  6F82               	movwf	___lwmod@divisor& (0+255),b
  1619   001DA6  C0F6  F080         	movff	_HZ,___lwmod@dividend
  1620   001DAA  C0F7  F081         	movff	_HZ+1,___lwmod@dividend+1
  1621   001DAE  EC4C  F012         	call	___lwmod	;wreg free
  1622   001DB2  C080  F085         	movff	?___lwmod,___lwdiv@dividend
  1623   001DB6  C081  F086         	movff	?___lwmod+1,___lwdiv@dividend+1
  1624   001DBA  0E00               	movlw	0
  1625   001DBC  0100               	movlb	0	; () banked
  1626   001DBE  6F88               	movwf	(___lwdiv@divisor+1)& (0+255),b
  1627   001DC0  0E0A               	movlw	10
  1628   001DC2  6F87               	movwf	___lwdiv@divisor& (0+255),b
  1629   001DC4  EC9D  F011         	call	___lwdiv	;wreg free
  1630   001DC8  0100               	movlb	0	; () banked
  1631   001DCA  5185               	movf	?___lwdiv& (0+255),w,b
  1632   001DCC  6FFD               	movwf	_display3& (0+255),b
  1633                           
  1634                           ;main.c: 50:     display4 = (HZ)%10;
  1635   001DCE  C0F6  F080         	movff	_HZ,___lwmod@dividend
  1636   001DD2  C0F7  F081         	movff	_HZ+1,___lwmod@dividend+1
  1637   001DD6  0E00               	movlw	0
  1638   001DD8  6F83               	movwf	(___lwmod@divisor+1)& (0+255),b
  1639   001DDA  0E0A               	movlw	10
  1640   001DDC  6F82               	movwf	___lwmod@divisor& (0+255),b
  1641   001DDE  EC4C  F012         	call	___lwmod	;wreg free
  1642   001DE2  0100               	movlb	0	; () banked
  1643   001DE4  5180               	movf	?___lwmod& (0+255),w,b
  1644   001DE6  6FFC               	movwf	_display4& (0+255),b
  1645   001DE8                     
  1646                           ; BSR set to: 0
  1647                           ;main.c: 52:     read_temperature();
  1648   001DE8  ECC8  F010         	call	_read_temperature	;wreg free
  1649   001DEC                     
  1650                           ;main.c: 53:     digito1_temperatura = (temperature)/1000;
  1651   001DEC  C0F8  F085         	movff	_temperature,___lwdiv@dividend
  1652   001DF0  C0F9  F086         	movff	_temperature+1,___lwdiv@dividend+1
  1653   001DF4  0E03               	movlw	3
  1654   001DF6  0100               	movlb	0	; () banked
  1655   001DF8  6F88               	movwf	(___lwdiv@divisor+1)& (0+255),b
  1656   001DFA  0EE8               	movlw	232
  1657   001DFC  6F87               	movwf	___lwdiv@divisor& (0+255),b
  1658   001DFE  EC9D  F011         	call	___lwdiv	;wreg free
  1659   001E02  0100               	movlb	0	; () banked
  1660   001E04  5185               	movf	?___lwdiv& (0+255),w,b
  1661   001E06  6E6B               	movwf	_digito1_temperatura^0,c
  1662   001E08                     
  1663                           ; BSR set to: 0
  1664                           ;main.c: 54:     digito2_temperatura = ((temperature)%1000)/100;
  1665   001E08  0E03               	movlw	3
  1666   001E0A  6F83               	movwf	(___lwmod@divisor+1)& (0+255),b
  1667   001E0C  0EE8               	movlw	232
  1668   001E0E  6F82               	movwf	___lwmod@divisor& (0+255),b
  1669   001E10  C0F8  F080         	movff	_temperature,___lwmod@dividend
  1670   001E14  C0F9  F081         	movff	_temperature+1,___lwmod@dividend+1
  1671   001E18  EC4C  F012         	call	___lwmod	;wreg free
  1672   001E1C  C080  F085         	movff	?___lwmod,___lwdiv@dividend
  1673   001E20  C081  F086         	movff	?___lwmod+1,___lwdiv@dividend+1
  1674   001E24  0E00               	movlw	0
  1675   001E26  0100               	movlb	0	; () banked
  1676   001E28  6F88               	movwf	(___lwdiv@divisor+1)& (0+255),b
  1677   001E2A  0E64               	movlw	100
  1678   001E2C  6F87               	movwf	___lwdiv@divisor& (0+255),b
  1679   001E2E  EC9D  F011         	call	___lwdiv	;wreg free
  1680   001E32  0100               	movlb	0	; () banked
  1681   001E34  5185               	movf	?___lwdiv& (0+255),w,b
  1682   001E36  6E6A               	movwf	_digito2_temperatura^0,c
  1683   001E38                     
  1684                           ; BSR set to: 0
  1685                           ;main.c: 55:     digito3_temperatura = ((temperature)%100)/10;
  1686   001E38  0E00               	movlw	0
  1687   001E3A  6F83               	movwf	(___lwmod@divisor+1)& (0+255),b
  1688   001E3C  0E64               	movlw	100
  1689   001E3E  6F82               	movwf	___lwmod@divisor& (0+255),b
  1690   001E40  C0F8  F080         	movff	_temperature,___lwmod@dividend
  1691   001E44  C0F9  F081         	movff	_temperature+1,___lwmod@dividend+1
  1692   001E48  EC4C  F012         	call	___lwmod	;wreg free
  1693   001E4C  C080  F085         	movff	?___lwmod,___lwdiv@dividend
  1694   001E50  C081  F086         	movff	?___lwmod+1,___lwdiv@dividend+1
  1695   001E54  0E00               	movlw	0
  1696   001E56  0100               	movlb	0	; () banked
  1697   001E58  6F88               	movwf	(___lwdiv@divisor+1)& (0+255),b
  1698   001E5A  0E0A               	movlw	10
  1699   001E5C  6F87               	movwf	___lwdiv@divisor& (0+255),b
  1700   001E5E  EC9D  F011         	call	___lwdiv	;wreg free
  1701   001E62  0100               	movlb	0	; () banked
  1702   001E64  5185               	movf	?___lwdiv& (0+255),w,b
  1703   001E66  6E69               	movwf	_digito3_temperatura^0,c
  1704   001E68                     
  1705                           ; BSR set to: 0
  1706                           ;main.c: 56:     digito4_temperatura = (temperature)%10;
  1707   001E68  C0F8  F080         	movff	_temperature,___lwmod@dividend
  1708   001E6C  C0F9  F081         	movff	_temperature+1,___lwmod@dividend+1
  1709   001E70  0E00               	movlw	0
  1710   001E72  6F83               	movwf	(___lwmod@divisor+1)& (0+255),b
  1711   001E74  0E0A               	movlw	10
  1712   001E76  6F82               	movwf	___lwmod@divisor& (0+255),b
  1713   001E78  EC4C  F012         	call	___lwmod	;wreg free
  1714   001E7C  0100               	movlb	0	; () banked
  1715   001E7E  5180               	movf	?___lwmod& (0+255),w,b
  1716   001E80  6E68               	movwf	_digito4_temperatura^0,c
  1717   001E82                     
  1718                           ; BSR set to: 0
  1719   001E82  0012               	return		;funcret
  1720   001E84                     __end_of_loop:
  1721                           	callstack 0
  1722                           
  1723 ;; *************** function _read_temperature *****************
  1724 ;; Defined at:
  1725 ;;		line 71 in file "main.c"
  1726 ;; Parameters:    Size  Location     Type
  1727 ;;		None
  1728 ;; Auto vars:     Size  Location     Type
  1729 ;;		None
  1730 ;; Return value:  Size  Location     Type
  1731 ;;                  1    wreg      void 
  1732 ;; Registers used:
  1733 ;;		wreg, status,2, status,0, prodl, prodh, cstack
  1734 ;; Tracked objects:
  1735 ;;		On entry : 0/0
  1736 ;;		On exit  : 0/0
  1737 ;;		Unchanged: 0/0
  1738 ;; Data sizes:     COMRAM   BANK0   BANK1   BANK2   BANK3   BANK4   BANK5
  1739 ;;      Params:         0       0       0       0       0       0       0
  1740 ;;      Locals:         0       0       0       0       0       0       0
  1741 ;;      Temps:          0       0       0       0       0       0       0
  1742 ;;      Totals:         0       0       0       0       0       0       0
  1743 ;;Total ram usage:        0 bytes
  1744 ;; Hardware stack levels used: 1
  1745 ;; Hardware stack levels required when called: 7
  1746 ;; This function calls:
  1747 ;;		___fldiv
  1748 ;;		___flmul
  1749 ;;		___fltol
  1750 ;;		___lwdiv
  1751 ;;		___xxtofl
  1752 ;; This function is called by:
  1753 ;;		_loop
  1754 ;; This function uses a non-reentrant model
  1755 ;;
  1756                           
  1757                           	psect	text12
  1758   002190                     __ptext12:
  1759                           	callstack 0
  1760   002190                     _read_temperature:
  1761                           	callstack 22
  1762   002190                     
  1763                           ;main.c: 74:     temperature = (50000.0*AD_data[2])/1023.0;
  1764   002190  0E00               	movlw	0
  1765   002192  0100               	movlb	0	; () banked
  1766   002194  6FAB               	movwf	___fldiv@a& (0+255),b
  1767   002196  0EC0               	movlw	192
  1768   002198  6FAC               	movwf	(___fldiv@a+1)& (0+255),b
  1769   00219A  0E7F               	movlw	127
  1770   00219C  6FAD               	movwf	(___fldiv@a+2)& (0+255),b
  1771   00219E  0E44               	movlw	68
  1772   0021A0  6FAE               	movwf	(___fldiv@a+3)& (0+255),b
  1773   0021A2  0E00               	movlw	0
  1774   0021A4  6F92               	movwf	___flmul@a& (0+255),b
  1775   0021A6  0E50               	movlw	80
  1776   0021A8  6F93               	movwf	(___flmul@a+1)& (0+255),b
  1777   0021AA  0E43               	movlw	67
  1778   0021AC  6F94               	movwf	(___flmul@a+2)& (0+255),b
  1779   0021AE  0E47               	movlw	71
  1780   0021B0  6F95               	movwf	(___flmul@a+3)& (0+255),b
  1781   0021B2  C075  F080         	movff	_AD_data+4,___xxtofl@val
  1782   0021B6  C076  F081         	movff	_AD_data+5,___xxtofl@val+1
  1783   0021BA  6B82               	clrf	(___xxtofl@val+2)& (0+255),b
  1784   0021BC  6B83               	clrf	(___xxtofl@val+3)& (0+255),b
  1785   0021BE  0E00               	movlw	0
  1786   0021C0  ECC9  F00A         	call	___xxtofl
  1787   0021C4  C080  F08E         	movff	?___xxtofl,___flmul@b
  1788   0021C8  C081  F08F         	movff	?___xxtofl+1,___flmul@b+1
  1789   0021CC  C082  F090         	movff	?___xxtofl+2,___flmul@b+2
  1790   0021D0  C083  F091         	movff	?___xxtofl+3,___flmul@b+3
  1791   0021D4  EC03  F003         	call	___flmul	;wreg free
  1792   0021D8  C08E  F0A7         	movff	?___flmul,___fldiv@b
  1793   0021DC  C08F  F0A8         	movff	?___flmul+1,___fldiv@b+1
  1794   0021E0  C090  F0A9         	movff	?___flmul+2,___fldiv@b+2
  1795   0021E4  C091  F0AA         	movff	?___flmul+3,___fldiv@b+3
  1796   0021E8  EC2E  F007         	call	___fldiv	;wreg free
  1797   0021EC  C0A7  F0C0         	movff	?___fldiv,___fltol@f1
  1798   0021F0  C0A8  F0C1         	movff	?___fldiv+1,___fltol@f1+1
  1799   0021F4  C0A9  F0C2         	movff	?___fldiv+2,___fltol@f1+2
  1800   0021F8  C0AA  F0C3         	movff	?___fldiv+3,___fltol@f1+3
  1801   0021FC  ECBA  F00D         	call	___fltol	;wreg free
  1802   002200  C0C0  F0F8         	movff	?___fltol,_temperature
  1803   002204  C0C1  F0F9         	movff	?___fltol+1,_temperature+1
  1804   002208                     
  1805                           ;main.c: 75:     temp = temperature/100;
  1806   002208  C0F8  F085         	movff	_temperature,___lwdiv@dividend
  1807   00220C  C0F9  F086         	movff	_temperature+1,___lwdiv@dividend+1
  1808   002210  0E00               	movlw	0
  1809   002212  0100               	movlb	0	; () banked
  1810   002214  6F88               	movwf	(___lwdiv@divisor+1)& (0+255),b
  1811   002216  0E64               	movlw	100
  1812   002218  6F87               	movwf	___lwdiv@divisor& (0+255),b
  1813   00221A  EC9D  F011         	call	___lwdiv	;wreg free
  1814   00221E  C085  F061         	movff	?___lwdiv,_temp
  1815   002222  C086  F062         	movff	?___lwdiv+1,_temp+1
  1816   002226  0012               	return		;funcret
  1817   002228                     __end_of_read_temperature:
  1818                           	callstack 0
  1819                           
  1820 ;; *************** function ___xxtofl *****************
  1821 ;; Defined at:
  1822 ;;		line 10 in file "C:\Program Files\Microchip\xc8\v2.40\pic\sources\c99\common\xxtofl.c"
  1823 ;; Parameters:    Size  Location     Type
  1824 ;;  sign            1    wreg     unsigned char 
  1825 ;;  val             4    0[BANK0 ] long 
  1826 ;; Auto vars:     Size  Location     Type
  1827 ;;  sign            1    8[BANK0 ] unsigned char 
  1828 ;;  arg             4   10[BANK0 ] unsigned long 
  1829 ;;  exp             1    9[BANK0 ] unsigned char 
  1830 ;; Return value:  Size  Location     Type
  1831 ;;                  4    0[BANK0 ] unsigned char 
  1832 ;; Registers used:
  1833 ;;		wreg, status,2, status,0
  1834 ;; Tracked objects:
  1835 ;;		On entry : 0/0
  1836 ;;		On exit  : 0/0
  1837 ;;		Unchanged: 0/0
  1838 ;; Data sizes:     COMRAM   BANK0   BANK1   BANK2   BANK3   BANK4   BANK5
  1839 ;;      Params:         0       4       0       0       0       0       0
  1840 ;;      Locals:         0       6       0       0       0       0       0
  1841 ;;      Temps:          0       4       0       0       0       0       0
  1842 ;;      Totals:         0      14       0       0       0       0       0
  1843 ;;Total ram usage:       14 bytes
  1844 ;; Hardware stack levels used: 1
  1845 ;; Hardware stack levels required when called: 6
  1846 ;; This function calls:
  1847 ;;		Nothing
  1848 ;; This function is called by:
  1849 ;;		_read_temperature
  1850 ;; This function uses a non-reentrant model
  1851 ;;
  1852                           
  1853                           	psect	text13
  1854   001592                     __ptext13:
  1855                           	callstack 0
  1856   001592                     ___xxtofl:
  1857                           	callstack 22
  1858                           
  1859                           ;incstack = 0
  1860                           ;___xxtofl@sign stored from wreg
  1861   001592  0100               	movlb	0	; () banked
  1862   001594  6F88               	movwf	___xxtofl@sign& (0+255),b
  1863   001596  0100               	movlb	0	; () banked
  1864   001598  5188               	movf	___xxtofl@sign& (0+255),w,b
  1865   00159A  B4D8               	btfsc	status,2,c
  1866   00159C  EFD2  F00A         	goto	u2231
  1867   0015A0  EFD4  F00A         	goto	u2230
  1868   0015A4                     u2231:
  1869   0015A4  EFF6  F00A         	goto	l1088
  1870   0015A8                     u2230:
  1871   0015A8                     
  1872                           ; BSR set to: 0
  1873   0015A8  BF83               	btfsc	(___xxtofl@val+3)& (0+255),7,b
  1874   0015AA  EFDB  F00A         	goto	u2240
  1875   0015AE  EFD9  F00A         	goto	u2241
  1876   0015B2                     u2241:
  1877   0015B2  EFF6  F00A         	goto	l1088
  1878   0015B6                     u2240:
  1879   0015B6                     
  1880                           ; BSR set to: 0
  1881   0015B6  C080  F084         	movff	___xxtofl@val,??___xxtofl
  1882   0015BA  C081  F085         	movff	___xxtofl@val+1,??___xxtofl+1
  1883   0015BE  C082  F086         	movff	___xxtofl@val+2,??___xxtofl+2
  1884   0015C2  C083  F087         	movff	___xxtofl@val+3,??___xxtofl+3
  1885   0015C6  1F84               	comf	??___xxtofl& (0+255),f,b
  1886   0015C8  1F85               	comf	(??___xxtofl+1)& (0+255),f,b
  1887   0015CA  1F86               	comf	(??___xxtofl+2)& (0+255),f,b
  1888   0015CC  1F87               	comf	(??___xxtofl+3)& (0+255),f,b
  1889   0015CE  2B84               	incf	??___xxtofl& (0+255),f,b
  1890   0015D0  0E00               	movlw	0
  1891   0015D2  2385               	addwfc	(??___xxtofl+1)& (0+255),f,b
  1892   0015D4  2386               	addwfc	(??___xxtofl+2)& (0+255),f,b
  1893   0015D6  2387               	addwfc	(??___xxtofl+3)& (0+255),f,b
  1894   0015D8  C084  F08A         	movff	??___xxtofl,___xxtofl@arg
  1895   0015DC  C085  F08B         	movff	??___xxtofl+1,___xxtofl@arg+1
  1896   0015E0  C086  F08C         	movff	??___xxtofl+2,___xxtofl@arg+2
  1897   0015E4  C087  F08D         	movff	??___xxtofl+3,___xxtofl@arg+3
  1898   0015E8  EFFE  F00A         	goto	l2792
  1899   0015EC                     l1088:
  1900                           
  1901                           ; BSR set to: 0
  1902   0015EC  C080  F08A         	movff	___xxtofl@val,___xxtofl@arg
  1903   0015F0  C081  F08B         	movff	___xxtofl@val+1,___xxtofl@arg+1
  1904   0015F4  C082  F08C         	movff	___xxtofl@val+2,___xxtofl@arg+2
  1905   0015F8  C083  F08D         	movff	___xxtofl@val+3,___xxtofl@arg+3
  1906   0015FC                     l2792:
  1907                           
  1908                           ; BSR set to: 0
  1909   0015FC  5180               	movf	___xxtofl@val& (0+255),w,b
  1910   0015FE  1181               	iorwf	(___xxtofl@val+1)& (0+255),w,b
  1911   001600  1182               	iorwf	(___xxtofl@val+2)& (0+255),w,b
  1912   001602  1183               	iorwf	(___xxtofl@val+3)& (0+255),w,b
  1913   001604  A4D8               	btfss	status,2,c
  1914   001606  EF07  F00B         	goto	u2251
  1915   00160A  EF09  F00B         	goto	u2250
  1916   00160E                     u2251:
  1917   00160E  EF13  F00B         	goto	l2798
  1918   001612                     u2250:
  1919   001612                     
  1920                           ; BSR set to: 0
  1921   001612  0E00               	movlw	0
  1922   001614  6F80               	movwf	?___xxtofl& (0+255),b
  1923   001616  0E00               	movlw	0
  1924   001618  6F81               	movwf	(?___xxtofl+1)& (0+255),b
  1925   00161A  0E00               	movlw	0
  1926   00161C  6F82               	movwf	(?___xxtofl+2)& (0+255),b
  1927   00161E  0E00               	movlw	0
  1928   001620  6F83               	movwf	(?___xxtofl+3)& (0+255),b
  1929   001622  EFA4  F00B         	goto	l1091
  1930   001626                     l2798:
  1931                           
  1932                           ; BSR set to: 0
  1933   001626  0E96               	movlw	150
  1934   001628  6F89               	movwf	___xxtofl@exp& (0+255),b
  1935   00162A  EF1D  F00B         	goto	l2802
  1936   00162E                     l2800:
  1937                           
  1938                           ; BSR set to: 0
  1939   00162E  2B89               	incf	___xxtofl@exp& (0+255),f,b
  1940   001630  90D8               	bcf	status,0,c
  1941   001632  338D               	rrcf	(___xxtofl@arg+3)& (0+255),f,b
  1942   001634  338C               	rrcf	(___xxtofl@arg+2)& (0+255),f,b
  1943   001636  338B               	rrcf	(___xxtofl@arg+1)& (0+255),f,b
  1944   001638  338A               	rrcf	___xxtofl@arg& (0+255),f,b
  1945   00163A                     l2802:
  1946                           
  1947                           ; BSR set to: 0
  1948   00163A  0E00               	movlw	0
  1949   00163C  158A               	andwf	___xxtofl@arg& (0+255),w,b
  1950   00163E  6F84               	movwf	??___xxtofl& (0+255),b
  1951   001640  0E00               	movlw	0
  1952   001642  158B               	andwf	(___xxtofl@arg+1)& (0+255),w,b
  1953   001644  6F85               	movwf	(??___xxtofl+1)& (0+255),b
  1954   001646  0E00               	movlw	0
  1955   001648  158C               	andwf	(___xxtofl@arg+2)& (0+255),w,b
  1956   00164A  6F86               	movwf	(??___xxtofl+2)& (0+255),b
  1957   00164C  0EFE               	movlw	254
  1958   00164E  158D               	andwf	(___xxtofl@arg+3)& (0+255),w,b
  1959   001650  6F87               	movwf	(??___xxtofl+3)& (0+255),b
  1960   001652  5184               	movf	??___xxtofl& (0+255),w,b
  1961   001654  1185               	iorwf	(??___xxtofl+1)& (0+255),w,b
  1962   001656  1186               	iorwf	(??___xxtofl+2)& (0+255),w,b
  1963   001658  1187               	iorwf	(??___xxtofl+3)& (0+255),w,b
  1964   00165A  A4D8               	btfss	status,2,c
  1965   00165C  EF32  F00B         	goto	u2261
  1966   001660  EF34  F00B         	goto	u2260
  1967   001664                     u2261:
  1968   001664  EF17  F00B         	goto	l2800
  1969   001668                     u2260:
  1970   001668  EF42  F00B         	goto	l1095
  1971   00166C                     l2804:
  1972                           
  1973                           ; BSR set to: 0
  1974   00166C  2B89               	incf	___xxtofl@exp& (0+255),f,b
  1975   00166E                     
  1976                           ; BSR set to: 0
  1977   00166E  0E01               	movlw	1
  1978   001670  278A               	addwf	___xxtofl@arg& (0+255),f,b
  1979   001672  0E00               	movlw	0
  1980   001674  238B               	addwfc	(___xxtofl@arg+1)& (0+255),f,b
  1981   001676  238C               	addwfc	(___xxtofl@arg+2)& (0+255),f,b
  1982   001678  238D               	addwfc	(___xxtofl@arg+3)& (0+255),f,b
  1983   00167A                     
  1984                           ; BSR set to: 0
  1985   00167A  90D8               	bcf	status,0,c
  1986   00167C  338D               	rrcf	(___xxtofl@arg+3)& (0+255),f,b
  1987   00167E  338C               	rrcf	(___xxtofl@arg+2)& (0+255),f,b
  1988   001680  338B               	rrcf	(___xxtofl@arg+1)& (0+255),f,b
  1989   001682  338A               	rrcf	___xxtofl@arg& (0+255),f,b
  1990   001684                     l1095:
  1991                           
  1992                           ; BSR set to: 0
  1993   001684  0E00               	movlw	0
  1994   001686  158A               	andwf	___xxtofl@arg& (0+255),w,b
  1995   001688  6F84               	movwf	??___xxtofl& (0+255),b
  1996   00168A  0E00               	movlw	0
  1997   00168C  158B               	andwf	(___xxtofl@arg+1)& (0+255),w,b
  1998   00168E  6F85               	movwf	(??___xxtofl+1)& (0+255),b
  1999   001690  0E00               	movlw	0
  2000   001692  158C               	andwf	(___xxtofl@arg+2)& (0+255),w,b
  2001   001694  6F86               	movwf	(??___xxtofl+2)& (0+255),b
  2002   001696  0EFF               	movlw	255
  2003   001698  158D               	andwf	(___xxtofl@arg+3)& (0+255),w,b
  2004   00169A  6F87               	movwf	(??___xxtofl+3)& (0+255),b
  2005   00169C  5184               	movf	??___xxtofl& (0+255),w,b
  2006   00169E  1185               	iorwf	(??___xxtofl+1)& (0+255),w,b
  2007   0016A0  1186               	iorwf	(??___xxtofl+2)& (0+255),w,b
  2008   0016A2  1187               	iorwf	(??___xxtofl+3)& (0+255),w,b
  2009   0016A4  A4D8               	btfss	status,2,c
  2010   0016A6  EF57  F00B         	goto	u2271
  2011   0016AA  EF59  F00B         	goto	u2270
  2012   0016AE                     u2271:
  2013   0016AE  EF36  F00B         	goto	l2804
  2014   0016B2                     u2270:
  2015   0016B2  EF61  F00B         	goto	l2812
  2016   0016B6                     l2810:
  2017                           
  2018                           ; BSR set to: 0
  2019   0016B6  0789               	decf	___xxtofl@exp& (0+255),f,b
  2020   0016B8  90D8               	bcf	status,0,c
  2021   0016BA  378A               	rlcf	___xxtofl@arg& (0+255),f,b
  2022   0016BC  378B               	rlcf	(___xxtofl@arg+1)& (0+255),f,b
  2023   0016BE  378C               	rlcf	(___xxtofl@arg+2)& (0+255),f,b
  2024   0016C0  378D               	rlcf	(___xxtofl@arg+3)& (0+255),f,b
  2025   0016C2                     l2812:
  2026                           
  2027                           ; BSR set to: 0
  2028   0016C2  BF8C               	btfsc	(___xxtofl@arg+2)& (0+255),7,b
  2029   0016C4  EF66  F00B         	goto	u2281
  2030   0016C8  EF68  F00B         	goto	u2280
  2031   0016CC                     u2281:
  2032   0016CC  EF70  F00B         	goto	l1102
  2033   0016D0                     u2280:
  2034   0016D0                     
  2035                           ; BSR set to: 0
  2036   0016D0  0E02               	movlw	2
  2037   0016D2  6189               	cpfslt	___xxtofl@exp& (0+255),b
  2038   0016D4  EF6E  F00B         	goto	u2291
  2039   0016D8  EF70  F00B         	goto	u2290
  2040   0016DC                     u2291:
  2041   0016DC  EF5B  F00B         	goto	l2810
  2042   0016E0                     u2290:
  2043   0016E0                     l1102:
  2044                           
  2045                           ; BSR set to: 0
  2046   0016E0  B189               	btfsc	___xxtofl@exp& (0+255),0,b
  2047   0016E2  EF75  F00B         	goto	u2301
  2048   0016E6  EF77  F00B         	goto	u2300
  2049   0016EA                     u2301:
  2050   0016EA  EF78  F00B         	goto	l2818
  2051   0016EE                     u2300:
  2052   0016EE                     
  2053                           ; BSR set to: 0
  2054   0016EE  9F8C               	bcf	(___xxtofl@arg+2)& (0+255),7,b
  2055   0016F0                     l2818:
  2056                           
  2057                           ; BSR set to: 0
  2058   0016F0  90D8               	bcf	status,0,c
  2059   0016F2  3389               	rrcf	___xxtofl@exp& (0+255),f,b
  2060   0016F4                     
  2061                           ; BSR set to: 0
  2062   0016F4  C089  F084         	movff	___xxtofl@exp,??___xxtofl
  2063   0016F8  6B85               	clrf	(??___xxtofl+1)& (0+255),b
  2064   0016FA  6B86               	clrf	(??___xxtofl+2)& (0+255),b
  2065   0016FC  6B87               	clrf	(??___xxtofl+3)& (0+255),b
  2066   0016FE  C084  F087         	movff	??___xxtofl,??___xxtofl+3
  2067   001702  6B86               	clrf	(??___xxtofl+2)& (0+255),b
  2068   001704  6B85               	clrf	(??___xxtofl+1)& (0+255),b
  2069   001706  6B84               	clrf	??___xxtofl& (0+255),b
  2070   001708  5184               	movf	??___xxtofl& (0+255),w,b
  2071   00170A  138A               	iorwf	___xxtofl@arg& (0+255),f,b
  2072   00170C  5185               	movf	(??___xxtofl+1)& (0+255),w,b
  2073   00170E  138B               	iorwf	(___xxtofl@arg+1)& (0+255),f,b
  2074   001710  5186               	movf	(??___xxtofl+2)& (0+255),w,b
  2075   001712  138C               	iorwf	(___xxtofl@arg+2)& (0+255),f,b
  2076   001714  5187               	movf	(??___xxtofl+3)& (0+255),w,b
  2077   001716  138D               	iorwf	(___xxtofl@arg+3)& (0+255),f,b
  2078   001718                     
  2079                           ; BSR set to: 0
  2080   001718  5188               	movf	___xxtofl@sign& (0+255),w,b
  2081   00171A  B4D8               	btfsc	status,2,c
  2082   00171C  EF92  F00B         	goto	u2311
  2083   001720  EF94  F00B         	goto	u2310
  2084   001724                     u2311:
  2085   001724  EF9C  F00B         	goto	l2828
  2086   001728                     u2310:
  2087   001728                     
  2088                           ; BSR set to: 0
  2089   001728  BF83               	btfsc	(___xxtofl@val+3)& (0+255),7,b
  2090   00172A  EF9B  F00B         	goto	u2320
  2091   00172E  EF99  F00B         	goto	u2321
  2092   001732                     u2321:
  2093   001732  EF9C  F00B         	goto	l2828
  2094   001736                     u2320:
  2095   001736                     
  2096                           ; BSR set to: 0
  2097   001736  8F8D               	bsf	(___xxtofl@arg+3)& (0+255),7,b
  2098   001738                     l2828:
  2099                           
  2100                           ; BSR set to: 0
  2101   001738  C08A  F080         	movff	___xxtofl@arg,?___xxtofl
  2102   00173C  C08B  F081         	movff	___xxtofl@arg+1,?___xxtofl+1
  2103   001740  C08C  F082         	movff	___xxtofl@arg+2,?___xxtofl+2
  2104   001744  C08D  F083         	movff	___xxtofl@arg+3,?___xxtofl+3
  2105   001748                     l1091:
  2106                           
  2107                           ; BSR set to: 0
  2108   001748  0012               	return		;funcret
  2109   00174A                     __end_of___xxtofl:
  2110                           	callstack 0
  2111                           
  2112 ;; *************** function ___lwdiv *****************
  2113 ;; Defined at:
  2114 ;;		line 7 in file "C:\Program Files\Microchip\xc8\v2.40\pic\sources\c99\common\lwdiv.c"
  2115 ;; Parameters:    Size  Location     Type
  2116 ;;  dividend        2    5[BANK0 ] unsigned int 
  2117 ;;  divisor         2    7[BANK0 ] unsigned int 
  2118 ;; Auto vars:     Size  Location     Type
  2119 ;;  quotient        2    9[BANK0 ] unsigned int 
  2120 ;;  counter         1   11[BANK0 ] unsigned char 
  2121 ;; Return value:  Size  Location     Type
  2122 ;;                  2    5[BANK0 ] unsigned int 
  2123 ;; Registers used:
  2124 ;;		wreg, status,2, status,0
  2125 ;; Tracked objects:
  2126 ;;		On entry : 0/0
  2127 ;;		On exit  : 0/0
  2128 ;;		Unchanged: 0/0
  2129 ;; Data sizes:     COMRAM   BANK0   BANK1   BANK2   BANK3   BANK4   BANK5
  2130 ;;      Params:         0       4       0       0       0       0       0
  2131 ;;      Locals:         0       3       0       0       0       0       0
  2132 ;;      Temps:          0       0       0       0       0       0       0
  2133 ;;      Totals:         0       7       0       0       0       0       0
  2134 ;;Total ram usage:        7 bytes
  2135 ;; Hardware stack levels used: 1
  2136 ;; Hardware stack levels required when called: 6
  2137 ;; This function calls:
  2138 ;;		Nothing
  2139 ;; This function is called by:
  2140 ;;		_loop
  2141 ;;		_read_temperature
  2142 ;; This function uses a non-reentrant model
  2143 ;;
  2144                           
  2145                           	psect	text14
  2146   00233A                     __ptext14:
  2147                           	callstack 0
  2148   00233A                     ___lwdiv:
  2149                           	callstack 22
  2150   00233A  0E00               	movlw	0
  2151   00233C  0100               	movlb	0	; () banked
  2152   00233E  6F8A               	movwf	(___lwdiv@quotient+1)& (0+255),b
  2153   002340  0E00               	movlw	0
  2154   002342  6F89               	movwf	___lwdiv@quotient& (0+255),b
  2155   002344                     
  2156                           ; BSR set to: 0
  2157   002344  5187               	movf	___lwdiv@divisor& (0+255),w,b
  2158   002346  1188               	iorwf	(___lwdiv@divisor+1)& (0+255),w,b
  2159   002348  B4D8               	btfsc	status,2,c
  2160   00234A  EFA9  F011         	goto	u2201
  2161   00234E  EFAB  F011         	goto	u2200
  2162   002352                     u2201:
  2163   002352  EFD3  F011         	goto	l924
  2164   002356                     u2200:
  2165   002356                     
  2166                           ; BSR set to: 0
  2167   002356  0E01               	movlw	1
  2168   002358  6F8B               	movwf	___lwdiv@counter& (0+255),b
  2169   00235A  EFB3  F011         	goto	l2772
  2170   00235E                     l2770:
  2171                           
  2172                           ; BSR set to: 0
  2173   00235E  90D8               	bcf	status,0,c
  2174   002360  3787               	rlcf	___lwdiv@divisor& (0+255),f,b
  2175   002362  3788               	rlcf	(___lwdiv@divisor+1)& (0+255),f,b
  2176   002364  2B8B               	incf	___lwdiv@counter& (0+255),f,b
  2177   002366                     l2772:
  2178                           
  2179                           ; BSR set to: 0
  2180   002366  AF88               	btfss	(___lwdiv@divisor+1)& (0+255),7,b
  2181   002368  EFB8  F011         	goto	u2211
  2182   00236C  EFBA  F011         	goto	u2210
  2183   002370                     u2211:
  2184   002370  EFAF  F011         	goto	l2770
  2185   002374                     u2210:
  2186   002374                     l2774:
  2187                           
  2188                           ; BSR set to: 0
  2189   002374  90D8               	bcf	status,0,c
  2190   002376  3789               	rlcf	___lwdiv@quotient& (0+255),f,b
  2191   002378  378A               	rlcf	(___lwdiv@quotient+1)& (0+255),f,b
  2192   00237A                     
  2193                           ; BSR set to: 0
  2194   00237A  5187               	movf	___lwdiv@divisor& (0+255),w,b
  2195   00237C  5D85               	subwf	___lwdiv@dividend& (0+255),w,b
  2196   00237E  5188               	movf	(___lwdiv@divisor+1)& (0+255),w,b
  2197   002380  5986               	subwfb	(___lwdiv@dividend+1)& (0+255),w,b
  2198   002382  A0D8               	btfss	status,0,c
  2199   002384  EFC6  F011         	goto	u2221
  2200   002388  EFC8  F011         	goto	u2220
  2201   00238C                     u2221:
  2202   00238C  EFCD  F011         	goto	l2782
  2203   002390                     u2220:
  2204   002390                     
  2205                           ; BSR set to: 0
  2206   002390  5187               	movf	___lwdiv@divisor& (0+255),w,b
  2207   002392  5F85               	subwf	___lwdiv@dividend& (0+255),f,b
  2208   002394  5188               	movf	(___lwdiv@divisor+1)& (0+255),w,b
  2209   002396  5B86               	subwfb	(___lwdiv@dividend+1)& (0+255),f,b
  2210   002398                     
  2211                           ; BSR set to: 0
  2212   002398  8189               	bsf	___lwdiv@quotient& (0+255),0,b
  2213   00239A                     l2782:
  2214                           
  2215                           ; BSR set to: 0
  2216   00239A  90D8               	bcf	status,0,c
  2217   00239C  3388               	rrcf	(___lwdiv@divisor+1)& (0+255),f,b
  2218   00239E  3387               	rrcf	___lwdiv@divisor& (0+255),f,b
  2219   0023A0                     
  2220                           ; BSR set to: 0
  2221   0023A0  2F8B               	decfsz	___lwdiv@counter& (0+255),f,b
  2222   0023A2  EFBA  F011         	goto	l2774
  2223   0023A6                     l924:
  2224                           
  2225                           ; BSR set to: 0
  2226   0023A6  C089  F085         	movff	___lwdiv@quotient,?___lwdiv
  2227   0023AA  C08A  F086         	movff	___lwdiv@quotient+1,?___lwdiv+1
  2228   0023AE                     
  2229                           ; BSR set to: 0
  2230   0023AE  0012               	return		;funcret
  2231   0023B0                     __end_of___lwdiv:
  2232                           	callstack 0
  2233                           
  2234 ;; *************** function ___fltol *****************
  2235 ;; Defined at:
  2236 ;;		line 43 in file "C:\Program Files\Microchip\xc8\v2.40\pic\sources\c99\common\fltol.c"
  2237 ;; Parameters:    Size  Location     Type
  2238 ;;  f1              4   64[BANK0 ] unsigned int 
  2239 ;; Auto vars:     Size  Location     Type
  2240 ;;  exp1            1   73[BANK0 ] unsigned char 
  2241 ;;  sign1           1   72[BANK0 ] unsigned char 
  2242 ;; Return value:  Size  Location     Type
  2243 ;;                  4   64[BANK0 ] long 
  2244 ;; Registers used:
  2245 ;;		wreg, status,2, status,0
  2246 ;; Tracked objects:
  2247 ;;		On entry : 0/0
  2248 ;;		On exit  : 0/0
  2249 ;;		Unchanged: 0/0
  2250 ;; Data sizes:     COMRAM   BANK0   BANK1   BANK2   BANK3   BANK4   BANK5
  2251 ;;      Params:         0       4       0       0       0       0       0
  2252 ;;      Locals:         0       2       0       0       0       0       0
  2253 ;;      Temps:          0       4       0       0       0       0       0
  2254 ;;      Totals:         0      10       0       0       0       0       0
  2255 ;;Total ram usage:       10 bytes
  2256 ;; Hardware stack levels used: 1
  2257 ;; Hardware stack levels required when called: 6
  2258 ;; This function calls:
  2259 ;;		Nothing
  2260 ;; This function is called by:
  2261 ;;		_read_temperature
  2262 ;; This function uses a non-reentrant model
  2263 ;;
  2264                           
  2265                           	psect	text15
  2266   001B74                     __ptext15:
  2267                           	callstack 0
  2268   001B74                     ___fltol:
  2269                           	callstack 22
  2270   001B74  0100               	movlb	0	; () banked
  2271   001B76  35C2               	rlcf	(___fltol@f1+2)& (0+255),w,b
  2272   001B78  35C3               	rlcf	(___fltol@f1+3)& (0+255),w,b
  2273   001B7A  6FC9               	movwf	___fltol@exp1& (0+255),b
  2274   001B7C  51C9               	movf	___fltol@exp1& (0+255),w,b
  2275   001B7E  A4D8               	btfss	status,2,c
  2276   001B80  EFC4  F00D         	goto	u2131
  2277   001B84  EFC6  F00D         	goto	u2130
  2278   001B88                     u2131:
  2279   001B88  EFD0  F00D         	goto	l2726
  2280   001B8C                     u2130:
  2281   001B8C                     l2722:
  2282                           
  2283                           ; BSR set to: 0
  2284   001B8C  0E00               	movlw	0
  2285   001B8E  6FC0               	movwf	?___fltol& (0+255),b
  2286   001B90  0E00               	movlw	0
  2287   001B92  6FC1               	movwf	(?___fltol+1)& (0+255),b
  2288   001B94  0E00               	movlw	0
  2289   001B96  6FC2               	movwf	(?___fltol+2)& (0+255),b
  2290   001B98  0E00               	movlw	0
  2291   001B9A  6FC3               	movwf	(?___fltol+3)& (0+255),b
  2292   001B9C  EF3D  F00E         	goto	l730
  2293   001BA0                     l2726:
  2294                           
  2295                           ; BSR set to: 0
  2296   001BA0  C0C0  F0C4         	movff	___fltol@f1,??___fltol
  2297   001BA4  C0C1  F0C5         	movff	___fltol@f1+1,??___fltol+1
  2298   001BA8  C0C2  F0C6         	movff	___fltol@f1+2,??___fltol+2
  2299   001BAC  C0C3  F0C7         	movff	___fltol@f1+3,??___fltol+3
  2300   001BB0  0E20               	movlw	32
  2301   001BB2  EFE0  F00D         	goto	u2140
  2302   001BB6                     u2145:
  2303   001BB6  90D8               	bcf	status,0,c
  2304   001BB8  33C7               	rrcf	(??___fltol+3)& (0+255),f,b
  2305   001BBA  33C6               	rrcf	(??___fltol+2)& (0+255),f,b
  2306   001BBC  33C5               	rrcf	(??___fltol+1)& (0+255),f,b
  2307   001BBE  33C4               	rrcf	??___fltol& (0+255),f,b
  2308   001BC0                     u2140:
  2309   001BC0  2EE8               	decfsz	wreg,f,c
  2310   001BC2  EFDB  F00D         	goto	u2145
  2311   001BC6  51C4               	movf	??___fltol& (0+255),w,b
  2312   001BC8  6FC8               	movwf	___fltol@sign1& (0+255),b
  2313   001BCA                     
  2314                           ; BSR set to: 0
  2315   001BCA  8FC2               	bsf	(___fltol@f1+2)& (0+255),7,b
  2316   001BCC                     
  2317                           ; BSR set to: 0
  2318   001BCC  0EFF               	movlw	255
  2319   001BCE  17C0               	andwf	___fltol@f1& (0+255),f,b
  2320   001BD0  0EFF               	movlw	255
  2321   001BD2  17C1               	andwf	(___fltol@f1+1)& (0+255),f,b
  2322   001BD4  0EFF               	movlw	255
  2323   001BD6  17C2               	andwf	(___fltol@f1+2)& (0+255),f,b
  2324   001BD8  0E00               	movlw	0
  2325   001BDA  17C3               	andwf	(___fltol@f1+3)& (0+255),f,b
  2326   001BDC                     
  2327                           ; BSR set to: 0
  2328   001BDC  0E96               	movlw	150
  2329   001BDE  5FC9               	subwf	___fltol@exp1& (0+255),f,b
  2330   001BE0                     
  2331                           ; BSR set to: 0
  2332   001BE0  BFC9               	btfsc	___fltol@exp1& (0+255),7,b
  2333   001BE2  EFF7  F00D         	goto	u2150
  2334   001BE6  EFF5  F00D         	goto	u2151
  2335   001BEA                     u2151:
  2336   001BEA  EF0D  F00E         	goto	l2746
  2337   001BEE                     u2150:
  2338   001BEE                     
  2339                           ; BSR set to: 0
  2340   001BEE  51C9               	movf	___fltol@exp1& (0+255),w,b
  2341   001BF0  0A80               	xorlw	128
  2342   001BF2  0F97               	addlw	151
  2343   001BF4  B0D8               	btfsc	status,0,c
  2344   001BF6  EFFF  F00D         	goto	u2161
  2345   001BFA  EF01  F00E         	goto	u2160
  2346   001BFE                     u2161:
  2347   001BFE  EF03  F00E         	goto	l2742
  2348   001C02                     u2160:
  2349   001C02  EFC6  F00D         	goto	l2722
  2350   001C06                     l2742:
  2351                           
  2352                           ; BSR set to: 0
  2353   001C06  90D8               	bcf	status,0,c
  2354   001C08  33C3               	rrcf	(___fltol@f1+3)& (0+255),f,b
  2355   001C0A  33C2               	rrcf	(___fltol@f1+2)& (0+255),f,b
  2356   001C0C  33C1               	rrcf	(___fltol@f1+1)& (0+255),f,b
  2357   001C0E  33C0               	rrcf	___fltol@f1& (0+255),f,b
  2358   001C10                     
  2359                           ; BSR set to: 0
  2360   001C10  3FC9               	incfsz	___fltol@exp1& (0+255),f,b
  2361   001C12  EF03  F00E         	goto	l2742
  2362   001C16  EF25  F00E         	goto	l2756
  2363   001C1A                     l2746:
  2364                           
  2365                           ; BSR set to: 0
  2366   001C1A  0E1F               	movlw	31
  2367   001C1C  65C9               	cpfsgt	___fltol@exp1& (0+255),b
  2368   001C1E  EF13  F00E         	goto	u2171
  2369   001C22  EF15  F00E         	goto	u2170
  2370   001C26                     u2171:
  2371   001C26  EF1D  F00E         	goto	l2754
  2372   001C2A                     u2170:
  2373   001C2A  EFC6  F00D         	goto	l2722
  2374   001C2E                     l2752:
  2375                           
  2376                           ; BSR set to: 0
  2377   001C2E  90D8               	bcf	status,0,c
  2378   001C30  37C0               	rlcf	___fltol@f1& (0+255),f,b
  2379   001C32  37C1               	rlcf	(___fltol@f1+1)& (0+255),f,b
  2380   001C34  37C2               	rlcf	(___fltol@f1+2)& (0+255),f,b
  2381   001C36  37C3               	rlcf	(___fltol@f1+3)& (0+255),f,b
  2382   001C38  07C9               	decf	___fltol@exp1& (0+255),f,b
  2383   001C3A                     l2754:
  2384                           
  2385                           ; BSR set to: 0
  2386   001C3A  51C9               	movf	___fltol@exp1& (0+255),w,b
  2387   001C3C  A4D8               	btfss	status,2,c
  2388   001C3E  EF23  F00E         	goto	u2181
  2389   001C42  EF25  F00E         	goto	u2180
  2390   001C46                     u2181:
  2391   001C46  EF17  F00E         	goto	l2752
  2392   001C4A                     u2180:
  2393   001C4A                     l2756:
  2394                           
  2395                           ; BSR set to: 0
  2396   001C4A  51C8               	movf	___fltol@sign1& (0+255),w,b
  2397   001C4C  B4D8               	btfsc	status,2,c
  2398   001C4E  EF2B  F00E         	goto	u2191
  2399   001C52  EF2D  F00E         	goto	u2190
  2400   001C56                     u2191:
  2401   001C56  EF35  F00E         	goto	l2760
  2402   001C5A                     u2190:
  2403   001C5A                     
  2404                           ; BSR set to: 0
  2405   001C5A  1FC3               	comf	(___fltol@f1+3)& (0+255),f,b
  2406   001C5C  1FC2               	comf	(___fltol@f1+2)& (0+255),f,b
  2407   001C5E  1FC1               	comf	(___fltol@f1+1)& (0+255),f,b
  2408   001C60  6DC0               	negf	___fltol@f1& (0+255),b
  2409   001C62  0E00               	movlw	0
  2410   001C64  23C1               	addwfc	(___fltol@f1+1)& (0+255),f,b
  2411   001C66  23C2               	addwfc	(___fltol@f1+2)& (0+255),f,b
  2412   001C68  23C3               	addwfc	(___fltol@f1+3)& (0+255),f,b
  2413   001C6A                     l2760:
  2414                           
  2415                           ; BSR set to: 0
  2416   001C6A  C0C0  F0C0         	movff	___fltol@f1,?___fltol
  2417   001C6E  C0C1  F0C1         	movff	___fltol@f1+1,?___fltol+1
  2418   001C72  C0C2  F0C2         	movff	___fltol@f1+2,?___fltol+2
  2419   001C76  C0C3  F0C3         	movff	___fltol@f1+3,?___fltol+3
  2420   001C7A                     l730:
  2421                           
  2422                           ; BSR set to: 0
  2423   001C7A  0012               	return		;funcret
  2424   001C7C                     __end_of___fltol:
  2425                           	callstack 0
  2426                           
  2427 ;; *************** function ___flmul *****************
  2428 ;; Defined at:
  2429 ;;		line 8 in file "C:\Program Files\Microchip\xc8\v2.40\pic\sources\c99\common\sprcmul.c"
  2430 ;; Parameters:    Size  Location     Type
  2431 ;;  b               4   14[BANK0 ] long 
  2432 ;;  a               4   18[BANK0 ] long 
  2433 ;; Auto vars:     Size  Location     Type
  2434 ;;  prod            4   33[BANK0 ] struct .
  2435 ;;  grs             4   27[BANK0 ] unsigned long 
  2436 ;;  temp            2   37[BANK0 ] struct .
  2437 ;;  bexp            1   32[BANK0 ] unsigned char 
  2438 ;;  aexp            1   31[BANK0 ] unsigned char 
  2439 ;;  sign            1   26[BANK0 ] unsigned char 
  2440 ;; Return value:  Size  Location     Type
  2441 ;;                  4   14[BANK0 ] unsigned char 
  2442 ;; Registers used:
  2443 ;;		wreg, status,2, status,0, prodl, prodh
  2444 ;; Tracked objects:
  2445 ;;		On entry : 0/0
  2446 ;;		On exit  : 0/0
  2447 ;;		Unchanged: 0/0
  2448 ;; Data sizes:     COMRAM   BANK0   BANK1   BANK2   BANK3   BANK4   BANK5
  2449 ;;      Params:         0       8       0       0       0       0       0
  2450 ;;      Locals:         0      13       0       0       0       0       0
  2451 ;;      Temps:          0       4       0       0       0       0       0
  2452 ;;      Totals:         0      25       0       0       0       0       0
  2453 ;;Total ram usage:       25 bytes
  2454 ;; Hardware stack levels used: 1
  2455 ;; Hardware stack levels required when called: 6
  2456 ;; This function calls:
  2457 ;;		Nothing
  2458 ;; This function is called by:
  2459 ;;		_read_temperature
  2460 ;; This function uses a non-reentrant model
  2461 ;;
  2462                           
  2463                           	psect	text16
  2464   000606                     __ptext16:
  2465                           	callstack 0
  2466   000606                     ___flmul:
  2467                           	callstack 22
  2468   000606  0100               	movlb	0	; () banked
  2469   000608  5191               	movf	(___flmul@b+3)& (0+255),w,b
  2470   00060A  0B80               	andlw	128
  2471   00060C  6F9A               	movwf	___flmul@sign& (0+255),b
  2472   00060E  5191               	movf	(___flmul@b+3)& (0+255),w,b
  2473   000610  2591               	addwf	(___flmul@b+3)& (0+255),w,b
  2474   000612  6FA0               	movwf	___flmul@bexp& (0+255),b
  2475   000614                     
  2476                           ; BSR set to: 0
  2477   000614  AF90               	btfss	(___flmul@b+2)& (0+255),7,b
  2478   000616  EF0F  F003         	goto	u1941
  2479   00061A  EF11  F003         	goto	u1940
  2480   00061E                     u1941:
  2481   00061E  EF12  F003         	goto	l2596
  2482   000622                     u1940:
  2483   000622                     
  2484                           ; BSR set to: 0
  2485   000622  81A0               	bsf	___flmul@bexp& (0+255),0,b
  2486   000624                     l2596:
  2487                           
  2488                           ; BSR set to: 0
  2489   000624  51A0               	movf	___flmul@bexp& (0+255),w,b
  2490   000626  B4D8               	btfsc	status,2,c
  2491   000628  EF18  F003         	goto	u1951
  2492   00062C  EF1A  F003         	goto	u1950
  2493   000630                     u1951:
  2494   000630  EF2D  F003         	goto	l2604
  2495   000634                     u1950:
  2496   000634                     
  2497                           ; BSR set to: 0
  2498   000634  29A0               	incf	___flmul@bexp& (0+255),w,b
  2499   000636  A4D8               	btfss	status,2,c
  2500   000638  EF20  F003         	goto	u1961
  2501   00063C  EF22  F003         	goto	u1960
  2502   000640                     u1961:
  2503   000640  EF2A  F003         	goto	l2602
  2504   000644                     u1960:
  2505   000644                     
  2506                           ; BSR set to: 0
  2507   000644  0E00               	movlw	0
  2508   000646  6F8E               	movwf	___flmul@b& (0+255),b
  2509   000648  0E00               	movlw	0
  2510   00064A  6F8F               	movwf	(___flmul@b+1)& (0+255),b
  2511   00064C  0E00               	movlw	0
  2512   00064E  6F90               	movwf	(___flmul@b+2)& (0+255),b
  2513   000650  0E00               	movlw	0
  2514   000652  6F91               	movwf	(___flmul@b+3)& (0+255),b
  2515   000654                     l2602:
  2516                           
  2517                           ; BSR set to: 0
  2518   000654  8F90               	bsf	(___flmul@b+2)& (0+255),7,b
  2519   000656  EF35  F003         	goto	l2606
  2520   00065A                     l2604:
  2521                           
  2522                           ; BSR set to: 0
  2523   00065A  0E00               	movlw	0
  2524   00065C  6F8E               	movwf	___flmul@b& (0+255),b
  2525   00065E  0E00               	movlw	0
  2526   000660  6F8F               	movwf	(___flmul@b+1)& (0+255),b
  2527   000662  0E00               	movlw	0
  2528   000664  6F90               	movwf	(___flmul@b+2)& (0+255),b
  2529   000666  0E00               	movlw	0
  2530   000668  6F91               	movwf	(___flmul@b+3)& (0+255),b
  2531   00066A                     l2606:
  2532                           
  2533                           ; BSR set to: 0
  2534   00066A  5195               	movf	(___flmul@a+3)& (0+255),w,b
  2535   00066C  0B80               	andlw	128
  2536   00066E  1B9A               	xorwf	___flmul@sign& (0+255),f,b
  2537   000670                     
  2538                           ; BSR set to: 0
  2539   000670  5195               	movf	(___flmul@a+3)& (0+255),w,b
  2540   000672  2595               	addwf	(___flmul@a+3)& (0+255),w,b
  2541   000674  6F9F               	movwf	___flmul@aexp& (0+255),b
  2542   000676                     
  2543                           ; BSR set to: 0
  2544   000676  AF94               	btfss	(___flmul@a+2)& (0+255),7,b
  2545   000678  EF40  F003         	goto	u1971
  2546   00067C  EF42  F003         	goto	u1970
  2547   000680                     u1971:
  2548   000680  EF43  F003         	goto	l2614
  2549   000684                     u1970:
  2550   000684                     
  2551                           ; BSR set to: 0
  2552   000684  819F               	bsf	___flmul@aexp& (0+255),0,b
  2553   000686                     l2614:
  2554                           
  2555                           ; BSR set to: 0
  2556   000686  519F               	movf	___flmul@aexp& (0+255),w,b
  2557   000688  B4D8               	btfsc	status,2,c
  2558   00068A  EF49  F003         	goto	u1981
  2559   00068E  EF4B  F003         	goto	u1980
  2560   000692                     u1981:
  2561   000692  EF5E  F003         	goto	l2622
  2562   000696                     u1980:
  2563   000696                     
  2564                           ; BSR set to: 0
  2565   000696  299F               	incf	___flmul@aexp& (0+255),w,b
  2566   000698  A4D8               	btfss	status,2,c
  2567   00069A  EF51  F003         	goto	u1991
  2568   00069E  EF53  F003         	goto	u1990
  2569   0006A2                     u1991:
  2570   0006A2  EF5B  F003         	goto	l2620
  2571   0006A6                     u1990:
  2572   0006A6                     
  2573                           ; BSR set to: 0
  2574   0006A6  0E00               	movlw	0
  2575   0006A8  6F92               	movwf	___flmul@a& (0+255),b
  2576   0006AA  0E00               	movlw	0
  2577   0006AC  6F93               	movwf	(___flmul@a+1)& (0+255),b
  2578   0006AE  0E00               	movlw	0
  2579   0006B0  6F94               	movwf	(___flmul@a+2)& (0+255),b
  2580   0006B2  0E00               	movlw	0
  2581   0006B4  6F95               	movwf	(___flmul@a+3)& (0+255),b
  2582   0006B6                     l2620:
  2583                           
  2584                           ; BSR set to: 0
  2585   0006B6  8F94               	bsf	(___flmul@a+2)& (0+255),7,b
  2586   0006B8  EF66  F003         	goto	l1047
  2587   0006BC                     l2622:
  2588                           
  2589                           ; BSR set to: 0
  2590   0006BC  0E00               	movlw	0
  2591   0006BE  6F92               	movwf	___flmul@a& (0+255),b
  2592   0006C0  0E00               	movlw	0
  2593   0006C2  6F93               	movwf	(___flmul@a+1)& (0+255),b
  2594   0006C4  0E00               	movlw	0
  2595   0006C6  6F94               	movwf	(___flmul@a+2)& (0+255),b
  2596   0006C8  0E00               	movlw	0
  2597   0006CA  6F95               	movwf	(___flmul@a+3)& (0+255),b
  2598   0006CC                     l1047:
  2599                           
  2600                           ; BSR set to: 0
  2601   0006CC  519F               	movf	___flmul@aexp& (0+255),w,b
  2602   0006CE  B4D8               	btfsc	status,2,c
  2603   0006D0  EF6C  F003         	goto	u2001
  2604   0006D4  EF6E  F003         	goto	u2000
  2605   0006D8                     u2001:
  2606   0006D8  EF76  F003         	goto	l2626
  2607   0006DC                     u2000:
  2608   0006DC                     
  2609                           ; BSR set to: 0
  2610   0006DC  51A0               	movf	___flmul@bexp& (0+255),w,b
  2611   0006DE  A4D8               	btfss	status,2,c
  2612   0006E0  EF74  F003         	goto	u2011
  2613   0006E4  EF76  F003         	goto	u2010
  2614   0006E8                     u2011:
  2615   0006E8  EF80  F003         	goto	l2630
  2616   0006EC                     u2010:
  2617   0006EC                     l2626:
  2618                           
  2619                           ; BSR set to: 0
  2620   0006EC  0E00               	movlw	0
  2621   0006EE  6F8E               	movwf	?___flmul& (0+255),b
  2622   0006F0  0E00               	movlw	0
  2623   0006F2  6F8F               	movwf	(?___flmul+1)& (0+255),b
  2624   0006F4  0E00               	movlw	0
  2625   0006F6  6F90               	movwf	(?___flmul+2)& (0+255),b
  2626   0006F8  0E00               	movlw	0
  2627   0006FA  6F91               	movwf	(?___flmul+3)& (0+255),b
  2628   0006FC  EF18  F005         	goto	l1051
  2629   000700                     l2630:
  2630                           
  2631                           ; BSR set to: 0
  2632   000700  5194               	movf	(___flmul@a+2)& (0+255),w,b
  2633   000702  038E               	mulwf	___flmul@b& (0+255),b
  2634   000704  CFF3 F0A5          	movff	prodl,___flmul@temp
  2635   000708  CFF4 F0A6          	movff	prodh,___flmul@temp+1
  2636   00070C                     
  2637                           ; BSR set to: 0
  2638   00070C  51A5               	movf	___flmul@temp& (0+255),w,b
  2639   00070E  6F9B               	movwf	___flmul@grs& (0+255),b
  2640   000710  6B9C               	clrf	(___flmul@grs+1)& (0+255),b
  2641   000712  6B9D               	clrf	(___flmul@grs+2)& (0+255),b
  2642   000714  6B9E               	clrf	(___flmul@grs+3)& (0+255),b
  2643   000716                     
  2644                           ; BSR set to: 0
  2645   000716  51A6               	movf	(___flmul@temp+1)& (0+255),w,b
  2646   000718  6FA1               	movwf	___flmul@prod& (0+255),b
  2647   00071A  6BA2               	clrf	(___flmul@prod+1)& (0+255),b
  2648   00071C  6BA3               	clrf	(___flmul@prod+2)& (0+255),b
  2649   00071E  6BA4               	clrf	(___flmul@prod+3)& (0+255),b
  2650   000720  5193               	movf	(___flmul@a+1)& (0+255),w,b
  2651   000722  038F               	mulwf	(___flmul@b+1)& (0+255),b
  2652   000724  CFF3 F0A5          	movff	prodl,___flmul@temp
  2653   000728  CFF4 F0A6          	movff	prodh,___flmul@temp+1
  2654   00072C                     
  2655                           ; BSR set to: 0
  2656   00072C  51A5               	movf	___flmul@temp& (0+255),w,b
  2657   00072E  279B               	addwf	___flmul@grs& (0+255),f,b
  2658   000730  0E00               	movlw	0
  2659   000732  239C               	addwfc	(___flmul@grs+1)& (0+255),f,b
  2660   000734  239D               	addwfc	(___flmul@grs+2)& (0+255),f,b
  2661   000736  239E               	addwfc	(___flmul@grs+3)& (0+255),f,b
  2662   000738                     
  2663                           ; BSR set to: 0
  2664   000738  51A6               	movf	(___flmul@temp+1)& (0+255),w,b
  2665   00073A  27A1               	addwf	___flmul@prod& (0+255),f,b
  2666   00073C  0E00               	movlw	0
  2667   00073E  23A2               	addwfc	(___flmul@prod+1)& (0+255),f,b
  2668   000740  23A3               	addwfc	(___flmul@prod+2)& (0+255),f,b
  2669   000742  23A4               	addwfc	(___flmul@prod+3)& (0+255),f,b
  2670   000744  5192               	movf	___flmul@a& (0+255),w,b
  2671   000746  0390               	mulwf	(___flmul@b+2)& (0+255),b
  2672   000748  CFF3 F0A5          	movff	prodl,___flmul@temp
  2673   00074C  CFF4 F0A6          	movff	prodh,___flmul@temp+1
  2674   000750                     
  2675                           ; BSR set to: 0
  2676   000750  51A5               	movf	___flmul@temp& (0+255),w,b
  2677   000752  279B               	addwf	___flmul@grs& (0+255),f,b
  2678   000754  0E00               	movlw	0
  2679   000756  239C               	addwfc	(___flmul@grs+1)& (0+255),f,b
  2680   000758  239D               	addwfc	(___flmul@grs+2)& (0+255),f,b
  2681   00075A  239E               	addwfc	(___flmul@grs+3)& (0+255),f,b
  2682   00075C                     
  2683                           ; BSR set to: 0
  2684   00075C  51A6               	movf	(___flmul@temp+1)& (0+255),w,b
  2685   00075E  27A1               	addwf	___flmul@prod& (0+255),f,b
  2686   000760  0E00               	movlw	0
  2687   000762  23A2               	addwfc	(___flmul@prod+1)& (0+255),f,b
  2688   000764  23A3               	addwfc	(___flmul@prod+2)& (0+255),f,b
  2689   000766  23A4               	addwfc	(___flmul@prod+3)& (0+255),f,b
  2690   000768                     
  2691                           ; BSR set to: 0
  2692   000768  C09D  F09E         	movff	___flmul@grs+2,___flmul@grs+3
  2693   00076C  C09C  F09D         	movff	___flmul@grs+1,___flmul@grs+2
  2694   000770  C09B  F09C         	movff	___flmul@grs,___flmul@grs+1
  2695   000774  6B9B               	clrf	___flmul@grs& (0+255),b
  2696   000776                     
  2697                           ; BSR set to: 0
  2698   000776  5192               	movf	___flmul@a& (0+255),w,b
  2699   000778  038F               	mulwf	(___flmul@b+1)& (0+255),b
  2700   00077A  CFF3 F0A5          	movff	prodl,___flmul@temp
  2701   00077E  CFF4 F0A6          	movff	prodh,___flmul@temp+1
  2702   000782                     
  2703                           ; BSR set to: 0
  2704   000782  51A5               	movf	___flmul@temp& (0+255),w,b
  2705   000784  279B               	addwf	___flmul@grs& (0+255),f,b
  2706   000786  51A6               	movf	(___flmul@temp+1)& (0+255),w,b
  2707   000788  239C               	addwfc	(___flmul@grs+1)& (0+255),f,b
  2708   00078A  0E00               	movlw	0
  2709   00078C  239D               	addwfc	(___flmul@grs+2)& (0+255),f,b
  2710   00078E  0E00               	movlw	0
  2711   000790  239E               	addwfc	(___flmul@grs+3)& (0+255),f,b
  2712   000792                     
  2713                           ; BSR set to: 0
  2714   000792  5193               	movf	(___flmul@a+1)& (0+255),w,b
  2715   000794  038E               	mulwf	___flmul@b& (0+255),b
  2716   000796  CFF3 F0A5          	movff	prodl,___flmul@temp
  2717   00079A  CFF4 F0A6          	movff	prodh,___flmul@temp+1
  2718   00079E                     
  2719                           ; BSR set to: 0
  2720   00079E  51A5               	movf	___flmul@temp& (0+255),w,b
  2721   0007A0  279B               	addwf	___flmul@grs& (0+255),f,b
  2722   0007A2  51A6               	movf	(___flmul@temp+1)& (0+255),w,b
  2723   0007A4  239C               	addwfc	(___flmul@grs+1)& (0+255),f,b
  2724   0007A6  0E00               	movlw	0
  2725   0007A8  239D               	addwfc	(___flmul@grs+2)& (0+255),f,b
  2726   0007AA  0E00               	movlw	0
  2727   0007AC  239E               	addwfc	(___flmul@grs+3)& (0+255),f,b
  2728   0007AE                     
  2729                           ; BSR set to: 0
  2730   0007AE  C09D  F09E         	movff	___flmul@grs+2,___flmul@grs+3
  2731   0007B2  C09C  F09D         	movff	___flmul@grs+1,___flmul@grs+2
  2732   0007B6  C09B  F09C         	movff	___flmul@grs,___flmul@grs+1
  2733   0007BA  6B9B               	clrf	___flmul@grs& (0+255),b
  2734   0007BC  5192               	movf	___flmul@a& (0+255),w,b
  2735   0007BE  038E               	mulwf	___flmul@b& (0+255),b
  2736   0007C0  CFF3 F0A5          	movff	prodl,___flmul@temp
  2737   0007C4  CFF4 F0A6          	movff	prodh,___flmul@temp+1
  2738   0007C8                     
  2739                           ; BSR set to: 0
  2740   0007C8  51A5               	movf	___flmul@temp& (0+255),w,b
  2741   0007CA  279B               	addwf	___flmul@grs& (0+255),f,b
  2742   0007CC  51A6               	movf	(___flmul@temp+1)& (0+255),w,b
  2743   0007CE  239C               	addwfc	(___flmul@grs+1)& (0+255),f,b
  2744   0007D0  0E00               	movlw	0
  2745   0007D2  239D               	addwfc	(___flmul@grs+2)& (0+255),f,b
  2746   0007D4  0E00               	movlw	0
  2747   0007D6  239E               	addwfc	(___flmul@grs+3)& (0+255),f,b
  2748   0007D8                     
  2749                           ; BSR set to: 0
  2750   0007D8  5194               	movf	(___flmul@a+2)& (0+255),w,b
  2751   0007DA  038F               	mulwf	(___flmul@b+1)& (0+255),b
  2752   0007DC  CFF3 F0A5          	movff	prodl,___flmul@temp
  2753   0007E0  CFF4 F0A6          	movff	prodh,___flmul@temp+1
  2754   0007E4  51A5               	movf	___flmul@temp& (0+255),w,b
  2755   0007E6  27A1               	addwf	___flmul@prod& (0+255),f,b
  2756   0007E8  51A6               	movf	(___flmul@temp+1)& (0+255),w,b
  2757   0007EA  23A2               	addwfc	(___flmul@prod+1)& (0+255),f,b
  2758   0007EC  0E00               	movlw	0
  2759   0007EE  23A3               	addwfc	(___flmul@prod+2)& (0+255),f,b
  2760   0007F0  0E00               	movlw	0
  2761   0007F2  23A4               	addwfc	(___flmul@prod+3)& (0+255),f,b
  2762   0007F4                     
  2763                           ; BSR set to: 0
  2764   0007F4  5193               	movf	(___flmul@a+1)& (0+255),w,b
  2765   0007F6  0390               	mulwf	(___flmul@b+2)& (0+255),b
  2766   0007F8  CFF3 F0A5          	movff	prodl,___flmul@temp
  2767   0007FC  CFF4 F0A6          	movff	prodh,___flmul@temp+1
  2768   000800                     
  2769                           ; BSR set to: 0
  2770   000800  51A5               	movf	___flmul@temp& (0+255),w,b
  2771   000802  27A1               	addwf	___flmul@prod& (0+255),f,b
  2772   000804  51A6               	movf	(___flmul@temp+1)& (0+255),w,b
  2773   000806  23A2               	addwfc	(___flmul@prod+1)& (0+255),f,b
  2774   000808  0E00               	movlw	0
  2775   00080A  23A3               	addwfc	(___flmul@prod+2)& (0+255),f,b
  2776   00080C  0E00               	movlw	0
  2777   00080E  23A4               	addwfc	(___flmul@prod+3)& (0+255),f,b
  2778   000810  5194               	movf	(___flmul@a+2)& (0+255),w,b
  2779   000812  0390               	mulwf	(___flmul@b+2)& (0+255),b
  2780   000814  CFF3 F0A5          	movff	prodl,___flmul@temp
  2781   000818  CFF4 F0A6          	movff	prodh,___flmul@temp+1
  2782   00081C                     
  2783                           ; BSR set to: 0
  2784   00081C  51A5               	movf	___flmul@temp& (0+255),w,b
  2785   00081E  6F96               	movwf	??___flmul& (0+255),b
  2786   000820  51A6               	movf	(___flmul@temp+1)& (0+255),w,b
  2787   000822  6F97               	movwf	(??___flmul+1)& (0+255),b
  2788   000824  6B98               	clrf	(??___flmul+2)& (0+255),b
  2789   000826  6B99               	clrf	(??___flmul+3)& (0+255),b
  2790   000828  C098  F099         	movff	??___flmul+2,??___flmul+3
  2791   00082C  C097  F098         	movff	??___flmul+1,??___flmul+2
  2792   000830  C096  F097         	movff	??___flmul,??___flmul+1
  2793   000834  6B96               	clrf	??___flmul& (0+255),b
  2794   000836  5196               	movf	??___flmul& (0+255),w,b
  2795   000838  27A1               	addwf	___flmul@prod& (0+255),f,b
  2796   00083A  5197               	movf	(??___flmul+1)& (0+255),w,b
  2797   00083C  23A2               	addwfc	(___flmul@prod+1)& (0+255),f,b
  2798   00083E  5198               	movf	(??___flmul+2)& (0+255),w,b
  2799   000840  23A3               	addwfc	(___flmul@prod+2)& (0+255),f,b
  2800   000842  5199               	movf	(??___flmul+3)& (0+255),w,b
  2801   000844  23A4               	addwfc	(___flmul@prod+3)& (0+255),f,b
  2802   000846                     
  2803                           ; BSR set to: 0
  2804   000846  C09B  F096         	movff	___flmul@grs,??___flmul
  2805   00084A  C09C  F097         	movff	___flmul@grs+1,??___flmul+1
  2806   00084E  C09D  F098         	movff	___flmul@grs+2,??___flmul+2
  2807   000852  C09E  F099         	movff	___flmul@grs+3,??___flmul+3
  2808   000856  0E19               	movlw	25
  2809   000858  EF33  F004         	goto	u2020
  2810   00085C                     u2025:
  2811   00085C  90D8               	bcf	status,0,c
  2812   00085E  3399               	rrcf	(??___flmul+3)& (0+255),f,b
  2813   000860  3398               	rrcf	(??___flmul+2)& (0+255),f,b
  2814   000862  3397               	rrcf	(??___flmul+1)& (0+255),f,b
  2815   000864  3396               	rrcf	??___flmul& (0+255),f,b
  2816   000866                     u2020:
  2817   000866  2EE8               	decfsz	wreg,f,c
  2818   000868  EF2E  F004         	goto	u2025
  2819   00086C  5196               	movf	??___flmul& (0+255),w,b
  2820   00086E  27A1               	addwf	___flmul@prod& (0+255),f,b
  2821   000870  5197               	movf	(??___flmul+1)& (0+255),w,b
  2822   000872  23A2               	addwfc	(___flmul@prod+1)& (0+255),f,b
  2823   000874  5198               	movf	(??___flmul+2)& (0+255),w,b
  2824   000876  23A3               	addwfc	(___flmul@prod+2)& (0+255),f,b
  2825   000878  5199               	movf	(??___flmul+3)& (0+255),w,b
  2826   00087A  23A4               	addwfc	(___flmul@prod+3)& (0+255),f,b
  2827   00087C                     
  2828                           ; BSR set to: 0
  2829   00087C  C09D  F09E         	movff	___flmul@grs+2,___flmul@grs+3
  2830   000880  C09C  F09D         	movff	___flmul@grs+1,___flmul@grs+2
  2831   000884  C09B  F09C         	movff	___flmul@grs,___flmul@grs+1
  2832   000888  6B9B               	clrf	___flmul@grs& (0+255),b
  2833   00088A                     
  2834                           ; BSR set to: 0
  2835   00088A  519F               	movf	___flmul@aexp& (0+255),w,b
  2836   00088C  C0A0  F096         	movff	___flmul@bexp,??___flmul
  2837   000890  6B97               	clrf	(??___flmul+1)& (0+255),b
  2838   000892  2796               	addwf	??___flmul& (0+255),f,b
  2839   000894  0E00               	movlw	0
  2840   000896  2397               	addwfc	(??___flmul+1)& (0+255),f,b
  2841   000898  0E82               	movlw	130
  2842   00089A  2596               	addwf	??___flmul& (0+255),w,b
  2843   00089C  6FA5               	movwf	___flmul@temp& (0+255),b
  2844   00089E  0EFF               	movlw	255
  2845   0008A0  2197               	addwfc	(??___flmul+1)& (0+255),w,b
  2846   0008A2  6FA6               	movwf	(___flmul@temp+1)& (0+255),b
  2847   0008A4  EF69  F004         	goto	l2678
  2848   0008A8                     l2672:
  2849                           
  2850                           ; BSR set to: 0
  2851   0008A8  90D8               	bcf	status,0,c
  2852   0008AA  37A1               	rlcf	___flmul@prod& (0+255),f,b
  2853   0008AC  37A2               	rlcf	(___flmul@prod+1)& (0+255),f,b
  2854   0008AE  37A3               	rlcf	(___flmul@prod+2)& (0+255),f,b
  2855   0008B0  37A4               	rlcf	(___flmul@prod+3)& (0+255),f,b
  2856   0008B2                     
  2857                           ; BSR set to: 0
  2858   0008B2  AF9E               	btfss	(___flmul@grs+3)& (0+255),7,b
  2859   0008B4  EF5E  F004         	goto	u2031
  2860   0008B8  EF60  F004         	goto	u2030
  2861   0008BC                     u2031:
  2862   0008BC  EF61  F004         	goto	l1054
  2863   0008C0                     u2030:
  2864   0008C0                     
  2865                           ; BSR set to: 0
  2866   0008C0  81A1               	bsf	___flmul@prod& (0+255),0,b
  2867   0008C2                     l1054:
  2868                           
  2869                           ; BSR set to: 0
  2870   0008C2  90D8               	bcf	status,0,c
  2871   0008C4  379B               	rlcf	___flmul@grs& (0+255),f,b
  2872   0008C6  379C               	rlcf	(___flmul@grs+1)& (0+255),f,b
  2873   0008C8  379D               	rlcf	(___flmul@grs+2)& (0+255),f,b
  2874   0008CA  379E               	rlcf	(___flmul@grs+3)& (0+255),f,b
  2875   0008CC  07A5               	decf	___flmul@temp& (0+255),f,b
  2876   0008CE  A0D8               	btfss	status,0,c
  2877   0008D0  07A6               	decf	(___flmul@temp+1)& (0+255),f,b
  2878   0008D2                     l2678:
  2879                           
  2880                           ; BSR set to: 0
  2881   0008D2  AFA3               	btfss	(___flmul@prod+2)& (0+255),7,b
  2882   0008D4  EF6E  F004         	goto	u2041
  2883   0008D8  EF70  F004         	goto	u2040
  2884   0008DC                     u2041:
  2885   0008DC  EF54  F004         	goto	l2672
  2886   0008E0                     u2040:
  2887   0008E0                     
  2888                           ; BSR set to: 0
  2889   0008E0  0E00               	movlw	0
  2890   0008E2  6F9F               	movwf	___flmul@aexp& (0+255),b
  2891   0008E4                     
  2892                           ; BSR set to: 0
  2893   0008E4  AF9E               	btfss	(___flmul@grs+3)& (0+255),7,b
  2894   0008E6  EF77  F004         	goto	u2051
  2895   0008EA  EF79  F004         	goto	u2050
  2896   0008EE                     u2051:
  2897   0008EE  EF9D  F004         	goto	l1056
  2898   0008F2                     u2050:
  2899   0008F2                     
  2900                           ; BSR set to: 0
  2901   0008F2  0EFF               	movlw	255
  2902   0008F4  159B               	andwf	___flmul@grs& (0+255),w,b
  2903   0008F6  6F96               	movwf	??___flmul& (0+255),b
  2904   0008F8  0EFF               	movlw	255
  2905   0008FA  159C               	andwf	(___flmul@grs+1)& (0+255),w,b
  2906   0008FC  6F97               	movwf	(??___flmul+1)& (0+255),b
  2907   0008FE  0EFF               	movlw	255
  2908   000900  159D               	andwf	(___flmul@grs+2)& (0+255),w,b
  2909   000902  6F98               	movwf	(??___flmul+2)& (0+255),b
  2910   000904  0E7F               	movlw	127
  2911   000906  159E               	andwf	(___flmul@grs+3)& (0+255),w,b
  2912   000908  6F99               	movwf	(??___flmul+3)& (0+255),b
  2913   00090A  5196               	movf	??___flmul& (0+255),w,b
  2914   00090C  1197               	iorwf	(??___flmul+1)& (0+255),w,b
  2915   00090E  1198               	iorwf	(??___flmul+2)& (0+255),w,b
  2916   000910  1199               	iorwf	(??___flmul+3)& (0+255),w,b
  2917   000912  B4D8               	btfsc	status,2,c
  2918   000914  EF8E  F004         	goto	u2061
  2919   000918  EF90  F004         	goto	u2060
  2920   00091C                     u2061:
  2921   00091C  EF94  F004         	goto	l1057
  2922   000920                     u2060:
  2923   000920                     l2686:
  2924                           
  2925                           ; BSR set to: 0
  2926   000920  0E01               	movlw	1
  2927   000922  6F9F               	movwf	___flmul@aexp& (0+255),b
  2928   000924  EF9D  F004         	goto	l1056
  2929   000928                     l1057:
  2930                           
  2931                           ; BSR set to: 0
  2932   000928  A1A1               	btfss	___flmul@prod& (0+255),0,b
  2933   00092A  EF99  F004         	goto	u2071
  2934   00092E  EF9B  F004         	goto	u2070
  2935   000932                     u2071:
  2936   000932  EF9D  F004         	goto	l1056
  2937   000936                     u2070:
  2938   000936  EF90  F004         	goto	l2686
  2939   00093A                     l1056:
  2940                           
  2941                           ; BSR set to: 0
  2942   00093A  519F               	movf	___flmul@aexp& (0+255),w,b
  2943   00093C  B4D8               	btfsc	status,2,c
  2944   00093E  EFA3  F004         	goto	u2081
  2945   000942  EFA5  F004         	goto	u2080
  2946   000946                     u2081:
  2947   000946  EFC9  F004         	goto	l2698
  2948   00094A                     u2080:
  2949   00094A                     
  2950                           ; BSR set to: 0
  2951   00094A  0E01               	movlw	1
  2952   00094C  27A1               	addwf	___flmul@prod& (0+255),f,b
  2953   00094E  0E00               	movlw	0
  2954   000950  23A2               	addwfc	(___flmul@prod+1)& (0+255),f,b
  2955   000952  23A3               	addwfc	(___flmul@prod+2)& (0+255),f,b
  2956   000954  23A4               	addwfc	(___flmul@prod+3)& (0+255),f,b
  2957   000956                     
  2958                           ; BSR set to: 0
  2959   000956  A1A4               	btfss	(___flmul@prod+3)& (0+255),0,b
  2960   000958  EFB0  F004         	goto	u2091
  2961   00095C  EFB2  F004         	goto	u2090
  2962   000960                     u2091:
  2963   000960  EFC9  F004         	goto	l2698
  2964   000964                     u2090:
  2965   000964                     
  2966                           ; BSR set to: 0
  2967   000964  C0A1  F096         	movff	___flmul@prod,??___flmul
  2968   000968  C0A2  F097         	movff	___flmul@prod+1,??___flmul+1
  2969   00096C  C0A3  F098         	movff	___flmul@prod+2,??___flmul+2
  2970   000970  C0A4  F099         	movff	___flmul@prod+3,??___flmul+3
  2971   000974  3599               	rlcf	(??___flmul+3)& (0+255),w,b
  2972   000976  3399               	rrcf	(??___flmul+3)& (0+255),f,b
  2973   000978  3398               	rrcf	(??___flmul+2)& (0+255),f,b
  2974   00097A  3397               	rrcf	(??___flmul+1)& (0+255),f,b
  2975   00097C  3396               	rrcf	??___flmul& (0+255),f,b
  2976   00097E  C096  F0A1         	movff	??___flmul,___flmul@prod
  2977   000982  C097  F0A2         	movff	??___flmul+1,___flmul@prod+1
  2978   000986  C098  F0A3         	movff	??___flmul+2,___flmul@prod+2
  2979   00098A  C099  F0A4         	movff	??___flmul+3,___flmul@prod+3
  2980   00098E                     
  2981                           ; BSR set to: 0
  2982   00098E  4BA5               	infsnz	___flmul@temp& (0+255),f,b
  2983   000990  2BA6               	incf	(___flmul@temp+1)& (0+255),f,b
  2984   000992                     l2698:
  2985                           
  2986                           ; BSR set to: 0
  2987   000992  BFA6               	btfsc	(___flmul@temp+1)& (0+255),7,b
  2988   000994  EFD4  F004         	goto	u2101
  2989   000998  51A6               	movf	(___flmul@temp+1)& (0+255),w,b
  2990   00099A  E108               	bnz	u2100
  2991   00099C  29A5               	incf	___flmul@temp& (0+255),w,b
  2992   00099E  A0D8               	btfss	status,0,c
  2993   0009A0  EFD4  F004         	goto	u2101
  2994   0009A4  EFD6  F004         	goto	u2100
  2995   0009A8                     u2101:
  2996   0009A8  EFE0  F004         	goto	l2702
  2997   0009AC                     u2100:
  2998   0009AC                     
  2999                           ; BSR set to: 0
  3000   0009AC  0E00               	movlw	0
  3001   0009AE  6FA1               	movwf	___flmul@prod& (0+255),b
  3002   0009B0  0E00               	movlw	0
  3003   0009B2  6FA2               	movwf	(___flmul@prod+1)& (0+255),b
  3004   0009B4  0E80               	movlw	128
  3005   0009B6  6FA3               	movwf	(___flmul@prod+2)& (0+255),b
  3006   0009B8  0E7F               	movlw	127
  3007   0009BA  6FA4               	movwf	(___flmul@prod+3)& (0+255),b
  3008   0009BC  EF0E  F005         	goto	l2714
  3009   0009C0                     l2702:
  3010                           
  3011                           ; BSR set to: 0
  3012   0009C0  BFA6               	btfsc	(___flmul@temp+1)& (0+255),7,b
  3013   0009C2  EFED  F004         	goto	u2110
  3014   0009C6  51A6               	movf	(___flmul@temp+1)& (0+255),w,b
  3015   0009C8  E106               	bnz	u2111
  3016   0009CA  05A5               	decf	___flmul@temp& (0+255),w,b
  3017   0009CC  B0D8               	btfsc	status,0,c
  3018   0009CE  EFEB  F004         	goto	u2111
  3019   0009D2  EFED  F004         	goto	u2110
  3020   0009D6                     u2111:
  3021   0009D6  EFF9  F004         	goto	l1064
  3022   0009DA                     u2110:
  3023   0009DA                     
  3024                           ; BSR set to: 0
  3025   0009DA  0E00               	movlw	0
  3026   0009DC  6FA1               	movwf	___flmul@prod& (0+255),b
  3027   0009DE  0E00               	movlw	0
  3028   0009E0  6FA2               	movwf	(___flmul@prod+1)& (0+255),b
  3029   0009E2  0E00               	movlw	0
  3030   0009E4  6FA3               	movwf	(___flmul@prod+2)& (0+255),b
  3031   0009E6  0E00               	movlw	0
  3032   0009E8  6FA4               	movwf	(___flmul@prod+3)& (0+255),b
  3033   0009EA  0E00               	movlw	0
  3034   0009EC  6F9A               	movwf	___flmul@sign& (0+255),b
  3035   0009EE  EF0E  F005         	goto	l2714
  3036   0009F2                     l1064:
  3037                           
  3038                           ; BSR set to: 0
  3039   0009F2  C0A5  F0A0         	movff	___flmul@temp,___flmul@bexp
  3040   0009F6                     
  3041                           ; BSR set to: 0
  3042   0009F6  0EFF               	movlw	255
  3043   0009F8  17A1               	andwf	___flmul@prod& (0+255),f,b
  3044   0009FA  0EFF               	movlw	255
  3045   0009FC  17A2               	andwf	(___flmul@prod+1)& (0+255),f,b
  3046   0009FE  0E7F               	movlw	127
  3047   000A00  17A3               	andwf	(___flmul@prod+2)& (0+255),f,b
  3048   000A02  0E00               	movlw	0
  3049   000A04  17A4               	andwf	(___flmul@prod+3)& (0+255),f,b
  3050   000A06                     
  3051                           ; BSR set to: 0
  3052   000A06  A1A0               	btfss	___flmul@bexp& (0+255),0,b
  3053   000A08  EF08  F005         	goto	u2121
  3054   000A0C  EF0A  F005         	goto	u2120
  3055   000A10                     u2121:
  3056   000A10  EF0B  F005         	goto	l2712
  3057   000A14                     u2120:
  3058   000A14                     
  3059                           ; BSR set to: 0
  3060   000A14  8FA3               	bsf	(___flmul@prod+2)& (0+255),7,b
  3061   000A16                     l2712:
  3062                           
  3063                           ; BSR set to: 0
  3064   000A16  90D8               	bcf	status,0,c
  3065   000A18  31A0               	rrcf	___flmul@bexp& (0+255),w,b
  3066   000A1A  6FA4               	movwf	(___flmul@prod+3)& (0+255),b
  3067   000A1C                     l2714:
  3068                           
  3069                           ; BSR set to: 0
  3070   000A1C  519A               	movf	___flmul@sign& (0+255),w,b
  3071   000A1E  13A4               	iorwf	(___flmul@prod+3)& (0+255),f,b
  3072   000A20                     
  3073                           ; BSR set to: 0
  3074   000A20  C0A1  F08E         	movff	___flmul@prod,?___flmul
  3075   000A24  C0A2  F08F         	movff	___flmul@prod+1,?___flmul+1
  3076   000A28  C0A3  F090         	movff	___flmul@prod+2,?___flmul+2
  3077   000A2C  C0A4  F091         	movff	___flmul@prod+3,?___flmul+3
  3078   000A30                     l1051:
  3079                           
  3080                           ; BSR set to: 0
  3081   000A30  0012               	return		;funcret
  3082   000A32                     __end_of___flmul:
  3083                           	callstack 0
  3084                           
  3085 ;; *************** function ___fldiv *****************
  3086 ;; Defined at:
  3087 ;;		line 11 in file "C:\Program Files\Microchip\xc8\v2.40\pic\sources\c99\common\sprcdiv.c"
  3088 ;; Parameters:    Size  Location     Type
  3089 ;;  b               4   39[BANK0 ] unsigned char 
  3090 ;;  a               4   43[BANK0 ] unsigned char 
  3091 ;; Auto vars:     Size  Location     Type
  3092 ;;  grs             4   58[BANK0 ] unsigned long 
  3093 ;;  rem             4   51[BANK0 ] unsigned long 
  3094 ;;  new_exp         2   56[BANK0 ] short 
  3095 ;;  aexp            1   63[BANK0 ] unsigned char 
  3096 ;;  bexp            1   62[BANK0 ] unsigned char 
  3097 ;;  sign            1   55[BANK0 ] unsigned char 
  3098 ;; Return value:  Size  Location     Type
  3099 ;;                  4   39[BANK0 ] unsigned char 
  3100 ;; Registers used:
  3101 ;;		wreg, status,2, status,0
  3102 ;; Tracked objects:
  3103 ;;		On entry : 0/0
  3104 ;;		On exit  : 0/0
  3105 ;;		Unchanged: 0/0
  3106 ;; Data sizes:     COMRAM   BANK0   BANK1   BANK2   BANK3   BANK4   BANK5
  3107 ;;      Params:         0       8       0       0       0       0       0
  3108 ;;      Locals:         0      13       0       0       0       0       0
  3109 ;;      Temps:          0       4       0       0       0       0       0
  3110 ;;      Totals:         0      25       0       0       0       0       0
  3111 ;;Total ram usage:       25 bytes
  3112 ;; Hardware stack levels used: 1
  3113 ;; Hardware stack levels required when called: 6
  3114 ;; This function calls:
  3115 ;;		Nothing
  3116 ;; This function is called by:
  3117 ;;		_read_temperature
  3118 ;; This function uses a non-reentrant model
  3119 ;;
  3120                           
  3121                           	psect	text17
  3122   000E5C                     __ptext17:
  3123                           	callstack 0
  3124   000E5C                     ___fldiv:
  3125                           	callstack 22
  3126   000E5C  0100               	movlb	0	; () banked
  3127   000E5E  51AA               	movf	(___fldiv@b+3)& (0+255),w,b
  3128   000E60  0B80               	andlw	128
  3129   000E62  6FB7               	movwf	___fldiv@sign& (0+255),b
  3130   000E64  51AA               	movf	(___fldiv@b+3)& (0+255),w,b
  3131   000E66  25AA               	addwf	(___fldiv@b+3)& (0+255),w,b
  3132   000E68  6FBE               	movwf	___fldiv@bexp& (0+255),b
  3133   000E6A                     
  3134                           ; BSR set to: 0
  3135   000E6A  AFA9               	btfss	(___fldiv@b+2)& (0+255),7,b
  3136   000E6C  EF3A  F007         	goto	u1711
  3137   000E70  EF3C  F007         	goto	u1710
  3138   000E74                     u1711:
  3139   000E74  EF3D  F007         	goto	l2458
  3140   000E78                     u1710:
  3141   000E78                     
  3142                           ; BSR set to: 0
  3143   000E78  81BE               	bsf	___fldiv@bexp& (0+255),0,b
  3144   000E7A                     l2458:
  3145                           
  3146                           ; BSR set to: 0
  3147   000E7A  51BE               	movf	___fldiv@bexp& (0+255),w,b
  3148   000E7C  B4D8               	btfsc	status,2,c
  3149   000E7E  EF43  F007         	goto	u1721
  3150   000E82  EF45  F007         	goto	u1720
  3151   000E86                     u1721:
  3152   000E86  EF5A  F007         	goto	l2468
  3153   000E8A                     u1720:
  3154   000E8A                     
  3155                           ; BSR set to: 0
  3156   000E8A  29BE               	incf	___fldiv@bexp& (0+255),w,b
  3157   000E8C  A4D8               	btfss	status,2,c
  3158   000E8E  EF4B  F007         	goto	u1731
  3159   000E92  EF4D  F007         	goto	u1730
  3160   000E96                     u1731:
  3161   000E96  EF55  F007         	goto	l2464
  3162   000E9A                     u1730:
  3163   000E9A                     
  3164                           ; BSR set to: 0
  3165   000E9A  0E00               	movlw	0
  3166   000E9C  6FA7               	movwf	___fldiv@b& (0+255),b
  3167   000E9E  0E00               	movlw	0
  3168   000EA0  6FA8               	movwf	(___fldiv@b+1)& (0+255),b
  3169   000EA2  0E00               	movlw	0
  3170   000EA4  6FA9               	movwf	(___fldiv@b+2)& (0+255),b
  3171   000EA6  0E00               	movlw	0
  3172   000EA8  6FAA               	movwf	(___fldiv@b+3)& (0+255),b
  3173   000EAA                     l2464:
  3174                           
  3175                           ; BSR set to: 0
  3176   000EAA  8FA9               	bsf	(___fldiv@b+2)& (0+255),7,b
  3177   000EAC                     
  3178                           ; BSR set to: 0
  3179   000EAC  0E00               	movlw	0
  3180   000EAE  6FAA               	movwf	(___fldiv@b+3)& (0+255),b
  3181   000EB0  EF62  F007         	goto	l2470
  3182   000EB4                     l2468:
  3183                           
  3184                           ; BSR set to: 0
  3185   000EB4  0E00               	movlw	0
  3186   000EB6  6FA7               	movwf	___fldiv@b& (0+255),b
  3187   000EB8  0E00               	movlw	0
  3188   000EBA  6FA8               	movwf	(___fldiv@b+1)& (0+255),b
  3189   000EBC  0E00               	movlw	0
  3190   000EBE  6FA9               	movwf	(___fldiv@b+2)& (0+255),b
  3191   000EC0  0E00               	movlw	0
  3192   000EC2  6FAA               	movwf	(___fldiv@b+3)& (0+255),b
  3193   000EC4                     l2470:
  3194                           
  3195                           ; BSR set to: 0
  3196   000EC4  51AE               	movf	(___fldiv@a+3)& (0+255),w,b
  3197   000EC6  0B80               	andlw	128
  3198   000EC8  1BB7               	xorwf	___fldiv@sign& (0+255),f,b
  3199   000ECA                     
  3200                           ; BSR set to: 0
  3201   000ECA  51AE               	movf	(___fldiv@a+3)& (0+255),w,b
  3202   000ECC  25AE               	addwf	(___fldiv@a+3)& (0+255),w,b
  3203   000ECE  6FBF               	movwf	___fldiv@aexp& (0+255),b
  3204   000ED0                     
  3205                           ; BSR set to: 0
  3206   000ED0  AFAD               	btfss	(___fldiv@a+2)& (0+255),7,b
  3207   000ED2  EF6D  F007         	goto	u1741
  3208   000ED6  EF6F  F007         	goto	u1740
  3209   000EDA                     u1741:
  3210   000EDA  EF70  F007         	goto	l2478
  3211   000EDE                     u1740:
  3212   000EDE                     
  3213                           ; BSR set to: 0
  3214   000EDE  81BF               	bsf	___fldiv@aexp& (0+255),0,b
  3215   000EE0                     l2478:
  3216                           
  3217                           ; BSR set to: 0
  3218   000EE0  51BF               	movf	___fldiv@aexp& (0+255),w,b
  3219   000EE2  B4D8               	btfsc	status,2,c
  3220   000EE4  EF76  F007         	goto	u1751
  3221   000EE8  EF78  F007         	goto	u1750
  3222   000EEC                     u1751:
  3223   000EEC  EF8D  F007         	goto	l2488
  3224   000EF0                     u1750:
  3225   000EF0                     
  3226                           ; BSR set to: 0
  3227   000EF0  29BF               	incf	___fldiv@aexp& (0+255),w,b
  3228   000EF2  A4D8               	btfss	status,2,c
  3229   000EF4  EF7E  F007         	goto	u1761
  3230   000EF8  EF80  F007         	goto	u1760
  3231   000EFC                     u1761:
  3232   000EFC  EF88  F007         	goto	l2484
  3233   000F00                     u1760:
  3234   000F00                     
  3235                           ; BSR set to: 0
  3236   000F00  0E00               	movlw	0
  3237   000F02  6FAB               	movwf	___fldiv@a& (0+255),b
  3238   000F04  0E00               	movlw	0
  3239   000F06  6FAC               	movwf	(___fldiv@a+1)& (0+255),b
  3240   000F08  0E00               	movlw	0
  3241   000F0A  6FAD               	movwf	(___fldiv@a+2)& (0+255),b
  3242   000F0C  0E00               	movlw	0
  3243   000F0E  6FAE               	movwf	(___fldiv@a+3)& (0+255),b
  3244   000F10                     l2484:
  3245                           
  3246                           ; BSR set to: 0
  3247   000F10  8FAD               	bsf	(___fldiv@a+2)& (0+255),7,b
  3248   000F12                     
  3249                           ; BSR set to: 0
  3250   000F12  0E00               	movlw	0
  3251   000F14  6FAE               	movwf	(___fldiv@a+3)& (0+255),b
  3252   000F16  EF95  F007         	goto	l2490
  3253   000F1A                     l2488:
  3254                           
  3255                           ; BSR set to: 0
  3256   000F1A  0E00               	movlw	0
  3257   000F1C  6FAB               	movwf	___fldiv@a& (0+255),b
  3258   000F1E  0E00               	movlw	0
  3259   000F20  6FAC               	movwf	(___fldiv@a+1)& (0+255),b
  3260   000F22  0E00               	movlw	0
  3261   000F24  6FAD               	movwf	(___fldiv@a+2)& (0+255),b
  3262   000F26  0E00               	movlw	0
  3263   000F28  6FAE               	movwf	(___fldiv@a+3)& (0+255),b
  3264   000F2A                     l2490:
  3265                           
  3266                           ; BSR set to: 0
  3267   000F2A  51AB               	movf	___fldiv@a& (0+255),w,b
  3268   000F2C  11AC               	iorwf	(___fldiv@a+1)& (0+255),w,b
  3269   000F2E  11AD               	iorwf	(___fldiv@a+2)& (0+255),w,b
  3270   000F30  11AE               	iorwf	(___fldiv@a+3)& (0+255),w,b
  3271   000F32  A4D8               	btfss	status,2,c
  3272   000F34  EF9E  F007         	goto	u1771
  3273   000F38  EFA0  F007         	goto	u1770
  3274   000F3C                     u1771:
  3275   000F3C  EFB8  F007         	goto	l2502
  3276   000F40                     u1770:
  3277   000F40                     
  3278                           ; BSR set to: 0
  3279   000F40  0E00               	movlw	0
  3280   000F42  6FA7               	movwf	___fldiv@b& (0+255),b
  3281   000F44  0E00               	movlw	0
  3282   000F46  6FA8               	movwf	(___fldiv@b+1)& (0+255),b
  3283   000F48  0E00               	movlw	0
  3284   000F4A  6FA9               	movwf	(___fldiv@b+2)& (0+255),b
  3285   000F4C  0E00               	movlw	0
  3286   000F4E  6FAA               	movwf	(___fldiv@b+3)& (0+255),b
  3287   000F50                     
  3288                           ; BSR set to: 0
  3289   000F50  0E80               	movlw	128
  3290   000F52  13A9               	iorwf	(___fldiv@b+2)& (0+255),f,b
  3291   000F54  0E7F               	movlw	127
  3292   000F56  13AA               	iorwf	(___fldiv@b+3)& (0+255),f,b
  3293   000F58                     l2496:
  3294                           
  3295                           ; BSR set to: 0
  3296   000F58  51B7               	movf	___fldiv@sign& (0+255),w,b
  3297   000F5A  13AA               	iorwf	(___fldiv@b+3)& (0+255),f,b
  3298   000F5C                     
  3299                           ; BSR set to: 0
  3300   000F5C  C0A7  F0A7         	movff	___fldiv@b,?___fldiv
  3301   000F60  C0A8  F0A8         	movff	___fldiv@b+1,?___fldiv+1
  3302   000F64  C0A9  F0A9         	movff	___fldiv@b+2,?___fldiv+2
  3303   000F68  C0AA  F0AA         	movff	___fldiv@b+3,?___fldiv+3
  3304   000F6C  EFFB  F008         	goto	l1015
  3305   000F70                     l2502:
  3306                           
  3307                           ; BSR set to: 0
  3308   000F70  51BE               	movf	___fldiv@bexp& (0+255),w,b
  3309   000F72  A4D8               	btfss	status,2,c
  3310   000F74  EFBE  F007         	goto	u1781
  3311   000F78  EFC0  F007         	goto	u1780
  3312   000F7C                     u1781:
  3313   000F7C  EFCA  F007         	goto	l2510
  3314   000F80                     u1780:
  3315   000F80                     
  3316                           ; BSR set to: 0
  3317   000F80  0E00               	movlw	0
  3318   000F82  6FA7               	movwf	?___fldiv& (0+255),b
  3319   000F84  0E00               	movlw	0
  3320   000F86  6FA8               	movwf	(?___fldiv+1)& (0+255),b
  3321   000F88  0E00               	movlw	0
  3322   000F8A  6FA9               	movwf	(?___fldiv+2)& (0+255),b
  3323   000F8C  0E00               	movlw	0
  3324   000F8E  6FAA               	movwf	(?___fldiv+3)& (0+255),b
  3325   000F90  EFFB  F008         	goto	l1015
  3326   000F94                     l2510:
  3327                           
  3328                           ; BSR set to: 0
  3329   000F94  51BF               	movf	___fldiv@aexp& (0+255),w,b
  3330   000F96  C0BE  F0AF         	movff	___fldiv@bexp,??___fldiv
  3331   000F9A  6BB0               	clrf	(??___fldiv+1)& (0+255),b
  3332   000F9C  5FAF               	subwf	??___fldiv& (0+255),f,b
  3333   000F9E  0E00               	movlw	0
  3334   000FA0  5BB0               	subwfb	(??___fldiv+1)& (0+255),f,b
  3335   000FA2  0E7F               	movlw	127
  3336   000FA4  25AF               	addwf	??___fldiv& (0+255),w,b
  3337   000FA6  6FB8               	movwf	___fldiv@new_exp& (0+255),b
  3338   000FA8  0E00               	movlw	0
  3339   000FAA  21B0               	addwfc	(??___fldiv+1)& (0+255),w,b
  3340   000FAC  6FB9               	movwf	(___fldiv@new_exp+1)& (0+255),b
  3341   000FAE                     
  3342                           ; BSR set to: 0
  3343   000FAE  C0A7  F0B3         	movff	___fldiv@b,___fldiv@rem
  3344   000FB2  C0A8  F0B4         	movff	___fldiv@b+1,___fldiv@rem+1
  3345   000FB6  C0A9  F0B5         	movff	___fldiv@b+2,___fldiv@rem+2
  3346   000FBA  C0AA  F0B6         	movff	___fldiv@b+3,___fldiv@rem+3
  3347   000FBE                     
  3348                           ; BSR set to: 0
  3349   000FBE  0E00               	movlw	0
  3350   000FC0  6FA7               	movwf	___fldiv@b& (0+255),b
  3351   000FC2  0E00               	movlw	0
  3352   000FC4  6FA8               	movwf	(___fldiv@b+1)& (0+255),b
  3353   000FC6  0E00               	movlw	0
  3354   000FC8  6FA9               	movwf	(___fldiv@b+2)& (0+255),b
  3355   000FCA  0E00               	movlw	0
  3356   000FCC  6FAA               	movwf	(___fldiv@b+3)& (0+255),b
  3357   000FCE                     
  3358                           ; BSR set to: 0
  3359   000FCE  0E00               	movlw	0
  3360   000FD0  6FBA               	movwf	___fldiv@grs& (0+255),b
  3361   000FD2  0E00               	movlw	0
  3362   000FD4  6FBB               	movwf	(___fldiv@grs+1)& (0+255),b
  3363   000FD6  0E00               	movlw	0
  3364   000FD8  6FBC               	movwf	(___fldiv@grs+2)& (0+255),b
  3365   000FDA  0E00               	movlw	0
  3366   000FDC  6FBD               	movwf	(___fldiv@grs+3)& (0+255),b
  3367   000FDE                     
  3368                           ; BSR set to: 0
  3369   000FDE  0E00               	movlw	0
  3370   000FE0  6FBF               	movwf	___fldiv@aexp& (0+255),b
  3371   000FE2  EF2B  F008         	goto	l1017
  3372   000FE6                     l2520:
  3373                           
  3374                           ; BSR set to: 0
  3375   000FE6  51BF               	movf	___fldiv@aexp& (0+255),w,b
  3376   000FE8  B4D8               	btfsc	status,2,c
  3377   000FEA  EFF9  F007         	goto	u1791
  3378   000FEE  EFFB  F007         	goto	u1790
  3379   000FF2                     u1791:
  3380   000FF2  EF12  F008         	goto	l2528
  3381   000FF6                     u1790:
  3382   000FF6                     
  3383                           ; BSR set to: 0
  3384   000FF6  90D8               	bcf	status,0,c
  3385   000FF8  37B3               	rlcf	___fldiv@rem& (0+255),f,b
  3386   000FFA  37B4               	rlcf	(___fldiv@rem+1)& (0+255),f,b
  3387   000FFC  37B5               	rlcf	(___fldiv@rem+2)& (0+255),f,b
  3388   000FFE  37B6               	rlcf	(___fldiv@rem+3)& (0+255),f,b
  3389   001000  90D8               	bcf	status,0,c
  3390   001002  37A7               	rlcf	___fldiv@b& (0+255),f,b
  3391   001004  37A8               	rlcf	(___fldiv@b+1)& (0+255),f,b
  3392   001006  37A9               	rlcf	(___fldiv@b+2)& (0+255),f,b
  3393   001008  37AA               	rlcf	(___fldiv@b+3)& (0+255),f,b
  3394   00100A                     
  3395                           ; BSR set to: 0
  3396   00100A  AFBD               	btfss	(___fldiv@grs+3)& (0+255),7,b
  3397   00100C  EF0A  F008         	goto	u1801
  3398   001010  EF0C  F008         	goto	u1800
  3399   001014                     u1801:
  3400   001014  EF0D  F008         	goto	l1020
  3401   001018                     u1800:
  3402   001018                     
  3403                           ; BSR set to: 0
  3404   001018  81A7               	bsf	___fldiv@b& (0+255),0,b
  3405   00101A                     l1020:
  3406                           
  3407                           ; BSR set to: 0
  3408   00101A  90D8               	bcf	status,0,c
  3409   00101C  37BA               	rlcf	___fldiv@grs& (0+255),f,b
  3410   00101E  37BB               	rlcf	(___fldiv@grs+1)& (0+255),f,b
  3411   001020  37BC               	rlcf	(___fldiv@grs+2)& (0+255),f,b
  3412   001022  37BD               	rlcf	(___fldiv@grs+3)& (0+255),f,b
  3413   001024                     l2528:
  3414                           
  3415                           ; BSR set to: 0
  3416   001024  51AB               	movf	___fldiv@a& (0+255),w,b
  3417   001026  5DB3               	subwf	___fldiv@rem& (0+255),w,b
  3418   001028  51AC               	movf	(___fldiv@a+1)& (0+255),w,b
  3419   00102A  59B4               	subwfb	(___fldiv@rem+1)& (0+255),w,b
  3420   00102C  51AD               	movf	(___fldiv@a+2)& (0+255),w,b
  3421   00102E  59B5               	subwfb	(___fldiv@rem+2)& (0+255),w,b
  3422   001030  51AE               	movf	(___fldiv@a+3)& (0+255),w,b
  3423   001032  59B6               	subwfb	(___fldiv@rem+3)& (0+255),w,b
  3424   001034  A0D8               	btfss	status,0,c
  3425   001036  EF1F  F008         	goto	u1811
  3426   00103A  EF21  F008         	goto	u1810
  3427   00103E                     u1811:
  3428   00103E  EF2A  F008         	goto	l2534
  3429   001042                     u1810:
  3430   001042                     
  3431                           ; BSR set to: 0
  3432   001042  8DBD               	bsf	(___fldiv@grs+3)& (0+255),6,b
  3433   001044                     
  3434                           ; BSR set to: 0
  3435   001044  51AB               	movf	___fldiv@a& (0+255),w,b
  3436   001046  5FB3               	subwf	___fldiv@rem& (0+255),f,b
  3437   001048  51AC               	movf	(___fldiv@a+1)& (0+255),w,b
  3438   00104A  5BB4               	subwfb	(___fldiv@rem+1)& (0+255),f,b
  3439   00104C  51AD               	movf	(___fldiv@a+2)& (0+255),w,b
  3440   00104E  5BB5               	subwfb	(___fldiv@rem+2)& (0+255),f,b
  3441   001050  51AE               	movf	(___fldiv@a+3)& (0+255),w,b
  3442   001052  5BB6               	subwfb	(___fldiv@rem+3)& (0+255),f,b
  3443   001054                     l2534:
  3444                           
  3445                           ; BSR set to: 0
  3446   001054  2BBF               	incf	___fldiv@aexp& (0+255),f,b
  3447   001056                     l1017:
  3448                           
  3449                           ; BSR set to: 0
  3450   001056  0E19               	movlw	25
  3451   001058  65BF               	cpfsgt	___fldiv@aexp& (0+255),b
  3452   00105A  EF31  F008         	goto	u1821
  3453   00105E  EF33  F008         	goto	u1820
  3454   001062                     u1821:
  3455   001062  EFF3  F007         	goto	l2520
  3456   001066                     u1820:
  3457   001066                     
  3458                           ; BSR set to: 0
  3459   001066  51B3               	movf	___fldiv@rem& (0+255),w,b
  3460   001068  11B4               	iorwf	(___fldiv@rem+1)& (0+255),w,b
  3461   00106A  11B5               	iorwf	(___fldiv@rem+2)& (0+255),w,b
  3462   00106C  11B6               	iorwf	(___fldiv@rem+3)& (0+255),w,b
  3463   00106E  B4D8               	btfsc	status,2,c
  3464   001070  EF3C  F008         	goto	u1831
  3465   001074  EF3E  F008         	goto	u1830
  3466   001078                     u1831:
  3467   001078  EF56  F008         	goto	l2546
  3468   00107C                     u1830:
  3469   00107C                     
  3470                           ; BSR set to: 0
  3471   00107C  81BA               	bsf	___fldiv@grs& (0+255),0,b
  3472   00107E  EF56  F008         	goto	l2546
  3473   001082                     l2540:
  3474                           
  3475                           ; BSR set to: 0
  3476   001082  90D8               	bcf	status,0,c
  3477   001084  37A7               	rlcf	___fldiv@b& (0+255),f,b
  3478   001086  37A8               	rlcf	(___fldiv@b+1)& (0+255),f,b
  3479   001088  37A9               	rlcf	(___fldiv@b+2)& (0+255),f,b
  3480   00108A  37AA               	rlcf	(___fldiv@b+3)& (0+255),f,b
  3481   00108C                     
  3482                           ; BSR set to: 0
  3483   00108C  AFBD               	btfss	(___fldiv@grs+3)& (0+255),7,b
  3484   00108E  EF4B  F008         	goto	u1841
  3485   001092  EF4D  F008         	goto	u1840
  3486   001096                     u1841:
  3487   001096  EF4E  F008         	goto	l1026
  3488   00109A                     u1840:
  3489   00109A                     
  3490                           ; BSR set to: 0
  3491   00109A  81A7               	bsf	___fldiv@b& (0+255),0,b
  3492   00109C                     l1026:
  3493                           
  3494                           ; BSR set to: 0
  3495   00109C  90D8               	bcf	status,0,c
  3496   00109E  37BA               	rlcf	___fldiv@grs& (0+255),f,b
  3497   0010A0  37BB               	rlcf	(___fldiv@grs+1)& (0+255),f,b
  3498   0010A2  37BC               	rlcf	(___fldiv@grs+2)& (0+255),f,b
  3499   0010A4  37BD               	rlcf	(___fldiv@grs+3)& (0+255),f,b
  3500   0010A6  07B8               	decf	___fldiv@new_exp& (0+255),f,b
  3501   0010A8  A0D8               	btfss	status,0,c
  3502   0010AA  07B9               	decf	(___fldiv@new_exp+1)& (0+255),f,b
  3503   0010AC                     l2546:
  3504                           
  3505                           ; BSR set to: 0
  3506   0010AC  AFA9               	btfss	(___fldiv@b+2)& (0+255),7,b
  3507   0010AE  EF5B  F008         	goto	u1851
  3508   0010B2  EF5D  F008         	goto	u1850
  3509   0010B6                     u1851:
  3510   0010B6  EF41  F008         	goto	l2540
  3511   0010BA                     u1850:
  3512   0010BA                     
  3513                           ; BSR set to: 0
  3514   0010BA  0E00               	movlw	0
  3515   0010BC  6FBF               	movwf	___fldiv@aexp& (0+255),b
  3516   0010BE                     
  3517                           ; BSR set to: 0
  3518   0010BE  AFBD               	btfss	(___fldiv@grs+3)& (0+255),7,b
  3519   0010C0  EF64  F008         	goto	u1861
  3520   0010C4  EF66  F008         	goto	u1860
  3521   0010C8                     u1861:
  3522   0010C8  EF8A  F008         	goto	l1028
  3523   0010CC                     u1860:
  3524   0010CC                     
  3525                           ; BSR set to: 0
  3526   0010CC  0EFF               	movlw	255
  3527   0010CE  15BA               	andwf	___fldiv@grs& (0+255),w,b
  3528   0010D0  6FAF               	movwf	??___fldiv& (0+255),b
  3529   0010D2  0EFF               	movlw	255
  3530   0010D4  15BB               	andwf	(___fldiv@grs+1)& (0+255),w,b
  3531   0010D6  6FB0               	movwf	(??___fldiv+1)& (0+255),b
  3532   0010D8  0EFF               	movlw	255
  3533   0010DA  15BC               	andwf	(___fldiv@grs+2)& (0+255),w,b
  3534   0010DC  6FB1               	movwf	(??___fldiv+2)& (0+255),b
  3535   0010DE  0E7F               	movlw	127
  3536   0010E0  15BD               	andwf	(___fldiv@grs+3)& (0+255),w,b
  3537   0010E2  6FB2               	movwf	(??___fldiv+3)& (0+255),b
  3538   0010E4  51AF               	movf	??___fldiv& (0+255),w,b
  3539   0010E6  11B0               	iorwf	(??___fldiv+1)& (0+255),w,b
  3540   0010E8  11B1               	iorwf	(??___fldiv+2)& (0+255),w,b
  3541   0010EA  11B2               	iorwf	(??___fldiv+3)& (0+255),w,b
  3542   0010EC  B4D8               	btfsc	status,2,c
  3543   0010EE  EF7B  F008         	goto	u1871
  3544   0010F2  EF7D  F008         	goto	u1870
  3545   0010F6                     u1871:
  3546   0010F6  EF81  F008         	goto	l1029
  3547   0010FA                     u1870:
  3548   0010FA                     l2554:
  3549                           
  3550                           ; BSR set to: 0
  3551   0010FA  0E01               	movlw	1
  3552   0010FC  6FBF               	movwf	___fldiv@aexp& (0+255),b
  3553   0010FE  EF8A  F008         	goto	l1028
  3554   001102                     l1029:
  3555                           
  3556                           ; BSR set to: 0
  3557   001102  A1A7               	btfss	___fldiv@b& (0+255),0,b
  3558   001104  EF86  F008         	goto	u1881
  3559   001108  EF88  F008         	goto	u1880
  3560   00110C                     u1881:
  3561   00110C  EF8A  F008         	goto	l1028
  3562   001110                     u1880:
  3563   001110  EF7D  F008         	goto	l2554
  3564   001114                     l1028:
  3565                           
  3566                           ; BSR set to: 0
  3567   001114  51BF               	movf	___fldiv@aexp& (0+255),w,b
  3568   001116  B4D8               	btfsc	status,2,c
  3569   001118  EF90  F008         	goto	u1891
  3570   00111C  EF92  F008         	goto	u1890
  3571   001120                     u1891:
  3572   001120  EFB6  F008         	goto	l2566
  3573   001124                     u1890:
  3574   001124                     
  3575                           ; BSR set to: 0
  3576   001124  0E01               	movlw	1
  3577   001126  27A7               	addwf	___fldiv@b& (0+255),f,b
  3578   001128  0E00               	movlw	0
  3579   00112A  23A8               	addwfc	(___fldiv@b+1)& (0+255),f,b
  3580   00112C  23A9               	addwfc	(___fldiv@b+2)& (0+255),f,b
  3581   00112E  23AA               	addwfc	(___fldiv@b+3)& (0+255),f,b
  3582   001130                     
  3583                           ; BSR set to: 0
  3584   001130  A1AA               	btfss	(___fldiv@b+3)& (0+255),0,b
  3585   001132  EF9D  F008         	goto	u1901
  3586   001136  EF9F  F008         	goto	u1900
  3587   00113A                     u1901:
  3588   00113A  EFB6  F008         	goto	l2566
  3589   00113E                     u1900:
  3590   00113E                     
  3591                           ; BSR set to: 0
  3592   00113E  C0A7  F0AF         	movff	___fldiv@b,??___fldiv
  3593   001142  C0A8  F0B0         	movff	___fldiv@b+1,??___fldiv+1
  3594   001146  C0A9  F0B1         	movff	___fldiv@b+2,??___fldiv+2
  3595   00114A  C0AA  F0B2         	movff	___fldiv@b+3,??___fldiv+3
  3596   00114E  35B2               	rlcf	(??___fldiv+3)& (0+255),w,b
  3597   001150  33B2               	rrcf	(??___fldiv+3)& (0+255),f,b
  3598   001152  33B1               	rrcf	(??___fldiv+2)& (0+255),f,b
  3599   001154  33B0               	rrcf	(??___fldiv+1)& (0+255),f,b
  3600   001156  33AF               	rrcf	??___fldiv& (0+255),f,b
  3601   001158  C0AF  F0A7         	movff	??___fldiv,___fldiv@b
  3602   00115C  C0B0  F0A8         	movff	??___fldiv+1,___fldiv@b+1
  3603   001160  C0B1  F0A9         	movff	??___fldiv+2,___fldiv@b+2
  3604   001164  C0B2  F0AA         	movff	??___fldiv+3,___fldiv@b+3
  3605   001168                     
  3606                           ; BSR set to: 0
  3607   001168  4BB8               	infsnz	___fldiv@new_exp& (0+255),f,b
  3608   00116A  2BB9               	incf	(___fldiv@new_exp+1)& (0+255),f,b
  3609   00116C                     l2566:
  3610                           
  3611                           ; BSR set to: 0
  3612   00116C  BFB9               	btfsc	(___fldiv@new_exp+1)& (0+255),7,b
  3613   00116E  EFC1  F008         	goto	u1911
  3614   001172  51B9               	movf	(___fldiv@new_exp+1)& (0+255),w,b
  3615   001174  E108               	bnz	u1910
  3616   001176  29B8               	incf	___fldiv@new_exp& (0+255),w,b
  3617   001178  A0D8               	btfss	status,0,c
  3618   00117A  EFC1  F008         	goto	u1911
  3619   00117E  EFC3  F008         	goto	u1910
  3620   001182                     u1911:
  3621   001182  EFCE  F008         	goto	l2570
  3622   001186                     u1910:
  3623   001186                     
  3624                           ; BSR set to: 0
  3625   001186  0E00               	movlw	0
  3626   001188  6FB9               	movwf	(___fldiv@new_exp+1)& (0+255),b
  3627   00118A  69B8               	setf	___fldiv@new_exp& (0+255),b
  3628   00118C  0E00               	movlw	0
  3629   00118E  6FA7               	movwf	___fldiv@b& (0+255),b
  3630   001190  0E00               	movlw	0
  3631   001192  6FA8               	movwf	(___fldiv@b+1)& (0+255),b
  3632   001194  0E00               	movlw	0
  3633   001196  6FA9               	movwf	(___fldiv@b+2)& (0+255),b
  3634   001198  0E00               	movlw	0
  3635   00119A  6FAA               	movwf	(___fldiv@b+3)& (0+255),b
  3636   00119C                     l2570:
  3637                           
  3638                           ; BSR set to: 0
  3639   00119C  BFB9               	btfsc	(___fldiv@new_exp+1)& (0+255),7,b
  3640   00119E  EFDB  F008         	goto	u1920
  3641   0011A2  51B9               	movf	(___fldiv@new_exp+1)& (0+255),w,b
  3642   0011A4  E106               	bnz	u1921
  3643   0011A6  05B8               	decf	___fldiv@new_exp& (0+255),w,b
  3644   0011A8  B0D8               	btfsc	status,0,c
  3645   0011AA  EFD9  F008         	goto	u1921
  3646   0011AE  EFDB  F008         	goto	u1920
  3647   0011B2                     u1921:
  3648   0011B2  EFE9  F008         	goto	l2574
  3649   0011B6                     u1920:
  3650   0011B6                     
  3651                           ; BSR set to: 0
  3652   0011B6  0E00               	movlw	0
  3653   0011B8  6FB9               	movwf	(___fldiv@new_exp+1)& (0+255),b
  3654   0011BA  0E00               	movlw	0
  3655   0011BC  6FB8               	movwf	___fldiv@new_exp& (0+255),b
  3656   0011BE  0E00               	movlw	0
  3657   0011C0  6FA7               	movwf	___fldiv@b& (0+255),b
  3658   0011C2  0E00               	movlw	0
  3659   0011C4  6FA8               	movwf	(___fldiv@b+1)& (0+255),b
  3660   0011C6  0E00               	movlw	0
  3661   0011C8  6FA9               	movwf	(___fldiv@b+2)& (0+255),b
  3662   0011CA  0E00               	movlw	0
  3663   0011CC  6FAA               	movwf	(___fldiv@b+3)& (0+255),b
  3664   0011CE  0E00               	movlw	0
  3665   0011D0  6FB7               	movwf	___fldiv@sign& (0+255),b
  3666   0011D2                     l2574:
  3667                           
  3668                           ; BSR set to: 0
  3669   0011D2  C0B8  F0BE         	movff	___fldiv@new_exp,___fldiv@bexp
  3670   0011D6                     
  3671                           ; BSR set to: 0
  3672   0011D6  A1BE               	btfss	___fldiv@bexp& (0+255),0,b
  3673   0011D8  EFF0  F008         	goto	u1931
  3674   0011DC  EFF2  F008         	goto	u1930
  3675   0011E0                     u1931:
  3676   0011E0  EFF5  F008         	goto	l2580
  3677   0011E4                     u1930:
  3678   0011E4                     
  3679                           ; BSR set to: 0
  3680   0011E4  8FA9               	bsf	(___fldiv@b+2)& (0+255),7,b
  3681   0011E6  EFF6  F008         	goto	l2582
  3682   0011EA                     l2580:
  3683                           
  3684                           ; BSR set to: 0
  3685   0011EA  9FA9               	bcf	(___fldiv@b+2)& (0+255),7,b
  3686   0011EC                     l2582:
  3687                           
  3688                           ; BSR set to: 0
  3689   0011EC  90D8               	bcf	status,0,c
  3690   0011EE  31BE               	rrcf	___fldiv@bexp& (0+255),w,b
  3691   0011F0  6FAA               	movwf	(___fldiv@b+3)& (0+255),b
  3692   0011F2  EFAC  F007         	goto	l2496
  3693   0011F6                     l1015:
  3694                           
  3695                           ; BSR set to: 0
  3696   0011F6  0012               	return		;funcret
  3697   0011F8                     __end_of___fldiv:
  3698                           	callstack 0
  3699                           
  3700 ;; *************** function ___lwmod *****************
  3701 ;; Defined at:
  3702 ;;		line 7 in file "C:\Program Files\Microchip\xc8\v2.40\pic\sources\c99\common\lwmod.c"
  3703 ;; Parameters:    Size  Location     Type
  3704 ;;  dividend        2    0[BANK0 ] unsigned int 
  3705 ;;  divisor         2    2[BANK0 ] unsigned int 
  3706 ;; Auto vars:     Size  Location     Type
  3707 ;;  counter         1    4[BANK0 ] unsigned char 
  3708 ;; Return value:  Size  Location     Type
  3709 ;;                  2    0[BANK0 ] unsigned int 
  3710 ;; Registers used:
  3711 ;;		wreg, status,2, status,0
  3712 ;; Tracked objects:
  3713 ;;		On entry : 0/0
  3714 ;;		On exit  : 0/0
  3715 ;;		Unchanged: 0/0
  3716 ;; Data sizes:     COMRAM   BANK0   BANK1   BANK2   BANK3   BANK4   BANK5
  3717 ;;      Params:         0       4       0       0       0       0       0
  3718 ;;      Locals:         0       1       0       0       0       0       0
  3719 ;;      Temps:          0       0       0       0       0       0       0
  3720 ;;      Totals:         0       5       0       0       0       0       0
  3721 ;;Total ram usage:        5 bytes
  3722 ;; Hardware stack levels used: 1
  3723 ;; Hardware stack levels required when called: 6
  3724 ;; This function calls:
  3725 ;;		Nothing
  3726 ;; This function is called by:
  3727 ;;		_loop
  3728 ;; This function uses a non-reentrant model
  3729 ;;
  3730                           
  3731                           	psect	text18
  3732   002498                     __ptext18:
  3733                           	callstack 0
  3734   002498                     ___lwmod:
  3735                           	callstack 23
  3736   002498  0100               	movlb	0	; () banked
  3737   00249A  5182               	movf	___lwmod@divisor& (0+255),w,b
  3738   00249C  1183               	iorwf	(___lwmod@divisor+1)& (0+255),w,b
  3739   00249E  B4D8               	btfsc	status,2,c
  3740   0024A0  EF54  F012         	goto	u3051
  3741   0024A4  EF56  F012         	goto	u3050
  3742   0024A8                     u3051:
  3743   0024A8  EF7A  F012         	goto	l934
  3744   0024AC                     u3050:
  3745   0024AC                     
  3746                           ; BSR set to: 0
  3747   0024AC  0E01               	movlw	1
  3748   0024AE  6F84               	movwf	___lwmod@counter& (0+255),b
  3749   0024B0  EF5E  F012         	goto	l3408
  3750   0024B4                     l3406:
  3751                           
  3752                           ; BSR set to: 0
  3753   0024B4  90D8               	bcf	status,0,c
  3754   0024B6  3782               	rlcf	___lwmod@divisor& (0+255),f,b
  3755   0024B8  3783               	rlcf	(___lwmod@divisor+1)& (0+255),f,b
  3756   0024BA  2B84               	incf	___lwmod@counter& (0+255),f,b
  3757   0024BC                     l3408:
  3758                           
  3759                           ; BSR set to: 0
  3760   0024BC  AF83               	btfss	(___lwmod@divisor+1)& (0+255),7,b
  3761   0024BE  EF63  F012         	goto	u3061
  3762   0024C2  EF65  F012         	goto	u3060
  3763   0024C6                     u3061:
  3764   0024C6  EF5A  F012         	goto	l3406
  3765   0024CA                     u3060:
  3766   0024CA                     l3410:
  3767                           
  3768                           ; BSR set to: 0
  3769   0024CA  5182               	movf	___lwmod@divisor& (0+255),w,b
  3770   0024CC  5D80               	subwf	___lwmod@dividend& (0+255),w,b
  3771   0024CE  5183               	movf	(___lwmod@divisor+1)& (0+255),w,b
  3772   0024D0  5981               	subwfb	(___lwmod@dividend+1)& (0+255),w,b
  3773   0024D2  A0D8               	btfss	status,0,c
  3774   0024D4  EF6E  F012         	goto	u3071
  3775   0024D8  EF70  F012         	goto	u3070
  3776   0024DC                     u3071:
  3777   0024DC  EF74  F012         	goto	l3414
  3778   0024E0                     u3070:
  3779   0024E0                     
  3780                           ; BSR set to: 0
  3781   0024E0  5182               	movf	___lwmod@divisor& (0+255),w,b
  3782   0024E2  5F80               	subwf	___lwmod@dividend& (0+255),f,b
  3783   0024E4  5183               	movf	(___lwmod@divisor+1)& (0+255),w,b
  3784   0024E6  5B81               	subwfb	(___lwmod@dividend+1)& (0+255),f,b
  3785   0024E8                     l3414:
  3786                           
  3787                           ; BSR set to: 0
  3788   0024E8  90D8               	bcf	status,0,c
  3789   0024EA  3383               	rrcf	(___lwmod@divisor+1)& (0+255),f,b
  3790   0024EC  3382               	rrcf	___lwmod@divisor& (0+255),f,b
  3791   0024EE                     
  3792                           ; BSR set to: 0
  3793   0024EE  2F84               	decfsz	___lwmod@counter& (0+255),f,b
  3794   0024F0  EF65  F012         	goto	l3410
  3795   0024F4                     l934:
  3796                           
  3797                           ; BSR set to: 0
  3798   0024F4  C080  F080         	movff	___lwmod@dividend,?___lwmod
  3799   0024F8  C081  F081         	movff	___lwmod@dividend+1,?___lwmod+1
  3800   0024FC                     
  3801                           ; BSR set to: 0
  3802   0024FC  0012               	return		;funcret
  3803   0024FE                     __end_of___lwmod:
  3804                           	callstack 0
  3805                           
  3806 ;; *************** function _f_interrupt_high *****************
  3807 ;; Defined at:
  3808 ;;		line 29 in file "Interrupt.c"
  3809 ;; Parameters:    Size  Location     Type
  3810 ;;		None
  3811 ;; Auto vars:     Size  Location     Type
  3812 ;;		None
  3813 ;; Return value:  Size  Location     Type
  3814 ;;                  1    wreg      void 
  3815 ;; Registers used:
  3816 ;;		wreg, fsr2l, fsr2h, status,2, status,0, tblptrl, tblptrh, tblptru, prodl, prodh, cstack
  3817 ;; Tracked objects:
  3818 ;;		On entry : 0/0
  3819 ;;		On exit  : 0/0
  3820 ;;		Unchanged: 0/0
  3821 ;; Data sizes:     COMRAM   BANK0   BANK1   BANK2   BANK3   BANK4   BANK5
  3822 ;;      Params:         0       0       0       0       0       0       0
  3823 ;;      Locals:         0       0       0       0       0       0       0
  3824 ;;      Temps:          8       0       0       0       0       0       0
  3825 ;;      Totals:         8       0       0       0       0       0       0
  3826 ;;Total ram usage:        8 bytes
  3827 ;; Hardware stack levels used: 1
  3828 ;; Hardware stack levels required when called: 5
  3829 ;; This function calls:
  3830 ;;		_f_timers
  3831 ;; This function is called by:
  3832 ;;		Interrupt level 2
  3833 ;; This function uses a non-reentrant model
  3834 ;;
  3835                           
  3836                           	psect	intcode
  3837   000008                     __pintcode:
  3838                           	callstack 0
  3839   000008                     _f_interrupt_high:
  3840                           	callstack 21
  3841                           
  3842                           ; BSR set to: 0
  3843                           ;incstack = 0
  3844   000008  827F               	bsf	int$flags,1,c	;set compiler interrupt flag (level 2)
  3845   00000A  ED42  F00F         	call	int_func,f	;refresh shadow registers
  3846                           
  3847                           	psect	intcode_body
  3848   001E84                     __pintcode_body:
  3849                           	callstack 21
  3850   001E84                     int_func:
  3851                           	callstack 21
  3852   001E84  0006               	pop		; remove dummy address from shadow register refresh
  3853   001E86  CFD9 F04F          	movff	fsr2l,??_f_interrupt_high
  3854   001E8A  CFDA F050          	movff	fsr2h,??_f_interrupt_high+1
  3855   001E8E  CFF3 F051          	movff	prodl,??_f_interrupt_high+2
  3856   001E92  CFF4 F052          	movff	prodh,??_f_interrupt_high+3
  3857   001E96  CFF6 F053          	movff	tblptrl,??_f_interrupt_high+4
  3858   001E9A  CFF7 F054          	movff	tblptrh,??_f_interrupt_high+5
  3859   001E9E  CFF8 F055          	movff	tblptru,??_f_interrupt_high+6
  3860   001EA2  CFF5 F056          	movff	tablat,??_f_interrupt_high+7
  3861   001EA6                     
  3862                           ;Interrupt.c: 31:     if (TMR0IF) {
  3863   001EA6  A4F2               	btfss	4082,2,c	;volatile
  3864   001EA8  EF58  F00F         	goto	i2u312_41
  3865   001EAC  EF5A  F00F         	goto	i2u312_40
  3866   001EB0                     i2u312_41:
  3867   001EB0  EF61  F00F         	goto	i2l3512
  3868   001EB4                     i2u312_40:
  3869   001EB4                     
  3870                           ;Interrupt.c: 32:         TMR0 = 0x06;
  3871   001EB4  0E00               	movlw	0
  3872   001EB6  6ED7               	movwf	215,c	;volatile
  3873   001EB8  0E06               	movlw	6
  3874   001EBA  6ED6               	movwf	214,c	;volatile
  3875   001EBC                     
  3876                           ;Interrupt.c: 34:         f_timers();
  3877   001EBC  ECB6  F00F         	call	_f_timers	;wreg free
  3878   001EC0                     
  3879                           ;Interrupt.c: 37:         TMR0IF = 0x00;
  3880   001EC0  94F2               	bcf	4082,2,c	;volatile
  3881   001EC2                     i2l3512:
  3882                           
  3883                           ;Interrupt.c: 40:     if (INT0IF && INT0IE) {
  3884   001EC2  A2F2               	btfss	4082,1,c	;volatile
  3885   001EC4  EF66  F00F         	goto	i2u313_41
  3886   001EC8  EF68  F00F         	goto	i2u313_40
  3887   001ECC                     i2u313_41:
  3888   001ECC  EF70  F00F         	goto	i2l222
  3889   001ED0                     i2u313_40:
  3890   001ED0  A8F2               	btfss	4082,4,c	;volatile
  3891   001ED2  EF6D  F00F         	goto	i2u314_41
  3892   001ED6  EF6F  F00F         	goto	i2u314_40
  3893   001EDA                     i2u314_41:
  3894   001EDA  EF70  F00F         	goto	i2l222
  3895   001EDE                     i2u314_40:
  3896   001EDE                     
  3897                           ;Interrupt.c: 42:         INT0IF = 0;
  3898   001EDE  92F2               	bcf	4082,1,c	;volatile
  3899   001EE0                     i2l222:
  3900                           
  3901                           ;Interrupt.c: 45:     if (INT1IF && INT1IE) {
  3902   001EE0  A0F0               	btfss	4080,0,c	;volatile
  3903   001EE2  EF75  F00F         	goto	i2u315_41
  3904   001EE6  EF77  F00F         	goto	i2u315_40
  3905   001EEA                     i2u315_41:
  3906   001EEA  EF7F  F00F         	goto	i2l223
  3907   001EEE                     i2u315_40:
  3908   001EEE  A6F0               	btfss	4080,3,c	;volatile
  3909   001EF0  EF7C  F00F         	goto	i2u316_41
  3910   001EF4  EF7E  F00F         	goto	i2u316_40
  3911   001EF8                     i2u316_41:
  3912   001EF8  EF7F  F00F         	goto	i2l223
  3913   001EFC                     i2u316_40:
  3914   001EFC                     
  3915                           ;Interrupt.c: 47:         INT1IF = 0;
  3916   001EFC  90F0               	bcf	4080,0,c	;volatile
  3917   001EFE                     i2l223:
  3918                           
  3919                           ;Interrupt.c: 50:     if (INT2IF && INT2IE) {
  3920   001EFE  A2F0               	btfss	4080,1,c	;volatile
  3921   001F00  EF84  F00F         	goto	i2u317_41
  3922   001F04  EF86  F00F         	goto	i2u317_40
  3923   001F08                     i2u317_41:
  3924   001F08  EF8E  F00F         	goto	i2l224
  3925   001F0C                     i2u317_40:
  3926   001F0C  A8F0               	btfss	4080,4,c	;volatile
  3927   001F0E  EF8B  F00F         	goto	i2u318_41
  3928   001F12  EF8D  F00F         	goto	i2u318_40
  3929   001F16                     i2u318_41:
  3930   001F16  EF8E  F00F         	goto	i2l224
  3931   001F1A                     i2u318_40:
  3932   001F1A                     
  3933                           ;Interrupt.c: 52:         INT2IF = 0;
  3934   001F1A  92F0               	bcf	4080,1,c	;volatile
  3935   001F1C                     i2l224:
  3936                           
  3937                           ;Interrupt.c: 55:     if (ADIF && ADIE && PEIE) {
  3938   001F1C  AC9E               	btfss	3998,6,c	;volatile
  3939   001F1E  EF93  F00F         	goto	i2u319_41
  3940   001F22  EF95  F00F         	goto	i2u319_40
  3941   001F26                     i2u319_41:
  3942   001F26  EFA4  F00F         	goto	i2l226
  3943   001F2A                     i2u319_40:
  3944   001F2A  AC9D               	btfss	3997,6,c	;volatile
  3945   001F2C  EF9A  F00F         	goto	i2u320_41
  3946   001F30  EF9C  F00F         	goto	i2u320_40
  3947   001F34                     i2u320_41:
  3948   001F34  EFA4  F00F         	goto	i2l226
  3949   001F38                     i2u320_40:
  3950   001F38  ACF2               	btfss	4082,6,c	;volatile
  3951   001F3A  EFA1  F00F         	goto	i2u321_41
  3952   001F3E  EFA3  F00F         	goto	i2u321_40
  3953   001F42                     i2u321_41:
  3954   001F42  EFA4  F00F         	goto	i2l226
  3955   001F46                     i2u321_40:
  3956   001F46                     
  3957                           ;Interrupt.c: 57:         ADIF = 0;
  3958   001F46  9C9E               	bcf	3998,6,c	;volatile
  3959   001F48                     i2l226:
  3960   001F48  C056  FFF5         	movff	??_f_interrupt_high+7,tablat
  3961   001F4C  C055  FFF8         	movff	??_f_interrupt_high+6,tblptru
  3962   001F50  C054  FFF7         	movff	??_f_interrupt_high+5,tblptrh
  3963   001F54  C053  FFF6         	movff	??_f_interrupt_high+4,tblptrl
  3964   001F58  C052  FFF4         	movff	??_f_interrupt_high+3,prodh
  3965   001F5C  C051  FFF3         	movff	??_f_interrupt_high+2,prodl
  3966   001F60  C050  FFDA         	movff	??_f_interrupt_high+1,fsr2h
  3967   001F64  C04F  FFD9         	movff	??_f_interrupt_high,fsr2l
  3968   001F68  927F               	bcf	int$flags,1,c	;clear compiler interrupt flag (level 2)
  3969   001F6A  0011               	retfie		f
  3970   001F6C                     __end_of_f_interrupt_high:
  3971                           	callstack 0
  3972                           
  3973 ;; *************** function _f_timers *****************
  3974 ;; Defined at:
  3975 ;;		line 87 in file "Interrupt.c"
  3976 ;; Parameters:    Size  Location     Type
  3977 ;;		None
  3978 ;; Auto vars:     Size  Location     Type
  3979 ;;		None
  3980 ;; Return value:  Size  Location     Type
  3981 ;;                  1    wreg      void 
  3982 ;; Registers used:
  3983 ;;		wreg, fsr2l, fsr2h, status,2, status,0, tblptrl, tblptrh, tblptru, prodl, prodh, cstack
  3984 ;; Tracked objects:
  3985 ;;		On entry : 0/0
  3986 ;;		On exit  : 0/0
  3987 ;;		Unchanged: 0/0
  3988 ;; Data sizes:     COMRAM   BANK0   BANK1   BANK2   BANK3   BANK4   BANK5
  3989 ;;      Params:         0       0       0       0       0       0       0
  3990 ;;      Locals:         0       0       0       0       0       0       0
  3991 ;;      Temps:          0       0       0       0       0       0       0
  3992 ;;      Totals:         0       0       0       0       0       0       0
  3993 ;;Total ram usage:        0 bytes
  3994 ;; Hardware stack levels used: 1
  3995 ;; Hardware stack levels required when called: 4
  3996 ;; This function calls:
  3997 ;;		_ADC_maq
  3998 ;;		_Read_AD
  3999 ;;		_calculate_RPM
  4000 ;;		_controlador_ventoinha
  4001 ;;		_imprime_temperatura
  4002 ;;		_mux_display
  4003 ;;		_read_RPM
  4004 ;; This function is called by:
  4005 ;;		_f_interrupt_high
  4006 ;; This function uses a non-reentrant model
  4007 ;;
  4008                           
  4009                           	psect	text20
  4010   001F6C                     __ptext20:
  4011                           	callstack 0
  4012   001F6C                     _f_timers:
  4013                           	callstack 21
  4014   001F6C                     
  4015                           ;Interrupt.c: 88:     static uint16_t counter0 = 1, counter1 = 1, counter2 = 1, counter3
      +                           = 1;;Interrupt.c: 90:     LATE = (PORTC & (1<<0));
  4016   001F6C  5082               	movf	130,w,c	;volatile
  4017   001F6E  0B01               	andlw	1
  4018   001F70  6E8D               	movwf	141,c	;volatile
  4019   001F72                     
  4020                           ;Interrupt.c: 92:     ADC_maq();
  4021   001F72  EC14  F011         	call	_ADC_maq	;wreg free
  4022   001F76                     
  4023                           ;Interrupt.c: 94:     if (counter0 < 8)
  4024   001F76  507E               	movf	(f_timers@counter0+1)^0,w,c
  4025   001F78  E107               	bnz	i2u308_41
  4026   001F7A  0E08               	movlw	8
  4027   001F7C  5C7D               	subwf	f_timers@counter0^0,w,c
  4028   001F7E  B0D8               	btfsc	status,0,c
  4029   001F80  EFC4  F00F         	goto	i2u308_41
  4030   001F84  EFC6  F00F         	goto	i2u308_40
  4031   001F88                     i2u308_41:
  4032   001F88  EFCA  F00F         	goto	i2l3458
  4033   001F8C                     i2u308_40:
  4034   001F8C                     
  4035                           ;Interrupt.c: 95:     {;Interrupt.c: 96:         counter0++;
  4036   001F8C  4A7D               	infsnz	f_timers@counter0^0,f,c
  4037   001F8E  2A7E               	incf	(f_timers@counter0+1)^0,f,c
  4038                           
  4039                           ;Interrupt.c: 97:     }
  4040   001F90  EFD0  F00F         	goto	i2l3462
  4041   001F94                     i2l3458:
  4042                           
  4043                           ;Interrupt.c: 99:     {;Interrupt.c: 100:         read_RPM();
  4044   001F94  EC11  F013         	call	_read_RPM	;wreg free
  4045   001F98                     
  4046                           ;Interrupt.c: 101:         counter0 = 1;
  4047   001F98  0E00               	movlw	0
  4048   001F9A  6E7E               	movwf	(f_timers@counter0+1)^0,c
  4049   001F9C  0E01               	movlw	1
  4050   001F9E  6E7D               	movwf	f_timers@counter0^0,c
  4051   001FA0                     i2l3462:
  4052                           
  4053                           ;Interrupt.c: 104:     if (counter1 < 50)
  4054   001FA0  507C               	movf	(f_timers@counter1+1)^0,w,c
  4055   001FA2  E107               	bnz	i2u309_41
  4056   001FA4  0E32               	movlw	50
  4057   001FA6  5C7B               	subwf	f_timers@counter1^0,w,c
  4058   001FA8  B0D8               	btfsc	status,0,c
  4059   001FAA  EFD9  F00F         	goto	i2u309_41
  4060   001FAE  EFDB  F00F         	goto	i2u309_40
  4061   001FB2                     i2u309_41:
  4062   001FB2  EFDF  F00F         	goto	i2l3466
  4063   001FB6                     i2u309_40:
  4064   001FB6                     
  4065                           ;Interrupt.c: 105:     {;Interrupt.c: 106:         counter1++;
  4066   001FB6  4A7B               	infsnz	f_timers@counter1^0,f,c
  4067   001FB8  2A7C               	incf	(f_timers@counter1+1)^0,f,c
  4068                           
  4069                           ;Interrupt.c: 107:     }
  4070   001FBA  EFE5  F00F         	goto	i2l3470
  4071   001FBE                     i2l3466:
  4072                           
  4073                           ;Interrupt.c: 109:     {;Interrupt.c: 110:         mux_display();
  4074   001FBE  EC16  F010         	call	_mux_display	;wreg free
  4075   001FC2                     
  4076                           ;Interrupt.c: 111:         counter1 = 1;
  4077   001FC2  0E00               	movlw	0
  4078   001FC4  6E7C               	movwf	(f_timers@counter1+1)^0,c
  4079   001FC6  0E01               	movlw	1
  4080   001FC8  6E7B               	movwf	f_timers@counter1^0,c
  4081   001FCA                     i2l3470:
  4082                           
  4083                           ;Interrupt.c: 114:     if (counter2 < 1000)
  4084   001FCA  0EE8               	movlw	232
  4085   001FCC  5C79               	subwf	f_timers@counter2^0,w,c
  4086   001FCE  0E03               	movlw	3
  4087   001FD0  587A               	subwfb	(f_timers@counter2+1)^0,w,c
  4088   001FD2  B0D8               	btfsc	status,0,c
  4089   001FD4  EFEE  F00F         	goto	i2u310_41
  4090   001FD8  EFF0  F00F         	goto	i2u310_40
  4091   001FDC                     i2u310_41:
  4092   001FDC  EFF4  F00F         	goto	i2l3474
  4093   001FE0                     i2u310_40:
  4094   001FE0                     
  4095                           ;Interrupt.c: 115:     {;Interrupt.c: 116:         counter2++;
  4096   001FE0  4A79               	infsnz	f_timers@counter2^0,f,c
  4097   001FE2  2A7A               	incf	(f_timers@counter2+1)^0,f,c
  4098                           
  4099                           ;Interrupt.c: 117:     }
  4100   001FE4  EFFE  F00F         	goto	i2l3482
  4101   001FE8                     i2l3474:
  4102                           
  4103                           ;Interrupt.c: 119:     {;Interrupt.c: 120:         controlador_ventoinha();
  4104   001FE8  EC71  F010         	call	_controlador_ventoinha	;wreg free
  4105   001FEC                     
  4106                           ;Interrupt.c: 121:         imprime_temperatura();
  4107   001FEC  EC21  F00D         	call	_imprime_temperatura	;wreg free
  4108   001FF0                     
  4109                           ;Interrupt.c: 122:         calculate_RPM();
  4110   001FF0  EC4C  F013         	call	_calculate_RPM	;wreg free
  4111   001FF4                     
  4112                           ;Interrupt.c: 123:         counter2 = 1;
  4113   001FF4  0E00               	movlw	0
  4114   001FF6  6E7A               	movwf	(f_timers@counter2+1)^0,c
  4115   001FF8  0E01               	movlw	1
  4116   001FFA  6E79               	movwf	f_timers@counter2^0,c
  4117   001FFC                     i2l3482:
  4118                           
  4119                           ;Interrupt.c: 126:     if (counter3 < 100)
  4120   001FFC  5078               	movf	(f_timers@counter3+1)^0,w,c
  4121   001FFE  E107               	bnz	i2u311_41
  4122   002000  0E64               	movlw	100
  4123   002002  5C77               	subwf	f_timers@counter3^0,w,c
  4124   002004  B0D8               	btfsc	status,0,c
  4125   002006  EF07  F010         	goto	i2u311_41
  4126   00200A  EF09  F010         	goto	i2u311_40
  4127   00200E                     i2u311_41:
  4128   00200E  EF0D  F010         	goto	i2l3486
  4129   002012                     i2u311_40:
  4130   002012                     
  4131                           ;Interrupt.c: 127:     {;Interrupt.c: 128:         counter3++;
  4132   002012  4A77               	infsnz	f_timers@counter3^0,f,c
  4133   002014  2A78               	incf	(f_timers@counter3+1)^0,f,c
  4134                           
  4135                           ;Interrupt.c: 129:     }
  4136   002016  EF15  F010         	goto	i2l254
  4137   00201A                     i2l3486:
  4138                           
  4139                           ;Interrupt.c: 132:     {;Interrupt.c: 133:         read_RPM();
  4140   00201A  EC11  F013         	call	_read_RPM	;wreg free
  4141   00201E                     
  4142                           ;Interrupt.c: 134:         Read_AD();
  4143   00201E  EC7F  F00C         	call	_Read_AD	;wreg free
  4144   002022                     
  4145                           ;Interrupt.c: 135:         counter3 = 1;
  4146   002022  0E00               	movlw	0
  4147   002024  6E78               	movwf	(f_timers@counter3+1)^0,c
  4148   002026  0E01               	movlw	1
  4149   002028  6E77               	movwf	f_timers@counter3^0,c
  4150   00202A                     i2l254:
  4151   00202A  0012               	return		;funcret
  4152   00202C                     __end_of_f_timers:
  4153                           	callstack 0
  4154                           
  4155 ;; *************** function _read_RPM *****************
  4156 ;; Defined at:
  4157 ;;		line 113 in file "main.c"
  4158 ;; Parameters:    Size  Location     Type
  4159 ;;		None
  4160 ;; Auto vars:     Size  Location     Type
  4161 ;;		None
  4162 ;; Return value:  Size  Location     Type
  4163 ;;                  1    wreg      void 
  4164 ;; Registers used:
  4165 ;;		wreg, status,2, status,0
  4166 ;; Tracked objects:
  4167 ;;		On entry : 0/0
  4168 ;;		On exit  : 0/0
  4169 ;;		Unchanged: 0/0
  4170 ;; Data sizes:     COMRAM   BANK0   BANK1   BANK2   BANK3   BANK4   BANK5
  4171 ;;      Params:         0       0       0       0       0       0       0
  4172 ;;      Locals:         0       0       0       0       0       0       0
  4173 ;;      Temps:          0       0       0       0       0       0       0
  4174 ;;      Totals:         0       0       0       0       0       0       0
  4175 ;;Total ram usage:        0 bytes
  4176 ;; Hardware stack levels used: 1
  4177 ;; This function calls:
  4178 ;;		Nothing
  4179 ;; This function is called by:
  4180 ;;		_f_timers
  4181 ;; This function uses a non-reentrant model
  4182 ;;
  4183                           
  4184                           	psect	text21
  4185   002622                     __ptext21:
  4186                           	callstack 0
  4187   002622                     _read_RPM:
  4188                           	callstack 24
  4189   002622                     
  4190                           ;main.c: 115:     static uint8_t contagem_de_pulsos = 0;;main.c: 117:     if(PORTC & (1<
      +                          <0))
  4191   002622  A082               	btfss	130,0,c	;volatile
  4192   002624  EF16  F013         	goto	i2u129_41
  4193   002628  EF18  F013         	goto	i2u129_40
  4194   00262C                     i2u129_41:
  4195   00262C  EF19  F013         	goto	i2l2048
  4196   002630                     i2u129_40:
  4197   002630                     
  4198                           ;main.c: 118:         contagem_de_pulsos++;
  4199   002630  2A66               	incf	read_RPM@contagem_de_pulsos^0,f,c
  4200   002632                     i2l2048:
  4201                           
  4202                           ;main.c: 120:     if(contagem_de_pulsos > 6)
  4203   002632  0E06               	movlw	6
  4204   002634  6466               	cpfsgt	read_RPM@contagem_de_pulsos^0,c
  4205   002636  EF1F  F013         	goto	i2u130_41
  4206   00263A  EF21  F013         	goto	i2u130_40
  4207   00263E                     i2u130_41:
  4208   00263E  EF25  F013         	goto	i2l384
  4209   002642                     i2u130_40:
  4210   002642                     
  4211                           ;main.c: 121:     {;main.c: 122:         giro++;
  4212   002642  4A59               	infsnz	_giro^0,f,c
  4213   002644  2A5A               	incf	(_giro+1)^0,f,c
  4214   002646                     
  4215                           ;main.c: 123:         contagem_de_pulsos = 0;
  4216   002646  0E00               	movlw	0
  4217   002648  6E66               	movwf	read_RPM@contagem_de_pulsos^0,c
  4218   00264A                     i2l384:
  4219   00264A  0012               	return		;funcret
  4220   00264C                     __end_of_read_RPM:
  4221                           	callstack 0
  4222                           
  4223 ;; *************** function _mux_display *****************
  4224 ;; Defined at:
  4225 ;;		line 14 in file "Display.c"
  4226 ;; Parameters:    Size  Location     Type
  4227 ;;		None
  4228 ;; Auto vars:     Size  Location     Type
  4229 ;;		None
  4230 ;; Return value:  Size  Location     Type
  4231 ;;                  1    wreg      void 
  4232 ;; Registers used:
  4233 ;;		wreg, fsr2l, fsr2h, status,2, status,0
  4234 ;; Tracked objects:
  4235 ;;		On entry : 0/0
  4236 ;;		On exit  : 0/0
  4237 ;;		Unchanged: 0/0
  4238 ;; Data sizes:     COMRAM   BANK0   BANK1   BANK2   BANK3   BANK4   BANK5
  4239 ;;      Params:         0       0       0       0       0       0       0
  4240 ;;      Locals:         0       0       0       0       0       0       0
  4241 ;;      Temps:          2       0       0       0       0       0       0
  4242 ;;      Totals:         2       0       0       0       0       0       0
  4243 ;;Total ram usage:        2 bytes
  4244 ;; Hardware stack levels used: 1
  4245 ;; This function calls:
  4246 ;;		Nothing
  4247 ;; This function is called by:
  4248 ;;		_f_timers
  4249 ;; This function uses a non-reentrant model
  4250 ;;
  4251                           
  4252                           	psect	text22
  4253   00202C                     __ptext22:
  4254                           	callstack 0
  4255   00202C                     _mux_display:
  4256                           	callstack 24
  4257   00202C                     
  4258                           ;Display.c: 15:     static uint8_t estado = 0;;Display.c: 19:     switch (estado)
  4259   00202C  EF53  F010         	goto	i2l3266
  4260   002030                     i2l63:
  4261                           
  4262                           ;Display.c: 22:             LATA2 = 1;
  4263   002030  8489               	bsf	3977,2,c	;volatile
  4264                           
  4265                           ;Display.c: 23:             LATA5 = 0;
  4266   002032  9A89               	bcf	3977,5,c	;volatile
  4267   002034                     
  4268                           ;Display.c: 24:             LATD = conv7seg[display1];
  4269   002034  0EDB               	movlw	low _conv7seg
  4270   002036  246F               	addwf	_display1^0,w,c
  4271   002038  6ED9               	movwf	fsr2l,c
  4272   00203A  6ADA               	clrf	fsr2h,c
  4273   00203C  0E00               	movlw	high _conv7seg
  4274   00203E  22DA               	addwfc	fsr2h,f,c
  4275   002040  50DF               	movf	indf2,w,c
  4276   002042  6E8C               	movwf	140,c	;volatile
  4277   002044                     
  4278                           ;Display.c: 25:             estado = 1;
  4279   002044  0E01               	movlw	1
  4280   002046  6E6C               	movwf	mux_display@estado^0,c
  4281                           
  4282                           ;Display.c: 26:             break;
  4283   002048  EF70  F010         	goto	i2l68
  4284   00204C                     i2l65:
  4285                           
  4286                           ;Display.c: 29:             LATA2 = 0;
  4287   00204C  9489               	bcf	3977,2,c	;volatile
  4288                           
  4289                           ;Display.c: 30:             LATA3 = 1;
  4290   00204E  8689               	bsf	3977,3,c	;volatile
  4291   002050                     
  4292                           ;Display.c: 31:             LATD = conv7seg[display2];
  4293   002050  0EDB               	movlw	low _conv7seg
  4294   002052  0100               	movlb	0	; () banked
  4295   002054  25FE               	addwf	_display2& (0+255),w,b
  4296   002056  6ED9               	movwf	fsr2l,c
  4297   002058  6ADA               	clrf	fsr2h,c
  4298   00205A  0E00               	movlw	high _conv7seg
  4299   00205C  22DA               	addwfc	fsr2h,f,c
  4300   00205E  50DF               	movf	indf2,w,c
  4301   002060  6E8C               	movwf	140,c	;volatile
  4302   002062                     
  4303                           ; BSR set to: 0
  4304                           ;Display.c: 32:             estado = 2;
  4305   002062  0E02               	movlw	2
  4306   002064  6E6C               	movwf	mux_display@estado^0,c
  4307                           
  4308                           ;Display.c: 33:             break;
  4309   002066  EF70  F010         	goto	i2l68
  4310   00206A                     i2l66:
  4311                           
  4312                           ;Display.c: 36:             LATA3 = 0;
  4313   00206A  9689               	bcf	3977,3,c	;volatile
  4314                           
  4315                           ;Display.c: 37:             LATA4 = 1;
  4316   00206C  8889               	bsf	3977,4,c	;volatile
  4317   00206E                     
  4318                           ;Display.c: 38:             LATD = conv7seg[display3];
  4319   00206E  0EDB               	movlw	low _conv7seg
  4320   002070  0100               	movlb	0	; () banked
  4321   002072  25FD               	addwf	_display3& (0+255),w,b
  4322   002074  6ED9               	movwf	fsr2l,c
  4323   002076  6ADA               	clrf	fsr2h,c
  4324   002078  0E00               	movlw	high _conv7seg
  4325   00207A  22DA               	addwfc	fsr2h,f,c
  4326   00207C  50DF               	movf	indf2,w,c
  4327   00207E  6E8C               	movwf	140,c	;volatile
  4328   002080                     
  4329                           ; BSR set to: 0
  4330                           ;Display.c: 39:             estado = 3;
  4331   002080  0E03               	movlw	3
  4332   002082  6E6C               	movwf	mux_display@estado^0,c
  4333                           
  4334                           ;Display.c: 40:             break;
  4335   002084  EF70  F010         	goto	i2l68
  4336   002088                     i2l67:
  4337                           
  4338                           ;Display.c: 43:             LATA4 = 0;
  4339   002088  9889               	bcf	3977,4,c	;volatile
  4340                           
  4341                           ;Display.c: 44:             LATA5 = 1;
  4342   00208A  8A89               	bsf	3977,5,c	;volatile
  4343   00208C                     
  4344                           ;Display.c: 45:             LATD = conv7seg[display4];
  4345   00208C  0EDB               	movlw	low _conv7seg
  4346   00208E  0100               	movlb	0	; () banked
  4347   002090  25FC               	addwf	_display4& (0+255),w,b
  4348   002092  6ED9               	movwf	fsr2l,c
  4349   002094  6ADA               	clrf	fsr2h,c
  4350   002096  0E00               	movlw	high _conv7seg
  4351   002098  22DA               	addwfc	fsr2h,f,c
  4352   00209A  50DF               	movf	indf2,w,c
  4353   00209C  6E8C               	movwf	140,c	;volatile
  4354   00209E                     
  4355                           ; BSR set to: 0
  4356                           ;Display.c: 46:             estado = 0;
  4357   00209E  0E00               	movlw	0
  4358   0020A0  6E6C               	movwf	mux_display@estado^0,c
  4359                           
  4360                           ;Display.c: 47:             break;
  4361   0020A2  EF70  F010         	goto	i2l68
  4362   0020A6                     i2l3266:
  4363   0020A6  506C               	movf	mux_display@estado^0,w,c
  4364   0020A8  6E01               	movwf	??_mux_display^0,c
  4365   0020AA  6A02               	clrf	(??_mux_display+1)^0,c
  4366                           
  4367                           ; Switch on 2 bytes has been partitioned into a top level switch of size 1, and 1 sub-sw
      +                          itches
  4368                           ; Switch size 1, requested type "simple"
  4369                           ; Number of cases is 1, Range of values is 0 to 0
  4370                           ; switch strategies available:
  4371                           ; Name         Instructions Cycles
  4372                           ; simple_byte            4     3 (average)
  4373                           ;	Chosen strategy is simple_byte
  4374   0020AC  5002               	movf	(??_mux_display+1)^0,w,c
  4375   0020AE  0A00               	xorlw	0	; case 0
  4376   0020B0  B4D8               	btfsc	status,2,c
  4377   0020B2  EF5D  F010         	goto	i2l3576
  4378   0020B6  EF70  F010         	goto	i2l68
  4379   0020BA                     i2l3576:
  4380                           
  4381                           ; Switch size 1, requested type "simple"
  4382                           ; Number of cases is 4, Range of values is 0 to 3
  4383                           ; switch strategies available:
  4384                           ; Name         Instructions Cycles
  4385                           ; simple_byte           13     7 (average)
  4386                           ;	Chosen strategy is simple_byte
  4387   0020BA  5001               	movf	??_mux_display^0,w,c
  4388   0020BC  0A00               	xorlw	0	; case 0
  4389   0020BE  B4D8               	btfsc	status,2,c
  4390   0020C0  EF18  F010         	goto	i2l63
  4391   0020C4  0A01               	xorlw	1	; case 1
  4392   0020C6  B4D8               	btfsc	status,2,c
  4393   0020C8  EF26  F010         	goto	i2l65
  4394   0020CC  0A03               	xorlw	3	; case 2
  4395   0020CE  B4D8               	btfsc	status,2,c
  4396   0020D0  EF35  F010         	goto	i2l66
  4397   0020D4  0A01               	xorlw	1	; case 3
  4398   0020D6  B4D8               	btfsc	status,2,c
  4399   0020D8  EF44  F010         	goto	i2l67
  4400   0020DC  EF70  F010         	goto	i2l68
  4401   0020E0                     i2l68:
  4402   0020E0  0012               	return		;funcret
  4403   0020E2                     __end_of_mux_display:
  4404                           	callstack 0
  4405                           
  4406 ;; *************** function _imprime_temperatura *****************
  4407 ;; Defined at:
  4408 ;;		line 81 in file "main.c"
  4409 ;; Parameters:    Size  Location     Type
  4410 ;;		None
  4411 ;; Auto vars:     Size  Location     Type
  4412 ;;		None
  4413 ;; Return value:  Size  Location     Type
  4414 ;;                  1    wreg      void 
  4415 ;; Registers used:
  4416 ;;		wreg, status,2, status,0, tblptrl, tblptrh, tblptru, cstack
  4417 ;; Tracked objects:
  4418 ;;		On entry : 0/0
  4419 ;;		On exit  : 0/0
  4420 ;;		Unchanged: 0/0
  4421 ;; Data sizes:     COMRAM   BANK0   BANK1   BANK2   BANK3   BANK4   BANK5
  4422 ;;      Params:         0       0       0       0       0       0       0
  4423 ;;      Locals:         0       0       0       0       0       0       0
  4424 ;;      Temps:          0       0       0       0       0       0       0
  4425 ;;      Totals:         0       0       0       0       0       0       0
  4426 ;;Total ram usage:        0 bytes
  4427 ;; Hardware stack levels used: 1
  4428 ;; Hardware stack levels required when called: 3
  4429 ;; This function calls:
  4430 ;;		_lcd_dat
  4431 ;;		_lcd_str
  4432 ;;		i2___lwdiv
  4433 ;;		i2___lwmod
  4434 ;;		i2_lcd_cmd
  4435 ;; This function is called by:
  4436 ;;		_f_timers
  4437 ;; This function uses a non-reentrant model
  4438 ;;
  4439                           
  4440                           	psect	text23
  4441   001A42                     __ptext23:
  4442                           	callstack 0
  4443   001A42                     _imprime_temperatura:
  4444                           	callstack 21
  4445   001A42                     
  4446                           ;main.c: 83:     static uint8_t old_latd = 0;;main.c: 84:     old_latd = LATD;
  4447   001A42  CF8C F067          	movff	3980,imprime_temperatura@old_latd	;volatile
  4448   001A46                     
  4449                           ;main.c: 85:     lcd_cmd(0x01);
  4450   001A46  0E01               	movlw	1
  4451   001A48  EC83  F013         	call	i2_lcd_cmd
  4452                           
  4453                           ;main.c: 86:     lcd_cmd(0x80);
  4454   001A4C  0E80               	movlw	128
  4455   001A4E  EC83  F013         	call	i2_lcd_cmd
  4456   001A52                     
  4457                           ;main.c: 87:     lcd_dat((T1/10) + '0');
  4458   001A52  C05F  F001         	movff	_T1,i2___lwdiv@dividend
  4459   001A56  C060  F002         	movff	_T1+1,i2___lwdiv@dividend+1
  4460   001A5A  0E00               	movlw	0
  4461   001A5C  6E04               	movwf	(i2___lwdiv@divisor+1)^0,c
  4462   001A5E  0E0A               	movlw	10
  4463   001A60  6E03               	movwf	i2___lwdiv@divisor^0,c
  4464   001A62  EC12  F012         	call	i2___lwdiv	;wreg free
  4465   001A66  5001               	movf	?i2___lwdiv^0,w,c
  4466   001A68  0F30               	addlw	48
  4467   001A6A  EC94  F013         	call	_lcd_dat
  4468   001A6E                     
  4469                           ;main.c: 88:     lcd_dat((T1%10) + '0');
  4470   001A6E  C05F  F001         	movff	_T1,i2___lwmod@dividend
  4471   001A72  C060  F002         	movff	_T1+1,i2___lwmod@dividend+1
  4472   001A76  0E00               	movlw	0
  4473   001A78  6E04               	movwf	(i2___lwmod@divisor+1)^0,c
  4474   001A7A  0E0A               	movlw	10
  4475   001A7C  6E03               	movwf	i2___lwmod@divisor^0,c
  4476   001A7E  EC7F  F012         	call	i2___lwmod	;wreg free
  4477   001A82  5001               	movf	?i2___lwmod^0,w,c
  4478   001A84  0F30               	addlw	48
  4479   001A86  EC94  F013         	call	_lcd_dat
  4480                           
  4481                           ;main.c: 89:     lcd_dat(223);
  4482   001A8A  0EDF               	movlw	223
  4483   001A8C  EC94  F013         	call	_lcd_dat
  4484                           
  4485                           ;main.c: 90:     lcd_dat('C');
  4486   001A90  0E43               	movlw	67
  4487   001A92  EC94  F013         	call	_lcd_dat
  4488   001A96                     
  4489                           ;main.c: 91:     lcd_str("   ");
  4490   001A96  0E01               	movlw	low STR_1
  4491   001A98  6E03               	movwf	lcd_str@str^0,c
  4492   001A9A  0E06               	movlw	high STR_1
  4493   001A9C  6E04               	movwf	(lcd_str@str+1)^0,c
  4494   001A9E  ECB1  F012         	call	_lcd_str	;wreg free
  4495   001AA2                     
  4496                           ;main.c: 92:     lcd_dat((T2/10) + '0');
  4497   001AA2  C05D  F001         	movff	_T2,i2___lwdiv@dividend
  4498   001AA6  C05E  F002         	movff	_T2+1,i2___lwdiv@dividend+1
  4499   001AAA  0E00               	movlw	0
  4500   001AAC  6E04               	movwf	(i2___lwdiv@divisor+1)^0,c
  4501   001AAE  0E0A               	movlw	10
  4502   001AB0  6E03               	movwf	i2___lwdiv@divisor^0,c
  4503   001AB2  EC12  F012         	call	i2___lwdiv	;wreg free
  4504   001AB6  5001               	movf	?i2___lwdiv^0,w,c
  4505   001AB8  0F30               	addlw	48
  4506   001ABA  EC94  F013         	call	_lcd_dat
  4507   001ABE                     
  4508                           ;main.c: 93:     lcd_dat((T2%10) + '0');
  4509   001ABE  C05D  F001         	movff	_T2,i2___lwmod@dividend
  4510   001AC2  C05E  F002         	movff	_T2+1,i2___lwmod@dividend+1
  4511   001AC6  0E00               	movlw	0
  4512   001AC8  6E04               	movwf	(i2___lwmod@divisor+1)^0,c
  4513   001ACA  0E0A               	movlw	10
  4514   001ACC  6E03               	movwf	i2___lwmod@divisor^0,c
  4515   001ACE  EC7F  F012         	call	i2___lwmod	;wreg free
  4516   001AD2  5001               	movf	?i2___lwmod^0,w,c
  4517   001AD4  0F30               	addlw	48
  4518   001AD6  EC94  F013         	call	_lcd_dat
  4519   001ADA                     
  4520                           ;main.c: 94:     lcd_dat(223);
  4521   001ADA  0EDF               	movlw	223
  4522   001ADC  EC94  F013         	call	_lcd_dat
  4523   001AE0                     
  4524                           ;main.c: 95:     lcd_dat('C');
  4525   001AE0  0E43               	movlw	67
  4526   001AE2  EC94  F013         	call	_lcd_dat
  4527   001AE6                     
  4528                           ;main.c: 96:     lcd_cmd(0xC0);
  4529   001AE6  0EC0               	movlw	192
  4530   001AE8  EC83  F013         	call	i2_lcd_cmd
  4531   001AEC                     
  4532                           ;main.c: 97:     lcd_dat((TM/10) + '0');
  4533   001AEC  C05B  F001         	movff	_TM,i2___lwdiv@dividend
  4534   001AF0  C05C  F002         	movff	_TM+1,i2___lwdiv@dividend+1
  4535   001AF4  0E00               	movlw	0
  4536   001AF6  6E04               	movwf	(i2___lwdiv@divisor+1)^0,c
  4537   001AF8  0E0A               	movlw	10
  4538   001AFA  6E03               	movwf	i2___lwdiv@divisor^0,c
  4539   001AFC  EC12  F012         	call	i2___lwdiv	;wreg free
  4540   001B00  5001               	movf	?i2___lwdiv^0,w,c
  4541   001B02  0F30               	addlw	48
  4542   001B04  EC94  F013         	call	_lcd_dat
  4543   001B08                     
  4544                           ;main.c: 98:     lcd_dat((TM%10) + '0');
  4545   001B08  C05B  F001         	movff	_TM,i2___lwmod@dividend
  4546   001B0C  C05C  F002         	movff	_TM+1,i2___lwmod@dividend+1
  4547   001B10  0E00               	movlw	0
  4548   001B12  6E04               	movwf	(i2___lwmod@divisor+1)^0,c
  4549   001B14  0E0A               	movlw	10
  4550   001B16  6E03               	movwf	i2___lwmod@divisor^0,c
  4551   001B18  EC7F  F012         	call	i2___lwmod	;wreg free
  4552   001B1C  5001               	movf	?i2___lwmod^0,w,c
  4553   001B1E  0F30               	addlw	48
  4554   001B20  EC94  F013         	call	_lcd_dat
  4555   001B24                     
  4556                           ;main.c: 99:     lcd_dat(223);
  4557   001B24  0EDF               	movlw	223
  4558   001B26  EC94  F013         	call	_lcd_dat
  4559   001B2A                     
  4560                           ;main.c: 100:     lcd_dat('C');
  4561   001B2A  0E43               	movlw	67
  4562   001B2C  EC94  F013         	call	_lcd_dat
  4563                           
  4564                           ;main.c: 101:     lcd_str("   ");
  4565   001B30  0E01               	movlw	low STR_1
  4566   001B32  6E03               	movwf	lcd_str@str^0,c
  4567   001B34  0E06               	movlw	high STR_1
  4568   001B36  6E04               	movwf	(lcd_str@str+1)^0,c
  4569   001B38  ECB1  F012         	call	_lcd_str	;wreg free
  4570   001B3C                     
  4571                           ;main.c: 102:     lcd_dat(digito1_temperatura + '0');
  4572   001B3C  506B               	movf	_digito1_temperatura^0,w,c
  4573   001B3E  0F30               	addlw	48
  4574   001B40  EC94  F013         	call	_lcd_dat
  4575   001B44                     
  4576                           ;main.c: 103:     lcd_dat(digito2_temperatura + '0');
  4577   001B44  506A               	movf	_digito2_temperatura^0,w,c
  4578   001B46  0F30               	addlw	48
  4579   001B48  EC94  F013         	call	_lcd_dat
  4580   001B4C                     
  4581                           ;main.c: 104:     lcd_dat('.');
  4582   001B4C  0E2E               	movlw	46
  4583   001B4E  EC94  F013         	call	_lcd_dat
  4584   001B52                     
  4585                           ;main.c: 105:     lcd_dat(digito3_temperatura + '0');
  4586   001B52  5069               	movf	_digito3_temperatura^0,w,c
  4587   001B54  0F30               	addlw	48
  4588   001B56  EC94  F013         	call	_lcd_dat
  4589   001B5A                     
  4590                           ;main.c: 106:     lcd_dat(digito4_temperatura + '0');
  4591   001B5A  5068               	movf	_digito4_temperatura^0,w,c
  4592   001B5C  0F30               	addlw	48
  4593   001B5E  EC94  F013         	call	_lcd_dat
  4594   001B62                     
  4595                           ;main.c: 107:     lcd_dat(223);
  4596   001B62  0EDF               	movlw	223
  4597   001B64  EC94  F013         	call	_lcd_dat
  4598   001B68                     
  4599                           ;main.c: 108:     lcd_dat('C');
  4600   001B68  0E43               	movlw	67
  4601   001B6A  EC94  F013         	call	_lcd_dat
  4602   001B6E                     
  4603                           ;main.c: 109:     LATD = old_latd;
  4604   001B6E  C067  FF8C         	movff	imprime_temperatura@old_latd,3980	;volatile
  4605   001B72  0012               	return		;funcret
  4606   001B74                     __end_of_imprime_temperatura:
  4607                           	callstack 0
  4608                           
  4609 ;; *************** function i2_lcd_cmd *****************
  4610 ;; Defined at:
  4611 ;;		line 34 in file "lcd.c"
  4612 ;; Parameters:    Size  Location     Type
  4613 ;;  val             1    wreg     unsigned char 
  4614 ;; Auto vars:     Size  Location     Type
  4615 ;;  val             1    1[COMRAM] unsigned char 
  4616 ;; Return value:  Size  Location     Type
  4617 ;;                  1    wreg      void 
  4618 ;; Registers used:
  4619 ;;		wreg, status,2, cstack
  4620 ;; Tracked objects:
  4621 ;;		On entry : 0/0
  4622 ;;		On exit  : 0/0
  4623 ;;		Unchanged: 0/0
  4624 ;; Data sizes:     COMRAM   BANK0   BANK1   BANK2   BANK3   BANK4   BANK5
  4625 ;;      Params:         0       0       0       0       0       0       0
  4626 ;;      Locals:         1       0       0       0       0       0       0
  4627 ;;      Temps:          0       0       0       0       0       0       0
  4628 ;;      Totals:         1       0       0       0       0       0       0
  4629 ;;Total ram usage:        1 bytes
  4630 ;; Hardware stack levels used: 1
  4631 ;; Hardware stack levels required when called: 1
  4632 ;; This function calls:
  4633 ;;		i2_lcd_wr
  4634 ;; This function is called by:
  4635 ;;		_imprime_temperatura
  4636 ;; This function uses a non-reentrant model
  4637 ;;
  4638                           
  4639                           	psect	text24
  4640   002706                     __ptext24:
  4641                           	callstack 0
  4642   002706                     i2_lcd_cmd:
  4643                           	callstack 22
  4644                           
  4645                           ;incstack = 0
  4646                           ;i2lcd_cmd@val stored from wreg
  4647   002706  6E02               	movwf	i2lcd_cmd@val^0,c
  4648   002708                     
  4649                           ;lcd.c: 34: void lcd_cmd(unsigned char val);lcd.c: 35: {;lcd.c: 36:  PORTEbits.RE1=1;
  4650   002708  8284               	bsf	132,1,c	;volatile
  4651   00270A                     
  4652                           ;lcd.c: 37:     lcd_wr(val);
  4653   00270A  5002               	movf	i2lcd_cmd@val^0,w,c
  4654   00270C  ECE3  F013         	call	i2_lcd_wr
  4655   002710                     
  4656                           ;lcd.c: 38:     PORTEbits.RE2=0;
  4657   002710  9484               	bcf	132,2,c	;volatile
  4658   002712                     
  4659                           ;lcd.c: 39:     _delay((unsigned long)((40)*(10000000/4000000.0)));
  4660   002712  0E21               	movlw	33
  4661   002714                     i2u327_47:
  4662   002714  2EE8               	decfsz	wreg,f,c
  4663   002716  D7FE               	bra	i2u327_47
  4664   002718  F000               	nop	
  4665   00271A                     
  4666                           ;lcd.c: 40:     PORTEbits.RE1=0;
  4667   00271A  9284               	bcf	132,1,c	;volatile
  4668   00271C                     
  4669                           ;lcd.c: 41:     _delay((unsigned long)((40)*(10000000/4000000.0)));
  4670   00271C  0E21               	movlw	33
  4671   00271E                     i2u328_47:
  4672   00271E  2EE8               	decfsz	wreg,f,c
  4673   002720  D7FE               	bra	i2u328_47
  4674   002722  F000               	nop	
  4675   002724                     
  4676                           ;lcd.c: 42:  PORTEbits.RE1=1;
  4677   002724  8284               	bsf	132,1,c	;volatile
  4678   002726  0012               	return		;funcret
  4679   002728                     __end_ofi2_lcd_cmd:
  4680                           	callstack 0
  4681                           
  4682 ;; *************** function i2___lwmod *****************
  4683 ;; Defined at:
  4684 ;;		line 7 in file "C:\Program Files\Microchip\xc8\v2.40\pic\sources\c99\common\lwmod.c"
  4685 ;; Parameters:    Size  Location     Type
  4686 ;;  dividend        2    0[COMRAM] unsigned int 
  4687 ;;  divisor         2    2[COMRAM] unsigned int 
  4688 ;; Auto vars:     Size  Location     Type
  4689 ;;  counter         1    4[COMRAM] unsigned char 
  4690 ;; Return value:  Size  Location     Type
  4691 ;;                  2    0[COMRAM] unsigned int 
  4692 ;; Registers used:
  4693 ;;		wreg, status,2, status,0
  4694 ;; Tracked objects:
  4695 ;;		On entry : 0/0
  4696 ;;		On exit  : 0/0
  4697 ;;		Unchanged: 0/0
  4698 ;; Data sizes:     COMRAM   BANK0   BANK1   BANK2   BANK3   BANK4   BANK5
  4699 ;;      Params:         4       0       0       0       0       0       0
  4700 ;;      Locals:         1       0       0       0       0       0       0
  4701 ;;      Temps:          0       0       0       0       0       0       0
  4702 ;;      Totals:         5       0       0       0       0       0       0
  4703 ;;Total ram usage:        5 bytes
  4704 ;; Hardware stack levels used: 1
  4705 ;; This function calls:
  4706 ;;		Nothing
  4707 ;; This function is called by:
  4708 ;;		_imprime_temperatura
  4709 ;; This function uses a non-reentrant model
  4710 ;;
  4711                           
  4712                           	psect	text25
  4713   0024FE                     __ptext25:
  4714                           	callstack 0
  4715   0024FE                     i2___lwmod:
  4716                           	callstack 23
  4717   0024FE  5003               	movf	i2___lwmod@divisor^0,w,c
  4718   002500  1004               	iorwf	(i2___lwmod@divisor+1)^0,w,c
  4719   002502  B4D8               	btfsc	status,2,c
  4720   002504  EF86  F012         	goto	i2u243_41
  4721   002508  EF88  F012         	goto	i2u243_40
  4722   00250C                     i2u243_41:
  4723   00250C  EFAC  F012         	goto	i2l934
  4724   002510                     i2u243_40:
  4725   002510  0E01               	movlw	1
  4726   002512  6E05               	movwf	i2___lwmod@counter^0,c
  4727   002514  EF90  F012         	goto	i2l2918
  4728   002518                     i2l2916:
  4729   002518  90D8               	bcf	status,0,c
  4730   00251A  3603               	rlcf	i2___lwmod@divisor^0,f,c
  4731   00251C  3604               	rlcf	(i2___lwmod@divisor+1)^0,f,c
  4732   00251E  2A05               	incf	i2___lwmod@counter^0,f,c
  4733   002520                     i2l2918:
  4734   002520  AE04               	btfss	(i2___lwmod@divisor+1)^0,7,c
  4735   002522  EF95  F012         	goto	i2u244_41
  4736   002526  EF97  F012         	goto	i2u244_40
  4737   00252A                     i2u244_41:
  4738   00252A  EF8C  F012         	goto	i2l2916
  4739   00252E                     i2u244_40:
  4740   00252E                     i2l2920:
  4741   00252E  5003               	movf	i2___lwmod@divisor^0,w,c
  4742   002530  5C01               	subwf	i2___lwmod@dividend^0,w,c
  4743   002532  5004               	movf	(i2___lwmod@divisor+1)^0,w,c
  4744   002534  5802               	subwfb	(i2___lwmod@dividend+1)^0,w,c
  4745   002536  A0D8               	btfss	status,0,c
  4746   002538  EFA0  F012         	goto	i2u245_41
  4747   00253C  EFA2  F012         	goto	i2u245_40
  4748   002540                     i2u245_41:
  4749   002540  EFA6  F012         	goto	i2l2924
  4750   002544                     i2u245_40:
  4751   002544  5003               	movf	i2___lwmod@divisor^0,w,c
  4752   002546  5E01               	subwf	i2___lwmod@dividend^0,f,c
  4753   002548  5004               	movf	(i2___lwmod@divisor+1)^0,w,c
  4754   00254A  5A02               	subwfb	(i2___lwmod@dividend+1)^0,f,c
  4755   00254C                     i2l2924:
  4756   00254C  90D8               	bcf	status,0,c
  4757   00254E  3204               	rrcf	(i2___lwmod@divisor+1)^0,f,c
  4758   002550  3203               	rrcf	i2___lwmod@divisor^0,f,c
  4759   002552  2E05               	decfsz	i2___lwmod@counter^0,f,c
  4760   002554  EF97  F012         	goto	i2l2920
  4761   002558                     i2l934:
  4762   002558  C001  F001         	movff	i2___lwmod@dividend,?i2___lwmod
  4763   00255C  C002  F002         	movff	i2___lwmod@dividend+1,?i2___lwmod+1
  4764   002560  0012               	return		;funcret
  4765   002562                     __end_ofi2___lwmod:
  4766                           	callstack 0
  4767                           
  4768 ;; *************** function i2___lwdiv *****************
  4769 ;; Defined at:
  4770 ;;		line 7 in file "C:\Program Files\Microchip\xc8\v2.40\pic\sources\c99\common\lwdiv.c"
  4771 ;; Parameters:    Size  Location     Type
  4772 ;;  dividend        2    0[COMRAM] unsigned int 
  4773 ;;  divisor         2    2[COMRAM] unsigned int 
  4774 ;; Auto vars:     Size  Location     Type
  4775 ;;  quotient        2    4[COMRAM] unsigned int 
  4776 ;;  counter         1    6[COMRAM] unsigned char 
  4777 ;; Return value:  Size  Location     Type
  4778 ;;                  2    0[COMRAM] unsigned int 
  4779 ;; Registers used:
  4780 ;;		wreg, status,2, status,0
  4781 ;; Tracked objects:
  4782 ;;		On entry : 0/0
  4783 ;;		On exit  : 0/0
  4784 ;;		Unchanged: 0/0
  4785 ;; Data sizes:     COMRAM   BANK0   BANK1   BANK2   BANK3   BANK4   BANK5
  4786 ;;      Params:         4       0       0       0       0       0       0
  4787 ;;      Locals:         3       0       0       0       0       0       0
  4788 ;;      Temps:          0       0       0       0       0       0       0
  4789 ;;      Totals:         7       0       0       0       0       0       0
  4790 ;;Total ram usage:        7 bytes
  4791 ;; Hardware stack levels used: 1
  4792 ;; This function calls:
  4793 ;;		Nothing
  4794 ;; This function is called by:
  4795 ;;		_imprime_temperatura
  4796 ;; This function uses a non-reentrant model
  4797 ;;
  4798                           
  4799                           	psect	text26
  4800   002424                     __ptext26:
  4801                           	callstack 0
  4802   002424                     i2___lwdiv:
  4803                           	callstack 23
  4804   002424  0E00               	movlw	0
  4805   002426  6E06               	movwf	(i2___lwdiv@quotient+1)^0,c
  4806   002428  0E00               	movlw	0
  4807   00242A  6E05               	movwf	i2___lwdiv@quotient^0,c
  4808   00242C  5003               	movf	i2___lwdiv@divisor^0,w,c
  4809   00242E  1004               	iorwf	(i2___lwdiv@divisor+1)^0,w,c
  4810   002430  B4D8               	btfsc	status,2,c
  4811   002432  EF1D  F012         	goto	i2u240_41
  4812   002436  EF1F  F012         	goto	i2u240_40
  4813   00243A                     i2u240_41:
  4814   00243A  EF47  F012         	goto	i2l924
  4815   00243E                     i2u240_40:
  4816   00243E  0E01               	movlw	1
  4817   002440  6E07               	movwf	i2___lwdiv@counter^0,c
  4818   002442  EF27  F012         	goto	i2l2898
  4819   002446                     i2l2896:
  4820   002446  90D8               	bcf	status,0,c
  4821   002448  3603               	rlcf	i2___lwdiv@divisor^0,f,c
  4822   00244A  3604               	rlcf	(i2___lwdiv@divisor+1)^0,f,c
  4823   00244C  2A07               	incf	i2___lwdiv@counter^0,f,c
  4824   00244E                     i2l2898:
  4825   00244E  AE04               	btfss	(i2___lwdiv@divisor+1)^0,7,c
  4826   002450  EF2C  F012         	goto	i2u241_41
  4827   002454  EF2E  F012         	goto	i2u241_40
  4828   002458                     i2u241_41:
  4829   002458  EF23  F012         	goto	i2l2896
  4830   00245C                     i2u241_40:
  4831   00245C                     i2l2900:
  4832   00245C  90D8               	bcf	status,0,c
  4833   00245E  3605               	rlcf	i2___lwdiv@quotient^0,f,c
  4834   002460  3606               	rlcf	(i2___lwdiv@quotient+1)^0,f,c
  4835   002462  5003               	movf	i2___lwdiv@divisor^0,w,c
  4836   002464  5C01               	subwf	i2___lwdiv@dividend^0,w,c
  4837   002466  5004               	movf	(i2___lwdiv@divisor+1)^0,w,c
  4838   002468  5802               	subwfb	(i2___lwdiv@dividend+1)^0,w,c
  4839   00246A  A0D8               	btfss	status,0,c
  4840   00246C  EF3A  F012         	goto	i2u242_41
  4841   002470  EF3C  F012         	goto	i2u242_40
  4842   002474                     i2u242_41:
  4843   002474  EF41  F012         	goto	i2l2908
  4844   002478                     i2u242_40:
  4845   002478  5003               	movf	i2___lwdiv@divisor^0,w,c
  4846   00247A  5E01               	subwf	i2___lwdiv@dividend^0,f,c
  4847   00247C  5004               	movf	(i2___lwdiv@divisor+1)^0,w,c
  4848   00247E  5A02               	subwfb	(i2___lwdiv@dividend+1)^0,f,c
  4849   002480  8005               	bsf	i2___lwdiv@quotient^0,0,c
  4850   002482                     i2l2908:
  4851   002482  90D8               	bcf	status,0,c
  4852   002484  3204               	rrcf	(i2___lwdiv@divisor+1)^0,f,c
  4853   002486  3203               	rrcf	i2___lwdiv@divisor^0,f,c
  4854   002488  2E07               	decfsz	i2___lwdiv@counter^0,f,c
  4855   00248A  EF2E  F012         	goto	i2l2900
  4856   00248E                     i2l924:
  4857   00248E  C005  F001         	movff	i2___lwdiv@quotient,?i2___lwdiv
  4858   002492  C006  F002         	movff	i2___lwdiv@quotient+1,?i2___lwdiv+1
  4859   002496  0012               	return		;funcret
  4860   002498                     __end_ofi2___lwdiv:
  4861                           	callstack 0
  4862                           
  4863 ;; *************** function _lcd_str *****************
  4864 ;; Defined at:
  4865 ;;		line 76 in file "lcd.c"
  4866 ;; Parameters:    Size  Location     Type
  4867 ;;  str             2    2[COMRAM] PTR const unsigned char 
  4868 ;;		 -> STR_2(4), STR_1(4), 
  4869 ;; Auto vars:     Size  Location     Type
  4870 ;;  i               1    6[COMRAM] unsigned char 
  4871 ;; Return value:  Size  Location     Type
  4872 ;;                  1    wreg      void 
  4873 ;; Registers used:
  4874 ;;		wreg, status,2, status,0, tblptrl, tblptrh, tblptru, cstack
  4875 ;; Tracked objects:
  4876 ;;		On entry : 0/0
  4877 ;;		On exit  : 0/0
  4878 ;;		Unchanged: 0/0
  4879 ;; Data sizes:     COMRAM   BANK0   BANK1   BANK2   BANK3   BANK4   BANK5
  4880 ;;      Params:         2       0       0       0       0       0       0
  4881 ;;      Locals:         1       0       0       0       0       0       0
  4882 ;;      Temps:          2       0       0       0       0       0       0
  4883 ;;      Totals:         5       0       0       0       0       0       0
  4884 ;;Total ram usage:        5 bytes
  4885 ;; Hardware stack levels used: 1
  4886 ;; Hardware stack levels required when called: 2
  4887 ;; This function calls:
  4888 ;;		_lcd_dat
  4889 ;; This function is called by:
  4890 ;;		_imprime_temperatura
  4891 ;; This function uses a non-reentrant model
  4892 ;;
  4893                           
  4894                           	psect	text27
  4895   002562                     __ptext27:
  4896                           	callstack 0
  4897   002562                     _lcd_str:
  4898                           	callstack 21
  4899   002562                     
  4900                           ;lcd.c: 76: void lcd_str(const char* str);lcd.c: 77: {;lcd.c: 78:  unsigned char i=0;
  4901   002562  0E00               	movlw	0
  4902   002564  6E07               	movwf	lcd_str@i^0,c
  4903                           
  4904                           ;lcd.c: 80:  while(str[i] != 0 )
  4905   002566  EFC4  F012         	goto	i2l2442
  4906   00256A                     i2l2438:
  4907                           
  4908                           ;lcd.c: 81:  {;lcd.c: 82:    lcd_dat(str[i]);
  4909   00256A  5007               	movf	lcd_str@i^0,w,c
  4910   00256C  2403               	addwf	lcd_str@str^0,w,c
  4911   00256E  6E05               	movwf	??_lcd_str^0,c
  4912   002570  0E00               	movlw	0
  4913   002572  2004               	addwfc	(lcd_str@str+1)^0,w,c
  4914   002574  6E06               	movwf	(??_lcd_str+1)^0,c
  4915   002576  C005  FFF6         	movff	??_lcd_str,tblptrl
  4916   00257A  C006  FFF7         	movff	??_lcd_str+1,tblptrh
  4917   00257E                     	if	0	;tblptru may be non-zero
  4918   00257E                     	endif
  4919   00257E                     	if	0	;tblptru may be non-zero
  4920   00257E                     	endif
  4921   00257E  0008               	tblrd		*
  4922   002580  50F5               	movf	tablat,w,c
  4923   002582  EC94  F013         	call	_lcd_dat
  4924   002586                     
  4925                           ;lcd.c: 83:    i++;
  4926   002586  2A07               	incf	lcd_str@i^0,f,c
  4927   002588                     i2l2442:
  4928                           
  4929                           ;lcd.c: 80:  while(str[i] != 0 )
  4930   002588  5007               	movf	lcd_str@i^0,w,c
  4931   00258A  2403               	addwf	lcd_str@str^0,w,c
  4932   00258C  6E05               	movwf	??_lcd_str^0,c
  4933   00258E  0E00               	movlw	0
  4934   002590  2004               	addwfc	(lcd_str@str+1)^0,w,c
  4935   002592  6E06               	movwf	(??_lcd_str+1)^0,c
  4936   002594  C005  FFF6         	movff	??_lcd_str,tblptrl
  4937   002598  C006  FFF7         	movff	??_lcd_str+1,tblptrh
  4938   00259C                     	if	0	;tblptru may be non-zero
  4939   00259C                     	endif
  4940   00259C                     	if	0	;tblptru may be non-zero
  4941   00259C                     	endif
  4942   00259C  0008               	tblrd		*
  4943   00259E  50F5               	movf	tablat,w,c
  4944   0025A0  0900               	iorlw	0
  4945   0025A2  A4D8               	btfss	status,2,c
  4946   0025A4  EFD6  F012         	goto	i2u170_41
  4947   0025A8  EFD8  F012         	goto	i2u170_40
  4948   0025AC                     i2u170_41:
  4949   0025AC  EFB5  F012         	goto	i2l2438
  4950   0025B0                     i2u170_40:
  4951   0025B0  0012               	return		;funcret
  4952   0025B2                     __end_of_lcd_str:
  4953                           	callstack 0
  4954                           
  4955 ;; *************** function _lcd_dat *****************
  4956 ;; Defined at:
  4957 ;;		line 45 in file "lcd.c"
  4958 ;; Parameters:    Size  Location     Type
  4959 ;;  val             1    wreg     unsigned char 
  4960 ;; Auto vars:     Size  Location     Type
  4961 ;;  val             1    1[COMRAM] unsigned char 
  4962 ;; Return value:  Size  Location     Type
  4963 ;;                  1    wreg      void 
  4964 ;; Registers used:
  4965 ;;		wreg, status,2, cstack
  4966 ;; Tracked objects:
  4967 ;;		On entry : 0/0
  4968 ;;		On exit  : 0/0
  4969 ;;		Unchanged: 0/0
  4970 ;; Data sizes:     COMRAM   BANK0   BANK1   BANK2   BANK3   BANK4   BANK5
  4971 ;;      Params:         0       0       0       0       0       0       0
  4972 ;;      Locals:         1       0       0       0       0       0       0
  4973 ;;      Temps:          0       0       0       0       0       0       0
  4974 ;;      Totals:         1       0       0       0       0       0       0
  4975 ;;Total ram usage:        1 bytes
  4976 ;; Hardware stack levels used: 1
  4977 ;; Hardware stack levels required when called: 1
  4978 ;; This function calls:
  4979 ;;		i2_lcd_wr
  4980 ;; This function is called by:
  4981 ;;		_lcd_str
  4982 ;;		_imprime_temperatura
  4983 ;; This function uses a non-reentrant model
  4984 ;;
  4985                           
  4986                           	psect	text28
  4987   002728                     __ptext28:
  4988                           	callstack 0
  4989   002728                     _lcd_dat:
  4990                           	callstack 21
  4991                           
  4992                           ;incstack = 0
  4993                           ;lcd_dat@val stored from wreg
  4994   002728  6E02               	movwf	lcd_dat@val^0,c
  4995   00272A                     
  4996                           ;lcd.c: 45: void lcd_dat(unsigned char val);lcd.c: 46: {;lcd.c: 47:  PORTEbits.RE1=1;
  4997   00272A  8284               	bsf	132,1,c	;volatile
  4998   00272C                     
  4999                           ;lcd.c: 48:     lcd_wr(val);
  5000   00272C  5002               	movf	lcd_dat@val^0,w,c
  5001   00272E  ECE3  F013         	call	i2_lcd_wr
  5002   002732                     
  5003                           ;lcd.c: 49:     PORTEbits.RE2=1;
  5004   002732  8484               	bsf	132,2,c	;volatile
  5005   002734                     
  5006                           ;lcd.c: 50:     _delay((unsigned long)((40)*(10000000/4000000.0)));
  5007   002734  0E21               	movlw	33
  5008   002736                     i2u329_47:
  5009   002736  2EE8               	decfsz	wreg,f,c
  5010   002738  D7FE               	bra	i2u329_47
  5011   00273A  F000               	nop	
  5012   00273C                     
  5013                           ;lcd.c: 51:     PORTEbits.RE1=0;
  5014   00273C  9284               	bcf	132,1,c	;volatile
  5015   00273E                     
  5016                           ;lcd.c: 52:     _delay((unsigned long)((40)*(10000000/4000000.0)));
  5017   00273E  0E21               	movlw	33
  5018   002740                     i2u330_47:
  5019   002740  2EE8               	decfsz	wreg,f,c
  5020   002742  D7FE               	bra	i2u330_47
  5021   002744  F000               	nop	
  5022   002746                     
  5023                           ;lcd.c: 53:  PORTEbits.RE1=1;
  5024   002746  8284               	bsf	132,1,c	;volatile
  5025   002748  0012               	return		;funcret
  5026   00274A                     __end_of_lcd_dat:
  5027                           	callstack 0
  5028                           
  5029 ;; *************** function i2_lcd_wr *****************
  5030 ;; Defined at:
  5031 ;;		line 29 in file "lcd.c"
  5032 ;; Parameters:    Size  Location     Type
  5033 ;;  val             1    wreg     unsigned char 
  5034 ;; Auto vars:     Size  Location     Type
  5035 ;;  val             1    0[COMRAM] unsigned char 
  5036 ;; Return value:  Size  Location     Type
  5037 ;;                  1    wreg      void 
  5038 ;; Registers used:
  5039 ;;		wreg
  5040 ;; Tracked objects:
  5041 ;;		On entry : 0/0
  5042 ;;		On exit  : 0/0
  5043 ;;		Unchanged: 0/0
  5044 ;; Data sizes:     COMRAM   BANK0   BANK1   BANK2   BANK3   BANK4   BANK5
  5045 ;;      Params:         0       0       0       0       0       0       0
  5046 ;;      Locals:         1       0       0       0       0       0       0
  5047 ;;      Temps:          0       0       0       0       0       0       0
  5048 ;;      Totals:         1       0       0       0       0       0       0
  5049 ;;Total ram usage:        1 bytes
  5050 ;; Hardware stack levels used: 1
  5051 ;; This function calls:
  5052 ;;		Nothing
  5053 ;; This function is called by:
  5054 ;;		_lcd_dat
  5055 ;;		i2_lcd_cmd
  5056 ;; This function uses a non-reentrant model
  5057 ;;
  5058                           
  5059                           	psect	text29
  5060   0027C6                     __ptext29:
  5061                           	callstack 0
  5062   0027C6                     i2_lcd_wr:
  5063                           	callstack 22
  5064                           
  5065                           ;incstack = 0
  5066                           ;i2lcd_wr@val stored from wreg
  5067   0027C6  6E01               	movwf	i2lcd_wr@val^0,c
  5068   0027C8                     
  5069                           ;lcd.c: 29: void lcd_wr(unsigned char val);lcd.c: 30: {;lcd.c: 31:   PORTD=val;
  5070   0027C8  C001  FF83         	movff	i2lcd_wr@val,3971	;volatile
  5071   0027CC  0012               	return		;funcret
  5072   0027CE                     __end_ofi2_lcd_wr:
  5073                           	callstack 0
  5074                           
  5075 ;; *************** function _controlador_ventoinha *****************
  5076 ;; Defined at:
  5077 ;;		line 133 in file "main.c"
  5078 ;; Parameters:    Size  Location     Type
  5079 ;;		None
  5080 ;; Auto vars:     Size  Location     Type
  5081 ;;		None
  5082 ;; Return value:  Size  Location     Type
  5083 ;;                  1    wreg      void 
  5084 ;; Registers used:
  5085 ;;		wreg, status,2, status,0, cstack
  5086 ;; Tracked objects:
  5087 ;;		On entry : 0/0
  5088 ;;		On exit  : 0/0
  5089 ;;		Unchanged: 0/0
  5090 ;; Data sizes:     COMRAM   BANK0   BANK1   BANK2   BANK3   BANK4   BANK5
  5091 ;;      Params:         0       0       0       0       0       0       0
  5092 ;;      Locals:         0       0       0       0       0       0       0
  5093 ;;      Temps:          0       0       0       0       0       0       0
  5094 ;;      Totals:         0       0       0       0       0       0       0
  5095 ;;Total ram usage:        0 bytes
  5096 ;; Hardware stack levels used: 1
  5097 ;; Hardware stack levels required when called: 1
  5098 ;; This function calls:
  5099 ;;		_f_pwm
  5100 ;; This function is called by:
  5101 ;;		_f_timers
  5102 ;; This function uses a non-reentrant model
  5103 ;;
  5104                           
  5105                           	psect	text30
  5106   0020E2                     __ptext30:
  5107                           	callstack 0
  5108   0020E2                     _controlador_ventoinha:
  5109                           	callstack 23
  5110   0020E2                     
  5111                           ;main.c: 135:     static uint8_t heater = 0;;main.c: 137:     if(temp < T1)
  5112   0020E2  505F               	movf	_T1^0,w,c
  5113   0020E4  5C61               	subwf	_temp^0,w,c
  5114   0020E6  5060               	movf	(_T1+1)^0,w,c
  5115   0020E8  5862               	subwfb	(_temp+1)^0,w,c
  5116   0020EA  B0D8               	btfsc	status,0,c
  5117   0020EC  EF7A  F010         	goto	i2u298_41
  5118   0020F0  EF7C  F010         	goto	i2u298_40
  5119   0020F4                     i2u298_41:
  5120   0020F4  EF87  F010         	goto	i2l3314
  5121   0020F8                     i2u298_40:
  5122   0020F8                     
  5123                           ;main.c: 138:     {;main.c: 139:         RC5 = 1;
  5124   0020F8  8A82               	bsf	3970,5,c	;volatile
  5125   0020FA                     
  5126                           ;main.c: 140:         f_pwm(0);
  5127   0020FA  0E00               	movlw	0
  5128   0020FC  6E02               	movwf	(f_pwm@duty+1)^0,c
  5129   0020FE  0E00               	movlw	0
  5130   002100  6E01               	movwf	f_pwm@duty^0,c
  5131   002102  ECFB  F012         	call	_f_pwm	;wreg free
  5132   002106                     
  5133                           ;main.c: 141:         heater = 1;
  5134   002106  0E01               	movlw	1
  5135   002108  6E65               	movwf	controlador_ventoinha@heater^0,c
  5136                           
  5137                           ;main.c: 142:     }
  5138   00210A  EF95  F010         	goto	i2l393
  5139   00210E                     i2l3314:
  5140   00210E  5061               	movf	_temp^0,w,c
  5141   002110  5C5D               	subwf	_T2^0,w,c
  5142   002112  5062               	movf	(_temp+1)^0,w,c
  5143   002114  585E               	subwfb	(_T2+1)^0,w,c
  5144   002116  B0D8               	btfsc	status,0,c
  5145   002118  EF90  F010         	goto	i2u299_41
  5146   00211C  EF92  F010         	goto	i2u299_40
  5147   002120                     i2u299_41:
  5148   002120  EF95  F010         	goto	i2l393
  5149   002124                     i2u299_40:
  5150   002124                     
  5151                           ;main.c: 145:     {;main.c: 146:         RC5 = 0;
  5152   002124  9A82               	bcf	3970,5,c	;volatile
  5153   002126                     
  5154                           ;main.c: 147:         heater = 0;
  5155   002126  0E00               	movlw	0
  5156   002128  6E65               	movwf	controlador_ventoinha@heater^0,c
  5157   00212A                     i2l393:
  5158                           
  5159                           ;main.c: 150:     if(!heater)
  5160   00212A  5065               	movf	controlador_ventoinha@heater^0,w,c
  5161   00212C  A4D8               	btfss	status,2,c
  5162   00212E  EF9B  F010         	goto	i2u300_41
  5163   002132  EF9D  F010         	goto	i2u300_40
  5164   002136                     i2u300_41:
  5165   002136  EFC7  F010         	goto	i2l399
  5166   00213A                     i2u300_40:
  5167   00213A                     
  5168                           ;main.c: 151:     {;main.c: 152:         if(temp > TM)
  5169   00213A  5061               	movf	_temp^0,w,c
  5170   00213C  5C5B               	subwf	_TM^0,w,c
  5171   00213E  5062               	movf	(_temp+1)^0,w,c
  5172   002140  585C               	subwfb	(_TM+1)^0,w,c
  5173   002142  B0D8               	btfsc	status,0,c
  5174   002144  EFA6  F010         	goto	i2u301_41
  5175   002148  EFA8  F010         	goto	i2u301_40
  5176   00214C                     i2u301_41:
  5177   00214C  EFB5  F010         	goto	i2l3328
  5178   002150                     i2u301_40:
  5179   002150                     
  5180                           ;main.c: 153:         {;main.c: 154:             RC5 = 0;
  5181   002150  9A82               	bcf	3970,5,c	;volatile
  5182   002152                     
  5183                           ;main.c: 155:             pwm = 624;
  5184   002152  0E02               	movlw	2
  5185   002154  6E58               	movwf	(_pwm+1)^0,c
  5186   002156  0E70               	movlw	112
  5187   002158  6E57               	movwf	_pwm^0,c
  5188   00215A                     i2l3326:
  5189                           
  5190                           ;main.c: 156:             f_pwm(pwm);
  5191   00215A  C057  F001         	movff	_pwm,f_pwm@duty
  5192   00215E  C058  F002         	movff	_pwm+1,f_pwm@duty+1
  5193   002162  ECFB  F012         	call	_f_pwm	;wreg free
  5194                           
  5195                           ;main.c: 157:         }
  5196   002166  EFC7  F010         	goto	i2l399
  5197   00216A                     i2l3328:
  5198   00216A  505B               	movf	_TM^0,w,c
  5199   00216C  5C61               	subwf	_temp^0,w,c
  5200   00216E  505C               	movf	(_TM+1)^0,w,c
  5201   002170  5862               	subwfb	(_temp+1)^0,w,c
  5202   002172  B0D8               	btfsc	status,0,c
  5203   002174  EFBE  F010         	goto	i2u302_41
  5204   002178  EFC0  F010         	goto	i2u302_40
  5205   00217C                     i2u302_41:
  5206   00217C  EFC7  F010         	goto	i2l399
  5207   002180                     i2u302_40:
  5208   002180                     
  5209                           ;main.c: 160:         {;main.c: 161:             RC5 = 0;
  5210   002180  9A82               	bcf	3970,5,c	;volatile
  5211   002182                     
  5212                           ;main.c: 162:             pwm = 436;
  5213   002182  0E01               	movlw	1
  5214   002184  6E58               	movwf	(_pwm+1)^0,c
  5215   002186  0EB4               	movlw	180
  5216   002188  6E57               	movwf	_pwm^0,c
  5217   00218A  EFAD  F010         	goto	i2l3326
  5218   00218E                     i2l399:
  5219   00218E  0012               	return		;funcret
  5220   002190                     __end_of_controlador_ventoinha:
  5221                           	callstack 0
  5222                           
  5223 ;; *************** function _f_pwm *****************
  5224 ;; Defined at:
  5225 ;;		line 38 in file "main.c"
  5226 ;; Parameters:    Size  Location     Type
  5227 ;;  duty            2    0[COMRAM] unsigned short 
  5228 ;; Auto vars:     Size  Location     Type
  5229 ;;		None
  5230 ;; Return value:  Size  Location     Type
  5231 ;;                  1    wreg      void 
  5232 ;; Registers used:
  5233 ;;		wreg, status,2, status,0
  5234 ;; Tracked objects:
  5235 ;;		On entry : 0/0
  5236 ;;		On exit  : 0/0
  5237 ;;		Unchanged: 0/0
  5238 ;; Data sizes:     COMRAM   BANK0   BANK1   BANK2   BANK3   BANK4   BANK5
  5239 ;;      Params:         2       0       0       0       0       0       0
  5240 ;;      Locals:         0       0       0       0       0       0       0
  5241 ;;      Temps:          2       0       0       0       0       0       0
  5242 ;;      Totals:         4       0       0       0       0       0       0
  5243 ;;Total ram usage:        4 bytes
  5244 ;; Hardware stack levels used: 1
  5245 ;; This function calls:
  5246 ;;		Nothing
  5247 ;; This function is called by:
  5248 ;;		_controlador_ventoinha
  5249 ;; This function uses a non-reentrant model
  5250 ;;
  5251                           
  5252                           	psect	text31
  5253   0025F6                     __ptext31:
  5254                           	callstack 0
  5255   0025F6                     _f_pwm:
  5256                           	callstack 23
  5257   0025F6                     
  5258                           ;main.c: 38: void f_pwm(uint16_t duty);main.c: 39: {;main.c: 40:     CCP1CON &= 0b110011
      +                          11;
  5259   0025F6  0ECF               	movlw	207
  5260   0025F8  16BD               	andwf	189,f,c	;volatile
  5261                           
  5262                           ;main.c: 41:     CCP1CON |= ((duty & 0b11) << 4);
  5263   0025FA  C001  F003         	movff	f_pwm@duty,??_f_pwm	;volatile
  5264   0025FE  0E03               	movlw	3
  5265   002600  1603               	andwf	??_f_pwm^0,f,c
  5266   002602  3803               	swapf	??_f_pwm^0,w,c
  5267   002604  0BF0               	andlw	240
  5268   002606  12BD               	iorwf	189,f,c	;volatile
  5269                           
  5270                           ;main.c: 42:     CCPR1L = duty >> 2;
  5271   002608  C001  F003         	movff	f_pwm@duty,??_f_pwm
  5272   00260C  C002  F004         	movff	f_pwm@duty+1,??_f_pwm+1
  5273   002610  90D8               	bcf	status,0,c
  5274   002612  3204               	rrcf	(??_f_pwm+1)^0,f,c
  5275   002614  3203               	rrcf	??_f_pwm^0,f,c
  5276   002616  90D8               	bcf	status,0,c
  5277   002618  3204               	rrcf	(??_f_pwm+1)^0,f,c
  5278   00261A  3203               	rrcf	??_f_pwm^0,f,c
  5279   00261C  5003               	movf	??_f_pwm^0,w,c
  5280   00261E  6EBE               	movwf	190,c	;volatile
  5281   002620  0012               	return		;funcret
  5282   002622                     __end_of_f_pwm:
  5283                           	callstack 0
  5284                           
  5285 ;; *************** function _calculate_RPM *****************
  5286 ;; Defined at:
  5287 ;;		line 127 in file "main.c"
  5288 ;; Parameters:    Size  Location     Type
  5289 ;;		None
  5290 ;; Auto vars:     Size  Location     Type
  5291 ;;		None
  5292 ;; Return value:  Size  Location     Type
  5293 ;;                  1    wreg      void 
  5294 ;; Registers used:
  5295 ;;		wreg, status,2, status,0, prodl, prodh, cstack
  5296 ;; Tracked objects:
  5297 ;;		On entry : 0/0
  5298 ;;		On exit  : 0/0
  5299 ;;		Unchanged: 0/0
  5300 ;; Data sizes:     COMRAM   BANK0   BANK1   BANK2   BANK3   BANK4   BANK5
  5301 ;;      Params:         0       0       0       0       0       0       0
  5302 ;;      Locals:         0       0       0       0       0       0       0
  5303 ;;      Temps:          0       0       0       0       0       0       0
  5304 ;;      Totals:         0       0       0       0       0       0       0
  5305 ;;Total ram usage:        0 bytes
  5306 ;; Hardware stack levels used: 1
  5307 ;; Hardware stack levels required when called: 1
  5308 ;; This function calls:
  5309 ;;		___wmul
  5310 ;; This function is called by:
  5311 ;;		_f_timers
  5312 ;; This function uses a non-reentrant model
  5313 ;;
  5314                           
  5315                           	psect	text32
  5316   002698                     __ptext32:
  5317                           	callstack 0
  5318   002698                     _calculate_RPM:
  5319                           	callstack 23
  5320   002698                     
  5321                           ;main.c: 129:     HZ = giro * 100;
  5322   002698  C059  F001         	movff	_giro,___wmul@multiplier
  5323   00269C  C05A  F002         	movff	_giro+1,___wmul@multiplier+1
  5324   0026A0  0E00               	movlw	0
  5325   0026A2  6E04               	movwf	(___wmul@multiplicand+1)^0,c
  5326   0026A4  0E64               	movlw	100
  5327   0026A6  6E03               	movwf	___wmul@multiplicand^0,c
  5328   0026A8  EC5F  F013         	call	___wmul	;wreg free
  5329   0026AC  C001  F0F6         	movff	?___wmul,_HZ
  5330   0026B0  C002  F0F7         	movff	?___wmul+1,_HZ+1
  5331   0026B4                     
  5332                           ;main.c: 130:     giro = 0;
  5333   0026B4  0E00               	movlw	0
  5334   0026B6  6E5A               	movwf	(_giro+1)^0,c
  5335   0026B8  0E00               	movlw	0
  5336   0026BA  6E59               	movwf	_giro^0,c
  5337   0026BC  0012               	return		;funcret
  5338   0026BE                     __end_of_calculate_RPM:
  5339                           	callstack 0
  5340                           
  5341 ;; *************** function ___wmul *****************
  5342 ;; Defined at:
  5343 ;;		line 15 in file "C:\Program Files\Microchip\xc8\v2.40\pic\sources\c99\common\Umul16.c"
  5344 ;; Parameters:    Size  Location     Type
  5345 ;;  multiplier      2    0[COMRAM] unsigned int 
  5346 ;;  multiplicand    2    2[COMRAM] unsigned int 
  5347 ;; Auto vars:     Size  Location     Type
  5348 ;;  product         2    4[COMRAM] unsigned int 
  5349 ;; Return value:  Size  Location     Type
  5350 ;;                  2    0[COMRAM] unsigned int 
  5351 ;; Registers used:
  5352 ;;		wreg, status,2, status,0, prodl, prodh
  5353 ;; Tracked objects:
  5354 ;;		On entry : 0/0
  5355 ;;		On exit  : 0/0
  5356 ;;		Unchanged: 0/0
  5357 ;; Data sizes:     COMRAM   BANK0   BANK1   BANK2   BANK3   BANK4   BANK5
  5358 ;;      Params:         4       0       0       0       0       0       0
  5359 ;;      Locals:         2       0       0       0       0       0       0
  5360 ;;      Temps:          0       0       0       0       0       0       0
  5361 ;;      Totals:         6       0       0       0       0       0       0
  5362 ;;Total ram usage:        6 bytes
  5363 ;; Hardware stack levels used: 1
  5364 ;; This function calls:
  5365 ;;		Nothing
  5366 ;; This function is called by:
  5367 ;;		_calculate_RPM
  5368 ;; This function uses a non-reentrant model
  5369 ;;
  5370                           
  5371                           	psect	text33
  5372   0026BE                     __ptext33:
  5373                           	callstack 0
  5374   0026BE                     ___wmul:
  5375                           	callstack 23
  5376   0026BE  5001               	movf	___wmul@multiplier^0,w,c
  5377   0026C0  0203               	mulwf	___wmul@multiplicand^0,c
  5378   0026C2  CFF3 F005          	movff	prodl,___wmul@product
  5379   0026C6  CFF4 F006          	movff	prodh,___wmul@product+1
  5380   0026CA  5001               	movf	___wmul@multiplier^0,w,c
  5381   0026CC  0204               	mulwf	(___wmul@multiplicand+1)^0,c
  5382   0026CE  50F3               	movf	243,w,c
  5383   0026D0  2606               	addwf	(___wmul@product+1)^0,f,c
  5384   0026D2  5002               	movf	(___wmul@multiplier+1)^0,w,c
  5385   0026D4  0203               	mulwf	___wmul@multiplicand^0,c
  5386   0026D6  50F3               	movf	243,w,c
  5387   0026D8  2606               	addwf	(___wmul@product+1)^0,f,c
  5388   0026DA  C005  F001         	movff	___wmul@product,?___wmul
  5389   0026DE  C006  F002         	movff	___wmul@product+1,?___wmul+1
  5390   0026E2  0012               	return		;funcret
  5391   0026E4                     __end_of___wmul:
  5392                           	callstack 0
  5393                           
  5394 ;; *************** function _Read_AD *****************
  5395 ;; Defined at:
  5396 ;;		line 59 in file "main.c"
  5397 ;; Parameters:    Size  Location     Type
  5398 ;;		None
  5399 ;; Auto vars:     Size  Location     Type
  5400 ;;		None
  5401 ;; Return value:  Size  Location     Type
  5402 ;;                  1    wreg      void 
  5403 ;; Registers used:
  5404 ;;		wreg, status,2, status,0, prodl, prodh, cstack
  5405 ;; Tracked objects:
  5406 ;;		On entry : 0/0
  5407 ;;		On exit  : 0/0
  5408 ;;		Unchanged: 0/0
  5409 ;; Data sizes:     COMRAM   BANK0   BANK1   BANK2   BANK3   BANK4   BANK5
  5410 ;;      Params:         0       0       0       0       0       0       0
  5411 ;;      Locals:         0       0       0       0       0       0       0
  5412 ;;      Temps:          4       0       0       0       0       0       0
  5413 ;;      Totals:         4       0       0       0       0       0       0
  5414 ;;Total ram usage:        4 bytes
  5415 ;; Hardware stack levels used: 1
  5416 ;; Hardware stack levels required when called: 1
  5417 ;; This function calls:
  5418 ;;		i2___fldiv
  5419 ;;		i2___flmul
  5420 ;;		i2___fltol
  5421 ;;		i2___xxtofl
  5422 ;; This function is called by:
  5423 ;;		_f_timers
  5424 ;; This function uses a non-reentrant model
  5425 ;;
  5426                           
  5427                           	psect	text34
  5428   0018FE                     __ptext34:
  5429                           	callstack 0
  5430   0018FE                     _Read_AD:
  5431                           	callstack 23
  5432   0018FE                     
  5433                           ;main.c: 62:     T1 = AD_data[0]*100.0/1023.0;
  5434   0018FE  0E00               	movlw	0
  5435   001900  6E2C               	movwf	i2___fldiv@a^0,c
  5436   001902  0EC0               	movlw	192
  5437   001904  6E2D               	movwf	(i2___fldiv@a+1)^0,c
  5438   001906  0E7F               	movlw	127
  5439   001908  6E2E               	movwf	(i2___fldiv@a+2)^0,c
  5440   00190A  0E44               	movlw	68
  5441   00190C  6E2F               	movwf	(i2___fldiv@a+3)^0,c
  5442   00190E  0E00               	movlw	0
  5443   001910  6E13               	movwf	i2___flmul@a^0,c
  5444   001912  0E00               	movlw	0
  5445   001914  6E14               	movwf	(i2___flmul@a+1)^0,c
  5446   001916  0EC8               	movlw	200
  5447   001918  6E15               	movwf	(i2___flmul@a+2)^0,c
  5448   00191A  0E42               	movlw	66
  5449   00191C  6E16               	movwf	(i2___flmul@a+3)^0,c
  5450   00191E  C071  F001         	movff	_AD_data,i2___xxtofl@val
  5451   001922  C072  F002         	movff	_AD_data+1,i2___xxtofl@val+1
  5452   001926  6A03               	clrf	(i2___xxtofl@val+2)^0,c
  5453   001928  6A04               	clrf	(i2___xxtofl@val+3)^0,c
  5454   00192A  0E00               	movlw	0
  5455   00192C  ECA5  F00B         	call	i2___xxtofl
  5456   001930  C001  F00F         	movff	?i2___xxtofl,i2___flmul@b
  5457   001934  C002  F010         	movff	?i2___xxtofl+1,i2___flmul@b+1
  5458   001938  C003  F011         	movff	?i2___xxtofl+2,i2___flmul@b+2
  5459   00193C  C004  F012         	movff	?i2___xxtofl+3,i2___flmul@b+3
  5460   001940  EC19  F005         	call	i2___flmul	;wreg free
  5461   001944  C00F  F028         	movff	?i2___flmul,i2___fldiv@b
  5462   001948  C010  F029         	movff	?i2___flmul+1,i2___fldiv@b+1
  5463   00194C  C011  F02A         	movff	?i2___flmul+2,i2___fldiv@b+2
  5464   001950  C012  F02B         	movff	?i2___flmul+3,i2___fldiv@b+3
  5465   001954  ECFC  F008         	call	i2___fldiv	;wreg free
  5466   001958  C028  F041         	movff	?i2___fldiv,i2___fltol@f1
  5467   00195C  C029  F042         	movff	?i2___fldiv+1,i2___fltol@f1+1
  5468   001960  C02A  F043         	movff	?i2___fldiv+2,i2___fltol@f1+2
  5469   001964  C02B  F044         	movff	?i2___fldiv+3,i2___fltol@f1+3
  5470   001968  EC3E  F00E         	call	i2___fltol	;wreg free
  5471   00196C  C041  F05F         	movff	?i2___fltol,_T1
  5472   001970  C042  F060         	movff	?i2___fltol+1,_T1+1
  5473   001974                     
  5474                           ;main.c: 63:     if(T1<20)
  5475   001974  5060               	movf	(_T1+1)^0,w,c
  5476   001976  E107               	bnz	i2u303_41
  5477   001978  0E14               	movlw	20
  5478   00197A  5C5F               	subwf	_T1^0,w,c
  5479   00197C  B0D8               	btfsc	status,0,c
  5480   00197E  EFC3  F00C         	goto	i2u303_41
  5481   001982  EFC5  F00C         	goto	i2u303_40
  5482   001986                     i2u303_41:
  5483   001986  EFC9  F00C         	goto	i2l3390
  5484   00198A                     i2u303_40:
  5485   00198A                     
  5486                           ;main.c: 64:         T1 = 20;
  5487   00198A  0E00               	movlw	0
  5488   00198C  6E60               	movwf	(_T1+1)^0,c
  5489   00198E  0E14               	movlw	20
  5490   001990  6E5F               	movwf	_T1^0,c
  5491   001992                     i2l3390:
  5492                           
  5493                           ;main.c: 65:     T2 = AD_data[1]*100.0/1023.0;
  5494   001992  0E00               	movlw	0
  5495   001994  6E2C               	movwf	i2___fldiv@a^0,c
  5496   001996  0EC0               	movlw	192
  5497   001998  6E2D               	movwf	(i2___fldiv@a+1)^0,c
  5498   00199A  0E7F               	movlw	127
  5499   00199C  6E2E               	movwf	(i2___fldiv@a+2)^0,c
  5500   00199E  0E44               	movlw	68
  5501   0019A0  6E2F               	movwf	(i2___fldiv@a+3)^0,c
  5502   0019A2  0E00               	movlw	0
  5503   0019A4  6E13               	movwf	i2___flmul@a^0,c
  5504   0019A6  0E00               	movlw	0
  5505   0019A8  6E14               	movwf	(i2___flmul@a+1)^0,c
  5506   0019AA  0EC8               	movlw	200
  5507   0019AC  6E15               	movwf	(i2___flmul@a+2)^0,c
  5508   0019AE  0E42               	movlw	66
  5509   0019B0  6E16               	movwf	(i2___flmul@a+3)^0,c
  5510   0019B2  C073  F001         	movff	_AD_data+2,i2___xxtofl@val
  5511   0019B6  C074  F002         	movff	_AD_data+3,i2___xxtofl@val+1
  5512   0019BA  6A03               	clrf	(i2___xxtofl@val+2)^0,c
  5513   0019BC  6A04               	clrf	(i2___xxtofl@val+3)^0,c
  5514   0019BE  0E00               	movlw	0
  5515   0019C0  ECA5  F00B         	call	i2___xxtofl
  5516   0019C4  C001  F00F         	movff	?i2___xxtofl,i2___flmul@b
  5517   0019C8  C002  F010         	movff	?i2___xxtofl+1,i2___flmul@b+1
  5518   0019CC  C003  F011         	movff	?i2___xxtofl+2,i2___flmul@b+2
  5519   0019D0  C004  F012         	movff	?i2___xxtofl+3,i2___flmul@b+3
  5520   0019D4  EC19  F005         	call	i2___flmul	;wreg free
  5521   0019D8  C00F  F028         	movff	?i2___flmul,i2___fldiv@b
  5522   0019DC  C010  F029         	movff	?i2___flmul+1,i2___fldiv@b+1
  5523   0019E0  C011  F02A         	movff	?i2___flmul+2,i2___fldiv@b+2
  5524   0019E4  C012  F02B         	movff	?i2___flmul+3,i2___fldiv@b+3
  5525   0019E8  ECFC  F008         	call	i2___fldiv	;wreg free
  5526   0019EC  C028  F041         	movff	?i2___fldiv,i2___fltol@f1
  5527   0019F0  C029  F042         	movff	?i2___fldiv+1,i2___fltol@f1+1
  5528   0019F4  C02A  F043         	movff	?i2___fldiv+2,i2___fltol@f1+2
  5529   0019F8  C02B  F044         	movff	?i2___fldiv+3,i2___fltol@f1+3
  5530   0019FC  EC3E  F00E         	call	i2___fltol	;wreg free
  5531   001A00  C041  F05D         	movff	?i2___fltol,_T2
  5532   001A04  C042  F05E         	movff	?i2___fltol+1,_T2+1
  5533   001A08                     
  5534                           ;main.c: 66:     if(T2<20)
  5535   001A08  505E               	movf	(_T2+1)^0,w,c
  5536   001A0A  E107               	bnz	i2u304_41
  5537   001A0C  0E14               	movlw	20
  5538   001A0E  5C5D               	subwf	_T2^0,w,c
  5539   001A10  B0D8               	btfsc	status,0,c
  5540   001A12  EF0D  F00D         	goto	i2u304_41
  5541   001A16  EF0F  F00D         	goto	i2u304_40
  5542   001A1A                     i2u304_41:
  5543   001A1A  EF13  F00D         	goto	i2l3396
  5544   001A1E                     i2u304_40:
  5545   001A1E                     
  5546                           ;main.c: 67:         T2 = 20;
  5547   001A1E  0E00               	movlw	0
  5548   001A20  6E5E               	movwf	(_T2+1)^0,c
  5549   001A22  0E14               	movlw	20
  5550   001A24  6E5D               	movwf	_T2^0,c
  5551   001A26                     i2l3396:
  5552                           
  5553                           ;main.c: 68:     TM = (T1+T2)/2;
  5554   001A26  505D               	movf	_T2^0,w,c
  5555   001A28  245F               	addwf	_T1^0,w,c
  5556   001A2A  6E4B               	movwf	??_Read_AD^0,c
  5557   001A2C  505E               	movf	(_T2+1)^0,w,c
  5558   001A2E  2060               	addwfc	(_T1+1)^0,w,c
  5559   001A30  6E4C               	movwf	(??_Read_AD+1)^0,c
  5560   001A32  90D8               	bcf	status,0,c
  5561   001A34  304C               	rrcf	(??_Read_AD+1)^0,w,c
  5562   001A36  6E4D               	movwf	(??_Read_AD+2)^0,c
  5563   001A38  304B               	rrcf	??_Read_AD^0,w,c
  5564   001A3A  6E5B               	movwf	_TM^0,c
  5565   001A3C  C04D  F05C         	movff	??_Read_AD+2,_TM+1
  5566   001A40  0012               	return		;funcret
  5567   001A42                     __end_of_Read_AD:
  5568                           	callstack 0
  5569                           
  5570 ;; *************** function i2___xxtofl *****************
  5571 ;; Defined at:
  5572 ;;		line 10 in file "C:\Program Files\Microchip\xc8\v2.40\pic\sources\c99\common\xxtofl.c"
  5573 ;; Parameters:    Size  Location     Type
  5574 ;;  sign            1    wreg     unsigned char 
  5575 ;;  val             4    0[COMRAM] long 
  5576 ;; Auto vars:     Size  Location     Type
  5577 ;;  sign            1    8[COMRAM] unsigned char 
  5578 ;;  arg             4   10[COMRAM] unsigned long 
  5579 ;;  exp             1    9[COMRAM] unsigned char 
  5580 ;; Return value:  Size  Location     Type
  5581 ;;                  4    0[COMRAM] unsigned char 
  5582 ;; Registers used:
  5583 ;;		wreg, status,2, status,0
  5584 ;; Tracked objects:
  5585 ;;		On entry : 0/0
  5586 ;;		On exit  : 0/0
  5587 ;;		Unchanged: 0/0
  5588 ;; Data sizes:     COMRAM   BANK0   BANK1   BANK2   BANK3   BANK4   BANK5
  5589 ;;      Params:         4       0       0       0       0       0       0
  5590 ;;      Locals:         6       0       0       0       0       0       0
  5591 ;;      Temps:          4       0       0       0       0       0       0
  5592 ;;      Totals:        14       0       0       0       0       0       0
  5593 ;;Total ram usage:       14 bytes
  5594 ;; Hardware stack levels used: 1
  5595 ;; This function calls:
  5596 ;;		Nothing
  5597 ;; This function is called by:
  5598 ;;		_Read_AD
  5599 ;; This function uses a non-reentrant model
  5600 ;;
  5601                           
  5602                           	psect	text35
  5603   00174A                     __ptext35:
  5604                           	callstack 0
  5605   00174A                     i2___xxtofl:
  5606                           	callstack 23
  5607                           
  5608                           ;incstack = 0
  5609                           ;i2___xxtofl@sign stored from wreg
  5610   00174A  6E09               	movwf	i2___xxtofl@sign^0,c
  5611   00174C  5009               	movf	i2___xxtofl@sign^0,w,c
  5612   00174E  B4D8               	btfsc	status,2,c
  5613   001750  EFAC  F00B         	goto	i2u288_41
  5614   001754  EFAE  F00B         	goto	i2u288_40
  5615   001758                     i2u288_41:
  5616   001758  EFD0  F00B         	goto	i2l1088
  5617   00175C                     i2u288_40:
  5618   00175C  BE04               	btfsc	(i2___xxtofl@val+3)^0,7,c
  5619   00175E  EFB5  F00B         	goto	i2u289_40
  5620   001762  EFB3  F00B         	goto	i2u289_41
  5621   001766                     i2u289_41:
  5622   001766  EFD0  F00B         	goto	i2l1088
  5623   00176A                     i2u289_40:
  5624   00176A  C001  F005         	movff	i2___xxtofl@val,??i2___xxtofl
  5625   00176E  C002  F006         	movff	i2___xxtofl@val+1,??i2___xxtofl+1
  5626   001772  C003  F007         	movff	i2___xxtofl@val+2,??i2___xxtofl+2
  5627   001776  C004  F008         	movff	i2___xxtofl@val+3,??i2___xxtofl+3
  5628   00177A  1E05               	comf	??i2___xxtofl^0,f,c
  5629   00177C  1E06               	comf	(??i2___xxtofl+1)^0,f,c
  5630   00177E  1E07               	comf	(??i2___xxtofl+2)^0,f,c
  5631   001780  1E08               	comf	(??i2___xxtofl+3)^0,f,c
  5632   001782  2A05               	incf	??i2___xxtofl^0,f,c
  5633   001784  0E00               	movlw	0
  5634   001786  2206               	addwfc	(??i2___xxtofl+1)^0,f,c
  5635   001788  2207               	addwfc	(??i2___xxtofl+2)^0,f,c
  5636   00178A  2208               	addwfc	(??i2___xxtofl+3)^0,f,c
  5637   00178C  C005  F00B         	movff	??i2___xxtofl,i2___xxtofl@arg
  5638   001790  C006  F00C         	movff	??i2___xxtofl+1,i2___xxtofl@arg+1
  5639   001794  C007  F00D         	movff	??i2___xxtofl+2,i2___xxtofl@arg+2
  5640   001798  C008  F00E         	movff	??i2___xxtofl+3,i2___xxtofl@arg+3
  5641   00179C  EFD8  F00B         	goto	i2l3202
  5642   0017A0                     i2l1088:
  5643   0017A0  C001  F00B         	movff	i2___xxtofl@val,i2___xxtofl@arg
  5644   0017A4  C002  F00C         	movff	i2___xxtofl@val+1,i2___xxtofl@arg+1
  5645   0017A8  C003  F00D         	movff	i2___xxtofl@val+2,i2___xxtofl@arg+2
  5646   0017AC  C004  F00E         	movff	i2___xxtofl@val+3,i2___xxtofl@arg+3
  5647   0017B0                     i2l3202:
  5648   0017B0  5001               	movf	i2___xxtofl@val^0,w,c
  5649   0017B2  1002               	iorwf	(i2___xxtofl@val+1)^0,w,c
  5650   0017B4  1003               	iorwf	(i2___xxtofl@val+2)^0,w,c
  5651   0017B6  1004               	iorwf	(i2___xxtofl@val+3)^0,w,c
  5652   0017B8  A4D8               	btfss	status,2,c
  5653   0017BA  EFE1  F00B         	goto	i2u290_41
  5654   0017BE  EFE3  F00B         	goto	i2u290_40
  5655   0017C2                     i2u290_41:
  5656   0017C2  EFED  F00B         	goto	i2l3208
  5657   0017C6                     i2u290_40:
  5658   0017C6  0E00               	movlw	0
  5659   0017C8  6E01               	movwf	?i2___xxtofl^0,c
  5660   0017CA  0E00               	movlw	0
  5661   0017CC  6E02               	movwf	(?i2___xxtofl+1)^0,c
  5662   0017CE  0E00               	movlw	0
  5663   0017D0  6E03               	movwf	(?i2___xxtofl+2)^0,c
  5664   0017D2  0E00               	movlw	0
  5665   0017D4  6E04               	movwf	(?i2___xxtofl+3)^0,c
  5666   0017D6  EF7E  F00C         	goto	i2l1091
  5667   0017DA                     i2l3208:
  5668   0017DA  0E96               	movlw	150
  5669   0017DC  6E0A               	movwf	i2___xxtofl@exp^0,c
  5670   0017DE  EFF7  F00B         	goto	i2l3212
  5671   0017E2                     i2l3210:
  5672   0017E2  2A0A               	incf	i2___xxtofl@exp^0,f,c
  5673   0017E4  90D8               	bcf	status,0,c
  5674   0017E6  320E               	rrcf	(i2___xxtofl@arg+3)^0,f,c
  5675   0017E8  320D               	rrcf	(i2___xxtofl@arg+2)^0,f,c
  5676   0017EA  320C               	rrcf	(i2___xxtofl@arg+1)^0,f,c
  5677   0017EC  320B               	rrcf	i2___xxtofl@arg^0,f,c
  5678   0017EE                     i2l3212:
  5679   0017EE  0E00               	movlw	0
  5680   0017F0  140B               	andwf	i2___xxtofl@arg^0,w,c
  5681   0017F2  6E05               	movwf	??i2___xxtofl^0,c
  5682   0017F4  0E00               	movlw	0
  5683   0017F6  140C               	andwf	(i2___xxtofl@arg+1)^0,w,c
  5684   0017F8  6E06               	movwf	(??i2___xxtofl+1)^0,c
  5685   0017FA  0E00               	movlw	0
  5686   0017FC  140D               	andwf	(i2___xxtofl@arg+2)^0,w,c
  5687   0017FE  6E07               	movwf	(??i2___xxtofl+2)^0,c
  5688   001800  0EFE               	movlw	254
  5689   001802  140E               	andwf	(i2___xxtofl@arg+3)^0,w,c
  5690   001804  6E08               	movwf	(??i2___xxtofl+3)^0,c
  5691   001806  5005               	movf	??i2___xxtofl^0,w,c
  5692   001808  1006               	iorwf	(??i2___xxtofl+1)^0,w,c
  5693   00180A  1007               	iorwf	(??i2___xxtofl+2)^0,w,c
  5694   00180C  1008               	iorwf	(??i2___xxtofl+3)^0,w,c
  5695   00180E  A4D8               	btfss	status,2,c
  5696   001810  EF0C  F00C         	goto	i2u291_41
  5697   001814  EF0E  F00C         	goto	i2u291_40
  5698   001818                     i2u291_41:
  5699   001818  EFF1  F00B         	goto	i2l3210
  5700   00181C                     i2u291_40:
  5701   00181C  EF1C  F00C         	goto	i2l1095
  5702   001820                     i2l3214:
  5703   001820  2A0A               	incf	i2___xxtofl@exp^0,f,c
  5704   001822  0E01               	movlw	1
  5705   001824  260B               	addwf	i2___xxtofl@arg^0,f,c
  5706   001826  0E00               	movlw	0
  5707   001828  220C               	addwfc	(i2___xxtofl@arg+1)^0,f,c
  5708   00182A  220D               	addwfc	(i2___xxtofl@arg+2)^0,f,c
  5709   00182C  220E               	addwfc	(i2___xxtofl@arg+3)^0,f,c
  5710   00182E  90D8               	bcf	status,0,c
  5711   001830  320E               	rrcf	(i2___xxtofl@arg+3)^0,f,c
  5712   001832  320D               	rrcf	(i2___xxtofl@arg+2)^0,f,c
  5713   001834  320C               	rrcf	(i2___xxtofl@arg+1)^0,f,c
  5714   001836  320B               	rrcf	i2___xxtofl@arg^0,f,c
  5715   001838                     i2l1095:
  5716   001838  0E00               	movlw	0
  5717   00183A  140B               	andwf	i2___xxtofl@arg^0,w,c
  5718   00183C  6E05               	movwf	??i2___xxtofl^0,c
  5719   00183E  0E00               	movlw	0
  5720   001840  140C               	andwf	(i2___xxtofl@arg+1)^0,w,c
  5721   001842  6E06               	movwf	(??i2___xxtofl+1)^0,c
  5722   001844  0E00               	movlw	0
  5723   001846  140D               	andwf	(i2___xxtofl@arg+2)^0,w,c
  5724   001848  6E07               	movwf	(??i2___xxtofl+2)^0,c
  5725   00184A  0EFF               	movlw	255
  5726   00184C  140E               	andwf	(i2___xxtofl@arg+3)^0,w,c
  5727   00184E  6E08               	movwf	(??i2___xxtofl+3)^0,c
  5728   001850  5005               	movf	??i2___xxtofl^0,w,c
  5729   001852  1006               	iorwf	(??i2___xxtofl+1)^0,w,c
  5730   001854  1007               	iorwf	(??i2___xxtofl+2)^0,w,c
  5731   001856  1008               	iorwf	(??i2___xxtofl+3)^0,w,c
  5732   001858  A4D8               	btfss	status,2,c
  5733   00185A  EF31  F00C         	goto	i2u292_41
  5734   00185E  EF33  F00C         	goto	i2u292_40
  5735   001862                     i2u292_41:
  5736   001862  EF10  F00C         	goto	i2l3214
  5737   001866                     i2u292_40:
  5738   001866  EF3B  F00C         	goto	i2l3222
  5739   00186A                     i2l3220:
  5740   00186A  060A               	decf	i2___xxtofl@exp^0,f,c
  5741   00186C  90D8               	bcf	status,0,c
  5742   00186E  360B               	rlcf	i2___xxtofl@arg^0,f,c
  5743   001870  360C               	rlcf	(i2___xxtofl@arg+1)^0,f,c
  5744   001872  360D               	rlcf	(i2___xxtofl@arg+2)^0,f,c
  5745   001874  360E               	rlcf	(i2___xxtofl@arg+3)^0,f,c
  5746   001876                     i2l3222:
  5747   001876  BE0D               	btfsc	(i2___xxtofl@arg+2)^0,7,c
  5748   001878  EF40  F00C         	goto	i2u293_41
  5749   00187C  EF42  F00C         	goto	i2u293_40
  5750   001880                     i2u293_41:
  5751   001880  EF4A  F00C         	goto	i2l1102
  5752   001884                     i2u293_40:
  5753   001884  0E02               	movlw	2
  5754   001886  600A               	cpfslt	i2___xxtofl@exp^0,c
  5755   001888  EF48  F00C         	goto	i2u294_41
  5756   00188C  EF4A  F00C         	goto	i2u294_40
  5757   001890                     i2u294_41:
  5758   001890  EF35  F00C         	goto	i2l3220
  5759   001894                     i2u294_40:
  5760   001894                     i2l1102:
  5761   001894  B00A               	btfsc	i2___xxtofl@exp^0,0,c
  5762   001896  EF4F  F00C         	goto	i2u295_41
  5763   00189A  EF51  F00C         	goto	i2u295_40
  5764   00189E                     i2u295_41:
  5765   00189E  EF52  F00C         	goto	i2l3228
  5766   0018A2                     i2u295_40:
  5767   0018A2  9E0D               	bcf	(i2___xxtofl@arg+2)^0,7,c
  5768   0018A4                     i2l3228:
  5769   0018A4  90D8               	bcf	status,0,c
  5770   0018A6  320A               	rrcf	i2___xxtofl@exp^0,f,c
  5771   0018A8  C00A  F005         	movff	i2___xxtofl@exp,??i2___xxtofl
  5772   0018AC  6A06               	clrf	(??i2___xxtofl+1)^0,c
  5773   0018AE  6A07               	clrf	(??i2___xxtofl+2)^0,c
  5774   0018B0  6A08               	clrf	(??i2___xxtofl+3)^0,c
  5775   0018B2  C005  F008         	movff	??i2___xxtofl,??i2___xxtofl+3
  5776   0018B6  6A07               	clrf	(??i2___xxtofl+2)^0,c
  5777   0018B8  6A06               	clrf	(??i2___xxtofl+1)^0,c
  5778   0018BA  6A05               	clrf	??i2___xxtofl^0,c
  5779   0018BC  5005               	movf	??i2___xxtofl^0,w,c
  5780   0018BE  120B               	iorwf	i2___xxtofl@arg^0,f,c
  5781   0018C0  5006               	movf	(??i2___xxtofl+1)^0,w,c
  5782   0018C2  120C               	iorwf	(i2___xxtofl@arg+1)^0,f,c
  5783   0018C4  5007               	movf	(??i2___xxtofl+2)^0,w,c
  5784   0018C6  120D               	iorwf	(i2___xxtofl@arg+2)^0,f,c
  5785   0018C8  5008               	movf	(??i2___xxtofl+3)^0,w,c
  5786   0018CA  120E               	iorwf	(i2___xxtofl@arg+3)^0,f,c
  5787   0018CC  5009               	movf	i2___xxtofl@sign^0,w,c
  5788   0018CE  B4D8               	btfsc	status,2,c
  5789   0018D0  EF6C  F00C         	goto	i2u296_41
  5790   0018D4  EF6E  F00C         	goto	i2u296_40
  5791   0018D8                     i2u296_41:
  5792   0018D8  EF76  F00C         	goto	i2l3238
  5793   0018DC                     i2u296_40:
  5794   0018DC  BE04               	btfsc	(i2___xxtofl@val+3)^0,7,c
  5795   0018DE  EF75  F00C         	goto	i2u297_40
  5796   0018E2  EF73  F00C         	goto	i2u297_41
  5797   0018E6                     i2u297_41:
  5798   0018E6  EF76  F00C         	goto	i2l3238
  5799   0018EA                     i2u297_40:
  5800   0018EA  8E0E               	bsf	(i2___xxtofl@arg+3)^0,7,c
  5801   0018EC                     i2l3238:
  5802   0018EC  C00B  F001         	movff	i2___xxtofl@arg,?i2___xxtofl
  5803   0018F0  C00C  F002         	movff	i2___xxtofl@arg+1,?i2___xxtofl+1
  5804   0018F4  C00D  F003         	movff	i2___xxtofl@arg+2,?i2___xxtofl+2
  5805   0018F8  C00E  F004         	movff	i2___xxtofl@arg+3,?i2___xxtofl+3
  5806   0018FC                     i2l1091:
  5807   0018FC  0012               	return		;funcret
  5808   0018FE                     __end_ofi2___xxtofl:
  5809                           	callstack 0
  5810                           
  5811 ;; *************** function i2___fltol *****************
  5812 ;; Defined at:
  5813 ;;		line 43 in file "C:\Program Files\Microchip\xc8\v2.40\pic\sources\c99\common\fltol.c"
  5814 ;; Parameters:    Size  Location     Type
  5815 ;;  f1              4   64[COMRAM] unsigned char 
  5816 ;; Auto vars:     Size  Location     Type
  5817 ;;  exp1            1   73[COMRAM] unsigned char 
  5818 ;;  sign1           1   72[COMRAM] unsigned char 
  5819 ;; Return value:  Size  Location     Type
  5820 ;;                  4   64[COMRAM] long 
  5821 ;; Registers used:
  5822 ;;		wreg, status,2, status,0
  5823 ;; Tracked objects:
  5824 ;;		On entry : 0/0
  5825 ;;		On exit  : 0/0
  5826 ;;		Unchanged: 0/0
  5827 ;; Data sizes:     COMRAM   BANK0   BANK1   BANK2   BANK3   BANK4   BANK5
  5828 ;;      Params:         4       0       0       0       0       0       0
  5829 ;;      Locals:         2       0       0       0       0       0       0
  5830 ;;      Temps:          4       0       0       0       0       0       0
  5831 ;;      Totals:        10       0       0       0       0       0       0
  5832 ;;Total ram usage:       10 bytes
  5833 ;; Hardware stack levels used: 1
  5834 ;; This function calls:
  5835 ;;		Nothing
  5836 ;; This function is called by:
  5837 ;;		_Read_AD
  5838 ;; This function uses a non-reentrant model
  5839 ;;
  5840                           
  5841                           	psect	text36
  5842   001C7C                     __ptext36:
  5843                           	callstack 0
  5844   001C7C                     i2___fltol:
  5845                           	callstack 23
  5846   001C7C  3443               	rlcf	(i2___fltol@f1+2)^0,w,c
  5847   001C7E  3444               	rlcf	(i2___fltol@f1+3)^0,w,c
  5848   001C80  6E4A               	movwf	i2___fltol@exp1^0,c
  5849   001C82  504A               	movf	i2___fltol@exp1^0,w,c
  5850   001C84  A4D8               	btfss	status,2,c
  5851   001C86  EF47  F00E         	goto	i2u233_41
  5852   001C8A  EF49  F00E         	goto	i2u233_40
  5853   001C8E                     i2u233_41:
  5854   001C8E  EF53  F00E         	goto	i2l2852
  5855   001C92                     i2u233_40:
  5856   001C92                     i2l2848:
  5857   001C92  0E00               	movlw	0
  5858   001C94  6E41               	movwf	?i2___fltol^0,c
  5859   001C96  0E00               	movlw	0
  5860   001C98  6E42               	movwf	(?i2___fltol+1)^0,c
  5861   001C9A  0E00               	movlw	0
  5862   001C9C  6E43               	movwf	(?i2___fltol+2)^0,c
  5863   001C9E  0E00               	movlw	0
  5864   001CA0  6E44               	movwf	(?i2___fltol+3)^0,c
  5865   001CA2  EFC0  F00E         	goto	i2l730
  5866   001CA6                     i2l2852:
  5867   001CA6  C041  F045         	movff	i2___fltol@f1,??i2___fltol
  5868   001CAA  C042  F046         	movff	i2___fltol@f1+1,??i2___fltol+1
  5869   001CAE  C043  F047         	movff	i2___fltol@f1+2,??i2___fltol+2
  5870   001CB2  C044  F048         	movff	i2___fltol@f1+3,??i2___fltol+3
  5871   001CB6  0E20               	movlw	32
  5872   001CB8  EF63  F00E         	goto	i2u234_40
  5873   001CBC                     i2u234_45:
  5874   001CBC  90D8               	bcf	status,0,c
  5875   001CBE  3248               	rrcf	(??i2___fltol+3)^0,f,c
  5876   001CC0  3247               	rrcf	(??i2___fltol+2)^0,f,c
  5877   001CC2  3246               	rrcf	(??i2___fltol+1)^0,f,c
  5878   001CC4  3245               	rrcf	??i2___fltol^0,f,c
  5879   001CC6                     i2u234_40:
  5880   001CC6  2EE8               	decfsz	wreg,f,c
  5881   001CC8  EF5E  F00E         	goto	i2u234_45
  5882   001CCC  5045               	movf	??i2___fltol^0,w,c
  5883   001CCE  6E49               	movwf	i2___fltol@sign1^0,c
  5884   001CD0  8E43               	bsf	(i2___fltol@f1+2)^0,7,c
  5885   001CD2  0EFF               	movlw	255
  5886   001CD4  1641               	andwf	i2___fltol@f1^0,f,c
  5887   001CD6  0EFF               	movlw	255
  5888   001CD8  1642               	andwf	(i2___fltol@f1+1)^0,f,c
  5889   001CDA  0EFF               	movlw	255
  5890   001CDC  1643               	andwf	(i2___fltol@f1+2)^0,f,c
  5891   001CDE  0E00               	movlw	0
  5892   001CE0  1644               	andwf	(i2___fltol@f1+3)^0,f,c
  5893   001CE2  0E96               	movlw	150
  5894   001CE4  5E4A               	subwf	i2___fltol@exp1^0,f,c
  5895   001CE6  BE4A               	btfsc	i2___fltol@exp1^0,7,c
  5896   001CE8  EF7A  F00E         	goto	i2u235_40
  5897   001CEC  EF78  F00E         	goto	i2u235_41
  5898   001CF0                     i2u235_41:
  5899   001CF0  EF90  F00E         	goto	i2l2872
  5900   001CF4                     i2u235_40:
  5901   001CF4  504A               	movf	i2___fltol@exp1^0,w,c
  5902   001CF6  0A80               	xorlw	128
  5903   001CF8  0F97               	addlw	151
  5904   001CFA  B0D8               	btfsc	status,0,c
  5905   001CFC  EF82  F00E         	goto	i2u236_41
  5906   001D00  EF84  F00E         	goto	i2u236_40
  5907   001D04                     i2u236_41:
  5908   001D04  EF86  F00E         	goto	i2l2868
  5909   001D08                     i2u236_40:
  5910   001D08  EF49  F00E         	goto	i2l2848
  5911   001D0C                     i2l2868:
  5912   001D0C  90D8               	bcf	status,0,c
  5913   001D0E  3244               	rrcf	(i2___fltol@f1+3)^0,f,c
  5914   001D10  3243               	rrcf	(i2___fltol@f1+2)^0,f,c
  5915   001D12  3242               	rrcf	(i2___fltol@f1+1)^0,f,c
  5916   001D14  3241               	rrcf	i2___fltol@f1^0,f,c
  5917   001D16  3E4A               	incfsz	i2___fltol@exp1^0,f,c
  5918   001D18  EF86  F00E         	goto	i2l2868
  5919   001D1C  EFA8  F00E         	goto	i2l2882
  5920   001D20                     i2l2872:
  5921   001D20  0E1F               	movlw	31
  5922   001D22  644A               	cpfsgt	i2___fltol@exp1^0,c
  5923   001D24  EF96  F00E         	goto	i2u237_41
  5924   001D28  EF98  F00E         	goto	i2u237_40
  5925   001D2C                     i2u237_41:
  5926   001D2C  EFA0  F00E         	goto	i2l2880
  5927   001D30                     i2u237_40:
  5928   001D30  EF49  F00E         	goto	i2l2848
  5929   001D34                     i2l2878:
  5930   001D34  90D8               	bcf	status,0,c
  5931   001D36  3641               	rlcf	i2___fltol@f1^0,f,c
  5932   001D38  3642               	rlcf	(i2___fltol@f1+1)^0,f,c
  5933   001D3A  3643               	rlcf	(i2___fltol@f1+2)^0,f,c
  5934   001D3C  3644               	rlcf	(i2___fltol@f1+3)^0,f,c
  5935   001D3E  064A               	decf	i2___fltol@exp1^0,f,c
  5936   001D40                     i2l2880:
  5937   001D40  504A               	movf	i2___fltol@exp1^0,w,c
  5938   001D42  A4D8               	btfss	status,2,c
  5939   001D44  EFA6  F00E         	goto	i2u238_41
  5940   001D48  EFA8  F00E         	goto	i2u238_40
  5941   001D4C                     i2u238_41:
  5942   001D4C  EF9A  F00E         	goto	i2l2878
  5943   001D50                     i2u238_40:
  5944   001D50                     i2l2882:
  5945   001D50  5049               	movf	i2___fltol@sign1^0,w,c
  5946   001D52  B4D8               	btfsc	status,2,c
  5947   001D54  EFAE  F00E         	goto	i2u239_41
  5948   001D58  EFB0  F00E         	goto	i2u239_40
  5949   001D5C                     i2u239_41:
  5950   001D5C  EFB8  F00E         	goto	i2l2886
  5951   001D60                     i2u239_40:
  5952   001D60  1E44               	comf	(i2___fltol@f1+3)^0,f,c
  5953   001D62  1E43               	comf	(i2___fltol@f1+2)^0,f,c
  5954   001D64  1E42               	comf	(i2___fltol@f1+1)^0,f,c
  5955   001D66  6C41               	negf	i2___fltol@f1^0,c
  5956   001D68  0E00               	movlw	0
  5957   001D6A  2242               	addwfc	(i2___fltol@f1+1)^0,f,c
  5958   001D6C  2243               	addwfc	(i2___fltol@f1+2)^0,f,c
  5959   001D6E  2244               	addwfc	(i2___fltol@f1+3)^0,f,c
  5960   001D70                     i2l2886:
  5961   001D70  C041  F041         	movff	i2___fltol@f1,?i2___fltol
  5962   001D74  C042  F042         	movff	i2___fltol@f1+1,?i2___fltol+1
  5963   001D78  C043  F043         	movff	i2___fltol@f1+2,?i2___fltol+2
  5964   001D7C  C044  F044         	movff	i2___fltol@f1+3,?i2___fltol+3
  5965   001D80                     i2l730:
  5966   001D80  0012               	return		;funcret
  5967   001D82                     __end_ofi2___fltol:
  5968                           	callstack 0
  5969                           
  5970 ;; *************** function i2___flmul *****************
  5971 ;; Defined at:
  5972 ;;		line 8 in file "C:\Program Files\Microchip\xc8\v2.40\pic\sources\c99\common\sprcmul.c"
  5973 ;; Parameters:    Size  Location     Type
  5974 ;;  b               4   14[COMRAM] long 
  5975 ;;  a               4   18[COMRAM] long 
  5976 ;; Auto vars:     Size  Location     Type
  5977 ;;  prod            4   33[COMRAM] struct .
  5978 ;;  grs             4   27[COMRAM] unsigned long 
  5979 ;;  temp            2   37[COMRAM] struct .
  5980 ;;  bexp            1   32[COMRAM] unsigned char 
  5981 ;;  aexp            1   31[COMRAM] unsigned char 
  5982 ;;  sign            1   26[COMRAM] unsigned char 
  5983 ;; Return value:  Size  Location     Type
  5984 ;;                  4   14[COMRAM] unsigned char 
  5985 ;; Registers used:
  5986 ;;		wreg, status,2, status,0, prodl, prodh
  5987 ;; Tracked objects:
  5988 ;;		On entry : 0/0
  5989 ;;		On exit  : 0/0
  5990 ;;		Unchanged: 0/0
  5991 ;; Data sizes:     COMRAM   BANK0   BANK1   BANK2   BANK3   BANK4   BANK5
  5992 ;;      Params:         8       0       0       0       0       0       0
  5993 ;;      Locals:        13       0       0       0       0       0       0
  5994 ;;      Temps:          4       0       0       0       0       0       0
  5995 ;;      Totals:        25       0       0       0       0       0       0
  5996 ;;Total ram usage:       25 bytes
  5997 ;; Hardware stack levels used: 1
  5998 ;; This function calls:
  5999 ;;		Nothing
  6000 ;; This function is called by:
  6001 ;;		_Read_AD
  6002 ;; This function uses a non-reentrant model
  6003 ;;
  6004                           
  6005                           	psect	text37
  6006   000A32                     __ptext37:
  6007                           	callstack 0
  6008   000A32                     i2___flmul:
  6009                           	callstack 23
  6010   000A32  5012               	movf	(i2___flmul@b+3)^0,w,c
  6011   000A34  0B80               	andlw	128
  6012   000A36  6E1B               	movwf	i2___flmul@sign^0,c
  6013   000A38  5012               	movf	(i2___flmul@b+3)^0,w,c
  6014   000A3A  2412               	addwf	(i2___flmul@b+3)^0,w,c
  6015   000A3C  6E21               	movwf	i2___flmul@bexp^0,c
  6016   000A3E  AE11               	btfss	(i2___flmul@b+2)^0,7,c
  6017   000A40  EF24  F005         	goto	i2u269_41
  6018   000A44  EF26  F005         	goto	i2u269_40
  6019   000A48                     i2u269_41:
  6020   000A48  EF27  F005         	goto	i2l3072
  6021   000A4C                     i2u269_40:
  6022   000A4C  8021               	bsf	i2___flmul@bexp^0,0,c
  6023   000A4E                     i2l3072:
  6024   000A4E  5021               	movf	i2___flmul@bexp^0,w,c
  6025   000A50  B4D8               	btfsc	status,2,c
  6026   000A52  EF2D  F005         	goto	i2u270_41
  6027   000A56  EF2F  F005         	goto	i2u270_40
  6028   000A5A                     i2u270_41:
  6029   000A5A  EF42  F005         	goto	i2l3080
  6030   000A5E                     i2u270_40:
  6031   000A5E  2821               	incf	i2___flmul@bexp^0,w,c
  6032   000A60  A4D8               	btfss	status,2,c
  6033   000A62  EF35  F005         	goto	i2u271_41
  6034   000A66  EF37  F005         	goto	i2u271_40
  6035   000A6A                     i2u271_41:
  6036   000A6A  EF3F  F005         	goto	i2l3078
  6037   000A6E                     i2u271_40:
  6038   000A6E  0E00               	movlw	0
  6039   000A70  6E0F               	movwf	i2___flmul@b^0,c
  6040   000A72  0E00               	movlw	0
  6041   000A74  6E10               	movwf	(i2___flmul@b+1)^0,c
  6042   000A76  0E00               	movlw	0
  6043   000A78  6E11               	movwf	(i2___flmul@b+2)^0,c
  6044   000A7A  0E00               	movlw	0
  6045   000A7C  6E12               	movwf	(i2___flmul@b+3)^0,c
  6046   000A7E                     i2l3078:
  6047   000A7E  8E11               	bsf	(i2___flmul@b+2)^0,7,c
  6048   000A80  EF4A  F005         	goto	i2l3082
  6049   000A84                     i2l3080:
  6050   000A84  0E00               	movlw	0
  6051   000A86  6E0F               	movwf	i2___flmul@b^0,c
  6052   000A88  0E00               	movlw	0
  6053   000A8A  6E10               	movwf	(i2___flmul@b+1)^0,c
  6054   000A8C  0E00               	movlw	0
  6055   000A8E  6E11               	movwf	(i2___flmul@b+2)^0,c
  6056   000A90  0E00               	movlw	0
  6057   000A92  6E12               	movwf	(i2___flmul@b+3)^0,c
  6058   000A94                     i2l3082:
  6059   000A94  5016               	movf	(i2___flmul@a+3)^0,w,c
  6060   000A96  0B80               	andlw	128
  6061   000A98  1A1B               	xorwf	i2___flmul@sign^0,f,c
  6062   000A9A  5016               	movf	(i2___flmul@a+3)^0,w,c
  6063   000A9C  2416               	addwf	(i2___flmul@a+3)^0,w,c
  6064   000A9E  6E20               	movwf	i2___flmul@aexp^0,c
  6065   000AA0  AE15               	btfss	(i2___flmul@a+2)^0,7,c
  6066   000AA2  EF55  F005         	goto	i2u272_41
  6067   000AA6  EF57  F005         	goto	i2u272_40
  6068   000AAA                     i2u272_41:
  6069   000AAA  EF58  F005         	goto	i2l3090
  6070   000AAE                     i2u272_40:
  6071   000AAE  8020               	bsf	i2___flmul@aexp^0,0,c
  6072   000AB0                     i2l3090:
  6073   000AB0  5020               	movf	i2___flmul@aexp^0,w,c
  6074   000AB2  B4D8               	btfsc	status,2,c
  6075   000AB4  EF5E  F005         	goto	i2u273_41
  6076   000AB8  EF60  F005         	goto	i2u273_40
  6077   000ABC                     i2u273_41:
  6078   000ABC  EF73  F005         	goto	i2l3098
  6079   000AC0                     i2u273_40:
  6080   000AC0  2820               	incf	i2___flmul@aexp^0,w,c
  6081   000AC2  A4D8               	btfss	status,2,c
  6082   000AC4  EF66  F005         	goto	i2u274_41
  6083   000AC8  EF68  F005         	goto	i2u274_40
  6084   000ACC                     i2u274_41:
  6085   000ACC  EF70  F005         	goto	i2l3096
  6086   000AD0                     i2u274_40:
  6087   000AD0  0E00               	movlw	0
  6088   000AD2  6E13               	movwf	i2___flmul@a^0,c
  6089   000AD4  0E00               	movlw	0
  6090   000AD6  6E14               	movwf	(i2___flmul@a+1)^0,c
  6091   000AD8  0E00               	movlw	0
  6092   000ADA  6E15               	movwf	(i2___flmul@a+2)^0,c
  6093   000ADC  0E00               	movlw	0
  6094   000ADE  6E16               	movwf	(i2___flmul@a+3)^0,c
  6095   000AE0                     i2l3096:
  6096   000AE0  8E15               	bsf	(i2___flmul@a+2)^0,7,c
  6097   000AE2  EF7B  F005         	goto	i2l1047
  6098   000AE6                     i2l3098:
  6099   000AE6  0E00               	movlw	0
  6100   000AE8  6E13               	movwf	i2___flmul@a^0,c
  6101   000AEA  0E00               	movlw	0
  6102   000AEC  6E14               	movwf	(i2___flmul@a+1)^0,c
  6103   000AEE  0E00               	movlw	0
  6104   000AF0  6E15               	movwf	(i2___flmul@a+2)^0,c
  6105   000AF2  0E00               	movlw	0
  6106   000AF4  6E16               	movwf	(i2___flmul@a+3)^0,c
  6107   000AF6                     i2l1047:
  6108   000AF6  5020               	movf	i2___flmul@aexp^0,w,c
  6109   000AF8  B4D8               	btfsc	status,2,c
  6110   000AFA  EF81  F005         	goto	i2u275_41
  6111   000AFE  EF83  F005         	goto	i2u275_40
  6112   000B02                     i2u275_41:
  6113   000B02  EF8B  F005         	goto	i2l3102
  6114   000B06                     i2u275_40:
  6115   000B06  5021               	movf	i2___flmul@bexp^0,w,c
  6116   000B08  A4D8               	btfss	status,2,c
  6117   000B0A  EF89  F005         	goto	i2u276_41
  6118   000B0E  EF8B  F005         	goto	i2u276_40
  6119   000B12                     i2u276_41:
  6120   000B12  EF95  F005         	goto	i2l3106
  6121   000B16                     i2u276_40:
  6122   000B16                     i2l3102:
  6123   000B16  0E00               	movlw	0
  6124   000B18  6E0F               	movwf	?i2___flmul^0,c
  6125   000B1A  0E00               	movlw	0
  6126   000B1C  6E10               	movwf	(?i2___flmul+1)^0,c
  6127   000B1E  0E00               	movlw	0
  6128   000B20  6E11               	movwf	(?i2___flmul+2)^0,c
  6129   000B22  0E00               	movlw	0
  6130   000B24  6E12               	movwf	(?i2___flmul+3)^0,c
  6131   000B26  EF2D  F007         	goto	i2l1051
  6132   000B2A                     i2l3106:
  6133   000B2A  5015               	movf	(i2___flmul@a+2)^0,w,c
  6134   000B2C  020F               	mulwf	i2___flmul@b^0,c
  6135   000B2E  CFF3 F026          	movff	prodl,i2___flmul@temp
  6136   000B32  CFF4 F027          	movff	prodh,i2___flmul@temp+1
  6137   000B36  5026               	movf	i2___flmul@temp^0,w,c
  6138   000B38  6E1C               	movwf	i2___flmul@grs^0,c
  6139   000B3A  6A1D               	clrf	(i2___flmul@grs+1)^0,c
  6140   000B3C  6A1E               	clrf	(i2___flmul@grs+2)^0,c
  6141   000B3E  6A1F               	clrf	(i2___flmul@grs+3)^0,c
  6142   000B40  5027               	movf	(i2___flmul@temp+1)^0,w,c
  6143   000B42  6E22               	movwf	i2___flmul@prod^0,c
  6144   000B44  6A23               	clrf	(i2___flmul@prod+1)^0,c
  6145   000B46  6A24               	clrf	(i2___flmul@prod+2)^0,c
  6146   000B48  6A25               	clrf	(i2___flmul@prod+3)^0,c
  6147   000B4A  5014               	movf	(i2___flmul@a+1)^0,w,c
  6148   000B4C  0210               	mulwf	(i2___flmul@b+1)^0,c
  6149   000B4E  CFF3 F026          	movff	prodl,i2___flmul@temp
  6150   000B52  CFF4 F027          	movff	prodh,i2___flmul@temp+1
  6151   000B56  5026               	movf	i2___flmul@temp^0,w,c
  6152   000B58  261C               	addwf	i2___flmul@grs^0,f,c
  6153   000B5A  0E00               	movlw	0
  6154   000B5C  221D               	addwfc	(i2___flmul@grs+1)^0,f,c
  6155   000B5E  221E               	addwfc	(i2___flmul@grs+2)^0,f,c
  6156   000B60  221F               	addwfc	(i2___flmul@grs+3)^0,f,c
  6157   000B62  5027               	movf	(i2___flmul@temp+1)^0,w,c
  6158   000B64  2622               	addwf	i2___flmul@prod^0,f,c
  6159   000B66  0E00               	movlw	0
  6160   000B68  2223               	addwfc	(i2___flmul@prod+1)^0,f,c
  6161   000B6A  2224               	addwfc	(i2___flmul@prod+2)^0,f,c
  6162   000B6C  2225               	addwfc	(i2___flmul@prod+3)^0,f,c
  6163   000B6E  5013               	movf	i2___flmul@a^0,w,c
  6164   000B70  0211               	mulwf	(i2___flmul@b+2)^0,c
  6165   000B72  CFF3 F026          	movff	prodl,i2___flmul@temp
  6166   000B76  CFF4 F027          	movff	prodh,i2___flmul@temp+1
  6167   000B7A  5026               	movf	i2___flmul@temp^0,w,c
  6168   000B7C  261C               	addwf	i2___flmul@grs^0,f,c
  6169   000B7E  0E00               	movlw	0
  6170   000B80  221D               	addwfc	(i2___flmul@grs+1)^0,f,c
  6171   000B82  221E               	addwfc	(i2___flmul@grs+2)^0,f,c
  6172   000B84  221F               	addwfc	(i2___flmul@grs+3)^0,f,c
  6173   000B86  5027               	movf	(i2___flmul@temp+1)^0,w,c
  6174   000B88  2622               	addwf	i2___flmul@prod^0,f,c
  6175   000B8A  0E00               	movlw	0
  6176   000B8C  2223               	addwfc	(i2___flmul@prod+1)^0,f,c
  6177   000B8E  2224               	addwfc	(i2___flmul@prod+2)^0,f,c
  6178   000B90  2225               	addwfc	(i2___flmul@prod+3)^0,f,c
  6179   000B92  C01E  F01F         	movff	i2___flmul@grs+2,i2___flmul@grs+3
  6180   000B96  C01D  F01E         	movff	i2___flmul@grs+1,i2___flmul@grs+2
  6181   000B9A  C01C  F01D         	movff	i2___flmul@grs,i2___flmul@grs+1
  6182   000B9E  6A1C               	clrf	i2___flmul@grs^0,c
  6183   000BA0  5013               	movf	i2___flmul@a^0,w,c
  6184   000BA2  0210               	mulwf	(i2___flmul@b+1)^0,c
  6185   000BA4  CFF3 F026          	movff	prodl,i2___flmul@temp
  6186   000BA8  CFF4 F027          	movff	prodh,i2___flmul@temp+1
  6187   000BAC  5026               	movf	i2___flmul@temp^0,w,c
  6188   000BAE  261C               	addwf	i2___flmul@grs^0,f,c
  6189   000BB0  5027               	movf	(i2___flmul@temp+1)^0,w,c
  6190   000BB2  221D               	addwfc	(i2___flmul@grs+1)^0,f,c
  6191   000BB4  0E00               	movlw	0
  6192   000BB6  221E               	addwfc	(i2___flmul@grs+2)^0,f,c
  6193   000BB8  0E00               	movlw	0
  6194   000BBA  221F               	addwfc	(i2___flmul@grs+3)^0,f,c
  6195   000BBC  5014               	movf	(i2___flmul@a+1)^0,w,c
  6196   000BBE  020F               	mulwf	i2___flmul@b^0,c
  6197   000BC0  CFF3 F026          	movff	prodl,i2___flmul@temp
  6198   000BC4  CFF4 F027          	movff	prodh,i2___flmul@temp+1
  6199   000BC8  5026               	movf	i2___flmul@temp^0,w,c
  6200   000BCA  261C               	addwf	i2___flmul@grs^0,f,c
  6201   000BCC  5027               	movf	(i2___flmul@temp+1)^0,w,c
  6202   000BCE  221D               	addwfc	(i2___flmul@grs+1)^0,f,c
  6203   000BD0  0E00               	movlw	0
  6204   000BD2  221E               	addwfc	(i2___flmul@grs+2)^0,f,c
  6205   000BD4  0E00               	movlw	0
  6206   000BD6  221F               	addwfc	(i2___flmul@grs+3)^0,f,c
  6207   000BD8  C01E  F01F         	movff	i2___flmul@grs+2,i2___flmul@grs+3
  6208   000BDC  C01D  F01E         	movff	i2___flmul@grs+1,i2___flmul@grs+2
  6209   000BE0  C01C  F01D         	movff	i2___flmul@grs,i2___flmul@grs+1
  6210   000BE4  6A1C               	clrf	i2___flmul@grs^0,c
  6211   000BE6  5013               	movf	i2___flmul@a^0,w,c
  6212   000BE8  020F               	mulwf	i2___flmul@b^0,c
  6213   000BEA  CFF3 F026          	movff	prodl,i2___flmul@temp
  6214   000BEE  CFF4 F027          	movff	prodh,i2___flmul@temp+1
  6215   000BF2  5026               	movf	i2___flmul@temp^0,w,c
  6216   000BF4  261C               	addwf	i2___flmul@grs^0,f,c
  6217   000BF6  5027               	movf	(i2___flmul@temp+1)^0,w,c
  6218   000BF8  221D               	addwfc	(i2___flmul@grs+1)^0,f,c
  6219   000BFA  0E00               	movlw	0
  6220   000BFC  221E               	addwfc	(i2___flmul@grs+2)^0,f,c
  6221   000BFE  0E00               	movlw	0
  6222   000C00  221F               	addwfc	(i2___flmul@grs+3)^0,f,c
  6223   000C02  5015               	movf	(i2___flmul@a+2)^0,w,c
  6224   000C04  0210               	mulwf	(i2___flmul@b+1)^0,c
  6225   000C06  CFF3 F026          	movff	prodl,i2___flmul@temp
  6226   000C0A  CFF4 F027          	movff	prodh,i2___flmul@temp+1
  6227   000C0E  5026               	movf	i2___flmul@temp^0,w,c
  6228   000C10  2622               	addwf	i2___flmul@prod^0,f,c
  6229   000C12  5027               	movf	(i2___flmul@temp+1)^0,w,c
  6230   000C14  2223               	addwfc	(i2___flmul@prod+1)^0,f,c
  6231   000C16  0E00               	movlw	0
  6232   000C18  2224               	addwfc	(i2___flmul@prod+2)^0,f,c
  6233   000C1A  0E00               	movlw	0
  6234   000C1C  2225               	addwfc	(i2___flmul@prod+3)^0,f,c
  6235   000C1E  5014               	movf	(i2___flmul@a+1)^0,w,c
  6236   000C20  0211               	mulwf	(i2___flmul@b+2)^0,c
  6237   000C22  CFF3 F026          	movff	prodl,i2___flmul@temp
  6238   000C26  CFF4 F027          	movff	prodh,i2___flmul@temp+1
  6239   000C2A  5026               	movf	i2___flmul@temp^0,w,c
  6240   000C2C  2622               	addwf	i2___flmul@prod^0,f,c
  6241   000C2E  5027               	movf	(i2___flmul@temp+1)^0,w,c
  6242   000C30  2223               	addwfc	(i2___flmul@prod+1)^0,f,c
  6243   000C32  0E00               	movlw	0
  6244   000C34  2224               	addwfc	(i2___flmul@prod+2)^0,f,c
  6245   000C36  0E00               	movlw	0
  6246   000C38  2225               	addwfc	(i2___flmul@prod+3)^0,f,c
  6247   000C3A  5015               	movf	(i2___flmul@a+2)^0,w,c
  6248   000C3C  0211               	mulwf	(i2___flmul@b+2)^0,c
  6249   000C3E  CFF3 F026          	movff	prodl,i2___flmul@temp
  6250   000C42  CFF4 F027          	movff	prodh,i2___flmul@temp+1
  6251   000C46  5026               	movf	i2___flmul@temp^0,w,c
  6252   000C48  6E17               	movwf	??i2___flmul^0,c
  6253   000C4A  5027               	movf	(i2___flmul@temp+1)^0,w,c
  6254   000C4C  6E18               	movwf	(??i2___flmul+1)^0,c
  6255   000C4E  6A19               	clrf	(??i2___flmul+2)^0,c
  6256   000C50  6A1A               	clrf	(??i2___flmul+3)^0,c
  6257   000C52  C019  F01A         	movff	??i2___flmul+2,??i2___flmul+3
  6258   000C56  C018  F019         	movff	??i2___flmul+1,??i2___flmul+2
  6259   000C5A  C017  F018         	movff	??i2___flmul,??i2___flmul+1
  6260   000C5E  6A17               	clrf	??i2___flmul^0,c
  6261   000C60  5017               	movf	??i2___flmul^0,w,c
  6262   000C62  2622               	addwf	i2___flmul@prod^0,f,c
  6263   000C64  5018               	movf	(??i2___flmul+1)^0,w,c
  6264   000C66  2223               	addwfc	(i2___flmul@prod+1)^0,f,c
  6265   000C68  5019               	movf	(??i2___flmul+2)^0,w,c
  6266   000C6A  2224               	addwfc	(i2___flmul@prod+2)^0,f,c
  6267   000C6C  501A               	movf	(??i2___flmul+3)^0,w,c
  6268   000C6E  2225               	addwfc	(i2___flmul@prod+3)^0,f,c
  6269   000C70  C01C  F017         	movff	i2___flmul@grs,??i2___flmul
  6270   000C74  C01D  F018         	movff	i2___flmul@grs+1,??i2___flmul+1
  6271   000C78  C01E  F019         	movff	i2___flmul@grs+2,??i2___flmul+2
  6272   000C7C  C01F  F01A         	movff	i2___flmul@grs+3,??i2___flmul+3
  6273   000C80  0E19               	movlw	25
  6274   000C82  EF48  F006         	goto	i2u277_40
  6275   000C86                     i2u277_45:
  6276   000C86  90D8               	bcf	status,0,c
  6277   000C88  321A               	rrcf	(??i2___flmul+3)^0,f,c
  6278   000C8A  3219               	rrcf	(??i2___flmul+2)^0,f,c
  6279   000C8C  3218               	rrcf	(??i2___flmul+1)^0,f,c
  6280   000C8E  3217               	rrcf	??i2___flmul^0,f,c
  6281   000C90                     i2u277_40:
  6282   000C90  2EE8               	decfsz	wreg,f,c
  6283   000C92  EF43  F006         	goto	i2u277_45
  6284   000C96  5017               	movf	??i2___flmul^0,w,c
  6285   000C98  2622               	addwf	i2___flmul@prod^0,f,c
  6286   000C9A  5018               	movf	(??i2___flmul+1)^0,w,c
  6287   000C9C  2223               	addwfc	(i2___flmul@prod+1)^0,f,c
  6288   000C9E  5019               	movf	(??i2___flmul+2)^0,w,c
  6289   000CA0  2224               	addwfc	(i2___flmul@prod+2)^0,f,c
  6290   000CA2  501A               	movf	(??i2___flmul+3)^0,w,c
  6291   000CA4  2225               	addwfc	(i2___flmul@prod+3)^0,f,c
  6292   000CA6  C01E  F01F         	movff	i2___flmul@grs+2,i2___flmul@grs+3
  6293   000CAA  C01D  F01E         	movff	i2___flmul@grs+1,i2___flmul@grs+2
  6294   000CAE  C01C  F01D         	movff	i2___flmul@grs,i2___flmul@grs+1
  6295   000CB2  6A1C               	clrf	i2___flmul@grs^0,c
  6296   000CB4  5020               	movf	i2___flmul@aexp^0,w,c
  6297   000CB6  C021  F017         	movff	i2___flmul@bexp,??i2___flmul
  6298   000CBA  6A18               	clrf	(??i2___flmul+1)^0,c
  6299   000CBC  2617               	addwf	??i2___flmul^0,f,c
  6300   000CBE  0E00               	movlw	0
  6301   000CC0  2218               	addwfc	(??i2___flmul+1)^0,f,c
  6302   000CC2  0E82               	movlw	130
  6303   000CC4  2417               	addwf	??i2___flmul^0,w,c
  6304   000CC6  6E26               	movwf	i2___flmul@temp^0,c
  6305   000CC8  0EFF               	movlw	255
  6306   000CCA  2018               	addwfc	(??i2___flmul+1)^0,w,c
  6307   000CCC  6E27               	movwf	(i2___flmul@temp+1)^0,c
  6308   000CCE  EF7E  F006         	goto	i2l3154
  6309   000CD2                     i2l3148:
  6310   000CD2  90D8               	bcf	status,0,c
  6311   000CD4  3622               	rlcf	i2___flmul@prod^0,f,c
  6312   000CD6  3623               	rlcf	(i2___flmul@prod+1)^0,f,c
  6313   000CD8  3624               	rlcf	(i2___flmul@prod+2)^0,f,c
  6314   000CDA  3625               	rlcf	(i2___flmul@prod+3)^0,f,c
  6315   000CDC  AE1F               	btfss	(i2___flmul@grs+3)^0,7,c
  6316   000CDE  EF73  F006         	goto	i2u278_41
  6317   000CE2  EF75  F006         	goto	i2u278_40
  6318   000CE6                     i2u278_41:
  6319   000CE6  EF76  F006         	goto	i2l1054
  6320   000CEA                     i2u278_40:
  6321   000CEA  8022               	bsf	i2___flmul@prod^0,0,c
  6322   000CEC                     i2l1054:
  6323   000CEC  90D8               	bcf	status,0,c
  6324   000CEE  361C               	rlcf	i2___flmul@grs^0,f,c
  6325   000CF0  361D               	rlcf	(i2___flmul@grs+1)^0,f,c
  6326   000CF2  361E               	rlcf	(i2___flmul@grs+2)^0,f,c
  6327   000CF4  361F               	rlcf	(i2___flmul@grs+3)^0,f,c
  6328   000CF6  0626               	decf	i2___flmul@temp^0,f,c
  6329   000CF8  A0D8               	btfss	status,0,c
  6330   000CFA  0627               	decf	(i2___flmul@temp+1)^0,f,c
  6331   000CFC                     i2l3154:
  6332   000CFC  AE24               	btfss	(i2___flmul@prod+2)^0,7,c
  6333   000CFE  EF83  F006         	goto	i2u279_41
  6334   000D02  EF85  F006         	goto	i2u279_40
  6335   000D06                     i2u279_41:
  6336   000D06  EF69  F006         	goto	i2l3148
  6337   000D0A                     i2u279_40:
  6338   000D0A  0E00               	movlw	0
  6339   000D0C  6E20               	movwf	i2___flmul@aexp^0,c
  6340   000D0E  AE1F               	btfss	(i2___flmul@grs+3)^0,7,c
  6341   000D10  EF8C  F006         	goto	i2u280_41
  6342   000D14  EF8E  F006         	goto	i2u280_40
  6343   000D18                     i2u280_41:
  6344   000D18  EFB2  F006         	goto	i2l1056
  6345   000D1C                     i2u280_40:
  6346   000D1C  0EFF               	movlw	255
  6347   000D1E  141C               	andwf	i2___flmul@grs^0,w,c
  6348   000D20  6E17               	movwf	??i2___flmul^0,c
  6349   000D22  0EFF               	movlw	255
  6350   000D24  141D               	andwf	(i2___flmul@grs+1)^0,w,c
  6351   000D26  6E18               	movwf	(??i2___flmul+1)^0,c
  6352   000D28  0EFF               	movlw	255
  6353   000D2A  141E               	andwf	(i2___flmul@grs+2)^0,w,c
  6354   000D2C  6E19               	movwf	(??i2___flmul+2)^0,c
  6355   000D2E  0E7F               	movlw	127
  6356   000D30  141F               	andwf	(i2___flmul@grs+3)^0,w,c
  6357   000D32  6E1A               	movwf	(??i2___flmul+3)^0,c
  6358   000D34  5017               	movf	??i2___flmul^0,w,c
  6359   000D36  1018               	iorwf	(??i2___flmul+1)^0,w,c
  6360   000D38  1019               	iorwf	(??i2___flmul+2)^0,w,c
  6361   000D3A  101A               	iorwf	(??i2___flmul+3)^0,w,c
  6362   000D3C  B4D8               	btfsc	status,2,c
  6363   000D3E  EFA3  F006         	goto	i2u281_41
  6364   000D42  EFA5  F006         	goto	i2u281_40
  6365   000D46                     i2u281_41:
  6366   000D46  EFA9  F006         	goto	i2l1057
  6367   000D4A                     i2u281_40:
  6368   000D4A                     i2l3162:
  6369   000D4A  0E01               	movlw	1
  6370   000D4C  6E20               	movwf	i2___flmul@aexp^0,c
  6371   000D4E  EFB2  F006         	goto	i2l1056
  6372   000D52                     i2l1057:
  6373   000D52  A022               	btfss	i2___flmul@prod^0,0,c
  6374   000D54  EFAE  F006         	goto	i2u282_41
  6375   000D58  EFB0  F006         	goto	i2u282_40
  6376   000D5C                     i2u282_41:
  6377   000D5C  EFB2  F006         	goto	i2l1056
  6378   000D60                     i2u282_40:
  6379   000D60  EFA5  F006         	goto	i2l3162
  6380   000D64                     i2l1056:
  6381   000D64  5020               	movf	i2___flmul@aexp^0,w,c
  6382   000D66  B4D8               	btfsc	status,2,c
  6383   000D68  EFB8  F006         	goto	i2u283_41
  6384   000D6C  EFBA  F006         	goto	i2u283_40
  6385   000D70                     i2u283_41:
  6386   000D70  EFDE  F006         	goto	i2l3174
  6387   000D74                     i2u283_40:
  6388   000D74  0E01               	movlw	1
  6389   000D76  2622               	addwf	i2___flmul@prod^0,f,c
  6390   000D78  0E00               	movlw	0
  6391   000D7A  2223               	addwfc	(i2___flmul@prod+1)^0,f,c
  6392   000D7C  2224               	addwfc	(i2___flmul@prod+2)^0,f,c
  6393   000D7E  2225               	addwfc	(i2___flmul@prod+3)^0,f,c
  6394   000D80  A025               	btfss	(i2___flmul@prod+3)^0,0,c
  6395   000D82  EFC5  F006         	goto	i2u284_41
  6396   000D86  EFC7  F006         	goto	i2u284_40
  6397   000D8A                     i2u284_41:
  6398   000D8A  EFDE  F006         	goto	i2l3174
  6399   000D8E                     i2u284_40:
  6400   000D8E  C022  F017         	movff	i2___flmul@prod,??i2___flmul
  6401   000D92  C023  F018         	movff	i2___flmul@prod+1,??i2___flmul+1
  6402   000D96  C024  F019         	movff	i2___flmul@prod+2,??i2___flmul+2
  6403   000D9A  C025  F01A         	movff	i2___flmul@prod+3,??i2___flmul+3
  6404   000D9E  341A               	rlcf	(??i2___flmul+3)^0,w,c
  6405   000DA0  321A               	rrcf	(??i2___flmul+3)^0,f,c
  6406   000DA2  3219               	rrcf	(??i2___flmul+2)^0,f,c
  6407   000DA4  3218               	rrcf	(??i2___flmul+1)^0,f,c
  6408   000DA6  3217               	rrcf	??i2___flmul^0,f,c
  6409   000DA8  C017  F022         	movff	??i2___flmul,i2___flmul@prod
  6410   000DAC  C018  F023         	movff	??i2___flmul+1,i2___flmul@prod+1
  6411   000DB0  C019  F024         	movff	??i2___flmul+2,i2___flmul@prod+2
  6412   000DB4  C01A  F025         	movff	??i2___flmul+3,i2___flmul@prod+3
  6413   000DB8  4A26               	infsnz	i2___flmul@temp^0,f,c
  6414   000DBA  2A27               	incf	(i2___flmul@temp+1)^0,f,c
  6415   000DBC                     i2l3174:
  6416   000DBC  BE27               	btfsc	(i2___flmul@temp+1)^0,7,c
  6417   000DBE  EFE9  F006         	goto	i2u285_41
  6418   000DC2  5027               	movf	(i2___flmul@temp+1)^0,w,c
  6419   000DC4  E108               	bnz	i2u285_40
  6420   000DC6  2826               	incf	i2___flmul@temp^0,w,c
  6421   000DC8  A0D8               	btfss	status,0,c
  6422   000DCA  EFE9  F006         	goto	i2u285_41
  6423   000DCE  EFEB  F006         	goto	i2u285_40
  6424   000DD2                     i2u285_41:
  6425   000DD2  EFF5  F006         	goto	i2l3178
  6426   000DD6                     i2u285_40:
  6427   000DD6  0E00               	movlw	0
  6428   000DD8  6E22               	movwf	i2___flmul@prod^0,c
  6429   000DDA  0E00               	movlw	0
  6430   000DDC  6E23               	movwf	(i2___flmul@prod+1)^0,c
  6431   000DDE  0E80               	movlw	128
  6432   000DE0  6E24               	movwf	(i2___flmul@prod+2)^0,c
  6433   000DE2  0E7F               	movlw	127
  6434   000DE4  6E25               	movwf	(i2___flmul@prod+3)^0,c
  6435   000DE6  EF23  F007         	goto	i2l3190
  6436   000DEA                     i2l3178:
  6437   000DEA  BE27               	btfsc	(i2___flmul@temp+1)^0,7,c
  6438   000DEC  EF02  F007         	goto	i2u286_40
  6439   000DF0  5027               	movf	(i2___flmul@temp+1)^0,w,c
  6440   000DF2  E106               	bnz	i2u286_41
  6441   000DF4  0426               	decf	i2___flmul@temp^0,w,c
  6442   000DF6  B0D8               	btfsc	status,0,c
  6443   000DF8  EF00  F007         	goto	i2u286_41
  6444   000DFC  EF02  F007         	goto	i2u286_40
  6445   000E00                     i2u286_41:
  6446   000E00  EF0E  F007         	goto	i2l1064
  6447   000E04                     i2u286_40:
  6448   000E04  0E00               	movlw	0
  6449   000E06  6E22               	movwf	i2___flmul@prod^0,c
  6450   000E08  0E00               	movlw	0
  6451   000E0A  6E23               	movwf	(i2___flmul@prod+1)^0,c
  6452   000E0C  0E00               	movlw	0
  6453   000E0E  6E24               	movwf	(i2___flmul@prod+2)^0,c
  6454   000E10  0E00               	movlw	0
  6455   000E12  6E25               	movwf	(i2___flmul@prod+3)^0,c
  6456   000E14  0E00               	movlw	0
  6457   000E16  6E1B               	movwf	i2___flmul@sign^0,c
  6458   000E18  EF23  F007         	goto	i2l3190
  6459   000E1C                     i2l1064:
  6460   000E1C  C026  F021         	movff	i2___flmul@temp,i2___flmul@bexp
  6461   000E20  0EFF               	movlw	255
  6462   000E22  1622               	andwf	i2___flmul@prod^0,f,c
  6463   000E24  0EFF               	movlw	255
  6464   000E26  1623               	andwf	(i2___flmul@prod+1)^0,f,c
  6465   000E28  0E7F               	movlw	127
  6466   000E2A  1624               	andwf	(i2___flmul@prod+2)^0,f,c
  6467   000E2C  0E00               	movlw	0
  6468   000E2E  1625               	andwf	(i2___flmul@prod+3)^0,f,c
  6469   000E30  A021               	btfss	i2___flmul@bexp^0,0,c
  6470   000E32  EF1D  F007         	goto	i2u287_41
  6471   000E36  EF1F  F007         	goto	i2u287_40
  6472   000E3A                     i2u287_41:
  6473   000E3A  EF20  F007         	goto	i2l3188
  6474   000E3E                     i2u287_40:
  6475   000E3E  8E24               	bsf	(i2___flmul@prod+2)^0,7,c
  6476   000E40                     i2l3188:
  6477   000E40  90D8               	bcf	status,0,c
  6478   000E42  3021               	rrcf	i2___flmul@bexp^0,w,c
  6479   000E44  6E25               	movwf	(i2___flmul@prod+3)^0,c
  6480   000E46                     i2l3190:
  6481   000E46  501B               	movf	i2___flmul@sign^0,w,c
  6482   000E48  1225               	iorwf	(i2___flmul@prod+3)^0,f,c
  6483   000E4A  C022  F00F         	movff	i2___flmul@prod,?i2___flmul
  6484   000E4E  C023  F010         	movff	i2___flmul@prod+1,?i2___flmul+1
  6485   000E52  C024  F011         	movff	i2___flmul@prod+2,?i2___flmul+2
  6486   000E56  C025  F012         	movff	i2___flmul@prod+3,?i2___flmul+3
  6487   000E5A                     i2l1051:
  6488   000E5A  0012               	return		;funcret
  6489   000E5C                     __end_ofi2___flmul:
  6490                           	callstack 0
  6491                           
  6492 ;; *************** function i2___fldiv *****************
  6493 ;; Defined at:
  6494 ;;		line 11 in file "C:\Program Files\Microchip\xc8\v2.40\pic\sources\c99\common\sprcdiv.c"
  6495 ;; Parameters:    Size  Location     Type
  6496 ;;  b               4   39[COMRAM] unsigned char 
  6497 ;;  a               4   43[COMRAM] unsigned char 
  6498 ;; Auto vars:     Size  Location     Type
  6499 ;;  grs             4   58[COMRAM] unsigned long 
  6500 ;;  rem             4   51[COMRAM] unsigned long 
  6501 ;;  new_exp         2   56[COMRAM] short 
  6502 ;;  aexp            1   63[COMRAM] unsigned char 
  6503 ;;  bexp            1   62[COMRAM] unsigned char 
  6504 ;;  sign            1   55[COMRAM] unsigned char 
  6505 ;; Return value:  Size  Location     Type
  6506 ;;                  4   39[COMRAM] unsigned char 
  6507 ;; Registers used:
  6508 ;;		wreg, status,2, status,0
  6509 ;; Tracked objects:
  6510 ;;		On entry : 0/0
  6511 ;;		On exit  : 0/0
  6512 ;;		Unchanged: 0/0
  6513 ;; Data sizes:     COMRAM   BANK0   BANK1   BANK2   BANK3   BANK4   BANK5
  6514 ;;      Params:         8       0       0       0       0       0       0
  6515 ;;      Locals:        13       0       0       0       0       0       0
  6516 ;;      Temps:          4       0       0       0       0       0       0
  6517 ;;      Totals:        25       0       0       0       0       0       0
  6518 ;;Total ram usage:       25 bytes
  6519 ;; Hardware stack levels used: 1
  6520 ;; This function calls:
  6521 ;;		Nothing
  6522 ;; This function is called by:
  6523 ;;		_Read_AD
  6524 ;; This function uses a non-reentrant model
  6525 ;;
  6526                           
  6527                           	psect	text38
  6528   0011F8                     __ptext38:
  6529                           	callstack 0
  6530   0011F8                     i2___fldiv:
  6531                           	callstack 23
  6532   0011F8  502B               	movf	(i2___fldiv@b+3)^0,w,c
  6533   0011FA  0B80               	andlw	128
  6534   0011FC  6E38               	movwf	i2___fldiv@sign^0,c
  6535   0011FE  502B               	movf	(i2___fldiv@b+3)^0,w,c
  6536   001200  242B               	addwf	(i2___fldiv@b+3)^0,w,c
  6537   001202  6E3F               	movwf	i2___fldiv@bexp^0,c
  6538   001204  AE2A               	btfss	(i2___fldiv@b+2)^0,7,c
  6539   001206  EF07  F009         	goto	i2u246_41
  6540   00120A  EF09  F009         	goto	i2u246_40
  6541   00120E                     i2u246_41:
  6542   00120E  EF0A  F009         	goto	i2l2934
  6543   001212                     i2u246_40:
  6544   001212  803F               	bsf	i2___fldiv@bexp^0,0,c
  6545   001214                     i2l2934:
  6546   001214  503F               	movf	i2___fldiv@bexp^0,w,c
  6547   001216  B4D8               	btfsc	status,2,c
  6548   001218  EF10  F009         	goto	i2u247_41
  6549   00121C  EF12  F009         	goto	i2u247_40
  6550   001220                     i2u247_41:
  6551   001220  EF27  F009         	goto	i2l2944
  6552   001224                     i2u247_40:
  6553   001224  283F               	incf	i2___fldiv@bexp^0,w,c
  6554   001226  A4D8               	btfss	status,2,c
  6555   001228  EF18  F009         	goto	i2u248_41
  6556   00122C  EF1A  F009         	goto	i2u248_40
  6557   001230                     i2u248_41:
  6558   001230  EF22  F009         	goto	i2l2940
  6559   001234                     i2u248_40:
  6560   001234  0E00               	movlw	0
  6561   001236  6E28               	movwf	i2___fldiv@b^0,c
  6562   001238  0E00               	movlw	0
  6563   00123A  6E29               	movwf	(i2___fldiv@b+1)^0,c
  6564   00123C  0E00               	movlw	0
  6565   00123E  6E2A               	movwf	(i2___fldiv@b+2)^0,c
  6566   001240  0E00               	movlw	0
  6567   001242  6E2B               	movwf	(i2___fldiv@b+3)^0,c
  6568   001244                     i2l2940:
  6569   001244  8E2A               	bsf	(i2___fldiv@b+2)^0,7,c
  6570   001246  0E00               	movlw	0
  6571   001248  6E2B               	movwf	(i2___fldiv@b+3)^0,c
  6572   00124A  EF2F  F009         	goto	i2l2946
  6573   00124E                     i2l2944:
  6574   00124E  0E00               	movlw	0
  6575   001250  6E28               	movwf	i2___fldiv@b^0,c
  6576   001252  0E00               	movlw	0
  6577   001254  6E29               	movwf	(i2___fldiv@b+1)^0,c
  6578   001256  0E00               	movlw	0
  6579   001258  6E2A               	movwf	(i2___fldiv@b+2)^0,c
  6580   00125A  0E00               	movlw	0
  6581   00125C  6E2B               	movwf	(i2___fldiv@b+3)^0,c
  6582   00125E                     i2l2946:
  6583   00125E  502F               	movf	(i2___fldiv@a+3)^0,w,c
  6584   001260  0B80               	andlw	128
  6585   001262  1A38               	xorwf	i2___fldiv@sign^0,f,c
  6586   001264  502F               	movf	(i2___fldiv@a+3)^0,w,c
  6587   001266  242F               	addwf	(i2___fldiv@a+3)^0,w,c
  6588   001268  6E40               	movwf	i2___fldiv@aexp^0,c
  6589   00126A  AE2E               	btfss	(i2___fldiv@a+2)^0,7,c
  6590   00126C  EF3A  F009         	goto	i2u249_41
  6591   001270  EF3C  F009         	goto	i2u249_40
  6592   001274                     i2u249_41:
  6593   001274  EF3D  F009         	goto	i2l2954
  6594   001278                     i2u249_40:
  6595   001278  8040               	bsf	i2___fldiv@aexp^0,0,c
  6596   00127A                     i2l2954:
  6597   00127A  5040               	movf	i2___fldiv@aexp^0,w,c
  6598   00127C  B4D8               	btfsc	status,2,c
  6599   00127E  EF43  F009         	goto	i2u250_41
  6600   001282  EF45  F009         	goto	i2u250_40
  6601   001286                     i2u250_41:
  6602   001286  EF5A  F009         	goto	i2l2964
  6603   00128A                     i2u250_40:
  6604   00128A  2840               	incf	i2___fldiv@aexp^0,w,c
  6605   00128C  A4D8               	btfss	status,2,c
  6606   00128E  EF4B  F009         	goto	i2u251_41
  6607   001292  EF4D  F009         	goto	i2u251_40
  6608   001296                     i2u251_41:
  6609   001296  EF55  F009         	goto	i2l2960
  6610   00129A                     i2u251_40:
  6611   00129A  0E00               	movlw	0
  6612   00129C  6E2C               	movwf	i2___fldiv@a^0,c
  6613   00129E  0E00               	movlw	0
  6614   0012A0  6E2D               	movwf	(i2___fldiv@a+1)^0,c
  6615   0012A2  0E00               	movlw	0
  6616   0012A4  6E2E               	movwf	(i2___fldiv@a+2)^0,c
  6617   0012A6  0E00               	movlw	0
  6618   0012A8  6E2F               	movwf	(i2___fldiv@a+3)^0,c
  6619   0012AA                     i2l2960:
  6620   0012AA  8E2E               	bsf	(i2___fldiv@a+2)^0,7,c
  6621   0012AC  0E00               	movlw	0
  6622   0012AE  6E2F               	movwf	(i2___fldiv@a+3)^0,c
  6623   0012B0  EF62  F009         	goto	i2l2966
  6624   0012B4                     i2l2964:
  6625   0012B4  0E00               	movlw	0
  6626   0012B6  6E2C               	movwf	i2___fldiv@a^0,c
  6627   0012B8  0E00               	movlw	0
  6628   0012BA  6E2D               	movwf	(i2___fldiv@a+1)^0,c
  6629   0012BC  0E00               	movlw	0
  6630   0012BE  6E2E               	movwf	(i2___fldiv@a+2)^0,c
  6631   0012C0  0E00               	movlw	0
  6632   0012C2  6E2F               	movwf	(i2___fldiv@a+3)^0,c
  6633   0012C4                     i2l2966:
  6634   0012C4  502C               	movf	i2___fldiv@a^0,w,c
  6635   0012C6  102D               	iorwf	(i2___fldiv@a+1)^0,w,c
  6636   0012C8  102E               	iorwf	(i2___fldiv@a+2)^0,w,c
  6637   0012CA  102F               	iorwf	(i2___fldiv@a+3)^0,w,c
  6638   0012CC  A4D8               	btfss	status,2,c
  6639   0012CE  EF6B  F009         	goto	i2u252_41
  6640   0012D2  EF6D  F009         	goto	i2u252_40
  6641   0012D6                     i2u252_41:
  6642   0012D6  EF85  F009         	goto	i2l2978
  6643   0012DA                     i2u252_40:
  6644   0012DA  0E00               	movlw	0
  6645   0012DC  6E28               	movwf	i2___fldiv@b^0,c
  6646   0012DE  0E00               	movlw	0
  6647   0012E0  6E29               	movwf	(i2___fldiv@b+1)^0,c
  6648   0012E2  0E00               	movlw	0
  6649   0012E4  6E2A               	movwf	(i2___fldiv@b+2)^0,c
  6650   0012E6  0E00               	movlw	0
  6651   0012E8  6E2B               	movwf	(i2___fldiv@b+3)^0,c
  6652   0012EA  0E80               	movlw	128
  6653   0012EC  122A               	iorwf	(i2___fldiv@b+2)^0,f,c
  6654   0012EE  0E7F               	movlw	127
  6655   0012F0  122B               	iorwf	(i2___fldiv@b+3)^0,f,c
  6656   0012F2                     i2l2972:
  6657   0012F2  5038               	movf	i2___fldiv@sign^0,w,c
  6658   0012F4  122B               	iorwf	(i2___fldiv@b+3)^0,f,c
  6659   0012F6  C028  F028         	movff	i2___fldiv@b,?i2___fldiv
  6660   0012FA  C029  F029         	movff	i2___fldiv@b+1,?i2___fldiv+1
  6661   0012FE  C02A  F02A         	movff	i2___fldiv@b+2,?i2___fldiv+2
  6662   001302  C02B  F02B         	movff	i2___fldiv@b+3,?i2___fldiv+3
  6663   001306  EFC8  F00A         	goto	i2l1015
  6664   00130A                     i2l2978:
  6665   00130A  503F               	movf	i2___fldiv@bexp^0,w,c
  6666   00130C  A4D8               	btfss	status,2,c
  6667   00130E  EF8B  F009         	goto	i2u253_41
  6668   001312  EF8D  F009         	goto	i2u253_40
  6669   001316                     i2u253_41:
  6670   001316  EF97  F009         	goto	i2l2986
  6671   00131A                     i2u253_40:
  6672   00131A  0E00               	movlw	0
  6673   00131C  6E28               	movwf	?i2___fldiv^0,c
  6674   00131E  0E00               	movlw	0
  6675   001320  6E29               	movwf	(?i2___fldiv+1)^0,c
  6676   001322  0E00               	movlw	0
  6677   001324  6E2A               	movwf	(?i2___fldiv+2)^0,c
  6678   001326  0E00               	movlw	0
  6679   001328  6E2B               	movwf	(?i2___fldiv+3)^0,c
  6680   00132A  EFC8  F00A         	goto	i2l1015
  6681   00132E                     i2l2986:
  6682   00132E  5040               	movf	i2___fldiv@aexp^0,w,c
  6683   001330  C03F  F030         	movff	i2___fldiv@bexp,??i2___fldiv
  6684   001334  6A31               	clrf	(??i2___fldiv+1)^0,c
  6685   001336  5E30               	subwf	??i2___fldiv^0,f,c
  6686   001338  0E00               	movlw	0
  6687   00133A  5A31               	subwfb	(??i2___fldiv+1)^0,f,c
  6688   00133C  0E7F               	movlw	127
  6689   00133E  2430               	addwf	??i2___fldiv^0,w,c
  6690   001340  6E39               	movwf	i2___fldiv@new_exp^0,c
  6691   001342  0E00               	movlw	0
  6692   001344  2031               	addwfc	(??i2___fldiv+1)^0,w,c
  6693   001346  6E3A               	movwf	(i2___fldiv@new_exp+1)^0,c
  6694   001348  C028  F034         	movff	i2___fldiv@b,i2___fldiv@rem
  6695   00134C  C029  F035         	movff	i2___fldiv@b+1,i2___fldiv@rem+1
  6696   001350  C02A  F036         	movff	i2___fldiv@b+2,i2___fldiv@rem+2
  6697   001354  C02B  F037         	movff	i2___fldiv@b+3,i2___fldiv@rem+3
  6698   001358  0E00               	movlw	0
  6699   00135A  6E28               	movwf	i2___fldiv@b^0,c
  6700   00135C  0E00               	movlw	0
  6701   00135E  6E29               	movwf	(i2___fldiv@b+1)^0,c
  6702   001360  0E00               	movlw	0
  6703   001362  6E2A               	movwf	(i2___fldiv@b+2)^0,c
  6704   001364  0E00               	movlw	0
  6705   001366  6E2B               	movwf	(i2___fldiv@b+3)^0,c
  6706   001368  0E00               	movlw	0
  6707   00136A  6E3B               	movwf	i2___fldiv@grs^0,c
  6708   00136C  0E00               	movlw	0
  6709   00136E  6E3C               	movwf	(i2___fldiv@grs+1)^0,c
  6710   001370  0E00               	movlw	0
  6711   001372  6E3D               	movwf	(i2___fldiv@grs+2)^0,c
  6712   001374  0E00               	movlw	0
  6713   001376  6E3E               	movwf	(i2___fldiv@grs+3)^0,c
  6714   001378  0E00               	movlw	0
  6715   00137A  6E40               	movwf	i2___fldiv@aexp^0,c
  6716   00137C  EFF8  F009         	goto	i2l1017
  6717   001380                     i2l2996:
  6718   001380  5040               	movf	i2___fldiv@aexp^0,w,c
  6719   001382  B4D8               	btfsc	status,2,c
  6720   001384  EFC6  F009         	goto	i2u254_41
  6721   001388  EFC8  F009         	goto	i2u254_40
  6722   00138C                     i2u254_41:
  6723   00138C  EFDF  F009         	goto	i2l3004
  6724   001390                     i2u254_40:
  6725   001390  90D8               	bcf	status,0,c
  6726   001392  3634               	rlcf	i2___fldiv@rem^0,f,c
  6727   001394  3635               	rlcf	(i2___fldiv@rem+1)^0,f,c
  6728   001396  3636               	rlcf	(i2___fldiv@rem+2)^0,f,c
  6729   001398  3637               	rlcf	(i2___fldiv@rem+3)^0,f,c
  6730   00139A  90D8               	bcf	status,0,c
  6731   00139C  3628               	rlcf	i2___fldiv@b^0,f,c
  6732   00139E  3629               	rlcf	(i2___fldiv@b+1)^0,f,c
  6733   0013A0  362A               	rlcf	(i2___fldiv@b+2)^0,f,c
  6734   0013A2  362B               	rlcf	(i2___fldiv@b+3)^0,f,c
  6735   0013A4  AE3E               	btfss	(i2___fldiv@grs+3)^0,7,c
  6736   0013A6  EFD7  F009         	goto	i2u255_41
  6737   0013AA  EFD9  F009         	goto	i2u255_40
  6738   0013AE                     i2u255_41:
  6739   0013AE  EFDA  F009         	goto	i2l1020
  6740   0013B2                     i2u255_40:
  6741   0013B2  8028               	bsf	i2___fldiv@b^0,0,c
  6742   0013B4                     i2l1020:
  6743   0013B4  90D8               	bcf	status,0,c
  6744   0013B6  363B               	rlcf	i2___fldiv@grs^0,f,c
  6745   0013B8  363C               	rlcf	(i2___fldiv@grs+1)^0,f,c
  6746   0013BA  363D               	rlcf	(i2___fldiv@grs+2)^0,f,c
  6747   0013BC  363E               	rlcf	(i2___fldiv@grs+3)^0,f,c
  6748   0013BE                     i2l3004:
  6749   0013BE  502C               	movf	i2___fldiv@a^0,w,c
  6750   0013C0  5C34               	subwf	i2___fldiv@rem^0,w,c
  6751   0013C2  502D               	movf	(i2___fldiv@a+1)^0,w,c
  6752   0013C4  5835               	subwfb	(i2___fldiv@rem+1)^0,w,c
  6753   0013C6  502E               	movf	(i2___fldiv@a+2)^0,w,c
  6754   0013C8  5836               	subwfb	(i2___fldiv@rem+2)^0,w,c
  6755   0013CA  502F               	movf	(i2___fldiv@a+3)^0,w,c
  6756   0013CC  5837               	subwfb	(i2___fldiv@rem+3)^0,w,c
  6757   0013CE  A0D8               	btfss	status,0,c
  6758   0013D0  EFEC  F009         	goto	i2u256_41
  6759   0013D4  EFEE  F009         	goto	i2u256_40
  6760   0013D8                     i2u256_41:
  6761   0013D8  EFF7  F009         	goto	i2l3010
  6762   0013DC                     i2u256_40:
  6763   0013DC  8C3E               	bsf	(i2___fldiv@grs+3)^0,6,c
  6764   0013DE  502C               	movf	i2___fldiv@a^0,w,c
  6765   0013E0  5E34               	subwf	i2___fldiv@rem^0,f,c
  6766   0013E2  502D               	movf	(i2___fldiv@a+1)^0,w,c
  6767   0013E4  5A35               	subwfb	(i2___fldiv@rem+1)^0,f,c
  6768   0013E6  502E               	movf	(i2___fldiv@a+2)^0,w,c
  6769   0013E8  5A36               	subwfb	(i2___fldiv@rem+2)^0,f,c
  6770   0013EA  502F               	movf	(i2___fldiv@a+3)^0,w,c
  6771   0013EC  5A37               	subwfb	(i2___fldiv@rem+3)^0,f,c
  6772   0013EE                     i2l3010:
  6773   0013EE  2A40               	incf	i2___fldiv@aexp^0,f,c
  6774   0013F0                     i2l1017:
  6775   0013F0  0E19               	movlw	25
  6776   0013F2  6440               	cpfsgt	i2___fldiv@aexp^0,c
  6777   0013F4  EFFE  F009         	goto	i2u257_41
  6778   0013F8  EF00  F00A         	goto	i2u257_40
  6779   0013FC                     i2u257_41:
  6780   0013FC  EFC0  F009         	goto	i2l2996
  6781   001400                     i2u257_40:
  6782   001400  5034               	movf	i2___fldiv@rem^0,w,c
  6783   001402  1035               	iorwf	(i2___fldiv@rem+1)^0,w,c
  6784   001404  1036               	iorwf	(i2___fldiv@rem+2)^0,w,c
  6785   001406  1037               	iorwf	(i2___fldiv@rem+3)^0,w,c
  6786   001408  B4D8               	btfsc	status,2,c
  6787   00140A  EF09  F00A         	goto	i2u258_41
  6788   00140E  EF0B  F00A         	goto	i2u258_40
  6789   001412                     i2u258_41:
  6790   001412  EF23  F00A         	goto	i2l3022
  6791   001416                     i2u258_40:
  6792   001416  803B               	bsf	i2___fldiv@grs^0,0,c
  6793   001418  EF23  F00A         	goto	i2l3022
  6794   00141C                     i2l3016:
  6795   00141C  90D8               	bcf	status,0,c
  6796   00141E  3628               	rlcf	i2___fldiv@b^0,f,c
  6797   001420  3629               	rlcf	(i2___fldiv@b+1)^0,f,c
  6798   001422  362A               	rlcf	(i2___fldiv@b+2)^0,f,c
  6799   001424  362B               	rlcf	(i2___fldiv@b+3)^0,f,c
  6800   001426  AE3E               	btfss	(i2___fldiv@grs+3)^0,7,c
  6801   001428  EF18  F00A         	goto	i2u259_41
  6802   00142C  EF1A  F00A         	goto	i2u259_40
  6803   001430                     i2u259_41:
  6804   001430  EF1B  F00A         	goto	i2l1026
  6805   001434                     i2u259_40:
  6806   001434  8028               	bsf	i2___fldiv@b^0,0,c
  6807   001436                     i2l1026:
  6808   001436  90D8               	bcf	status,0,c
  6809   001438  363B               	rlcf	i2___fldiv@grs^0,f,c
  6810   00143A  363C               	rlcf	(i2___fldiv@grs+1)^0,f,c
  6811   00143C  363D               	rlcf	(i2___fldiv@grs+2)^0,f,c
  6812   00143E  363E               	rlcf	(i2___fldiv@grs+3)^0,f,c
  6813   001440  0639               	decf	i2___fldiv@new_exp^0,f,c
  6814   001442  A0D8               	btfss	status,0,c
  6815   001444  063A               	decf	(i2___fldiv@new_exp+1)^0,f,c
  6816   001446                     i2l3022:
  6817   001446  AE2A               	btfss	(i2___fldiv@b+2)^0,7,c
  6818   001448  EF28  F00A         	goto	i2u260_41
  6819   00144C  EF2A  F00A         	goto	i2u260_40
  6820   001450                     i2u260_41:
  6821   001450  EF0E  F00A         	goto	i2l3016
  6822   001454                     i2u260_40:
  6823   001454  0E00               	movlw	0
  6824   001456  6E40               	movwf	i2___fldiv@aexp^0,c
  6825   001458  AE3E               	btfss	(i2___fldiv@grs+3)^0,7,c
  6826   00145A  EF31  F00A         	goto	i2u261_41
  6827   00145E  EF33  F00A         	goto	i2u261_40
  6828   001462                     i2u261_41:
  6829   001462  EF57  F00A         	goto	i2l1028
  6830   001466                     i2u261_40:
  6831   001466  0EFF               	movlw	255
  6832   001468  143B               	andwf	i2___fldiv@grs^0,w,c
  6833   00146A  6E30               	movwf	??i2___fldiv^0,c
  6834   00146C  0EFF               	movlw	255
  6835   00146E  143C               	andwf	(i2___fldiv@grs+1)^0,w,c
  6836   001470  6E31               	movwf	(??i2___fldiv+1)^0,c
  6837   001472  0EFF               	movlw	255
  6838   001474  143D               	andwf	(i2___fldiv@grs+2)^0,w,c
  6839   001476  6E32               	movwf	(??i2___fldiv+2)^0,c
  6840   001478  0E7F               	movlw	127
  6841   00147A  143E               	andwf	(i2___fldiv@grs+3)^0,w,c
  6842   00147C  6E33               	movwf	(??i2___fldiv+3)^0,c
  6843   00147E  5030               	movf	??i2___fldiv^0,w,c
  6844   001480  1031               	iorwf	(??i2___fldiv+1)^0,w,c
  6845   001482  1032               	iorwf	(??i2___fldiv+2)^0,w,c
  6846   001484  1033               	iorwf	(??i2___fldiv+3)^0,w,c
  6847   001486  B4D8               	btfsc	status,2,c
  6848   001488  EF48  F00A         	goto	i2u262_41
  6849   00148C  EF4A  F00A         	goto	i2u262_40
  6850   001490                     i2u262_41:
  6851   001490  EF4E  F00A         	goto	i2l1029
  6852   001494                     i2u262_40:
  6853   001494                     i2l3030:
  6854   001494  0E01               	movlw	1
  6855   001496  6E40               	movwf	i2___fldiv@aexp^0,c
  6856   001498  EF57  F00A         	goto	i2l1028
  6857   00149C                     i2l1029:
  6858   00149C  A028               	btfss	i2___fldiv@b^0,0,c
  6859   00149E  EF53  F00A         	goto	i2u263_41
  6860   0014A2  EF55  F00A         	goto	i2u263_40
  6861   0014A6                     i2u263_41:
  6862   0014A6  EF57  F00A         	goto	i2l1028
  6863   0014AA                     i2u263_40:
  6864   0014AA  EF4A  F00A         	goto	i2l3030
  6865   0014AE                     i2l1028:
  6866   0014AE  5040               	movf	i2___fldiv@aexp^0,w,c
  6867   0014B0  B4D8               	btfsc	status,2,c
  6868   0014B2  EF5D  F00A         	goto	i2u264_41
  6869   0014B6  EF5F  F00A         	goto	i2u264_40
  6870   0014BA                     i2u264_41:
  6871   0014BA  EF83  F00A         	goto	i2l3042
  6872   0014BE                     i2u264_40:
  6873   0014BE  0E01               	movlw	1
  6874   0014C0  2628               	addwf	i2___fldiv@b^0,f,c
  6875   0014C2  0E00               	movlw	0
  6876   0014C4  2229               	addwfc	(i2___fldiv@b+1)^0,f,c
  6877   0014C6  222A               	addwfc	(i2___fldiv@b+2)^0,f,c
  6878   0014C8  222B               	addwfc	(i2___fldiv@b+3)^0,f,c
  6879   0014CA  A02B               	btfss	(i2___fldiv@b+3)^0,0,c
  6880   0014CC  EF6A  F00A         	goto	i2u265_41
  6881   0014D0  EF6C  F00A         	goto	i2u265_40
  6882   0014D4                     i2u265_41:
  6883   0014D4  EF83  F00A         	goto	i2l3042
  6884   0014D8                     i2u265_40:
  6885   0014D8  C028  F030         	movff	i2___fldiv@b,??i2___fldiv
  6886   0014DC  C029  F031         	movff	i2___fldiv@b+1,??i2___fldiv+1
  6887   0014E0  C02A  F032         	movff	i2___fldiv@b+2,??i2___fldiv+2
  6888   0014E4  C02B  F033         	movff	i2___fldiv@b+3,??i2___fldiv+3
  6889   0014E8  3433               	rlcf	(??i2___fldiv+3)^0,w,c
  6890   0014EA  3233               	rrcf	(??i2___fldiv+3)^0,f,c
  6891   0014EC  3232               	rrcf	(??i2___fldiv+2)^0,f,c
  6892   0014EE  3231               	rrcf	(??i2___fldiv+1)^0,f,c
  6893   0014F0  3230               	rrcf	??i2___fldiv^0,f,c
  6894   0014F2  C030  F028         	movff	??i2___fldiv,i2___fldiv@b
  6895   0014F6  C031  F029         	movff	??i2___fldiv+1,i2___fldiv@b+1
  6896   0014FA  C032  F02A         	movff	??i2___fldiv+2,i2___fldiv@b+2
  6897   0014FE  C033  F02B         	movff	??i2___fldiv+3,i2___fldiv@b+3
  6898   001502  4A39               	infsnz	i2___fldiv@new_exp^0,f,c
  6899   001504  2A3A               	incf	(i2___fldiv@new_exp+1)^0,f,c
  6900   001506                     i2l3042:
  6901   001506  BE3A               	btfsc	(i2___fldiv@new_exp+1)^0,7,c
  6902   001508  EF8E  F00A         	goto	i2u266_41
  6903   00150C  503A               	movf	(i2___fldiv@new_exp+1)^0,w,c
  6904   00150E  E108               	bnz	i2u266_40
  6905   001510  2839               	incf	i2___fldiv@new_exp^0,w,c
  6906   001512  A0D8               	btfss	status,0,c
  6907   001514  EF8E  F00A         	goto	i2u266_41
  6908   001518  EF90  F00A         	goto	i2u266_40
  6909   00151C                     i2u266_41:
  6910   00151C  EF9B  F00A         	goto	i2l3046
  6911   001520                     i2u266_40:
  6912   001520  0E00               	movlw	0
  6913   001522  6E3A               	movwf	(i2___fldiv@new_exp+1)^0,c
  6914   001524  6839               	setf	i2___fldiv@new_exp^0,c
  6915   001526  0E00               	movlw	0
  6916   001528  6E28               	movwf	i2___fldiv@b^0,c
  6917   00152A  0E00               	movlw	0
  6918   00152C  6E29               	movwf	(i2___fldiv@b+1)^0,c
  6919   00152E  0E00               	movlw	0
  6920   001530  6E2A               	movwf	(i2___fldiv@b+2)^0,c
  6921   001532  0E00               	movlw	0
  6922   001534  6E2B               	movwf	(i2___fldiv@b+3)^0,c
  6923   001536                     i2l3046:
  6924   001536  BE3A               	btfsc	(i2___fldiv@new_exp+1)^0,7,c
  6925   001538  EFA8  F00A         	goto	i2u267_40
  6926   00153C  503A               	movf	(i2___fldiv@new_exp+1)^0,w,c
  6927   00153E  E106               	bnz	i2u267_41
  6928   001540  0439               	decf	i2___fldiv@new_exp^0,w,c
  6929   001542  B0D8               	btfsc	status,0,c
  6930   001544  EFA6  F00A         	goto	i2u267_41
  6931   001548  EFA8  F00A         	goto	i2u267_40
  6932   00154C                     i2u267_41:
  6933   00154C  EFB6  F00A         	goto	i2l3050
  6934   001550                     i2u267_40:
  6935   001550  0E00               	movlw	0
  6936   001552  6E3A               	movwf	(i2___fldiv@new_exp+1)^0,c
  6937   001554  0E00               	movlw	0
  6938   001556  6E39               	movwf	i2___fldiv@new_exp^0,c
  6939   001558  0E00               	movlw	0
  6940   00155A  6E28               	movwf	i2___fldiv@b^0,c
  6941   00155C  0E00               	movlw	0
  6942   00155E  6E29               	movwf	(i2___fldiv@b+1)^0,c
  6943   001560  0E00               	movlw	0
  6944   001562  6E2A               	movwf	(i2___fldiv@b+2)^0,c
  6945   001564  0E00               	movlw	0
  6946   001566  6E2B               	movwf	(i2___fldiv@b+3)^0,c
  6947   001568  0E00               	movlw	0
  6948   00156A  6E38               	movwf	i2___fldiv@sign^0,c
  6949   00156C                     i2l3050:
  6950   00156C  C039  F03F         	movff	i2___fldiv@new_exp,i2___fldiv@bexp
  6951   001570  A03F               	btfss	i2___fldiv@bexp^0,0,c
  6952   001572  EFBD  F00A         	goto	i2u268_41
  6953   001576  EFBF  F00A         	goto	i2u268_40
  6954   00157A                     i2u268_41:
  6955   00157A  EFC2  F00A         	goto	i2l3056
  6956   00157E                     i2u268_40:
  6957   00157E  8E2A               	bsf	(i2___fldiv@b+2)^0,7,c
  6958   001580  EFC3  F00A         	goto	i2l3058
  6959   001584                     i2l3056:
  6960   001584  9E2A               	bcf	(i2___fldiv@b+2)^0,7,c
  6961   001586                     i2l3058:
  6962   001586  90D8               	bcf	status,0,c
  6963   001588  303F               	rrcf	i2___fldiv@bexp^0,w,c
  6964   00158A  6E2B               	movwf	(i2___fldiv@b+3)^0,c
  6965   00158C  EF79  F009         	goto	i2l2972
  6966   001590                     i2l1015:
  6967   001590  0012               	return		;funcret
  6968   001592                     __end_ofi2___fldiv:
  6969                           	callstack 0
  6970                           
  6971 ;; *************** function _ADC_maq *****************
  6972 ;; Defined at:
  6973 ;;		line 32 in file "ADC.c"
  6974 ;; Parameters:    Size  Location     Type
  6975 ;;		None
  6976 ;; Auto vars:     Size  Location     Type
  6977 ;;		None
  6978 ;; Return value:  Size  Location     Type
  6979 ;;                  1    wreg      void 
  6980 ;; Registers used:
  6981 ;;		wreg, status,2, status,0, cstack
  6982 ;; Tracked objects:
  6983 ;;		On entry : 0/0
  6984 ;;		On exit  : 0/0
  6985 ;;		Unchanged: 0/0
  6986 ;; Data sizes:     COMRAM   BANK0   BANK1   BANK2   BANK3   BANK4   BANK5
  6987 ;;      Params:         0       0       0       0       0       0       0
  6988 ;;      Locals:         0       0       0       0       0       0       0
  6989 ;;      Temps:          2       0       0       0       0       0       0
  6990 ;;      Totals:         2       0       0       0       0       0       0
  6991 ;;Total ram usage:        2 bytes
  6992 ;; Hardware stack levels used: 1
  6993 ;; Hardware stack levels required when called: 1
  6994 ;; This function calls:
  6995 ;;		_select_channel
  6996 ;;		i2_start_AD_conversion
  6997 ;; This function is called by:
  6998 ;;		_f_timers
  6999 ;; This function uses a non-reentrant model
  7000 ;;
  7001                           
  7002                           	psect	text39
  7003   002228                     __ptext39:
  7004                           	callstack 0
  7005   002228                     _ADC_maq:
  7006                           	callstack 23
  7007   002228                     
  7008                           ;ADC.c: 34:     static uint8_t estado = 0;;ADC.c: 36:     switch (estado)
  7009   002228  EF40  F011         	goto	i2l1978
  7010   00222C                     i2l29:
  7011                           
  7012                           ;ADC.c: 39:             AD_data[0] = ADRES;
  7013   00222C  CFC3 F071          	movff	4035,_AD_data	;volatile
  7014   002230  CFC4 F072          	movff	4036,_AD_data+1	;volatile
  7015   002234                     
  7016                           ;ADC.c: 40:             select_channel(1);
  7017   002234  0E01               	movlw	1
  7018   002236  ECCA  F013         	call	_select_channel
  7019   00223A                     
  7020                           ;ADC.c: 41:             start_AD_conversion();
  7021   00223A  ECE9  F013         	call	i2_start_AD_conversion	;wreg free
  7022   00223E                     
  7023                           ;ADC.c: 42:             estado = 1;
  7024   00223E  0E01               	movlw	1
  7025   002240  6E70               	movwf	ADC_maq@estado^0,c
  7026                           
  7027                           ;ADC.c: 43:             break;
  7028   002242  EF59  F011         	goto	i2l33
  7029   002246                     i2l31:
  7030                           
  7031                           ;ADC.c: 46:             AD_data[1] = ADRES;
  7032   002246  CFC3 F073          	movff	4035,_AD_data+2	;volatile
  7033   00224A  CFC4 F074          	movff	4036,_AD_data+3	;volatile
  7034   00224E                     
  7035                           ;ADC.c: 47:             TRISA |= (1<<2);
  7036   00224E  8492               	bsf	146,2,c	;volatile
  7037   002250                     
  7038                           ;ADC.c: 48:             ADCON1 = 0b00001100;
  7039   002250  0E0C               	movlw	12
  7040   002252  6EC1               	movwf	193,c	;volatile
  7041   002254                     
  7042                           ;ADC.c: 49:             select_channel(2);
  7043   002254  0E02               	movlw	2
  7044   002256  ECCA  F013         	call	_select_channel
  7045   00225A                     
  7046                           ;ADC.c: 50:             start_AD_conversion();
  7047   00225A  ECE9  F013         	call	i2_start_AD_conversion	;wreg free
  7048   00225E                     
  7049                           ;ADC.c: 51:             estado = 2;
  7050   00225E  0E02               	movlw	2
  7051   002260  6E70               	movwf	ADC_maq@estado^0,c
  7052                           
  7053                           ;ADC.c: 52:             break;
  7054   002262  EF59  F011         	goto	i2l33
  7055   002266                     i2l32:
  7056                           
  7057                           ;ADC.c: 55:             AD_data[2] = ADRES;
  7058   002266  CFC3 F075          	movff	4035,_AD_data+4	;volatile
  7059   00226A  CFC4 F076          	movff	4036,_AD_data+5	;volatile
  7060   00226E                     
  7061                           ;ADC.c: 57:             select_channel(0);
  7062   00226E  0E00               	movlw	0
  7063   002270  ECCA  F013         	call	_select_channel
  7064   002274                     
  7065                           ;ADC.c: 58:             start_AD_conversion();
  7066   002274  ECE9  F013         	call	i2_start_AD_conversion	;wreg free
  7067   002278                     
  7068                           ;ADC.c: 59:             estado = 0;
  7069   002278  0E00               	movlw	0
  7070   00227A  6E70               	movwf	ADC_maq@estado^0,c
  7071                           
  7072                           ;ADC.c: 60:             break;
  7073   00227C  EF59  F011         	goto	i2l33
  7074   002280                     i2l1978:
  7075   002280  5070               	movf	ADC_maq@estado^0,w,c
  7076   002282  6E02               	movwf	??_ADC_maq^0,c
  7077   002284  6A03               	clrf	(??_ADC_maq+1)^0,c
  7078                           
  7079                           ; Switch on 2 bytes has been partitioned into a top level switch of size 1, and 1 sub-sw
      +                          itches
  7080                           ; Switch size 1, requested type "simple"
  7081                           ; Number of cases is 1, Range of values is 0 to 0
  7082                           ; switch strategies available:
  7083                           ; Name         Instructions Cycles
  7084                           ; simple_byte            4     3 (average)
  7085                           ;	Chosen strategy is simple_byte
  7086   002286  5003               	movf	(??_ADC_maq+1)^0,w,c
  7087   002288  0A00               	xorlw	0	; case 0
  7088   00228A  B4D8               	btfsc	status,2,c
  7089   00228C  EF4A  F011         	goto	i2l3578
  7090   002290  EF59  F011         	goto	i2l33
  7091   002294                     i2l3578:
  7092                           
  7093                           ; Switch size 1, requested type "simple"
  7094                           ; Number of cases is 3, Range of values is 0 to 2
  7095                           ; switch strategies available:
  7096                           ; Name         Instructions Cycles
  7097                           ; simple_byte           10     6 (average)
  7098                           ;	Chosen strategy is simple_byte
  7099   002294  5002               	movf	??_ADC_maq^0,w,c
  7100   002296  0A00               	xorlw	0	; case 0
  7101   002298  B4D8               	btfsc	status,2,c
  7102   00229A  EF16  F011         	goto	i2l29
  7103   00229E  0A01               	xorlw	1	; case 1
  7104   0022A0  B4D8               	btfsc	status,2,c
  7105   0022A2  EF23  F011         	goto	i2l31
  7106   0022A6  0A03               	xorlw	3	; case 2
  7107   0022A8  B4D8               	btfsc	status,2,c
  7108   0022AA  EF33  F011         	goto	i2l32
  7109   0022AE  EF59  F011         	goto	i2l33
  7110   0022B2                     i2l33:
  7111   0022B2  0012               	return		;funcret
  7112   0022B4                     __end_of_ADC_maq:
  7113                           	callstack 0
  7114                           
  7115 ;; *************** function i2_start_AD_conversion *****************
  7116 ;; Defined at:
  7117 ;;		line 19 in file "ADC.c"
  7118 ;; Parameters:    Size  Location     Type
  7119 ;;		None
  7120 ;; Auto vars:     Size  Location     Type
  7121 ;;		None
  7122 ;; Return value:  Size  Location     Type
  7123 ;;                  1    wreg      void 
  7124 ;; Registers used:
  7125 ;;		None
  7126 ;; Tracked objects:
  7127 ;;		On entry : 0/0
  7128 ;;		On exit  : 0/0
  7129 ;;		Unchanged: 0/0
  7130 ;; Data sizes:     COMRAM   BANK0   BANK1   BANK2   BANK3   BANK4   BANK5
  7131 ;;      Params:         0       0       0       0       0       0       0
  7132 ;;      Locals:         0       0       0       0       0       0       0
  7133 ;;      Temps:          0       0       0       0       0       0       0
  7134 ;;      Totals:         0       0       0       0       0       0       0
  7135 ;;Total ram usage:        0 bytes
  7136 ;; Hardware stack levels used: 1
  7137 ;; This function calls:
  7138 ;;		Nothing
  7139 ;; This function is called by:
  7140 ;;		_ADC_maq
  7141 ;; This function uses a non-reentrant model
  7142 ;;
  7143                           
  7144                           	psect	text40
  7145   0027D2                     __ptext40:
  7146                           	callstack 0
  7147   0027D2                     i2_start_AD_conversion:
  7148                           	callstack 23
  7149   0027D2                     
  7150                           ;ADC.c: 21:     GO = 1;
  7151   0027D2  82C2               	bsf	4034,1,c	;volatile
  7152   0027D4  0012               	return		;funcret
  7153   0027D6                     __end_ofi2_start_AD_conversion:
  7154                           	callstack 0
  7155                           
  7156 ;; *************** function _select_channel *****************
  7157 ;; Defined at:
  7158 ;;		line 24 in file "ADC.c"
  7159 ;; Parameters:    Size  Location     Type
  7160 ;;  channel         1    wreg     unsigned char 
  7161 ;; Auto vars:     Size  Location     Type
  7162 ;;  channel         1    0[COMRAM] unsigned char 
  7163 ;; Return value:  Size  Location     Type
  7164 ;;                  1    wreg      void 
  7165 ;; Registers used:
  7166 ;;		wreg, status,2, status,0
  7167 ;; Tracked objects:
  7168 ;;		On entry : 0/0
  7169 ;;		On exit  : 0/0
  7170 ;;		Unchanged: 0/0
  7171 ;; Data sizes:     COMRAM   BANK0   BANK1   BANK2   BANK3   BANK4   BANK5
  7172 ;;      Params:         0       0       0       0       0       0       0
  7173 ;;      Locals:         1       0       0       0       0       0       0
  7174 ;;      Temps:          0       0       0       0       0       0       0
  7175 ;;      Totals:         1       0       0       0       0       0       0
  7176 ;;Total ram usage:        1 bytes
  7177 ;; Hardware stack levels used: 1
  7178 ;; This function calls:
  7179 ;;		Nothing
  7180 ;; This function is called by:
  7181 ;;		_ADC_maq
  7182 ;; This function uses a non-reentrant model
  7183 ;;
  7184                           
  7185                           	psect	text41
  7186   002794                     __ptext41:
  7187                           	callstack 0
  7188   002794                     _select_channel:
  7189                           	callstack 23
  7190                           
  7191                           ;incstack = 0
  7192                           ;select_channel@channel stored from wreg
  7193   002794  6E01               	movwf	select_channel@channel^0,c
  7194   002796                     
  7195                           ;ADC.c: 24: void select_channel(uint8_t channel);ADC.c: 25: {;ADC.c: 29:     ADCON0 = 0b
      +                          00000001 | (channel << 2);
  7196   002796  4401               	rlncf	select_channel@channel^0,w,c
  7197   002798  46E8               	rlncf	wreg,f,c
  7198   00279A  0BFC               	andlw	252
  7199   00279C  0901               	iorlw	1
  7200   00279E  6EC2               	movwf	194,c	;volatile
  7201   0027A0  0012               	return		;funcret
  7202   0027A2                     __end_of_select_channel:
  7203                           	callstack 0
  7204                           
  7205                           	psect	rparam
  7206   000000                     
  7207                           	psect	temp
  7208   00007F                     btemp:
  7209                           	callstack 0
  7210   00007F                     	ds	1
  7211   000000                     int$flags	set	btemp
  7212   000000                     wtemp8	set	btemp+1
  7213   000000                     ttemp5	set	btemp+1
  7214   000000                     ttemp6	set	btemp+4
  7215   000000                     ttemp7	set	btemp+8
  7216                           
  7217                           	psect	idloc
  7218                           
  7219                           ;Config register IDLOC0 @ 0x200000
  7220                           ;	unspecified, using default values
  7221   200000                     	org	2097152
  7222   200000  FF                 	db	255
  7223                           
  7224                           ;Config register IDLOC1 @ 0x200001
  7225                           ;	unspecified, using default values
  7226   200001                     	org	2097153
  7227   200001  FF                 	db	255
  7228                           
  7229                           ;Config register IDLOC2 @ 0x200002
  7230                           ;	unspecified, using default values
  7231   200002                     	org	2097154
  7232   200002  FF                 	db	255
  7233                           
  7234                           ;Config register IDLOC3 @ 0x200003
  7235                           ;	unspecified, using default values
  7236   200003                     	org	2097155
  7237   200003  FF                 	db	255
  7238                           
  7239                           ;Config register IDLOC4 @ 0x200004
  7240                           ;	unspecified, using default values
  7241   200004                     	org	2097156
  7242   200004  FF                 	db	255
  7243                           
  7244                           ;Config register IDLOC5 @ 0x200005
  7245                           ;	unspecified, using default values
  7246   200005                     	org	2097157
  7247   200005  FF                 	db	255
  7248                           
  7249                           ;Config register IDLOC6 @ 0x200006
  7250                           ;	unspecified, using default values
  7251   200006                     	org	2097158
  7252   200006  FF                 	db	255
  7253                           
  7254                           ;Config register IDLOC7 @ 0x200007
  7255                           ;	unspecified, using default values
  7256   200007                     	org	2097159
  7257   200007  FF                 	db	255
  7258                           
  7259                           	psect	config
  7260                           
  7261                           ; Padding undefined space
  7262   300000                     	org	3145728
  7263   300000  FF                 	db	255
  7264                           
  7265                           ;Config register CONFIG1H @ 0x300001
  7266                           ;	Oscillator Selection bits
  7267                           ;	OSC = HS, HS oscillator
  7268                           ;	Fail-Safe Clock Monitor Enable bit
  7269                           ;	FCMEN = OFF, Fail-Safe Clock Monitor disabled
  7270                           ;	Internal/External Oscillator Switchover bit
  7271                           ;	IESO = OFF, Oscillator Switchover mode disabled
  7272   300001                     	org	3145729
  7273   300001  02                 	db	2
  7274                           
  7275                           ;Config register CONFIG2L @ 0x300002
  7276                           ;	Power-up Timer Enable bit
  7277                           ;	PWRT = OFF, PWRT disabled
  7278                           ;	Brown-out Reset Enable bits
  7279                           ;	BOREN = SBORDIS, Brown-out Reset enabled in hardware only (SBOREN is disabled)
  7280                           ;	Brown Out Reset Voltage bits
  7281                           ;	BORV = 3, Minimum setting
  7282   300002                     	org	3145730
  7283   300002  1F                 	db	31
  7284                           
  7285                           ;Config register CONFIG2H @ 0x300003
  7286                           ;	Watchdog Timer Enable bit
  7287                           ;	WDT = OFF, WDT disabled (control is placed on the SWDTEN bit)
  7288                           ;	Watchdog Timer Postscale Select bits
  7289                           ;	WDTPS = 32768, 1:32768
  7290   300003                     	org	3145731
  7291   300003  1E                 	db	30
  7292                           
  7293                           ; Padding undefined space
  7294   300004                     	org	3145732
  7295   300004  FF                 	db	255
  7296                           
  7297                           ;Config register CONFIG3H @ 0x300005
  7298                           ;	CCP2 MUX bit
  7299                           ;	CCP2MX = PORTC, CCP2 input/output is multiplexed with RC1
  7300                           ;	PORTB A/D Enable bit
  7301                           ;	PBADEN = ON, PORTB<4:0> pins are configured as analog input channels on Reset
  7302                           ;	Low-Power Timer1 Oscillator Enable bit
  7303                           ;	LPT1OSC = OFF, Timer1 configured for higher power operation
  7304                           ;	MCLR Pin Enable bit
  7305                           ;	MCLRE = ON, MCLR pin enabled; RE3 input pin disabled
  7306   300005                     	org	3145733
  7307   300005  83                 	db	131
  7308                           
  7309                           ;Config register CONFIG4L @ 0x300006
  7310                           ;	Stack Full/Underflow Reset Enable bit
  7311                           ;	STVREN = ON, Stack full/underflow will cause Reset
  7312                           ;	Single-Supply ICSP Enable bit
  7313                           ;	LVP = OFF, Single-Supply ICSP disabled
  7314                           ;	Extended Instruction Set Enable bit
  7315                           ;	XINST = OFF, Instruction set extension and Indexed Addressing mode disabled (Legacy mo
      +                          de)
  7316                           ;	Background Debugger Enable bit
  7317                           ;	DEBUG = 0x1, unprogrammed default
  7318   300006                     	org	3145734
  7319   300006  81                 	db	129
  7320                           
  7321                           ; Padding undefined space
  7322   300007                     	org	3145735
  7323   300007  FF                 	db	255
  7324                           
  7325                           ;Config register CONFIG5L @ 0x300008
  7326                           ;	Code Protection bit
  7327                           ;	CP0 = OFF, Block 0 (000800-001FFFh) not code-protected
  7328                           ;	Code Protection bit
  7329                           ;	CP1 = OFF, Block 1 (002000-003FFFh) not code-protected
  7330                           ;	Code Protection bit
  7331                           ;	CP2 = OFF, Block 2 (004000-005FFFh) not code-protected
  7332                           ;	Code Protection bit
  7333                           ;	CP3 = OFF, Block 3 (006000-007FFFh) not code-protected
  7334   300008                     	org	3145736
  7335   300008  0F                 	db	15
  7336                           
  7337                           ;Config register CONFIG5H @ 0x300009
  7338                           ;	Boot Block Code Protection bit
  7339                           ;	CPB = OFF, Boot block (000000-0007FFh) not code-protected
  7340                           ;	Data EEPROM Code Protection bit
  7341                           ;	CPD = OFF, Data EEPROM not code-protected
  7342   300009                     	org	3145737
  7343   300009  C0                 	db	192
  7344                           
  7345                           ;Config register CONFIG6L @ 0x30000A
  7346                           ;	Write Protection bit
  7347                           ;	WRT0 = OFF, Block 0 (000800-001FFFh) not write-protected
  7348                           ;	Write Protection bit
  7349                           ;	WRT1 = OFF, Block 1 (002000-003FFFh) not write-protected
  7350                           ;	Write Protection bit
  7351                           ;	WRT2 = OFF, Block 2 (004000-005FFFh) not write-protected
  7352                           ;	Write Protection bit
  7353                           ;	WRT3 = OFF, Block 3 (006000-007FFFh) not write-protected
  7354   30000A                     	org	3145738
  7355   30000A  0F                 	db	15
  7356                           
  7357                           ;Config register CONFIG6H @ 0x30000B
  7358                           ;	Configuration Register Write Protection bit
  7359                           ;	WRTC = OFF, Configuration registers (300000-3000FFh) not write-protected
  7360                           ;	Boot Block Write Protection bit
  7361                           ;	WRTB = OFF, Boot block (000000-0007FFh) not write-protected
  7362                           ;	Data EEPROM Write Protection bit
  7363                           ;	WRTD = OFF, Data EEPROM not write-protected
  7364   30000B                     	org	3145739
  7365   30000B  E0                 	db	224
  7366                           
  7367                           ;Config register CONFIG7L @ 0x30000C
  7368                           ;	Table Read Protection bit
  7369                           ;	EBTR0 = OFF, Block 0 (000800-001FFFh) not protected from table reads executed in other
      +                           blocks
  7370                           ;	Table Read Protection bit
  7371                           ;	EBTR1 = OFF, Block 1 (002000-003FFFh) not protected from table reads executed in other
      +                           blocks
  7372                           ;	Table Read Protection bit
  7373                           ;	EBTR2 = OFF, Block 2 (004000-005FFFh) not protected from table reads executed in other
      +                           blocks
  7374                           ;	Table Read Protection bit
  7375                           ;	EBTR3 = OFF, Block 3 (006000-007FFFh) not protected from table reads executed in other
      +                           blocks
  7376   30000C                     	org	3145740
  7377   30000C  0F                 	db	15
  7378                           
  7379                           ;Config register CONFIG7H @ 0x30000D
  7380                           ;	Boot Block Table Read Protection bit
  7381                           ;	EBTRB = OFF, Boot block (000000-0007FFh) not protected from table reads executed in ot
      +                          her blocks
  7382   30000D                     	org	3145741
  7383   30000D  40                 	db	64
  7384                           tosu	equ	0xFFF
  7385                           tosh	equ	0xFFE
  7386                           tosl	equ	0xFFD
  7387                           stkptr	equ	0xFFC
  7388                           pclatu	equ	0xFFB
  7389                           pclath	equ	0xFFA
  7390                           pcl	equ	0xFF9
  7391                           tblptru	equ	0xFF8
  7392                           tblptrh	equ	0xFF7
  7393                           tblptrl	equ	0xFF6
  7394                           tablat	equ	0xFF5
  7395                           prodh	equ	0xFF4
  7396                           prodl	equ	0xFF3
  7397                           indf0	equ	0xFEF
  7398                           postinc0	equ	0xFEE
  7399                           postdec0	equ	0xFED
  7400                           preinc0	equ	0xFEC
  7401                           plusw0	equ	0xFEB
  7402                           fsr0h	equ	0xFEA
  7403                           fsr0l	equ	0xFE9
  7404                           wreg	equ	0xFE8
  7405                           indf1	equ	0xFE7
  7406                           postinc1	equ	0xFE6
  7407                           postdec1	equ	0xFE5
  7408                           preinc1	equ	0xFE4
  7409                           plusw1	equ	0xFE3
  7410                           fsr1h	equ	0xFE2
  7411                           fsr1l	equ	0xFE1
  7412                           bsr	equ	0xFE0
  7413                           indf2	equ	0xFDF
  7414                           postinc2	equ	0xFDE
  7415                           postdec2	equ	0xFDD
  7416                           preinc2	equ	0xFDC
  7417                           plusw2	equ	0xFDB
  7418                           fsr2h	equ	0xFDA
  7419                           fsr2l	equ	0xFD9
  7420                           status	equ	0xFD8

Data Sizes:
    Strings     4
    Constant    0
    Data        59
    BSS         51
    Persistent  0
    Stack       0

Auto Spaces:
    Space          Size  Autos    Used
    COMRAM          126     86     126
    BANK0           128     74     127
    BANK1           256      0      17
    BANK2           256      0       0
    BANK3           256      0       0
    BANK4           256      0       0
    BANK5           256      0       0

Pointer List with Targets:

    lcd_str@str	PTR const unsigned char  size(2) Largest target is 4
		 -> STR_2(CODE[4]), STR_1(CODE[4]), 


Critical Paths under _main in COMRAM

    None.

Critical Paths under _f_interrupt_high in COMRAM

    _f_timers->_Read_AD
    _imprime_temperatura->_lcd_str
    _imprime_temperatura->i2___lwdiv
    i2_lcd_cmd->i2_lcd_wr
    _lcd_str->_lcd_dat
    _lcd_dat->i2_lcd_wr
    _controlador_ventoinha->_f_pwm
    _calculate_RPM->___wmul
    _Read_AD->i2___fltol
    i2___fltol->i2___fldiv
    i2___flmul->i2___xxtofl
    i2___fldiv->i2___flmul
    _ADC_maq->_select_channel

Critical Paths under _main in BANK0

    _setup->_lcd_init
    _lcd_init->_lcd_cmd
    _lcd_cmd->_lcd_wr
    _read_temperature->___fltol
    ___lwdiv->___lwmod
    ___fltol->___fldiv
    ___flmul->___xxtofl
    ___fldiv->___flmul

Critical Paths under _f_interrupt_high in BANK0

    None.

Critical Paths under _main in BANK1

    None.

Critical Paths under _f_interrupt_high in BANK1

    None.

Critical Paths under _main in BANK2

    None.

Critical Paths under _f_interrupt_high in BANK2

    None.

Critical Paths under _main in BANK3

    None.

Critical Paths under _f_interrupt_high in BANK3

    None.

Critical Paths under _main in BANK4

    None.

Critical Paths under _f_interrupt_high in BANK4

    None.

Critical Paths under _main in BANK5

    None.

Critical Paths under _f_interrupt_high in BANK5

    None.

Call Graph Tables:

 ---------------------------------------------------------------------------------
 (Depth) Function   	        Calls       Base Space   Used Autos Params    Refs
 ---------------------------------------------------------------------------------
 (0) _main                                                 0     0      0    8457
                               _loop
                              _setup
 ---------------------------------------------------------------------------------
 (1) _setup                                                0     0      0      44
                            _AD_init
                 _disable_interrupts
                  _enable_interrupts
                     _interrupt_init
                           _lcd_init
                           _setup_io
                _start_AD_conversion
 ---------------------------------------------------------------------------------
 (2) _start_AD_conversion                                  0     0      0       0
 ---------------------------------------------------------------------------------
 (2) _setup_io                                             0     0      0       0
 ---------------------------------------------------------------------------------
 (2) _lcd_init                                             1     1      0      44
                                              2 BANK0      1     1      0
                            _lcd_cmd
 ---------------------------------------------------------------------------------
 (3) _lcd_cmd                                              1     1      0      44
                                              1 BANK0      1     1      0
                             _lcd_wr
 ---------------------------------------------------------------------------------
 (4) _lcd_wr                                               1     1      0      22
                                              0 BANK0      1     1      0
 ---------------------------------------------------------------------------------
 (2) _interrupt_init                                       0     0      0       0
 ---------------------------------------------------------------------------------
 (2) _enable_interrupts                                    0     0      0       0
 ---------------------------------------------------------------------------------
 (2) _disable_interrupts                                   0     0      0       0
 ---------------------------------------------------------------------------------
 (2) _AD_init                                              0     0      0       0
 ---------------------------------------------------------------------------------
 (1) _loop                                                 0     0      0    8413
                            ___lwdiv
                            ___lwmod
                   _read_temperature
 ---------------------------------------------------------------------------------
 (2) _read_temperature                                     0     0      0    5820
                            ___fldiv
                            ___flmul
                            ___fltol
                            ___lwdiv
                           ___xxtofl
 ---------------------------------------------------------------------------------
 (3) ___xxtofl                                            14    10      4     498
                                              0 BANK0     14    10      4
 ---------------------------------------------------------------------------------
 (3) ___lwdiv                                              7     3      4    1374
                                              5 BANK0      7     3      4
                            ___lwmod (ARG)
 ---------------------------------------------------------------------------------
 (3) ___fltol                                             10     6      4     405
                                             64 BANK0     10     6      4
                            ___fldiv (ARG)
                            ___flmul (ARG)
                           ___xxtofl (ARG)
 ---------------------------------------------------------------------------------
 (3) ___flmul                                             25    17      8    1944
                                             14 BANK0     25    17      8
                           ___xxtofl (ARG)
 ---------------------------------------------------------------------------------
 (3) ___fldiv                                             25    17      8    1599
                                             39 BANK0     25    17      8
                            ___flmul (ARG)
                           ___xxtofl (ARG)
 ---------------------------------------------------------------------------------
 (2) ___lwmod                                              5     1      4    1219
                                              0 BANK0      5     1      4
 ---------------------------------------------------------------------------------
 Estimated maximum stack depth 4
 ---------------------------------------------------------------------------------
 (Depth) Function   	        Calls       Base Space   Used Autos Params    Refs
 ---------------------------------------------------------------------------------
 (5) _f_interrupt_high                                     8     8      0    5055
                                             78 COMRAM     8     8      0
                           _f_timers
 ---------------------------------------------------------------------------------
 (6) _f_timers                                             0     0      0    5055
                            _ADC_maq
                            _Read_AD
                      _calculate_RPM
              _controlador_ventoinha
                _imprime_temperatura
                        _mux_display
                           _read_RPM
 ---------------------------------------------------------------------------------
 (7) _read_RPM                                             0     0      0       0
 ---------------------------------------------------------------------------------
 (7) _mux_display                                          2     2      0       0
                                              0 COMRAM     2     2      0
 ---------------------------------------------------------------------------------
 (7) _imprime_temperatura                                  0     0      0    1007
                            _lcd_dat
                            _lcd_str
                          i2___lwdiv
                          i2___lwmod
                          i2_lcd_cmd
 ---------------------------------------------------------------------------------
 (8) i2_lcd_cmd                                            1     1      0      44
                                              1 COMRAM     1     1      0
                           i2_lcd_wr
 ---------------------------------------------------------------------------------
 (8) i2___lwmod                                            5     1      4     315
                                              0 COMRAM     5     1      4
 ---------------------------------------------------------------------------------
 (8) i2___lwdiv                                            7     3      4     318
                                              0 COMRAM     7     3      4
 ---------------------------------------------------------------------------------
 (8) _lcd_str                                              5     3      2     286
                                              2 COMRAM     5     3      2
                            _lcd_dat
 ---------------------------------------------------------------------------------
 (9) _lcd_dat                                              1     1      0      44
                                              1 COMRAM     1     1      0
                           i2_lcd_wr
 ---------------------------------------------------------------------------------
 (9) i2_lcd_wr                                             1     1      0      22
                                              0 COMRAM     1     1      0
 ---------------------------------------------------------------------------------
 (7) _controlador_ventoinha                                0     0      0     272
                              _f_pwm
 ---------------------------------------------------------------------------------
 (8) _f_pwm                                                4     2      2     272
                                              0 COMRAM     4     2      2
 ---------------------------------------------------------------------------------
 (7) _calculate_RPM                                        0     0      0     311
                             ___wmul
 ---------------------------------------------------------------------------------
 (8) ___wmul                                               6     2      4     311
                                              0 COMRAM     6     2      4
 ---------------------------------------------------------------------------------
 (7) _Read_AD                                              4     4      0    3450
                                             74 COMRAM     4     4      0
                          i2___fldiv
                          i2___flmul
                          i2___fltol
                         i2___xxtofl
 ---------------------------------------------------------------------------------
 (8) i2___xxtofl                                          14    10      4     374
                                              0 COMRAM    14    10      4
 ---------------------------------------------------------------------------------
 (8) i2___fltol                                           10     6      4     281
                                             64 COMRAM    10     6      4
                          i2___fldiv (ARG)
                          i2___flmul (ARG)
                         i2___xxtofl (ARG)
 ---------------------------------------------------------------------------------
 (8) i2___flmul                                           25    17      8    1570
                                             14 COMRAM    25    17      8
                         i2___xxtofl (ARG)
 ---------------------------------------------------------------------------------
 (8) i2___fldiv                                           25    17      8    1225
                                             39 COMRAM    25    17      8
                          i2___flmul (ARG)
                         i2___xxtofl (ARG)
 ---------------------------------------------------------------------------------
 (7) _ADC_maq                                              2     2      0      15
                                              1 COMRAM     2     2      0
                     _select_channel
              i2_start_AD_conversion
 ---------------------------------------------------------------------------------
 (8) i2_start_AD_conversion                                0     0      0       0
 ---------------------------------------------------------------------------------
 (8) _select_channel                                       1     1      0      15
                                              0 COMRAM     1     1      0
 ---------------------------------------------------------------------------------
 Estimated maximum stack depth 9
 ---------------------------------------------------------------------------------

 Call Graph Graphs:

 _main (ROOT)
   _loop
     ___lwdiv
       ___lwmod (ARG)
     ___lwmod
     _read_temperature
       ___fldiv
         ___flmul (ARG)
           ___xxtofl (ARG)
         ___xxtofl (ARG)
       ___flmul
       ___fltol
         ___fldiv (ARG)
         ___flmul (ARG)
         ___xxtofl (ARG)
       ___lwdiv
       ___xxtofl
   _setup
     _AD_init
     _disable_interrupts
     _enable_interrupts
     _interrupt_init
     _lcd_init
       _lcd_cmd
         _lcd_wr
     _setup_io
     _start_AD_conversion

 _f_interrupt_high (ROOT)
   _f_timers
     _ADC_maq
       _select_channel
       i2_start_AD_conversion
     _Read_AD
       i2___fldiv
         i2___flmul (ARG)
           i2___xxtofl (ARG)
         i2___xxtofl (ARG)
       i2___flmul
       i2___fltol
         i2___fldiv (ARG)
         i2___flmul (ARG)
         i2___xxtofl (ARG)
       i2___xxtofl
     _calculate_RPM
       ___wmul
     _controlador_ventoinha
       _f_pwm
     _imprime_temperatura
       _lcd_dat
         i2_lcd_wr
       _lcd_str
         _lcd_dat
       i2___lwdiv
       i2___lwmod
       i2_lcd_cmd
         i2_lcd_wr
     _mux_display
     _read_RPM

 Address spaces:
Name               Size   Autos  Total    Cost      Usage
BIGRAM             5FF      0       0      28        0.0%
EEDATA             100      0       0       0        0.0%
BITBANK5           100      0       0      14        0.0%
BANK5              100      0       0      15        0.0%
BITBANK4           100      0       0      12        0.0%
BANK4              100      0       0      13        0.0%
BITBANK3           100      0       0      10        0.0%
BANK3              100      0       0      11        0.0%
BITBANK2           100      0       0       8        0.0%
BANK2              100      0       0       9        0.0%
BITBANK1           100      0       0       6        0.0%
BANK1              100      0      11       7        6.6%
BITBANK0            80      0       0       4        0.0%
BANK0               80     4A      7F       5       99.2%
BITCOMRAM           7E      0       0       0        0.0%
COMRAM              7E     56      7E       1      100.0%
BITBIGSFRlhlh       1E      0       0      22        0.0%
BITBIGSFRhhlhl      18      0       0      17        0.0%
BITBIGSFRhhh         D      0       0      16        0.0%
BITBIGSFRlhll        6      0       0      23        0.0%
BITBIGSFRhl          5      0       0      20        0.0%
BITBIGSFRlllh        4      0       0      25        0.0%
BITBIGSFRhhllh       4      0       0      18        0.0%
BITBIGSFRhhlll       4      0       0      19        0.0%
BITBIGSFRllhh        4      0       0      24        0.0%
BITBIGSFRllll        2      0       0      26        0.0%
BITBIGSFRlhh         1      0       0      21        0.0%
BIGSFR               0      0       0     200        0.0%
BITSFR               0      0       0     200        0.0%
SFR                  0      0       0     200        0.0%
STACK                0      0       0       2        0.0%
NULL                 0      0       0       0        0.0%
ABS                  0      0     10E      27        0.0%
DATA                 0      0     10E       3        0.0%
CODE                 0      0       0       0        0.0%


Microchip Technology PIC18 Macro Assembler V2.40 build 20220703182018 
Symbol Table                                                                                   Wed Dec 14 23:14:57 2022

                 ___fldiv@aexp 00BF                   ___fldiv@bexp 00BE                   ___fldiv@sign 00B7  
                           l20 27D0                             l17 2792                             _T1 005F  
                           _T2 005D                             _GO 007E11                             _HZ 00F6  
                           _TM 005B            ___wmul@multiplicand 0003             i2___lwdiv@dividend 0001  
             f_timers@counter0 007D               f_timers@counter1 007B               f_timers@counter2 0079  
             f_timers@counter3 0077         __end_of_interrupt_init 2764                            l140 2670  
                          l232 27B4                            l137 25F4                            l235 2762  
                          l229 27C4                            l270 2696                            l267 27AA  
                          l372 2226                            l364 1E82                            l276 2422  
                          l730 1C7A                            l931 23AE                            l924 23A6  
                          l941 24FC                            l934 24F4                            _GIE 007F97  
                          _RC5 007C15                            _PR2 000FCB                    i2___fldiv@a 002C  
                  i2___fldiv@b 0028                            _pwm 0057                     i2___xxtofl 174A  
                          wreg 000FE8                __end_of_ADC_maq 22B4                    i2___flmul@a 0013  
                  i2___flmul@b 000F                   ___flmul@aexp 009F                   ___flmul@bexp 00A0  
                 ___flmul@sign 009A                   ___flmul@temp 00A5                   ___flmul@prod 00A1  
                ADC_maq@estado 0070                __end_of_AD_init 2794    __end_of_imprime_temperatura 1B74  
                 ___fltol@exp1 00C9                           l1020 101A                           l1102 16E0  
                         l1015 11F6                           l1017 1056                           l1026 109C  
                         l1051 0A30                           l1028 1114                           l1029 1102  
                         l1054 08C2                           l1047 06CC                           l1064 09F2  
                         l1056 093A                           l1057 0928                           l1091 1748  
                         l1095 1684                           l1088 15EC                           l3300 2416  
                         l2510 0F94                           l2502 0F70                           l2406 27A6  
                         l2430 268A                           l2422 2676                           l3302 241C  
                         l2520 0FE6                           l2512 0FAE                           l2504 0F80  
                         l2600 0644                           l3400 2208                           l3304 27AC  
                         l2432 268C                           l2424 2678                           l3410 24CA  
                         l3402 2498                           l2530 1042                           l2522 0FF6  
                         l2514 0FBE                           l2506 0F80                           l2610 0676  
                         l2602 0654                           l3242 2786                           l2434 2694  
                         l2426 2680                           l3412 24E0                           l3404 24AC  
                         l2540 1082                           l2532 1044                           l2524 100A  
                         l2516 0FCE                           l2460 0E8A                           l2452 0E5C  
                         l2700 09AC                           l2620 06B6                           l2612 0684  
                         l2604 065A                           l3500 1E38                           l2428 2682  
                         l3244 27CE                           l3420 25B6                           l3414 24E8  
                         l3406 24B4                           l2550 10BE                           l2542 108C  
                         l2534 1054                           l2526 1018                           l2518 0FDE  
                         l2470 0EC4                           l2462 0E9A                           l2454 0E6A  
                         l2710 0A14                           l2702 09C0                           l2630 0700  
                         l2622 06BC                           l2614 0686                           l2606 066A  
                         l3502 1E68                           l3430 25CE                           l3422 25BA  
                         l3416 24EE                           l3408 24BC                           l2560 1130  
                         l2552 10CC                           l2544 109A                           l2536 1066  
                         l2528 1024                           l2480 0EF0                           l2472 0ECA  
                         l2464 0EAA                           l2456 0E78                           l2712 0A16  
                         l2704 09DA                           l2640 0750                           l2632 070C  
                         l2624 06DC                           l2616 0696                           l2608 0670  
                         l2720 1B74                           l2800 162E                           l3272 27BE  
                         l3280 23B4                           l3440 25DE                           l3432 25D0  
                         l3424 25BE                           l2570 119C                           l2562 113E  
                         l2554 10FA                           l2538 107C                           l2546 10AC  
                         l2490 0F2A                           l2482 0F00                           l2474 0ED0  
                         l2466 0EAC                           l2458 0E7A                           l2706 09F6  
                         l2714 0A1C                           l2650 0792                           l2642 075C  
                         l2634 0716                           l2626 06EC                           l2618 06A6  
                         l2730 1BCC                           l2722 1B8C                           l2810 16B6  
                         l2802 163A                           l3290 23F8                           l3282 23C6  
                         l3274 264C                           l3442 25E4                           l3434 25D2  
                         l3426 25C2                           l3418 25B2                           l2580 11EA  
                         l2572 11B6                           l2564 1168                           l2548 10BA  
                         l2492 0F40                           l2484 0F10                           l2476 0EDE  
                         l2468 0EB4                           l2716 0A20                           l2708 0A06  
                         l2660 07F4                           l2652 079E                           l2644 0768  
                         l2636 072C                           l2732 1BDC                           l2820 16F4  
                         l2812 16C2                           l2804 166C                           l3276 274A  
                         l3292 23FE                           l3284 23C8                           l3444 25E8  
                         l3436 25D4                           l3428 25C6                           l3532 2776  
                         l2582 11EC                           l2574 11D2                           l2558 1124  
                         l2566 116C                           l2494 0F50                           l2486 0F12  
                         l2478 0EE0                           l2670 088A                           l2662 0800  
                         l2654 07AE                           l2646 0776                           l2638 0738  
                         l2590 0606                           l2742 1C06                           l2734 1BE0  
                         l2726 1BA0                           l2822 1718                           l2814 16D0  
                         l2806 166E                           l3294 2404                           l3286 23CE  
                         l3278 23B0                           l3446 25EC                           l3438 25DA  
                         l3534 277A                           l2576 11D6                           l2568 1186  
                         l2496 0F58                           l2488 0F1A                           l2680 08E0  
                         l2672 08A8                           l2664 081C                           l2656 07C8  
                         l2648 0782                           l2592 0614                           l2760 1C6A  
                         l2752 1C2E                           l2744 1C10                           l2736 1BEE  
                         l2728 1BCA                           l2824 1728                           l2816 16EE  
                         l2808 167A                           l3296 240A                           l3288 23E6  
                         l3448 25F0                           l2578 11E4                           l2498 0F5C  
                         l2690 094A                           l2682 08E4                           l2674 08B2  
                         l2666 0846                           l2658 07D8                           l2594 0622  
                         l2754 1C3A                           l2746 1C1A                           l2770 235E  
                         l2826 1736                           l2818 16F0                           l3298 2410  
                         l2692 0956                           l2684 08F2                           l2676 08C0  
                         l2668 087C                           l2596 0624                           l2756 1C4A  
                         l2780 2398                           l2772 2366                           l2764 233A  
                         l2828 1738                           l3492 1D82                           l2694 0964  
                         l2686 0920                           l2678 08D2                           l2598 0634  
                         l2758 1C5A                           l2782 239A                           l2774 2374  
                         l2766 2344                           l2790 15B6                           l3398 2190  
                         l3494 1DE8                           l2696 098E                           l2784 23A0  
                         l2776 237A                           l2768 2356                           l2792 15FC  
                         l3496 1DEC                           l2698 0992                           l2778 2390  
                         l2794 1612                           l2786 1596                           l3498 1E08  
                         l2788 15A8                           l2798 1626                           _ADIE 007CEE  
                         _ADIF 007CF6                           STR_1 0601                           STR_2 0601  
                         u2000 06DC                           u2001 06D8                           u2010 06EC  
                         u2011 06E8                           u2100 09AC                           u2020 0866  
                         u2101 09A8                           u2110 09DA                           u2030 08C0  
                         u2111 09D6                           u2031 08BC                           u2120 0A14  
                         u2040 08E0                           u2200 2356                           u2121 0A10  
                         u2041 08DC                           u2025 085C                           u2201 2352  
                         u2050 08F2                           u2130 1B8C                           u2210 2374  
                         u2051 08EE                           u2131 1B88                           u2211 2370  
                         u2060 0920                           u2140 1BC0                           u2220 2390  
                         u2300 16EE                           u2061 091C                           u2221 238C  
                         u2301 16EA                           _LATA 000F89                           u2070 0936  
                         u2150 1BEE                           u2310 1728                           u2230 15A8  
                         _LATB 000F8A                           u2071 0932                           u2151 1BEA  
                         u2311 1724                           u2231 15A4                           _LATC 000F8B  
                         u2080 094A                           u2160 1C02                           u2320 1736  
                         u2240 15B6                           _LATD 000F8C                           u2081 0946  
                         u2161 1BFE                           u2145 1BB6                           u2321 1732  
                         u2241 15B2                           _LATE 000F8D                           u3050 24AC  
                         u2090 0964                           u2170 1C2A                           u2250 1612  
                         u3051 24A8                           u2091 0960                           u2171 1C26  
                         u2251 160E                           u3060 24CA                           u2180 1C4A  
                         u2260 1668                           u3061 24C6                           u2181 1C46  
                         u2261 1664                           u3070 24E0                           u1710 0E78  
                         u2190 1C5A                           u2270 16B2                           u3071 24DC  
                         u1711 0E74                           u2191 1C56                           u2271 16AE  
                         u1800 1018                           u1720 0E8A                           u2280 16D0  
                         u1801 1014                           u1721 0E86                           u2281 16CC  
                         u1810 1042                           u1730 0E9A                           u2290 16E0  
                         u1811 103E                           u1731 0E96                           u2291 16DC  
                         u3227 23BC                           u1900 113E                           u1820 1066  
                         u1740 0EDE                           u1901 113A                           u1821 1062  
                         u1741 0EDA                           u3237 23D6                           u1910 1186  
                         u1830 107C                           u1750 0EF0                           u1911 1182  
                         u1831 1078                           u1751 0EEC                           u3247 23EE  
                         u1920 11B6                           u1840 109A                           u1760 0F00  
                         _IPEN 007E87                           u1921 11B2                           u1841 1096  
                         u1761 0EFC                           u3257 2684                           u1930 11E4  
                         u1850 10BA                           u1770 0F40                           u1931 11E0  
                         u1851 10B6                           u1771 0F3C                           u3267 268E  
                         u1860 10CC                           u1780 0F80                           u1940 0622  
                         u1861 10C8                           u1781 0F7C                           u1941 061E  
                         u1870 10FA                           u1790 0FF6                           u1950 0634  
                         u1871 10F6                           u1791 0FF2                           u1951 0630  
                         u1880 1110                           u1960 0644                           u1881 110C  
                         u1961 0640                           u1890 1124                           u1970 0684  
                         u1891 1120                           u1971 0680                           _PEIE 007F96  
                         u1980 0696                           u1981 0692                           u1990 06A6  
                         u1991 06A2                           i2l20 27D4                           i2l23 27A0  
                         i2l31 2246                           i2l32 2266                           i2l33 22B2  
                         i2l29 222C                           i2l63 2030                           i2l65 204C  
                         i2l66 206A                           i2l67 2088                           i2l68 20E0  
                         _TMR0 000FD6                           _main 2776                           _giro 0059  
                         _loop 1D82                           _temp 0061             i2___lwdiv@quotient 0005  
                         fsr2h 000FDA                           indf2 000FDF                           fsr1l 000FE1  
        i2_start_AD_conversion 27D2                           fsr2l 000FD9                           btemp 007F  
                         prodh 000FF4                           prodl 000FF3                           start 000E  
                 i2___fltol@f1 0041                ___fldiv@new_exp 00B8                   ___param_bank 000000  
              __end_of_Read_AD 1A42                  ___fltol@sign1 00C8                          ?_main 0001  
              __end_of___fldiv 11F8                          _ADRES 000FC3                          ?_loop 0001  
              __end_of___flmul 0A32                __end_of___fltol 1C7C                ?_interrupt_init 0001  
                        _T0CON 000FD5                          _T2CON 000FCA                          _LATA2 007C4A  
                        _LATA3 007C4B                          _LATA4 007C4C                          _LATA5 007C4D  
              __end_of___lwdiv 23B0                __end_of___lwmod 24FE                          i2l222 1EE0  
                        i2l223 1EFE                          i2l224 1F1C                          i2l226 1F48  
                        i2l270 2726                          i2l254 202A                          i2l433 26E2  
                        i2l353 2620                          i2l273 2748                          i2l282 25B0  
                        i2l267 27CC                          i2l384 264A                          i2l369 1A40  
                        i2l393 212A                          i2l377 1B72                          i2l730 1D80  
                        i2l387 26BC                          i2l399 218E                          i2l931 2496  
                        i2l924 248E                          i2l941 2560                          i2l934 2558  
                        _PORTC 000F82                          _PORTD 000F83                          _TRISA 000F92  
                        _TRISB 000F93                          _TRISC 000F94                          _TRISD 000F95  
                        _TRISE 000F96                __end_of_lcd_dat 274A                __end_of_lcd_cmd 2698  
              __end_of_lcd_str 25B2                          _f_pwm 25F6                  i2___fldiv@grs 003B  
                i2___fldiv@rem 0034             _disable_interrupts 27BE                          _setup 25B2  
                        tablat 000FF5                          ttemp5 0080                          ttemp6 0083  
                        ttemp7 0087                          status 000FD8                          wtemp8 0080  
             __end_ofi2_lcd_wr 27CE                  i2___flmul@grs 001C       __end_of_read_temperature 2228  
          ?_disable_interrupts 0001               _f_interrupt_high 0008                __initialization 22B4  
                 __end_of_main 2786                   __end_of_loop 1E84        ??_controlador_ventoinha 0005  
                    ??_ADC_maq 0002                         ??_main 00CA                         ??_loop 00CA  
                __activetblptr 000002           ??_disable_interrupts 0080                      ??_AD_init 0080  
                  ?i2___xxtofl 0001                    i2lcd_wr@val 0001                         ?_f_pwm 0001  
                       _ADCON0 000FC2                         _ADCON1 000FC1                         _ADCON2 000FC0  
                       _CCPR1L 000FBE                         ?_setup 0001                         _INT0IE 007F94  
                       _INT0IF 007F91                         _INT1IE 007F83                         _INT1IF 007F80  
                       _INT2IE 007F84                         _INT2IF 007F81                         i2l1020 13B4  
                       i2l1102 1894                         i2l1015 1590                         i2l1017 13F0  
                       i2l1026 1436                         i2l1051 0E5A                         i2l1124 2796  
                       i2l1028 14AE                         i2l1029 149C                         i2l1054 0CEC  
                       i2l1047 0AF6                         i2l3000 13A4                         i2l1064 0E1C  
                       i2l1056 0D64                         i2l1057 0D52                         i2l3010 13EE  
                       i2l3002 13B2                         i2l2050 2642                         i2l1091 18FC  
                       i2l3020 1434                         i2l3012 1400                         i2l3004 13BE  
                       i2l3100 0B06                         i2l2052 2646                         i2l2044 2622  
                       i2l3030 1494                         i2l3014 1416                         i2l3022 1446  
                       i2l3006 13DC                         i2l3110 0B40                         i2l3102 0B16  
                       i2l2046 2630                         i2l1095 1838                         i2l3040 1502  
                       i2l3024 1454                         i2l3016 141C                         i2l3008 13DE  
                       i2l3120 0B92                         i2l3112 0B56                         i2l3200 176A  
                       i2l1088 17A0                         i2l2048 2632                         i2l3050 156C  
                       i2l3034 14BE                         i2l3042 1506                         i2l3026 1458  
                       i2l3018 1426                         i2l3130 0BD8                         i2l3122 0BA0  
                       i2l3114 0B62                         i2l3106 0B2A                         i2l3210 17E2  
                       i2l3202 17B0                         i2l2410 272C                         i2l3052 1570  
                       i2l3044 1520                         i2l3036 14CA                         i2l3028 1466  
                       i2l3140 0C46                         i2l3132 0BF2                         i2l3124 0BAC  
                       i2l3116 0B7A                         i2l3108 0B36                         i2l3220 186A  
                       i2l3212 17EE                         i2l3204 17C6                         i2l2404 27C8  
                       i2l2420 2746                         i2l2412 2732                         i2l3054 157E  
                       i2l3046 1536                         i2l3038 14D8                         i2l3150 0CDC  
                       i2l3142 0C70                         i2l3134 0C02                         i2l3126 0BBC  
                       i2l3118 0B86                         i2l3070 0A4C                         i2l3230 18A8  
                       i2l3222 1876                         i2l3214 1820                         i2l3310 20FA  
                       i2l2414 2734                         i2l1536 27D2                         i2l3056 1584  
                       i2l3048 1550                         i2l3160 0D1C                         i2l3152 0CEA  
                       i2l3144 0CA6                         i2l3136 0C1E                         i2l3128 0BC8  
                       i2l3080 0A84                         i2l3072 0A4E                         i2l3232 18CC  
                       i2l3224 1884                         i2l3216 1822                         i2l3208 17DA  
                       i2l3320 213A                         i2l3312 2106                         i2l2416 273C  
                       i2l2408 272A                         i2l2440 2586                         i2l3058 1586  
                       i2l3170 0D8E                         i2l3162 0D4A                         i2l3154 0CFC  
                       i2l3146 0CB4                         i2l3138 0C2A                         i2l3090 0AB0  
                       i2l3082 0A94                         i2l3074 0A5E                         i2l3066 0A32  
                       i2l3234 18DC                         i2l3226 18A2                         i2l3218 182E  
                       i2l3330 2180                         i2l3322 2150                         i2l3314 210E  
                       i2l3306 20E2                         i2l2418 273E                         i2l2442 2588  
                       i2l3250 2044                         i2l3180 0E04                         i2l3172 0DB8  
                       i2l3156 0D0A                         i2l3148 0CD2                         i2l3092 0AC0  
                       i2l3084 0A9A                         i2l3076 0A6E                         i2l3068 0A3E  
                       i2l3236 18EA                         i2l3228 18A4                         i2l2444 25F6  
                       i2l3332 2182                         i2l3324 2152                         i2l3316 2124  
                       i2l3308 20F8                         i2l2436 2562                         i2l3340 1A52  
                       i2l3260 208C                         i2l3252 2050                         i2l3182 0E20  
                       i2l3190 0E46                         i2l3166 0D74                         i2l3174 0DBC  
                       i2l3158 0D0E                         i2l3094 0AD0                         i2l3086 0AA0  
                       i2l3078 0A7E                         i2l3238 18EC                         i2l2446 26BE  
                       i2l3326 215A                         i2l3318 2126                         i2l2438 256A  
                       i2l3350 1ADA                         i2l3342 1A6E                         i2l3262 209E  
                       i2l3254 2062                         i2l3246 202C                         i2l3510 1EC0  
                       i2l3192 0E4A                         i2l3184 0E30                         i2l3176 0DD6  
                       i2l3168 0D80                         i2l3096 0AE0                         i2l3088 0AAE  
                       i2l2448 26DA                         i2l3328 216A                         i2l3360 1B24  
                       i2l3352 1AE0                         i2l3344 1A96                         i2l3336 1A42  
                       i2l3256 206E                         i2l3248 2034                         i2l3520 1EFC  
                       i2l3512 1EC2                         i2l3504 1EA6                         i2l3186 0E3E  
                       i2l3178 0DEA                         i2l3098 0AE6                         i2l3370 1B52  
                       i2l3362 1B2A                         i2l3354 1AE6                         i2l3346 1AA2  
                       i2l3338 1A46                         i2l3258 2080                         i2l3266 20A6  
                       i2l3450 1F6C                         i2l3530 1F46                         i2l3522 1F0C  
                       i2l3514 1ED0                         i2l3506 1EB4                         i2l3188 0E40  
                       i2l3196 174C                         i2l3380 2698                         i2l2900 245C  
                       i2l3372 1B5A                         i2l3364 1B3C                         i2l3356 1AEC  
                       i2l3348 1ABE                         i2l3460 1F98                         i2l3452 1F72  
                       i2l3524 1F1A                         i2l3516 1EDE                         i2l3508 1EBC  
                       i2l3198 175C                         i2l3390 1992                         i2l3382 26B4  
                       i2l2910 2488                         i2l2902 2462                         i2l3374 1B62  
                       i2l3366 1B44                         i2l3358 1B08                         i2l3470 1FCA  
                       i2l3462 1FA0                         i2l3454 1F76                         i2l3526 1F2A  
                       i2l3518 1EEE                         i2l1960 224E                         i2l1952 2228  
                       i2l3392 1A08                         i2l3384 18FE                         i2l2904 2478  
                       i2l2920 252E                         i2l2912 24FE                         i2l2840 271A  
                       i2l2832 2708                         i2l3376 1B68                         i2l3368 1B4C  
                       i2l3480 1FF4                         i2l3472 1FE0                         i2l3464 1FB6  
                       i2l3456 1F8C                         i2l3528 1F38                         i2l1970 226E  
                       i2l1962 2250                         i2l1954 2234                         i2l2930 1204  
                       i2l3394 1A1E                         i2l3386 1974                         i2l2906 2480  
                       i2l2922 2544                         i2l2914 2510                         i2l2842 271C  
                       i2l2834 270A                         i2l3378 1B6E                         i2l3490 2022  
                       i2l3482 1FFC                         i2l3474 1FE8                         i2l3466 1FBE  
                       i2l3458 1F94                         i2l1972 2274                         i2l1964 2254  
                       i2l1956 223A                         i2l2940 1244                         i2l2932 1212  
                       i2l2860 1CE6                         i2l2852 1CA6                         i2l3396 1A26  
                       i2l3388 198A                         i2l2908 2482                         i2l2924 254C  
                       i2l2916 2518                         i2l2844 2724                         i2l2836 2710  
                       i2l3484 2012                         i2l3476 1FEC                         i2l3468 1FC2  
                       i2l1974 2278                         i2l1966 225A                         i2l1958 223E  
                       i2l2950 126A                         i2l2942 1246                         i2l2934 1214  
                       i2l2870 1D16                         i2l2862 1CF4                         i2l2854 1CD0  
                       i2l2846 1C7C                         i2l2926 2552                         i2l2918 2520  
                       i2l2838 2712                         i2l3486 201A                         i2l3478 1FF0  
                       i2l1968 225E                         i2l2960 12AA                         i2l2952 1278  
                       i2l2936 1224                         i2l2944 124E                         i2l2928 11F8  
                       i2l2880 1D40                         i2l2872 1D20                         i2l2856 1CD2  
                       i2l2848 1C92                         i2l3576 20BA                         i2l3488 201E  
                       i2l3578 2294                         i2l1978 2280                         i2l2970 12EA  
                       i2l2962 12AC                         i2l2954 127A                         i2l2946 125E  
                       i2l2938 1234                         i2l2882 1D50                         i2l2858 1CE2  
                       i2l2890 2424                         i2l2980 131A                         i2l2972 12F2  
                       i2l2956 128A                         i2l2964 12B4                         i2l2948 1264  
                       i2l2884 1D60                         i2l2868 1D0C                         i2l2892 242C  
                       i2l2990 1358                         i2l2982 131A                         i2l2974 12F6  
                       i2l2966 12C4                         i2l2958 129A                         i2l2886 1D70  
                       i2l2878 1D34                         i2l2894 243E                         i2l2992 1368  
                       i2l2968 12DA                         i2l2896 2446                         _INTCON 000FF2  
                       i2l2994 1378                         i2l2986 132E                         i2l2978 130A  
                       i2l2898 244E                         i2l2996 1380                         i2l2988 1348  
                       i2l2998 1390         ?i2_start_AD_conversion 0001                         _TMR0IE 007F95  
                       _TMR0IF 007F92               __end_of___xxtofl 174A                      ??_Read_AD 004B  
             __end_of_f_timers 202C               __end_of_lcd_init 2424                         ___wmul 26BE  
                    ??___fldiv 00AF                      ??___flmul 0096                      ??___fltol 00C4  
                    ??___lwdiv 0089                      ??___lwmod 0084                         _buffer 00EC  
                       _lcd_wr 27A2               __end_of_read_RPM 264C                         _linha1 00CA  
                       _linha2 0100                         clear_0 231A                         clear_1 2326  
               i2___fldiv@aexp 0040                 i2___fldiv@bexp 003F                         isa$std 000001  
               i2___fldiv@sign 0038                      ??_lcd_dat 0002                      ??_lcd_cmd 0081  
                    ??_lcd_str 0005                   __pdataCOMRAM 0077              __end_ofi2___fldiv 1592  
            __end_ofi2___flmul 0E5C              __end_ofi2___fltol 1D82             _estado_sequencia01 006E  
           _estado_sequencia02 006D              __end_ofi2___lwdiv 2498                   __mediumconst 0000  
            __end_ofi2___lwmod 2562                         tblptrh 000FF7                         tblptrl 000FF6  
             __end_of_setup_io 2672                         tblptru 000FF8              __end_ofi2_lcd_cmd 2728  
               i2___flmul@aexp 0020                 i2___flmul@bexp 0021                 i2___flmul@sign 001B  
               i2___flmul@temp 0026                 i2___flmul@prod 0022                   ?_mux_display 0001  
                 ___xxtofl@arg 008A                   ___xxtofl@exp 0089                   ___xxtofl@val 0080  
                   __accesstop 0080        __end_of__initialization 232C                 i2___fltol@exp1 004A  
               _select_channel 2794            _start_AD_conversion 27CE                  ___rparam_used 000001  
                   ___fltol@f1 00C0             i2___lwmod@dividend 0001                 __pcstackCOMRAM 0001  
                 __pidataBANK0 26E4                   __pidataBANK1 2764                  __end_of_f_pwm 2622  
                __end_of_setup 25F6           ?_start_AD_conversion 0001                      ?i2_lcd_wr 0001  
                 i2lcd_cmd@val 0002                        ??_f_pwm 0003                        ??_setup 0083  
       __end_of_select_channel 27A2                     __pbssBANK0 00EC    imprime_temperatura@old_latd 0067  
                      ?___wmul 0001               ??_interrupt_init 0080                        ?_lcd_wr 0001  
                      _CCP1CON 000FBD                        _ADC_maq 2228          ??_start_AD_conversion 0080  
                      _AD_data 0071                        _AD_init 2786                     ??i2_lcd_wr 0001  
                      _INTCON2 000FF1                        _INTCON3 000FF0                      ?___xxtofl 0080  
     __end_of_f_interrupt_high 1F6C                      ?_f_timers 0001                      ?_lcd_init 0001  
              ?_select_channel 0001                      ?_read_RPM 0001                        _Read_AD 18FE  
            ?_read_temperature 0001                        __Hparam 0000            _digito1_temperatura 006B  
                      __Lparam 0000             ??_read_temperature 00CA                      ?_setup_io 0001  
                      ___fldiv 0E5C                        ___flmul 0606                        ___fltol 1B74  
                      ___lwdiv 233A                        ___lwmod 2498                   __psmallconst 0600  
__end_of_controlador_ventoinha 2190                        __pcinit 22B4                        __ramtop 0600  
  controlador_ventoinha@heater 0065                        __ptext0 2776                        __ptext1 25B2  
                      __ptext2 27CE                        __ptext3 264C                        __ptext4 23B0  
                      __ptext5 2672                        __ptext6 27A2                        __ptext7 274A  
                      __ptext8 27AC                        __ptext9 27BE                        _lcd_dat 2728  
                      _lcd_cmd 2672                        _lcd_str 2562                   ??i2___xxtofl 0005  
                   ??___xxtofl 0084                     ??_f_timers 004F        ??i2_start_AD_conversion 0001  
                   ??_lcd_init 0082     read_RPM@contagem_de_pulsos 0066                 __pintcode_body 1E84  
         end_of_initialization 232C                     ??_read_RPM 0001                  __Lmediumconst 0000  
                      int_func 1E84                  _calculate_RPM 2698                 i2___xxtofl@arg 000B  
               i2___xxtofl@exp 000A                 i2___xxtofl@val 0001            _digito2_temperatura 006A  
           __end_ofi2___xxtofl 18FE                        postdec1 000FE5                     ??_setup_io 0080  
                      postinc0 000FEE                      _PORTEbits 000F84                  ___xxtofl@sign 0088  
                   lcd_dat@val 0002                     lcd_cmd@val 0081                    ___fldiv@grs 00BA  
                  ___fldiv@rem 00B3                i2___fltol@sign1 0049                      i2___fldiv 11F8  
                    i2___flmul 0A32                      i2___fltol 1C7C              i2___lwdiv@divisor 0003  
                    i2___lwdiv 2424                      i2___lwmod 24FE              i2___lwdiv@counter 0007  
                  ___flmul@grs 009B                 ?_calculate_RPM 0001                      i2_lcd_cmd 2706  
                   lcd_str@str 0003            _digito3_temperatura 0069                 __end_of___wmul 26E4  
                __pidataCOMRAM 27B6                 __end_of_lcd_wr 27AC              _enable_interrupts 27AC  
        select_channel@channel 0001             ?_enable_interrupts 0001            start_initialization 22B4  
                   ?i2___fldiv 0028                     ?i2___flmul 000F                     ?i2___fltol 0041  
                   ?i2___lwdiv 0001                     ?i2___lwmod 0001            ??_enable_interrupts 0080  
                   ?i2_lcd_cmd 0001            _digito4_temperatura 0068                       ??___wmul 0005  
                     ??_lcd_wr 0080                    __pdataBANK0 00CA                    __pdataBANK1 0100  
    __end_of_enable_interrupts 27B6                       ?_ADC_maq 0001                      ___fldiv@a 00AB  
                    ___fldiv@b 00A7                       ?_AD_init 0001            _imprime_temperatura 1A42  
                    ___flmul@a 0092                      ___flmul@b 008E                    __pbssCOMRAM 0057  
             ??_select_channel 0001                  __pcstackBANK0 0080              i2___lwmod@divisor 0003  
            ?_f_interrupt_high 0001              i2___lwmod@counter 0005             ??_f_interrupt_high 004F  
              ??_calculate_RPM 0007                       ?_Read_AD 0001           ?_imprime_temperatura 0001  
             ___lwdiv@dividend 0085                      __pintcode 0008    __end_of_start_AD_conversion 27D2  
                     ?___fldiv 00A7                       ?___flmul 008E                       ?___fltol 00C0  
                     ?___lwdiv 0085                       ?___lwmod 0080                       ?_lcd_dat 0001  
                     ?_lcd_cmd 0001                       ?_lcd_str 0003                    __smallconst 0600  
             ___lwdiv@quotient 0089                    ??i2___fldiv 0030                    ??i2___flmul 0017  
                  ??i2___fltol 0045                    ??i2___lwdiv 0005                    ??i2___lwmod 0005  
__end_ofi2_start_AD_conversion 27D6                    ??i2_lcd_cmd 0002                 ___wmul@product 0005  
        ??_imprime_temperatura 0008                       i2u130_40 2642                       i2u130_41 263E  
                     i2u300_40 213A                       i2u300_41 2136                       i2u301_40 2150  
                     i2u301_41 214C                       i2u302_40 2180                       i2u310_40 1FE0  
                     i2u302_41 217C                       i2u310_41 1FDC                       i2u303_40 198A  
                     i2u311_40 2012                       i2u303_41 1986                       i2u311_41 200E  
                     i2u304_40 1A1E                       i2u240_40 243E                       i2u320_40 1F38  
                     i2u312_40 1EB4                       i2u304_41 1A1A                       i2u240_41 243A  
                     i2u320_41 1F34                       i2u312_41 1EB0                       i2u233_40 1C92  
                     i2u241_40 245C                       i2u129_40 2630                       i2u321_40 1F46  
                     i2u313_40 1ED0                       i2u233_41 1C8E                       i2u241_41 2458  
                     i2u129_41 262C                       i2u321_41 1F42                       i2u313_41 1ECC  
                     i2u250_40 128A                       i2u234_40 1CC6                       i2u170_40 25B0  
                     i2u242_40 2478                       i2u314_40 1EDE                       i2u250_41 1286  
                     i2u170_41 25AC                       i2u242_41 2474                       i2u314_41 1EDA  
                    f_pwm@duty 0001                       i2u234_45 1CBC                       i2u330_47 2740  
                     i2u251_40 129A                       i2u235_40 1CF4                       i2u243_40 2510  
                     i2u315_40 1EEE                       i2u251_41 1296                       i2u235_41 1CF0  
                     i2u243_41 250C                       i2u315_41 1EEA                       i2u260_40 1454  
                     i2u252_40 12DA                       i2u236_40 1D08                       i2u244_40 252E  
                     i2u308_40 1F8C                       i2u316_40 1EFC                       i2u260_41 1450  
                     i2u252_41 12D6                       i2u236_41 1D04                       i2u244_41 252A  
                     i2u308_41 1F88                       i2u316_41 1EF8                       i2u261_40 1466  
                     i2u253_40 131A                       i2u237_40 1D30                       i2u245_40 2544  
                     i2u309_40 1FB6                       i2u317_40 1F0C                       i2u261_41 1462  
                     i2u253_41 1316                       i2u237_41 1D2C                       i2u245_41 2540  
                     i2u309_41 1FB2                       i2u317_41 1F08                       i2u262_40 1494  
                     i2u254_40 1390                       i2u246_40 1212                       i2u270_40 0A5E  
                     i2u238_40 1D50                       i2u318_40 1F1A                       i2u262_41 1490  
                     i2u254_41 138C                       i2u246_41 120E                       i2u270_41 0A5A  
                     i2u238_41 1D4C                       i2u318_41 1F16                       i2u263_40 14AA  
                     i2u255_40 13B2                       i2u247_40 1224                       i2u271_40 0A6E  
                     i2u239_40 1D60                       i2u319_40 1F2A                       i2u263_41 14A6  
                     i2u255_41 13AE                       i2u247_41 1220                       i2u271_41 0A6A  
                     i2u239_41 1D5C                       i2u319_41 1F26                       i2u327_47 2714  
                     i2u264_40 14BE                       i2u256_40 13DC                       i2u248_40 1234  
                     i2u280_40 0D1C                       i2u272_40 0AAE                       i2u264_41 14BA  
                     i2u256_41 13D8                       i2u248_41 1230                       i2u280_41 0D18  
                     i2u272_41 0AAA                       i2u328_47 271E                       i2u265_40 14D8  
                     i2u257_40 1400                       i2u249_40 1278                       i2u281_40 0D4A  
                     i2u273_40 0AC0                       i2u265_41 14D4                       i2u257_41 13FC  
                     i2u249_41 1274                       i2u281_41 0D46                       i2u273_41 0ABC  
                     i2u329_47 2736                       i2u266_40 1520                       i2u258_40 1416  
                     i2u282_40 0D60                       i2u274_40 0AD0                       i2u290_40 17C6  
                     i2u266_41 151C                       i2u258_41 1412                       i2u282_41 0D5C  
                     i2u274_41 0ACC                       i2u290_41 17C2                       i2u267_40 1550  
                     i2u259_40 1434                       i2u283_40 0D74                       i2u275_40 0B06  
                     i2u291_40 181C                       i2u267_41 154C                       i2u259_41 1430  
                     i2u283_41 0D70                       i2u275_41 0B02                       i2u291_41 1818  
                     i2u268_40 157E                       i2u284_40 0D8E                       i2u276_40 0B16  
                     i2u292_40 1866                       i2u268_41 157A                       i2u284_41 0D8A  
                     i2u276_41 0B12                       i2u292_41 1862                       i2u285_40 0DD6  
                     i2u277_40 0C90                       i2u269_40 0A4C                       i2u293_40 1884  
                     i2u285_41 0DD2                       i2u269_41 0A48                       i2u293_41 1880  
                     i2u277_45 0C86                       i2u286_40 0E04                       i2u278_40 0CEA  
                     i2u294_40 1894                       i2u286_41 0E00                       i2u278_41 0CE6  
                     i2u294_41 1890                       i2u287_40 0E3E                       i2u279_40 0D0A  
                     i2u295_40 18A2                       i2u287_41 0E3A                       i2u279_41 0D06  
                     i2u295_41 189E                       i2u296_40 18DC                       i2u288_40 175C  
                     i2u296_41 18D8                       i2u288_41 1758                       i2u297_40 18EA  
                     i2u289_40 176A                       i2u297_41 18E6                       i2u289_41 1766  
                     i2u298_40 20F8                       i2u298_41 20F4                       i2u299_40 2124  
                     i2u299_41 2120              i2___fldiv@new_exp 0039              ___wmul@multiplier 0001  
        _controlador_ventoinha 20E2                       i2_lcd_wr 27C6                      lcd_wr@val 0080  
                    copy_data0 22C8                      copy_data1 22E8                      copy_data2 2308  
                ??_mux_display 0001                       __Hrparam 0000                       __Lrparam 0000  
   __end_of_disable_interrupts 27C6                       ___xxtofl 1592                ___lwdiv@divisor 0087  
                     _f_timers 1F6C                ___lwdiv@counter 008B                       __ptext10 2786  
                     __ptext11 1D82                       __ptext20 1F6C                       __ptext12 2190  
                     __ptext21 2622                       __ptext13 1592                       __ptext30 20E2  
                     __ptext22 202C                       __ptext14 233A                       __ptext31 25F6  
                     __ptext23 1A42                       __ptext15 1B74                       __ptext40 27D2  
                     __ptext32 2698                       __ptext24 2706                       __ptext16 0606  
                     __ptext41 2794                       __ptext33 26BE                       __ptext25 24FE  
                     __ptext17 0E5C                       __ptext34 18FE                       __ptext26 2424  
                     __ptext18 2498                       __ptext35 174A                       __ptext27 2562  
                     __ptext36 1C7C                       __ptext28 2728                       __ptext37 0A32  
                     __ptext29 27C6                       __ptext38 11F8                       __ptext39 2228  
                     _conv7seg 00DB                       _lcd_init 23B0                       _display1 006F  
                     _display2 00FE                       _display3 00FD                       _display4 00FC  
                     _read_RPM 2622              mux_display@estado 006C            __end_of_mux_display 20E2  
                     isa$xinst 000000                  _temporizador1 0063                  _temporizador2 00FA  
                     _setup_io 264C                       int$flags 007F                       lcd_str@i 0007  
       ?_controlador_ventoinha 0001               _read_temperature 2190                       intlevel2 0000  
              i2___xxtofl@sign 0009               ___lwmod@dividend 0080                    _temperature 00F8  
              ___lwmod@divisor 0082                 _interrupt_init 274A                ___lwmod@counter 0084  
                  _mux_display 202C          __end_of_calculate_RPM 26BE  
