

Microchip MPLAB XC8 Assembler V2.40 build 20220703182018 
                                                                                               Wed Nov 09 19:47:12 2022

Microchip MPLAB XC8 C Compiler v2.40 (Free license) build 20220703182018 Og1 
     1                           	processor	18F4520
     2                           	fnconf	rparam,??,?,0
     3                           	pagewidth 120
     4                           	opt	flic
     5                           	psect	idataCOMRAM,global,class=CODE,delta=1,noexec
     6                           	psect	nvCOMRAM,global,class=COMRAM,space=1,delta=1,lowdata,noexec
     7                           	psect	cinit,global,reloc=2,class=CODE,delta=1
     8                           	psect	bssCOMRAM,global,class=COMRAM,space=1,delta=1,lowdata,noexec
     9                           	psect	dataCOMRAM,global,class=COMRAM,space=1,delta=1,lowdata,noexec
    10                           	psect	cstackCOMRAM,global,class=COMRAM,space=1,delta=1,lowdata,noexec
    11                           	psect	text0,global,reloc=2,class=CODE,delta=1
    12                           	psect	text1,global,reloc=2,class=CODE,delta=1
    13                           	psect	text2,global,reloc=2,class=CODE,delta=1
    14                           	psect	text3,global,reloc=2,class=CODE,delta=1
    15                           	psect	text4,global,reloc=2,class=CODE,delta=1
    16                           	psect	text5,global,reloc=2,class=CODE,delta=1
    17                           	psect	text6,global,reloc=2,class=CODE,delta=1
    18                           	psect	text7,global,reloc=2,class=CODE,delta=1
    19                           	psect	text8,global,reloc=2,class=CODE,delta=1
    20                           	psect	intcode,global,reloc=2,class=CODE,delta=1
    21                           	psect	intcode_body,global,reloc=2,class=CODE,delta=1
    22                           	psect	text10,global,reloc=2,class=CODE,delta=1
    23                           	psect	text11,global,reloc=2,class=CODE,delta=1
    24                           	psect	text12,global,reloc=2,class=CODE,delta=1
    25                           	psect	text13,global,reloc=2,class=CODE,delta=1
    26                           	psect	text14,global,reloc=2,class=CODE,delta=1
    27                           	psect	text15,global,reloc=2,class=CODE,delta=1
    28                           	psect	text16,global,reloc=2,class=CODE,delta=1
    29                           	psect	text17,global,reloc=2,class=CODE,delta=1
    30                           	psect	text18,global,reloc=2,class=CODE,delta=1
    31                           	psect	text19,global,reloc=2,class=CODE,delta=1
    32                           	psect	text20,global,reloc=2,class=CODE,delta=1
    33                           	psect	text21,global,reloc=2,class=CODE,delta=1
    34                           	psect	text22,global,reloc=2,class=CODE,delta=1
    35                           	psect	text23,global,reloc=2,class=CODE,delta=1
    36                           	psect	text24,global,reloc=2,class=CODE,delta=1
    37                           	psect	text25,global,reloc=2,class=CODE,delta=1
    38                           	psect	text26,global,reloc=2,class=CODE,delta=1
    39                           	psect	intsave_regs,global,class=BIGRAM,space=1,delta=1,noexec
    40                           	psect	rparam,global,class=COMRAM,space=1,delta=1,noexec
    41                           	psect	temp,global,ovrld,common,class=COMRAM,space=1,delta=1
    42                           	psect	idloc,global,abs,ovrld,class=IDLOC,space=5,delta=1,noexec
    43                           	psect	config,global,abs,ovrld,class=CONFIG,space=4,delta=1,noexec
    44   000000                     
    45                           ; Version 2.40
    46                           ; Generated 17/11/2021 GMT
    47                           ; 
    48                           ; Copyright © 2021, Microchip Technology Inc. and its subsidiaries ("Microchip")
    49                           ; All rights reserved.
    50                           ; 
    51                           ; This software is developed by Microchip Technology Inc. and its subsidiaries ("Microch
      +                          ip").
    52                           ; 
    53                           ; Redistribution and use in source and binary forms, with or without modification, are
    54                           ; permitted provided that the following conditions are met:
    55                           ; 
    56                           ;     1. Redistributions of source code must retain the above copyright notice, this lis
      +                          t of
    57                           ;        conditions and the following disclaimer.
    58                           ; 
    59                           ;     2. Redistributions in binary form must reproduce the above copyright notice, this 
      +                          list
    60                           ;        of conditions and the following disclaimer in the documentation and/or other
    61                           ;        materials provided with the distribution. Publication is not required when
    62                           ;        this file is used in an embedded application.
    63                           ; 
    64                           ;     3. Microchip's name may not be used to endorse or promote products derived from th
      +                          is
    65                           ;        software without specific prior written permission.
    66                           ; 
    67                           ; THIS SOFTWARE IS PROVIDED BY MICROCHIP "AS IS" AND ANY EXPRESS OR IMPLIED WARRANTIES,
    68                           ; INCLUDING, BUT NOT LIMITED TO, THE IMPLIED WARRANTIES OF MERCHANTABILITY AND FITNESS F
      +                          OR
    69                           ; PURPOSE ARE DISCLAIMED.  IN NO EVENT SHALL MICROCHIP BE LIABLE FOR ANY DIRECT, INDIREC
      +                          T,
    70                           ; INCIDENTAL, SPECIAL, EXEMPLARY, OR CONSEQUENTIAL DAMAGES (INCLUDING BUT NOT LIMITED TO
    71                           ; PROCUREMENT OF SUBSTITUTE GOODS OR SERVICES; LOSS OF USE, DATA OR PROFITS; OR BUSINESS
    72                           ; INTERRUPTION) HOWSOEVER CAUSED AND ON ANY THEORY OF LIABILITY, WHETHER IN CONTRACT, ST
      +                          RICT
    73                           ; LIABILITY, OR TORT (INCLUDING NEGLIGENCE OR OTHERWISE) ARISING IN ANY WAY OUT OF THE U
      +                          SE OF
    74                           ; THIS SOFTWARE, EVEN IF ADVISED OF THE POSSIBILITY OF SUCH DAMAGE.
    75                           ; 
    76                           ; 
    77                           ; Code-generator required, PIC18F4520 Definitions
    78                           ; 
    79                           ; SFR Addresses
    80   000000                     
    81                           	psect	idataCOMRAM
    82   0009C0                     __pidataCOMRAM:
    83                           	callstack 0
    84                           
    85                           ;initializer for _conv7seg
    86   0009C0  3F                 	db	63
    87   0009C1  06                 	db	6
    88   0009C2  5B                 	db	91
    89   0009C3  4F                 	db	79
    90   0009C4  66                 	db	102
    91   0009C5  6D                 	db	109
    92   0009C6  7D                 	db	125
    93   0009C7  07                 	db	7
    94   0009C8  7F                 	db	127
    95   0009C9  6F                 	db	111
    96   0009CA  77                 	db	119
    97   0009CB  7C                 	db	124
    98   0009CC  39                 	db	57
    99   0009CD  5E                 	db	94
   100   0009CE  79                 	db	121
   101   0009CF  71                 	db	113
   102   0009D0  00                 	db	0
   103                           
   104                           ;initializer for f_timers@counter3
   105   0009D1  0001               	dw	1
   106                           
   107                           ;initializer for f_timers@counter2
   108   0009D3  0001               	dw	1
   109                           
   110                           ;initializer for f_timers@counter1
   111   0009D5  0001               	dw	1
   112                           
   113                           ;initializer for f_timers@counter0
   114   0009D7  0001               	dw	1
   115                           
   116                           ;initializer for read_keyb@m_dado_RB5
   117   0009D9  01                 	db	1
   118                           
   119                           ;initializer for read_keyb@m_dado_RB4
   120   0009DA  01                 	db	1
   121                           
   122                           ;initializer for read_keyb@m_dado_RB3
   123   0009DB  01                 	db	1
   124                           
   125                           ;initializer for _pausa_ou_continua
   126   0009DC  01                 	db	1
   127                           
   128                           	psect	nvCOMRAM
   129   000036                     __pnvCOMRAM:
   130                           	callstack 0
   131   000036                     _temporizador2:
   132                           	callstack 0
   133   000036                     	ds	2
   134   000038                     _temporizador1:
   135                           	callstack 0
   136   000038                     	ds	2
   137   000000                     _INTCON	set	4082
   138   000000                     _LATA	set	3977
   139   000000                     _LATB7	set	31831
   140   000000                     _LATB6	set	31830
   141   000000                     _LATB2	set	31826
   142   000000                     _LATB1	set	31825
   143   000000                     _LATB0	set	31824
   144   000000                     _TMR0IE	set	32661
   145   000000                     _PEIE	set	32662
   146   000000                     _GIE	set	32663
   147   000000                     _LATA4	set	31820
   148   000000                     _LATA3	set	31819
   149   000000                     _LATA5	set	31821
   150   000000                     _GO	set	32273
   151   000000                     _PORTB	set	3969
   152   000000                     _ADCON2	set	4032
   153   000000                     _ADCON1	set	4033
   154   000000                     _ADCON0	set	4034
   155   000000                     _LATA2	set	31818
   156   000000                     _ADRESH	set	4036
   157   000000                     _TMR0	set	4054
   158   000000                     _IPEN	set	32391
   159   000000                     _TMR0IF	set	32658
   160   000000                     _LATB	set	3978
   161   000000                     _LATD	set	3980
   162   000000                     _TRISA	set	3986
   163   000000                     _TRISD	set	3989
   164   000000                     _TRISB	set	3987
   165   000000                     _ADIE	set	31982
   166   000000                     _ADIF	set	31990
   167   000000                     _INTCON3	set	4080
   168   000000                     _INTCON2	set	4081
   169   000000                     _T0CON	set	4053
   170                           
   171                           ; #config settings
   172                           
   173                           	psect	cinit
   174   0008D6                     __pcinit:
   175                           	callstack 0
   176   0008D6                     start_initialization:
   177                           	callstack 0
   178   0008D6                     __initialization:
   179                           	callstack 0
   180                           
   181                           ; Initialize objects allocated to COMRAM (29 bytes)
   182                           ; load TBLPTR registers with __pidataCOMRAM
   183   0008D6  0EC0               	movlw	low __pidataCOMRAM
   184   0008D8  6EF6               	movwf	tblptrl,c
   185   0008DA  0E09               	movlw	high __pidataCOMRAM
   186   0008DC  6EF7               	movwf	tblptrh,c
   187   0008DE  0E00               	movlw	low (__pidataCOMRAM shr (0+16))
   188   0008E0  6EF8               	movwf	tblptru,c
   189   0008E2  EE00  F001         	lfsr	0,__pdataCOMRAM
   190   0008E6  EE10 F01D          	lfsr	1,29
   191   0008EA                     copy_data0:
   192   0008EA  0009               	tblrd		*+
   193   0008EC  CFF5 FFEE          	movff	tablat,postinc0
   194   0008F0  50E5               	movf	postdec1,w,c
   195   0008F2  50E1               	movf	fsr1l,w,c
   196   0008F4  E1FA               	bnz	copy_data0
   197                           
   198                           ; Clear objects allocated to COMRAM (16 bytes)
   199   0008F6  EE00  F01E         	lfsr	0,__pbssCOMRAM
   200   0008FA  0E10               	movlw	16
   201   0008FC                     clear_0:
   202   0008FC  6AEE               	clrf	postinc0,c
   203   0008FE  06E8               	decf	wreg,f,c
   204   000900  E1FD               	bnz	clear_0
   205   000902                     end_of_initialization:
   206                           	callstack 0
   207   000902                     __end_of__initialization:
   208                           	callstack 0
   209   000902  903A               	bcf	int$flags,0,c	;clear compiler interrupt flag (level 1)
   210   000904  923A               	bcf	int$flags,1,c	;clear compiler interrupt flag (level 2)
   211   000906  0E00               	movlw	low (__Lmediumconst shr (0+16))
   212   000908  6EF8               	movwf	tblptru,c
   213   00090A  0100               	movlb	0
   214   00090C  EF09  F005         	goto	_main	;jump to C main() function
   215                           
   216                           	psect	bssCOMRAM
   217   00001E                     __pbssCOMRAM:
   218                           	callstack 0
   219   00001E                     _AD_data:
   220                           	callstack 0
   221   00001E                     	ds	2
   222   000020                     f_int2@sentido2:
   223                           	callstack 0
   224   000020                     	ds	1
   225   000021                     f_int1@sentido1:
   226                           	callstack 0
   227   000021                     	ds	1
   228   000022                     f_int0@estado:
   229                           	callstack 0
   230   000022                     	ds	1
   231   000023                     Read_AD@Valor_AD0:
   232                           	callstack 0
   233   000023                     	ds	1
   234   000024                     _sequencia_2:
   235                           	callstack 0
   236   000024                     	ds	1
   237   000025                     _sequencia_1:
   238                           	callstack 0
   239   000025                     	ds	1
   240   000026                     mux_display@estado:
   241                           	callstack 0
   242   000026                     	ds	1
   243   000027                     _estado_sequencia02:
   244                           	callstack 0
   245   000027                     	ds	1
   246   000028                     _estado_sequencia01:
   247                           	callstack 0
   248   000028                     	ds	1
   249   000029                     _display4:
   250                           	callstack 0
   251   000029                     	ds	1
   252   00002A                     _display3:
   253                           	callstack 0
   254   00002A                     	ds	1
   255   00002B                     _display2:
   256                           	callstack 0
   257   00002B                     	ds	1
   258   00002C                     _display1:
   259                           	callstack 0
   260   00002C                     	ds	1
   261   00002D                     ADC_maq@estado:
   262                           	callstack 0
   263   00002D                     	ds	1
   264                           
   265                           	psect	dataCOMRAM
   266   000001                     __pdataCOMRAM:
   267                           	callstack 0
   268   000001                     _conv7seg:
   269                           	callstack 0
   270   000001                     	ds	17
   271   000012                     f_timers@counter3:
   272                           	callstack 0
   273   000012                     	ds	2
   274   000014                     f_timers@counter2:
   275                           	callstack 0
   276   000014                     	ds	2
   277   000016                     f_timers@counter1:
   278                           	callstack 0
   279   000016                     	ds	2
   280   000018                     f_timers@counter0:
   281                           	callstack 0
   282   000018                     	ds	2
   283   00001A                     read_keyb@m_dado_RB5:
   284                           	callstack 0
   285   00001A                     	ds	1
   286   00001B                     read_keyb@m_dado_RB4:
   287                           	callstack 0
   288   00001B                     	ds	1
   289   00001C                     read_keyb@m_dado_RB3:
   290                           	callstack 0
   291   00001C                     	ds	1
   292   00001D                     _pausa_ou_continua:
   293                           	callstack 0
   294   00001D                     	ds	1
   295                           
   296                           	psect	cstackCOMRAM
   297   00002E                     __pcstackCOMRAM:
   298                           	callstack 0
   299   00002E                     ??_Read_AD:
   300   00002E                     ??_mux_display:
   301   00002E                     ??_cont1_crescente:
   302   00002E                     ??_cont1_decrescente:
   303   00002E                     ??_cont2_crescente:
   304   00002E                     ??_cont2_decrescente:
   305   00002E                     ??_f_int0:
   306   00002E                     select_channel@channel:
   307                           	callstack 0
   308                           
   309                           ; 1 bytes @ 0x0
   310   00002E                     	ds	1
   311   00002F                     ??_ADC_maq:
   312                           
   313                           ; 1 bytes @ 0x1
   314   00002F                     	ds	1
   315   000030                     read_keyb@dado_RB3:
   316                           	callstack 0
   317                           
   318                           ; 1 bytes @ 0x2
   319   000030                     	ds	1
   320   000031                     read_keyb@dado_RB4:
   321                           	callstack 0
   322                           
   323                           ; 1 bytes @ 0x3
   324   000031                     	ds	1
   325   000032                     read_keyb@dado_RB5:
   326                           	callstack 0
   327                           
   328                           ; 1 bytes @ 0x4
   329   000032                     	ds	1
   330   000033                     read_keyb@dado:
   331                           	callstack 0
   332                           
   333                           ; 1 bytes @ 0x5
   334   000033                     	ds	1
   335   000034                     ??_f_interrupt_high:
   336                           
   337                           ; 1 bytes @ 0x6
   338   000034                     	ds	2
   339   000036                     
   340                           ; 1 bytes @ 0x8
   341 ;;
   342 ;;Main: autosize = 0, tempsize = 0, incstack = 0, save=0
   343 ;;
   344 ;; *************** function _main *****************
   345 ;; Defined at:
   346 ;;		line 27 in file "P1_GA.c"
   347 ;; Parameters:    Size  Location     Type
   348 ;;		None
   349 ;; Auto vars:     Size  Location     Type
   350 ;;		None
   351 ;; Return value:  Size  Location     Type
   352 ;;                  2  293[None  ] int 
   353 ;; Registers used:
   354 ;;		wreg, status,2, cstack
   355 ;; Tracked objects:
   356 ;;		On entry : 0/0
   357 ;;		On exit  : 0/0
   358 ;;		Unchanged: 0/0
   359 ;; Data sizes:     COMRAM   BANK0   BANK1   BANK2   BANK3   BANK4   BANK5
   360 ;;      Params:         0       0       0       0       0       0       0
   361 ;;      Locals:         0       0       0       0       0       0       0
   362 ;;      Temps:          0       0       0       0       0       0       0
   363 ;;      Totals:         0       0       0       0       0       0       0
   364 ;;Total ram usage:        0 bytes
   365 ;; Hardware stack levels required when called: 6
   366 ;; This function calls:
   367 ;;		_loop
   368 ;;		_setup
   369 ;; This function is called by:
   370 ;;		Startup code after reset
   371 ;; This function uses a non-reentrant model
   372 ;;
   373                           
   374                           	psect	text0
   375   000A12                     __ptext0:
   376                           	callstack 0
   377   000A12                     _main:
   378                           	callstack 25
   379   000A12                     
   380                           ;P1_GA.c: 28:     setup();
   381   000A12  EC4A  F004         	call	_setup	;wreg free
   382   000A16                     l1478:
   383   000A16  EC2C  F005         	call	_loop	;wreg free
   384   000A1A  EF0B  F005         	goto	l1478
   385   000A1E  EF07  F000         	goto	start
   386   000A22                     __end_of_main:
   387                           	callstack 0
   388                           
   389 ;; *************** function _setup *****************
   390 ;; Defined at:
   391 ;;		line 13 in file "IOs.c"
   392 ;; Parameters:    Size  Location     Type
   393 ;;		None
   394 ;; Auto vars:     Size  Location     Type
   395 ;;		None
   396 ;; Return value:  Size  Location     Type
   397 ;;                  1    wreg      void 
   398 ;; Registers used:
   399 ;;		wreg, status,2, cstack
   400 ;; Tracked objects:
   401 ;;		On entry : 0/0
   402 ;;		On exit  : 0/0
   403 ;;		Unchanged: 0/0
   404 ;; Data sizes:     COMRAM   BANK0   BANK1   BANK2   BANK3   BANK4   BANK5
   405 ;;      Params:         0       0       0       0       0       0       0
   406 ;;      Locals:         0       0       0       0       0       0       0
   407 ;;      Temps:          0       0       0       0       0       0       0
   408 ;;      Totals:         0       0       0       0       0       0       0
   409 ;;Total ram usage:        0 bytes
   410 ;; Hardware stack levels used: 1
   411 ;; Hardware stack levels required when called: 5
   412 ;; This function calls:
   413 ;;		_AD_init
   414 ;;		_disable_interrupts
   415 ;;		_enable_interrupts
   416 ;;		_interrupt_init
   417 ;;		_setup_io
   418 ;;		_start_AD_conversion
   419 ;; This function is called by:
   420 ;;		_main
   421 ;; This function uses a non-reentrant model
   422 ;;
   423                           
   424                           	psect	text1
   425   000894                     __ptext1:
   426                           	callstack 0
   427   000894                     _setup:
   428                           	callstack 25
   429   000894                     
   430                           ;IOs.c: 14:     disable_interrupts();
   431   000894  EC24  F005         	call	_disable_interrupts	;wreg free
   432   000898                     
   433                           ;IOs.c: 15:     setup_io();
   434   000898  ECEF  F004         	call	_setup_io	;wreg free
   435   00089C                     
   436                           ;IOs.c: 16:     interrupt_init();
   437   00089C  ECFC  F004         	call	_interrupt_init	;wreg free
   438   0008A0                     
   439                           ;IOs.c: 17:     AD_init();
   440   0008A0  EC11  F005         	call	_AD_init	;wreg free
   441   0008A4                     
   442                           ;IOs.c: 18:     LATA2 = 1, LATA3 = 1, LATA4 = 1, LATA5 = 1;
   443   0008A4  8489               	bsf	3977,2,c	;volatile
   444   0008A6  8689               	bsf	3977,3,c	;volatile
   445   0008A8  8889               	bsf	3977,4,c	;volatile
   446   0008AA  8A89               	bsf	3977,5,c	;volatile
   447                           
   448                           ;IOs.c: 19:     temporizador1 = 300;
   449   0008AC  0E01               	movlw	1
   450   0008AE  6E39               	movwf	(_temporizador1+1)^0,c
   451   0008B0  0E2C               	movlw	44
   452   0008B2  6E38               	movwf	_temporizador1^0,c
   453                           
   454                           ;IOs.c: 20:     temporizador2 = 300;
   455   0008B4  0E01               	movlw	1
   456   0008B6  6E37               	movwf	(_temporizador2+1)^0,c
   457   0008B8  0E2C               	movlw	44
   458   0008BA  6E36               	movwf	_temporizador2^0,c
   459   0008BC                     
   460                           ;IOs.c: 21:     start_AD_conversion();
   461   0008BC  EC28  F005         	call	_start_AD_conversion	;wreg free
   462   0008C0                     
   463                           ;IOs.c: 22:     display1 = 0;
   464   0008C0  0E00               	movlw	0
   465   0008C2  6E2C               	movwf	_display1^0,c
   466   0008C4                     
   467                           ;IOs.c: 23:     display2 = 0;
   468   0008C4  0E00               	movlw	0
   469   0008C6  6E2B               	movwf	_display2^0,c
   470   0008C8                     
   471                           ;IOs.c: 24:     display3 = 0;
   472   0008C8  0E00               	movlw	0
   473   0008CA  6E2A               	movwf	_display3^0,c
   474   0008CC                     
   475                           ;IOs.c: 25:     display4 = 0;
   476   0008CC  0E00               	movlw	0
   477   0008CE  6E29               	movwf	_display4^0,c
   478   0008D0                     
   479                           ;IOs.c: 26:     enable_interrupts();
   480   0008D0  EC1F  F005         	call	_enable_interrupts	;wreg free
   481   0008D4  0012               	return		;funcret
   482   0008D6                     __end_of_setup:
   483                           	callstack 0
   484                           
   485 ;; *************** function _start_AD_conversion *****************
   486 ;; Defined at:
   487 ;;		line 19 in file "ADC.c"
   488 ;; Parameters:    Size  Location     Type
   489 ;;		None
   490 ;; Auto vars:     Size  Location     Type
   491 ;;		None
   492 ;; Return value:  Size  Location     Type
   493 ;;                  1    wreg      void 
   494 ;; Registers used:
   495 ;;		None
   496 ;; Tracked objects:
   497 ;;		On entry : 0/0
   498 ;;		On exit  : 0/0
   499 ;;		Unchanged: 0/0
   500 ;; Data sizes:     COMRAM   BANK0   BANK1   BANK2   BANK3   BANK4   BANK5
   501 ;;      Params:         0       0       0       0       0       0       0
   502 ;;      Locals:         0       0       0       0       0       0       0
   503 ;;      Temps:          0       0       0       0       0       0       0
   504 ;;      Totals:         0       0       0       0       0       0       0
   505 ;;Total ram usage:        0 bytes
   506 ;; Hardware stack levels used: 1
   507 ;; Hardware stack levels required when called: 4
   508 ;; This function calls:
   509 ;;		Nothing
   510 ;; This function is called by:
   511 ;;		_setup
   512 ;; This function uses a non-reentrant model
   513 ;;
   514                           
   515                           	psect	text2
   516   000A50                     __ptext2:
   517                           	callstack 0
   518   000A50                     _start_AD_conversion:
   519                           	callstack 25
   520   000A50                     
   521                           ;ADC.c: 21:     GO = 1;
   522   000A50  82C2               	bsf	4034,1,c	;volatile
   523   000A52  0012               	return		;funcret
   524   000A54                     __end_of_start_AD_conversion:
   525                           	callstack 0
   526                           
   527 ;; *************** function _setup_io *****************
   528 ;; Defined at:
   529 ;;		line 30 in file "IOs.c"
   530 ;; Parameters:    Size  Location     Type
   531 ;;		None
   532 ;; Auto vars:     Size  Location     Type
   533 ;;		None
   534 ;; Return value:  Size  Location     Type
   535 ;;                  1    wreg      void 
   536 ;; Registers used:
   537 ;;		wreg, status,2
   538 ;; Tracked objects:
   539 ;;		On entry : 0/0
   540 ;;		On exit  : 0/0
   541 ;;		Unchanged: 0/0
   542 ;; Data sizes:     COMRAM   BANK0   BANK1   BANK2   BANK3   BANK4   BANK5
   543 ;;      Params:         0       0       0       0       0       0       0
   544 ;;      Locals:         0       0       0       0       0       0       0
   545 ;;      Temps:          0       0       0       0       0       0       0
   546 ;;      Totals:         0       0       0       0       0       0       0
   547 ;;Total ram usage:        0 bytes
   548 ;; Hardware stack levels used: 1
   549 ;; Hardware stack levels required when called: 4
   550 ;; This function calls:
   551 ;;		Nothing
   552 ;; This function is called by:
   553 ;;		_setup
   554 ;; This function uses a non-reentrant model
   555 ;;
   556                           
   557                           	psect	text3
   558   0009DE                     __ptext3:
   559                           	callstack 0
   560   0009DE                     _setup_io:
   561                           	callstack 25
   562   0009DE                     
   563                           ;IOs.c: 31:     TRISA = 0b11000011;
   564   0009DE  0EC3               	movlw	195
   565   0009E0  6E92               	movwf	146,c	;volatile
   566                           
   567                           ;IOs.c: 32:     TRISB = 0b00111000;
   568   0009E2  0E38               	movlw	56
   569   0009E4  6E93               	movwf	147,c	;volatile
   570                           
   571                           ;IOs.c: 33:     TRISD = 0b00000000;
   572   0009E6  0E00               	movlw	0
   573   0009E8  6E95               	movwf	149,c	;volatile
   574                           
   575                           ;IOs.c: 34:     LATA = 0b00000000;
   576   0009EA  0E00               	movlw	0
   577   0009EC  6E89               	movwf	137,c	;volatile
   578                           
   579                           ;IOs.c: 35:     LATD = 0b00000000;
   580   0009EE  0E00               	movlw	0
   581   0009F0  6E8C               	movwf	140,c	;volatile
   582                           
   583                           ;IOs.c: 36:     LATB = 0b00000000;
   584   0009F2  0E00               	movlw	0
   585   0009F4  6E8A               	movwf	138,c	;volatile
   586   0009F6  0012               	return		;funcret
   587   0009F8                     __end_of_setup_io:
   588                           	callstack 0
   589                           
   590 ;; *************** function _interrupt_init *****************
   591 ;; Defined at:
   592 ;;		line 58 in file "Interrupts.c"
   593 ;; Parameters:    Size  Location     Type
   594 ;;		None
   595 ;; Auto vars:     Size  Location     Type
   596 ;;		None
   597 ;; Return value:  Size  Location     Type
   598 ;;                  1    wreg      void 
   599 ;; Registers used:
   600 ;;		wreg, status,2
   601 ;; Tracked objects:
   602 ;;		On entry : 0/0
   603 ;;		On exit  : 0/0
   604 ;;		Unchanged: 0/0
   605 ;; Data sizes:     COMRAM   BANK0   BANK1   BANK2   BANK3   BANK4   BANK5
   606 ;;      Params:         0       0       0       0       0       0       0
   607 ;;      Locals:         0       0       0       0       0       0       0
   608 ;;      Temps:          0       0       0       0       0       0       0
   609 ;;      Totals:         0       0       0       0       0       0       0
   610 ;;Total ram usage:        0 bytes
   611 ;; Hardware stack levels used: 1
   612 ;; Hardware stack levels required when called: 4
   613 ;; This function calls:
   614 ;;		Nothing
   615 ;; This function is called by:
   616 ;;		_setup
   617 ;; This function uses a non-reentrant model
   618 ;;
   619                           
   620                           	psect	text4
   621   0009F8                     __ptext4:
   622                           	callstack 0
   623   0009F8                     _interrupt_init:
   624                           	callstack 25
   625   0009F8                     
   626                           ;Interrupts.c: 60:     INTCON = 0b10010000;
   627   0009F8  0E90               	movlw	144
   628   0009FA  6EF2               	movwf	242,c	;volatile
   629                           
   630                           ;Interrupts.c: 61:     INTCON2 = 0b00000101;
   631   0009FC  0E05               	movlw	5
   632   0009FE  6EF1               	movwf	241,c	;volatile
   633                           
   634                           ;Interrupts.c: 62:     INTCON3 = 0b11011000;
   635   000A00  0ED8               	movlw	216
   636   000A02  6EF0               	movwf	240,c	;volatile
   637                           
   638                           ;Interrupts.c: 63:     T0CON = 0b11000001;
   639   000A04  0EC1               	movlw	193
   640   000A06  6ED5               	movwf	213,c	;volatile
   641                           
   642                           ;Interrupts.c: 69:     TMR0 = 0x06;
   643   000A08  0E00               	movlw	0
   644   000A0A  6ED7               	movwf	215,c	;volatile
   645   000A0C  0E06               	movlw	6
   646   000A0E  6ED6               	movwf	214,c	;volatile
   647   000A10  0012               	return		;funcret
   648   000A12                     __end_of_interrupt_init:
   649                           	callstack 0
   650                           
   651 ;; *************** function _enable_interrupts *****************
   652 ;; Defined at:
   653 ;;		line 51 in file "Interrupts.c"
   654 ;; Parameters:    Size  Location     Type
   655 ;;		None
   656 ;; Auto vars:     Size  Location     Type
   657 ;;		None
   658 ;; Return value:  Size  Location     Type
   659 ;;                  1    wreg      void 
   660 ;; Registers used:
   661 ;;		None
   662 ;; Tracked objects:
   663 ;;		On entry : 0/0
   664 ;;		On exit  : 0/0
   665 ;;		Unchanged: 0/0
   666 ;; Data sizes:     COMRAM   BANK0   BANK1   BANK2   BANK3   BANK4   BANK5
   667 ;;      Params:         0       0       0       0       0       0       0
   668 ;;      Locals:         0       0       0       0       0       0       0
   669 ;;      Temps:          0       0       0       0       0       0       0
   670 ;;      Totals:         0       0       0       0       0       0       0
   671 ;;Total ram usage:        0 bytes
   672 ;; Hardware stack levels used: 1
   673 ;; Hardware stack levels required when called: 4
   674 ;; This function calls:
   675 ;;		Nothing
   676 ;; This function is called by:
   677 ;;		_setup
   678 ;; This function uses a non-reentrant model
   679 ;;
   680                           
   681                           	psect	text5
   682   000A3E                     __ptext5:
   683                           	callstack 0
   684   000A3E                     _enable_interrupts:
   685                           	callstack 25
   686   000A3E                     
   687                           ;Interrupts.c: 52:     TMR0IE = 1;
   688   000A3E  8AF2               	bsf	4082,5,c	;volatile
   689                           
   690                           ;Interrupts.c: 53:     ADIE = 1;
   691   000A40  8C9D               	bsf	3997,6,c	;volatile
   692                           
   693                           ;Interrupts.c: 54:     PEIE = 1;
   694   000A42  8CF2               	bsf	4082,6,c	;volatile
   695                           
   696                           ;Interrupts.c: 55:     GIE = 1;
   697   000A44  8EF2               	bsf	4082,7,c	;volatile
   698   000A46  0012               	return		;funcret
   699   000A48                     __end_of_enable_interrupts:
   700                           	callstack 0
   701                           
   702 ;; *************** function _disable_interrupts *****************
   703 ;; Defined at:
   704 ;;		line 45 in file "Interrupts.c"
   705 ;; Parameters:    Size  Location     Type
   706 ;;		None
   707 ;; Auto vars:     Size  Location     Type
   708 ;;		None
   709 ;; Return value:  Size  Location     Type
   710 ;;                  1    wreg      void 
   711 ;; Registers used:
   712 ;;		None
   713 ;; Tracked objects:
   714 ;;		On entry : 0/0
   715 ;;		On exit  : 0/0
   716 ;;		Unchanged: 0/0
   717 ;; Data sizes:     COMRAM   BANK0   BANK1   BANK2   BANK3   BANK4   BANK5
   718 ;;      Params:         0       0       0       0       0       0       0
   719 ;;      Locals:         0       0       0       0       0       0       0
   720 ;;      Temps:          0       0       0       0       0       0       0
   721 ;;      Totals:         0       0       0       0       0       0       0
   722 ;;Total ram usage:        0 bytes
   723 ;; Hardware stack levels used: 1
   724 ;; Hardware stack levels required when called: 4
   725 ;; This function calls:
   726 ;;		Nothing
   727 ;; This function is called by:
   728 ;;		_setup
   729 ;; This function uses a non-reentrant model
   730 ;;
   731                           
   732                           	psect	text6
   733   000A48                     __ptext6:
   734                           	callstack 0
   735   000A48                     _disable_interrupts:
   736                           	callstack 25
   737   000A48                     
   738                           ;Interrupts.c: 46:     IPEN = 0;
   739   000A48  9ED0               	bcf	4048,7,c	;volatile
   740                           
   741                           ;Interrupts.c: 47:     GIE = 0;
   742   000A4A  9EF2               	bcf	4082,7,c	;volatile
   743                           
   744                           ;Interrupts.c: 48:     PEIE = 0;
   745   000A4C  9CF2               	bcf	4082,6,c	;volatile
   746   000A4E  0012               	return		;funcret
   747   000A50                     __end_of_disable_interrupts:
   748                           	callstack 0
   749                           
   750 ;; *************** function _AD_init *****************
   751 ;; Defined at:
   752 ;;		line 12 in file "ADC.c"
   753 ;; Parameters:    Size  Location     Type
   754 ;;		None
   755 ;; Auto vars:     Size  Location     Type
   756 ;;		None
   757 ;; Return value:  Size  Location     Type
   758 ;;                  1    wreg      void 
   759 ;; Registers used:
   760 ;;		wreg, status,2
   761 ;; Tracked objects:
   762 ;;		On entry : 0/0
   763 ;;		On exit  : 0/0
   764 ;;		Unchanged: 0/0
   765 ;; Data sizes:     COMRAM   BANK0   BANK1   BANK2   BANK3   BANK4   BANK5
   766 ;;      Params:         0       0       0       0       0       0       0
   767 ;;      Locals:         0       0       0       0       0       0       0
   768 ;;      Temps:          0       0       0       0       0       0       0
   769 ;;      Totals:         0       0       0       0       0       0       0
   770 ;;Total ram usage:        0 bytes
   771 ;; Hardware stack levels used: 1
   772 ;; Hardware stack levels required when called: 4
   773 ;; This function calls:
   774 ;;		Nothing
   775 ;; This function is called by:
   776 ;;		_setup
   777 ;; This function uses a non-reentrant model
   778 ;;
   779                           
   780                           	psect	text7
   781   000A22                     __ptext7:
   782                           	callstack 0
   783   000A22                     _AD_init:
   784                           	callstack 25
   785   000A22                     
   786                           ;ADC.c: 14:     ADCON0 = 0b00000001;
   787   000A22  0E01               	movlw	1
   788   000A24  6EC2               	movwf	194,c	;volatile
   789                           
   790                           ;ADC.c: 15:     ADCON1 = 0b00001101;
   791   000A26  0E0D               	movlw	13
   792   000A28  6EC1               	movwf	193,c	;volatile
   793                           
   794                           ;ADC.c: 16:     ADCON2 = 0b00010100;
   795   000A2A  0E14               	movlw	20
   796   000A2C  6EC0               	movwf	192,c	;volatile
   797   000A2E  0012               	return		;funcret
   798   000A30                     __end_of_AD_init:
   799                           	callstack 0
   800                           
   801 ;; *************** function _loop *****************
   802 ;; Defined at:
   803 ;;		line 111 in file "P1_GA.c"
   804 ;; Parameters:    Size  Location     Type
   805 ;;		None
   806 ;; Auto vars:     Size  Location     Type
   807 ;;		None
   808 ;; Return value:  Size  Location     Type
   809 ;;                  1    wreg      void 
   810 ;; Registers used:
   811 ;;		None
   812 ;; Tracked objects:
   813 ;;		On entry : 0/0
   814 ;;		On exit  : 0/0
   815 ;;		Unchanged: 0/0
   816 ;; Data sizes:     COMRAM   BANK0   BANK1   BANK2   BANK3   BANK4   BANK5
   817 ;;      Params:         0       0       0       0       0       0       0
   818 ;;      Locals:         0       0       0       0       0       0       0
   819 ;;      Temps:          0       0       0       0       0       0       0
   820 ;;      Totals:         0       0       0       0       0       0       0
   821 ;;Total ram usage:        0 bytes
   822 ;; Hardware stack levels used: 1
   823 ;; Hardware stack levels required when called: 4
   824 ;; This function calls:
   825 ;;		Nothing
   826 ;; This function is called by:
   827 ;;		_main
   828 ;; This function uses a non-reentrant model
   829 ;;
   830                           
   831                           	psect	text8
   832   000A58                     __ptext8:
   833                           	callstack 0
   834   000A58                     _loop:
   835                           	callstack 26
   836   000A58  0012               	return		;funcret
   837   000A5A                     __end_of_loop:
   838                           	callstack 0
   839                           
   840 ;; *************** function _f_interrupt_high *****************
   841 ;; Defined at:
   842 ;;		line 13 in file "Interrupts.c"
   843 ;; Parameters:    Size  Location     Type
   844 ;;		None
   845 ;; Auto vars:     Size  Location     Type
   846 ;;		None
   847 ;; Return value:  Size  Location     Type
   848 ;;                  1    wreg      void 
   849 ;; Registers used:
   850 ;;		wreg, fsr2l, fsr2h, status,2, status,0, cstack
   851 ;; Tracked objects:
   852 ;;		On entry : 0/0
   853 ;;		On exit  : 0/0
   854 ;;		Unchanged: 0/0
   855 ;; Data sizes:     COMRAM   BANK0   BANK1   BANK2   BANK3   BANK4   BANK5
   856 ;;      Params:         0       0       0       0       0       0       0
   857 ;;      Locals:         0       0       0       0       0       0       0
   858 ;;      Temps:          2       0       0       0       0       0       0
   859 ;;      Totals:         2       0       0       0       0       0       0
   860 ;;Total ram usage:        2 bytes
   861 ;; Hardware stack levels used: 1
   862 ;; Hardware stack levels required when called: 3
   863 ;; This function calls:
   864 ;;		_ADC_maq
   865 ;;		_f_timers
   866 ;; This function is called by:
   867 ;;		Interrupt level 2
   868 ;; This function uses a non-reentrant model
   869 ;;
   870                           
   871                           	psect	intcode
   872   000008                     __pintcode:
   873                           	callstack 0
   874   000008                     _f_interrupt_high:
   875                           	callstack 25
   876                           
   877                           ;incstack = 0
   878   000008  823A               	bsf	int$flags,1,c	;set compiler interrupt flag (level 2)
   879   00000A  EDFC  F003         	call	int_func,f	;refresh shadow registers
   880                           
   881                           	psect	intcode_body
   882   0007F8                     __pintcode_body:
   883                           	callstack 25
   884   0007F8                     int_func:
   885                           	callstack 25
   886   0007F8  0006               	pop		; remove dummy address from shadow register refresh
   887   0007FA  CFD9 F034          	movff	fsr2l,??_f_interrupt_high
   888   0007FE  CFDA F035          	movff	fsr2h,??_f_interrupt_high+1
   889   000802                     
   890                           ;Interrupts.c: 15:     if (TMR0IF) {
   891   000802  A4F2               	btfss	4082,2,c	;volatile
   892   000804  EF06  F004         	goto	i2u22_41
   893   000808  EF08  F004         	goto	i2u22_40
   894   00080C                     i2u22_41:
   895   00080C  EF0F  F004         	goto	i2l1468
   896   000810                     i2u22_40:
   897   000810                     
   898                           ;Interrupts.c: 16:         TMR0 = 0x06;
   899   000810  0E00               	movlw	0
   900   000812  6ED7               	movwf	215,c	;volatile
   901   000814  0E06               	movlw	6
   902   000816  6ED6               	movwf	214,c	;volatile
   903   000818                     
   904                           ;Interrupts.c: 18:         f_timers();
   905   000818  EC49  F002         	call	_f_timers	;wreg free
   906   00081C                     
   907                           ;Interrupts.c: 21:         TMR0IF = 0x00;
   908   00081C  94F2               	bcf	4082,2,c	;volatile
   909   00081E                     i2l1468:
   910                           
   911                           ;Interrupts.c: 39:     if (ADIF && ADIE) {
   912   00081E  AC9E               	btfss	3998,6,c	;volatile
   913   000820  EF14  F004         	goto	i2u23_41
   914   000824  EF16  F004         	goto	i2u23_40
   915   000828                     i2u23_41:
   916   000828  EF20  F004         	goto	i2l220
   917   00082C                     i2u23_40:
   918   00082C  AC9D               	btfss	3997,6,c	;volatile
   919   00082E  EF1B  F004         	goto	i2u24_41
   920   000832  EF1D  F004         	goto	i2u24_40
   921   000836                     i2u24_41:
   922   000836  EF20  F004         	goto	i2l220
   923   00083A                     i2u24_40:
   924   00083A                     
   925                           ;Interrupts.c: 40:         ADC_maq();
   926   00083A  ECCE  F003         	call	_ADC_maq	;wreg free
   927   00083E                     
   928                           ;Interrupts.c: 41:         ADIF = 0;
   929   00083E  9C9E               	bcf	3998,6,c	;volatile
   930   000840                     i2l220:
   931   000840  C035  FFDA         	movff	??_f_interrupt_high+1,fsr2h
   932   000844  C034  FFD9         	movff	??_f_interrupt_high,fsr2l
   933   000848  923A               	bcf	int$flags,1,c	;clear compiler interrupt flag (level 2)
   934   00084A  0011               	retfie		f
   935   00084C                     __end_of_f_interrupt_high:
   936                           	callstack 0
   937                           
   938 ;; *************** function _f_timers *****************
   939 ;; Defined at:
   940 ;;		line 40 in file "P1_GA.c"
   941 ;; Parameters:    Size  Location     Type
   942 ;;		None
   943 ;; Auto vars:     Size  Location     Type
   944 ;;		None
   945 ;; Return value:  Size  Location     Type
   946 ;;                  1    wreg      void 
   947 ;; Registers used:
   948 ;;		wreg, fsr2l, fsr2h, status,2, status,0, cstack
   949 ;; Tracked objects:
   950 ;;		On entry : 0/0
   951 ;;		On exit  : 0/0
   952 ;;		Unchanged: 0/0
   953 ;; Data sizes:     COMRAM   BANK0   BANK1   BANK2   BANK3   BANK4   BANK5
   954 ;;      Params:         0       0       0       0       0       0       0
   955 ;;      Locals:         0       0       0       0       0       0       0
   956 ;;      Temps:          0       0       0       0       0       0       0
   957 ;;      Totals:         0       0       0       0       0       0       0
   958 ;;Total ram usage:        0 bytes
   959 ;; Hardware stack levels used: 1
   960 ;; Hardware stack levels required when called: 2
   961 ;; This function calls:
   962 ;;		_LED_State
   963 ;;		_Read_AD
   964 ;;		_contador_displays_01
   965 ;;		_contador_displays_02
   966 ;;		_mux_display
   967 ;;		_read_keyb
   968 ;; This function is called by:
   969 ;;		_f_interrupt_high
   970 ;; This function uses a non-reentrant model
   971 ;;
   972                           
   973                           	psect	text10
   974   000492                     __ptext10:
   975                           	callstack 0
   976   000492                     _f_timers:
   977                           	callstack 25
   978   000492                     
   979                           ;P1_GA.c: 41:     static uint16_t counter0 = 1, counter1 = 1, counter2 = 1, counter3 = 1
      +                          ;;P1_GA.c: 43:     if (counter0 < 5)
   980   000492  5019               	movf	(f_timers@counter0+1)^0,w,c
   981   000494  E107               	bnz	i2u18_41
   982   000496  0E05               	movlw	5
   983   000498  5C18               	subwf	f_timers@counter0^0,w,c
   984   00049A  B0D8               	btfsc	status,0,c
   985   00049C  EF52  F002         	goto	i2u18_41
   986   0004A0  EF54  F002         	goto	i2u18_40
   987   0004A4                     i2u18_41:
   988   0004A4  EF58  F002         	goto	i2l1432
   989   0004A8                     i2u18_40:
   990   0004A8                     
   991                           ;P1_GA.c: 44:     {;P1_GA.c: 45:         counter0++;
   992   0004A8  4A18               	infsnz	f_timers@counter0^0,f,c
   993   0004AA  2A19               	incf	(f_timers@counter0+1)^0,f,c
   994                           
   995                           ;P1_GA.c: 46:     }
   996   0004AC  EF5E  F002         	goto	i2l1436
   997   0004B0                     i2l1432:
   998                           
   999                           ;P1_GA.c: 48:         mux_display();
  1000   0004B0  ECA2  F002         	call	_mux_display	;wreg free
  1001   0004B4                     
  1002                           ;P1_GA.c: 49:         counter0 = 1;
  1003   0004B4  0E00               	movlw	0
  1004   0004B6  6E19               	movwf	(f_timers@counter0+1)^0,c
  1005   0004B8  0E01               	movlw	1
  1006   0004BA  6E18               	movwf	f_timers@counter0^0,c
  1007   0004BC                     i2l1436:
  1008                           
  1009                           ;P1_GA.c: 52:     if (counter1 < temporizador1)
  1010   0004BC  5038               	movf	_temporizador1^0,w,c
  1011   0004BE  5C16               	subwf	f_timers@counter1^0,w,c
  1012   0004C0  5039               	movf	(_temporizador1+1)^0,w,c
  1013   0004C2  5817               	subwfb	(f_timers@counter1+1)^0,w,c
  1014   0004C4  B0D8               	btfsc	status,0,c
  1015   0004C6  EF67  F002         	goto	i2u19_41
  1016   0004CA  EF69  F002         	goto	i2u19_40
  1017   0004CE                     i2u19_41:
  1018   0004CE  EF6D  F002         	goto	i2l1440
  1019   0004D2                     i2u19_40:
  1020   0004D2                     
  1021                           ;P1_GA.c: 53:     {;P1_GA.c: 54:         counter1++;
  1022   0004D2  4A16               	infsnz	f_timers@counter1^0,f,c
  1023   0004D4  2A17               	incf	(f_timers@counter1+1)^0,f,c
  1024                           
  1025                           ;P1_GA.c: 55:     }
  1026   0004D6  EF73  F002         	goto	i2l1444
  1027   0004DA                     i2l1440:
  1028                           
  1029                           ;P1_GA.c: 57:         contador_displays_01();
  1030   0004DA  EC9F  F004         	call	_contador_displays_01	;wreg free
  1031   0004DE                     
  1032                           ;P1_GA.c: 58:         counter1 = 1;
  1033   0004DE  0E00               	movlw	0
  1034   0004E0  6E17               	movwf	(f_timers@counter1+1)^0,c
  1035   0004E2  0E01               	movlw	1
  1036   0004E4  6E16               	movwf	f_timers@counter1^0,c
  1037   0004E6                     i2l1444:
  1038                           
  1039                           ;P1_GA.c: 61:     if (counter2 < temporizador2)
  1040   0004E6  5036               	movf	_temporizador2^0,w,c
  1041   0004E8  5C14               	subwf	f_timers@counter2^0,w,c
  1042   0004EA  5037               	movf	(_temporizador2+1)^0,w,c
  1043   0004EC  5815               	subwfb	(f_timers@counter2+1)^0,w,c
  1044   0004EE  B0D8               	btfsc	status,0,c
  1045   0004F0  EF7C  F002         	goto	i2u20_41
  1046   0004F4  EF7E  F002         	goto	i2u20_40
  1047   0004F8                     i2u20_41:
  1048   0004F8  EF82  F002         	goto	i2l1448
  1049   0004FC                     i2u20_40:
  1050   0004FC                     
  1051                           ;P1_GA.c: 62:     {;P1_GA.c: 63:         counter2++;
  1052   0004FC  4A14               	infsnz	f_timers@counter2^0,f,c
  1053   0004FE  2A15               	incf	(f_timers@counter2+1)^0,f,c
  1054                           
  1055                           ;P1_GA.c: 64:     }
  1056   000500  EF88  F002         	goto	i2l1452
  1057   000504                     i2l1448:
  1058                           
  1059                           ;P1_GA.c: 66:         contador_displays_02();
  1060   000504  EC88  F004         	call	_contador_displays_02	;wreg free
  1061   000508                     
  1062                           ;P1_GA.c: 67:         counter2 = 1;
  1063   000508  0E00               	movlw	0
  1064   00050A  6E15               	movwf	(f_timers@counter2+1)^0,c
  1065   00050C  0E01               	movlw	1
  1066   00050E  6E14               	movwf	f_timers@counter2^0,c
  1067   000510                     i2l1452:
  1068                           
  1069                           ;P1_GA.c: 70:     if (counter3 < 10)
  1070   000510  5013               	movf	(f_timers@counter3+1)^0,w,c
  1071   000512  E107               	bnz	i2u21_41
  1072   000514  0E0A               	movlw	10
  1073   000516  5C12               	subwf	f_timers@counter3^0,w,c
  1074   000518  B0D8               	btfsc	status,0,c
  1075   00051A  EF91  F002         	goto	i2u21_41
  1076   00051E  EF93  F002         	goto	i2u21_40
  1077   000522                     i2u21_41:
  1078   000522  EF97  F002         	goto	i2l1456
  1079   000526                     i2u21_40:
  1080   000526                     
  1081                           ;P1_GA.c: 71:     {;P1_GA.c: 72:         counter3++;
  1082   000526  4A12               	infsnz	f_timers@counter3^0,f,c
  1083   000528  2A13               	incf	(f_timers@counter3+1)^0,f,c
  1084                           
  1085                           ;P1_GA.c: 73:     }
  1086   00052A  EFA1  F002         	goto	i2l322
  1087   00052E                     i2l1456:
  1088                           
  1089                           ;P1_GA.c: 76:     {;P1_GA.c: 78:         LED_State();
  1090   00052E  EC4F  F003         	call	_LED_State	;wreg free
  1091                           
  1092                           ;P1_GA.c: 79:         read_keyb();
  1093   000532  ECFA  F002         	call	_read_keyb	;wreg free
  1094                           
  1095                           ;P1_GA.c: 80:         Read_AD();
  1096   000536  EC92  F003         	call	_Read_AD	;wreg free
  1097   00053A                     
  1098                           ;P1_GA.c: 81:         counter3 = 1;
  1099   00053A  0E00               	movlw	0
  1100   00053C  6E13               	movwf	(f_timers@counter3+1)^0,c
  1101   00053E  0E01               	movlw	1
  1102   000540  6E12               	movwf	f_timers@counter3^0,c
  1103   000542                     i2l322:
  1104   000542  0012               	return		;funcret
  1105   000544                     __end_of_f_timers:
  1106                           	callstack 0
  1107                           
  1108 ;; *************** function _read_keyb *****************
  1109 ;; Defined at:
  1110 ;;		line 198 in file "P1_GA.c"
  1111 ;; Parameters:    Size  Location     Type
  1112 ;;		None
  1113 ;; Auto vars:     Size  Location     Type
  1114 ;;  dado            1    5[COMRAM] unsigned char 
  1115 ;;  dado_RB5        1    4[COMRAM] unsigned char 
  1116 ;;  dado_RB4        1    3[COMRAM] unsigned char 
  1117 ;;  dado_RB3        1    2[COMRAM] unsigned char 
  1118 ;; Return value:  Size  Location     Type
  1119 ;;                  1    wreg      void 
  1120 ;; Registers used:
  1121 ;;		wreg, status,2, status,0, cstack
  1122 ;; Tracked objects:
  1123 ;;		On entry : 0/0
  1124 ;;		On exit  : 0/0
  1125 ;;		Unchanged: 0/0
  1126 ;; Data sizes:     COMRAM   BANK0   BANK1   BANK2   BANK3   BANK4   BANK5
  1127 ;;      Params:         0       0       0       0       0       0       0
  1128 ;;      Locals:         4       0       0       0       0       0       0
  1129 ;;      Temps:          0       0       0       0       0       0       0
  1130 ;;      Totals:         4       0       0       0       0       0       0
  1131 ;;Total ram usage:        4 bytes
  1132 ;; Hardware stack levels used: 1
  1133 ;; Hardware stack levels required when called: 1
  1134 ;; This function calls:
  1135 ;;		_f_int0
  1136 ;;		_f_int1
  1137 ;;		_f_int2
  1138 ;; This function is called by:
  1139 ;;		_f_timers
  1140 ;; This function uses a non-reentrant model
  1141 ;;
  1142                           
  1143                           	psect	text11
  1144   0005F4                     __ptext11:
  1145                           	callstack 0
  1146   0005F4                     _read_keyb:
  1147                           	callstack 25
  1148   0005F4                     
  1149                           ;P1_GA.c: 200:     uint8_t dado, dado_RB3, dado_RB4, dado_RB5;;P1_GA.c: 202:     static 
      +                          uint8_t m_dado_RB3 = 1, m_dado_RB4 = 1, m_dado_RB5 = 1;;P1_GA.c: 204:     dado = PORTB;
  1150   0005F4  CF81 F033          	movff	3969,read_keyb@dado	;volatile
  1151                           
  1152                           ;P1_GA.c: 207:     if (dado & 0b00001000)
  1153   0005F8  A633               	btfss	read_keyb@dado^0,3,c
  1154   0005FA  EF01  F003         	goto	i2u12_41
  1155   0005FE  EF03  F003         	goto	i2u12_40
  1156   000602                     i2u12_41:
  1157   000602  EF07  F003         	goto	i2l1326
  1158   000606                     i2u12_40:
  1159   000606                     
  1160                           ;P1_GA.c: 208:     {;P1_GA.c: 209:         dado_RB3 = 1;
  1161   000606  0E01               	movlw	1
  1162   000608  6E30               	movwf	read_keyb@dado_RB3^0,c
  1163                           
  1164                           ;P1_GA.c: 210:     }
  1165   00060A  EF0D  F003         	goto	i2l1328
  1166   00060E                     i2l1326:
  1167                           
  1168                           ;P1_GA.c: 212:     {;P1_GA.c: 213:         dado_RB3 = 0;
  1169   00060E  0E00               	movlw	0
  1170   000610  6E30               	movwf	read_keyb@dado_RB3^0,c
  1171                           
  1172                           ;P1_GA.c: 214:         temporizador1 = 300;
  1173   000612  0E01               	movlw	1
  1174   000614  6E39               	movwf	(_temporizador1+1)^0,c
  1175   000616  0E2C               	movlw	44
  1176   000618  6E38               	movwf	_temporizador1^0,c
  1177   00061A                     i2l1328:
  1178                           
  1179                           ;P1_GA.c: 216:     if (dado & 0b00010000)
  1180   00061A  A833               	btfss	read_keyb@dado^0,4,c
  1181   00061C  EF12  F003         	goto	i2u13_41
  1182   000620  EF14  F003         	goto	i2u13_40
  1183   000624                     i2u13_41:
  1184   000624  EF18  F003         	goto	i2l1332
  1185   000628                     i2u13_40:
  1186   000628                     
  1187                           ;P1_GA.c: 217:     {;P1_GA.c: 218:         dado_RB4 = 1;
  1188   000628  0E01               	movlw	1
  1189   00062A  6E31               	movwf	read_keyb@dado_RB4^0,c
  1190                           
  1191                           ;P1_GA.c: 219:     }
  1192   00062C  EF1A  F003         	goto	i2l1334
  1193   000630                     i2l1332:
  1194                           
  1195                           ;P1_GA.c: 222:     {;P1_GA.c: 223:         dado_RB4 = 0;
  1196   000630  0E00               	movlw	0
  1197   000632  6E31               	movwf	read_keyb@dado_RB4^0,c
  1198   000634                     i2l1334:
  1199                           
  1200                           ;P1_GA.c: 226:     if (dado & 0b00100000)
  1201   000634  AA33               	btfss	read_keyb@dado^0,5,c
  1202   000636  EF1F  F003         	goto	i2u14_41
  1203   00063A  EF21  F003         	goto	i2u14_40
  1204   00063E                     i2u14_41:
  1205   00063E  EF25  F003         	goto	i2l1338
  1206   000642                     i2u14_40:
  1207   000642                     
  1208                           ;P1_GA.c: 227:     {;P1_GA.c: 228:         dado_RB5 = 1;
  1209   000642  0E01               	movlw	1
  1210   000644  6E32               	movwf	read_keyb@dado_RB5^0,c
  1211                           
  1212                           ;P1_GA.c: 229:     }
  1213   000646  EF27  F003         	goto	i2l1340
  1214   00064A                     i2l1338:
  1215                           
  1216                           ;P1_GA.c: 232:     {;P1_GA.c: 233:         dado_RB5=0;
  1217   00064A  0E00               	movlw	0
  1218   00064C  6E32               	movwf	read_keyb@dado_RB5^0,c
  1219   00064E                     i2l1340:
  1220                           
  1221                           ;P1_GA.c: 236:     if (dado_RB3< m_dado_RB3)
  1222   00064E  501C               	movf	read_keyb@m_dado_RB3^0,w,c
  1223   000650  5C30               	subwf	read_keyb@dado_RB3^0,w,c
  1224   000652  B0D8               	btfsc	status,0,c
  1225   000654  EF2E  F003         	goto	i2u15_41
  1226   000658  EF30  F003         	goto	i2u15_40
  1227   00065C                     i2u15_41:
  1228   00065C  EF32  F003         	goto	i2l1344
  1229   000660                     i2u15_40:
  1230   000660                     
  1231                           ;P1_GA.c: 237:     {;P1_GA.c: 238:         f_int0();
  1232   000660  EC26  F004         	call	_f_int0	;wreg free
  1233   000664                     i2l1344:
  1234                           
  1235                           ;P1_GA.c: 241:     if (dado_RB4 < m_dado_RB4)
  1236   000664  501B               	movf	read_keyb@m_dado_RB4^0,w,c
  1237   000666  5C31               	subwf	read_keyb@dado_RB4^0,w,c
  1238   000668  B0D8               	btfsc	status,0,c
  1239   00066A  EF39  F003         	goto	i2u16_41
  1240   00066E  EF3B  F003         	goto	i2u16_40
  1241   000672                     i2u16_41:
  1242   000672  EF3D  F003         	goto	i2l1348
  1243   000676                     i2u16_40:
  1244   000676                     
  1245                           ;P1_GA.c: 242:     {;P1_GA.c: 243:         f_int1();
  1246   000676  ECCB  F004         	call	_f_int1	;wreg free
  1247   00067A                     i2l1348:
  1248                           
  1249                           ;P1_GA.c: 246:     if (dado_RB5 < m_dado_RB5)
  1250   00067A  501A               	movf	read_keyb@m_dado_RB5^0,w,c
  1251   00067C  5C32               	subwf	read_keyb@dado_RB5^0,w,c
  1252   00067E  B0D8               	btfsc	status,0,c
  1253   000680  EF44  F003         	goto	i2u17_41
  1254   000684  EF46  F003         	goto	i2u17_40
  1255   000688                     i2u17_41:
  1256   000688  EF48  F003         	goto	i2l1352
  1257   00068C                     i2u17_40:
  1258   00068C                     
  1259                           ;P1_GA.c: 247:     {;P1_GA.c: 248:         f_int2();
  1260   00068C  ECB6  F004         	call	_f_int2	;wreg free
  1261   000690                     i2l1352:
  1262                           
  1263                           ;P1_GA.c: 252:     m_dado_RB3 = dado_RB3;
  1264   000690  C030  F01C         	movff	read_keyb@dado_RB3,read_keyb@m_dado_RB3
  1265   000694                     
  1266                           ;P1_GA.c: 253:     m_dado_RB4 = dado_RB4;
  1267   000694  C031  F01B         	movff	read_keyb@dado_RB4,read_keyb@m_dado_RB4
  1268   000698                     
  1269                           ;P1_GA.c: 254:     m_dado_RB5 = dado_RB5;
  1270   000698  C032  F01A         	movff	read_keyb@dado_RB5,read_keyb@m_dado_RB5
  1271   00069C  0012               	return		;funcret
  1272   00069E                     __end_of_read_keyb:
  1273                           	callstack 0
  1274                           
  1275 ;; *************** function _f_int2 *****************
  1276 ;; Defined at:
  1277 ;;		line 180 in file "P1_GA.c"
  1278 ;; Parameters:    Size  Location     Type
  1279 ;;		None
  1280 ;; Auto vars:     Size  Location     Type
  1281 ;;		None
  1282 ;; Return value:  Size  Location     Type
  1283 ;;                  1    wreg      void 
  1284 ;; Registers used:
  1285 ;;		wreg, status,2, status,0
  1286 ;; Tracked objects:
  1287 ;;		On entry : 0/0
  1288 ;;		On exit  : 0/0
  1289 ;;		Unchanged: 0/0
  1290 ;; Data sizes:     COMRAM   BANK0   BANK1   BANK2   BANK3   BANK4   BANK5
  1291 ;;      Params:         0       0       0       0       0       0       0
  1292 ;;      Locals:         0       0       0       0       0       0       0
  1293 ;;      Temps:          0       0       0       0       0       0       0
  1294 ;;      Totals:         0       0       0       0       0       0       0
  1295 ;;Total ram usage:        0 bytes
  1296 ;; Hardware stack levels used: 1
  1297 ;; This function calls:
  1298 ;;		Nothing
  1299 ;; This function is called by:
  1300 ;;		_read_keyb
  1301 ;; This function uses a non-reentrant model
  1302 ;;
  1303                           
  1304                           	psect	text12
  1305   00096C                     __ptext12:
  1306                           	callstack 0
  1307   00096C                     _f_int2:
  1308                           	callstack 25
  1309   00096C                     
  1310                           ;P1_GA.c: 182:     static uint8_t sentido2 = 0;;P1_GA.c: 184:     sentido2 ^= 1;
  1311   00096C  0E01               	movlw	1
  1312   00096E  1A20               	xorwf	f_int2@sentido2^0,f,c
  1313   000970                     
  1314                           ;P1_GA.c: 186:     if(!sentido2)
  1315   000970  5020               	movf	f_int2@sentido2^0,w,c
  1316   000972  A4D8               	btfss	status,2,c
  1317   000974  EFBE  F004         	goto	i2u2_41
  1318   000978  EFC0  F004         	goto	i2u2_40
  1319   00097C                     i2u2_41:
  1320   00097C  EFC6  F004         	goto	i2l1244
  1321   000980                     i2u2_40:
  1322   000980                     
  1323                           ;P1_GA.c: 187:     {;P1_GA.c: 188:         temporizador2 = 300;
  1324   000980  0E01               	movlw	1
  1325   000982  6E37               	movwf	(_temporizador2+1)^0,c
  1326   000984  0E2C               	movlw	44
  1327   000986  6E36               	movwf	_temporizador2^0,c
  1328                           
  1329                           ;P1_GA.c: 189:     }
  1330   000988  EFCA  F004         	goto	i2l371
  1331   00098C                     i2l1244:
  1332                           
  1333                           ;P1_GA.c: 192:     {;P1_GA.c: 193:         temporizador2 = 800;
  1334   00098C  0E03               	movlw	3
  1335   00098E  6E37               	movwf	(_temporizador2+1)^0,c
  1336   000990  0E20               	movlw	32
  1337   000992  6E36               	movwf	_temporizador2^0,c
  1338   000994                     i2l371:
  1339   000994  0012               	return		;funcret
  1340   000996                     __end_of_f_int2:
  1341                           	callstack 0
  1342                           
  1343 ;; *************** function _f_int1 *****************
  1344 ;; Defined at:
  1345 ;;		line 163 in file "P1_GA.c"
  1346 ;; Parameters:    Size  Location     Type
  1347 ;;		None
  1348 ;; Auto vars:     Size  Location     Type
  1349 ;;		None
  1350 ;; Return value:  Size  Location     Type
  1351 ;;                  1    wreg      void 
  1352 ;; Registers used:
  1353 ;;		wreg, status,2, status,0
  1354 ;; Tracked objects:
  1355 ;;		On entry : 0/0
  1356 ;;		On exit  : 0/0
  1357 ;;		Unchanged: 0/0
  1358 ;; Data sizes:     COMRAM   BANK0   BANK1   BANK2   BANK3   BANK4   BANK5
  1359 ;;      Params:         0       0       0       0       0       0       0
  1360 ;;      Locals:         0       0       0       0       0       0       0
  1361 ;;      Temps:          0       0       0       0       0       0       0
  1362 ;;      Totals:         0       0       0       0       0       0       0
  1363 ;;Total ram usage:        0 bytes
  1364 ;; Hardware stack levels used: 1
  1365 ;; This function calls:
  1366 ;;		Nothing
  1367 ;; This function is called by:
  1368 ;;		_read_keyb
  1369 ;; This function uses a non-reentrant model
  1370 ;;
  1371                           
  1372                           	psect	text13
  1373   000996                     __ptext13:
  1374                           	callstack 0
  1375   000996                     _f_int1:
  1376                           	callstack 25
  1377   000996                     
  1378                           ;P1_GA.c: 165:     static uint8_t sentido1 = 0;;P1_GA.c: 167:     sentido1 ^= 1;
  1379   000996  0E01               	movlw	1
  1380   000998  1A21               	xorwf	f_int1@sentido1^0,f,c
  1381   00099A                     
  1382                           ;P1_GA.c: 169:     if(!sentido1)
  1383   00099A  5021               	movf	f_int1@sentido1^0,w,c
  1384   00099C  A4D8               	btfss	status,2,c
  1385   00099E  EFD3  F004         	goto	i2u1_41
  1386   0009A2  EFD5  F004         	goto	i2u1_40
  1387   0009A6                     i2u1_41:
  1388   0009A6  EFDB  F004         	goto	i2l1236
  1389   0009AA                     i2u1_40:
  1390   0009AA                     
  1391                           ;P1_GA.c: 170:     {;P1_GA.c: 171:         temporizador1 = 300;
  1392   0009AA  0E01               	movlw	1
  1393   0009AC  6E39               	movwf	(_temporizador1+1)^0,c
  1394   0009AE  0E2C               	movlw	44
  1395   0009B0  6E38               	movwf	_temporizador1^0,c
  1396                           
  1397                           ;P1_GA.c: 172:     }
  1398   0009B2  EFDF  F004         	goto	i2l364
  1399   0009B6                     i2l1236:
  1400                           
  1401                           ;P1_GA.c: 175:     {;P1_GA.c: 176:         temporizador1 = 800;
  1402   0009B6  0E03               	movlw	3
  1403   0009B8  6E39               	movwf	(_temporizador1+1)^0,c
  1404   0009BA  0E20               	movlw	32
  1405   0009BC  6E38               	movwf	_temporizador1^0,c
  1406   0009BE                     i2l364:
  1407   0009BE  0012               	return		;funcret
  1408   0009C0                     __end_of_f_int1:
  1409                           	callstack 0
  1410                           
  1411 ;; *************** function _f_int0 *****************
  1412 ;; Defined at:
  1413 ;;		line 144 in file "P1_GA.c"
  1414 ;; Parameters:    Size  Location     Type
  1415 ;;		None
  1416 ;; Auto vars:     Size  Location     Type
  1417 ;;		None
  1418 ;; Return value:  Size  Location     Type
  1419 ;;                  1    wreg      void 
  1420 ;; Registers used:
  1421 ;;		wreg, status,2, status,0
  1422 ;; Tracked objects:
  1423 ;;		On entry : 0/0
  1424 ;;		On exit  : 0/0
  1425 ;;		Unchanged: 0/0
  1426 ;; Data sizes:     COMRAM   BANK0   BANK1   BANK2   BANK3   BANK4   BANK5
  1427 ;;      Params:         0       0       0       0       0       0       0
  1428 ;;      Locals:         0       0       0       0       0       0       0
  1429 ;;      Temps:          2       0       0       0       0       0       0
  1430 ;;      Totals:         2       0       0       0       0       0       0
  1431 ;;Total ram usage:        2 bytes
  1432 ;; Hardware stack levels used: 1
  1433 ;; This function calls:
  1434 ;;		Nothing
  1435 ;; This function is called by:
  1436 ;;		_read_keyb
  1437 ;; This function uses a non-reentrant model
  1438 ;;
  1439                           
  1440                           	psect	text14
  1441   00084C                     __ptext14:
  1442                           	callstack 0
  1443   00084C                     _f_int0:
  1444                           	callstack 25
  1445   00084C                     
  1446                           ;P1_GA.c: 146:     static uint8_t estado = 0;;P1_GA.c: 148:     switch(estado)
  1447   00084C  EF34  F004         	goto	i2l1224
  1448   000850                     i2l1218:
  1449                           
  1450                           ;P1_GA.c: 151:             pausa_ou_continua = 0;
  1451   000850  0E00               	movlw	0
  1452   000852  6E1D               	movwf	_pausa_ou_continua^0,c
  1453                           
  1454                           ;P1_GA.c: 152:             estado = 1;
  1455   000854  0E01               	movlw	1
  1456   000856  6E22               	movwf	f_int0@estado^0,c
  1457                           
  1458                           ;P1_GA.c: 153:             break;
  1459   000858  EF49  F004         	goto	i2l357
  1460   00085C                     i2l1220:
  1461                           
  1462                           ;P1_GA.c: 156:             pausa_ou_continua = 1;
  1463   00085C  0E01               	movlw	1
  1464   00085E  6E1D               	movwf	_pausa_ou_continua^0,c
  1465                           
  1466                           ;P1_GA.c: 157:             estado = 0;
  1467   000860  0E00               	movlw	0
  1468   000862  6E22               	movwf	f_int0@estado^0,c
  1469                           
  1470                           ;P1_GA.c: 158:             break;
  1471   000864  EF49  F004         	goto	i2l357
  1472   000868                     i2l1224:
  1473   000868  5022               	movf	f_int0@estado^0,w,c
  1474   00086A  6E2E               	movwf	??_f_int0^0,c
  1475   00086C  6A2F               	clrf	(??_f_int0+1)^0,c
  1476                           
  1477                           ; Switch on 2 bytes has been partitioned into a top level switch of size 1, and 1 sub-sw
      +                          itches
  1478                           ; Switch size 1, requested type "simple"
  1479                           ; Number of cases is 1, Range of values is 0 to 0
  1480                           ; switch strategies available:
  1481                           ; Name         Instructions Cycles
  1482                           ; simple_byte            4     3 (average)
  1483                           ;	Chosen strategy is simple_byte
  1484   00086E  502F               	movf	(??_f_int0+1)^0,w,c
  1485   000870  0A00               	xorlw	0	; case 0
  1486   000872  B4D8               	btfsc	status,2,c
  1487   000874  EF3E  F004         	goto	i2l1542
  1488   000878  EF49  F004         	goto	i2l357
  1489   00087C                     i2l1542:
  1490                           
  1491                           ; Switch size 1, requested type "simple"
  1492                           ; Number of cases is 2, Range of values is 0 to 1
  1493                           ; switch strategies available:
  1494                           ; Name         Instructions Cycles
  1495                           ; simple_byte            7     4 (average)
  1496                           ;	Chosen strategy is simple_byte
  1497   00087C  502E               	movf	??_f_int0^0,w,c
  1498   00087E  0A00               	xorlw	0	; case 0
  1499   000880  B4D8               	btfsc	status,2,c
  1500   000882  EF28  F004         	goto	i2l1218
  1501   000886  0A01               	xorlw	1	; case 1
  1502   000888  B4D8               	btfsc	status,2,c
  1503   00088A  EF2E  F004         	goto	i2l1220
  1504   00088E  EF49  F004         	goto	i2l357
  1505   000892                     i2l357:
  1506   000892  0012               	return		;funcret
  1507   000894                     __end_of_f_int0:
  1508                           	callstack 0
  1509                           
  1510 ;; *************** function _mux_display *****************
  1511 ;; Defined at:
  1512 ;;		line 14 in file "Displays.c"
  1513 ;; Parameters:    Size  Location     Type
  1514 ;;		None
  1515 ;; Auto vars:     Size  Location     Type
  1516 ;;		None
  1517 ;; Return value:  Size  Location     Type
  1518 ;;                  1    wreg      void 
  1519 ;; Registers used:
  1520 ;;		wreg, fsr2l, fsr2h, status,2, status,0
  1521 ;; Tracked objects:
  1522 ;;		On entry : 0/0
  1523 ;;		On exit  : 0/0
  1524 ;;		Unchanged: 0/0
  1525 ;; Data sizes:     COMRAM   BANK0   BANK1   BANK2   BANK3   BANK4   BANK5
  1526 ;;      Params:         0       0       0       0       0       0       0
  1527 ;;      Locals:         0       0       0       0       0       0       0
  1528 ;;      Temps:          2       0       0       0       0       0       0
  1529 ;;      Totals:         2       0       0       0       0       0       0
  1530 ;;Total ram usage:        2 bytes
  1531 ;; Hardware stack levels used: 1
  1532 ;; This function calls:
  1533 ;;		Nothing
  1534 ;; This function is called by:
  1535 ;;		_f_timers
  1536 ;; This function uses a non-reentrant model
  1537 ;;
  1538                           
  1539                           	psect	text15
  1540   000544                     __ptext15:
  1541                           	callstack 0
  1542   000544                     _mux_display:
  1543                           	callstack 26
  1544   000544                     
  1545                           ;Displays.c: 15:     static uint8_t estado = 0;;Displays.c: 17:     switch (estado) {
  1546   000544  EFDC  F002         	goto	i2l1272
  1547   000548                     i2l60:
  1548                           
  1549                           ;Displays.c: 19:             LATA2 = 1;
  1550   000548  8489               	bsf	3977,2,c	;volatile
  1551                           
  1552                           ;Displays.c: 20:             LATA5 = 0;
  1553   00054A  9A89               	bcf	3977,5,c	;volatile
  1554   00054C                     
  1555                           ;Displays.c: 21:             LATD = conv7seg[display1];
  1556   00054C  0E01               	movlw	low _conv7seg
  1557   00054E  242C               	addwf	_display1^0,w,c
  1558   000550  6ED9               	movwf	fsr2l,c
  1559   000552  6ADA               	clrf	fsr2h,c
  1560   000554  0E00               	movlw	high _conv7seg
  1561   000556  22DA               	addwfc	fsr2h,f,c
  1562   000558  50DF               	movf	indf2,w,c
  1563   00055A  6E8C               	movwf	140,c	;volatile
  1564   00055C                     
  1565                           ;Displays.c: 22:             estado = 1;
  1566   00055C  0E01               	movlw	1
  1567   00055E  6E26               	movwf	mux_display@estado^0,c
  1568                           
  1569                           ;Displays.c: 23:             break;
  1570   000560  EFF9  F002         	goto	i2l65
  1571   000564                     i2l62:
  1572                           
  1573                           ;Displays.c: 26:             LATA2 = 0;
  1574   000564  9489               	bcf	3977,2,c	;volatile
  1575                           
  1576                           ;Displays.c: 27:             LATA3 = 1;
  1577   000566  8689               	bsf	3977,3,c	;volatile
  1578   000568                     
  1579                           ;Displays.c: 28:             LATD = conv7seg[display2];
  1580   000568  0E01               	movlw	low _conv7seg
  1581   00056A  242B               	addwf	_display2^0,w,c
  1582   00056C  6ED9               	movwf	fsr2l,c
  1583   00056E  6ADA               	clrf	fsr2h,c
  1584   000570  0E00               	movlw	high _conv7seg
  1585   000572  22DA               	addwfc	fsr2h,f,c
  1586   000574  50DF               	movf	indf2,w,c
  1587   000576  6E8C               	movwf	140,c	;volatile
  1588   000578                     
  1589                           ;Displays.c: 29:             estado = 2;
  1590   000578  0E02               	movlw	2
  1591   00057A  6E26               	movwf	mux_display@estado^0,c
  1592                           
  1593                           ;Displays.c: 30:             break;
  1594   00057C  EFF9  F002         	goto	i2l65
  1595   000580                     i2l63:
  1596                           
  1597                           ;Displays.c: 33:             LATA3 = 0;
  1598   000580  9689               	bcf	3977,3,c	;volatile
  1599                           
  1600                           ;Displays.c: 34:             LATA4 = 1;
  1601   000582  8889               	bsf	3977,4,c	;volatile
  1602   000584                     
  1603                           ;Displays.c: 35:             LATD = conv7seg[display3];
  1604   000584  0E01               	movlw	low _conv7seg
  1605   000586  242A               	addwf	_display3^0,w,c
  1606   000588  6ED9               	movwf	fsr2l,c
  1607   00058A  6ADA               	clrf	fsr2h,c
  1608   00058C  0E00               	movlw	high _conv7seg
  1609   00058E  22DA               	addwfc	fsr2h,f,c
  1610   000590  50DF               	movf	indf2,w,c
  1611   000592  6E8C               	movwf	140,c	;volatile
  1612   000594                     
  1613                           ;Displays.c: 36:             estado = 3;
  1614   000594  0E03               	movlw	3
  1615   000596  6E26               	movwf	mux_display@estado^0,c
  1616                           
  1617                           ;Displays.c: 37:             break;
  1618   000598  EFF9  F002         	goto	i2l65
  1619   00059C                     i2l64:
  1620                           
  1621                           ;Displays.c: 40:             LATA4 = 0;
  1622   00059C  9889               	bcf	3977,4,c	;volatile
  1623                           
  1624                           ;Displays.c: 41:             LATA5 = 1;
  1625   00059E  8A89               	bsf	3977,5,c	;volatile
  1626   0005A0                     
  1627                           ;Displays.c: 42:             LATD = conv7seg[display4];
  1628   0005A0  0E01               	movlw	low _conv7seg
  1629   0005A2  2429               	addwf	_display4^0,w,c
  1630   0005A4  6ED9               	movwf	fsr2l,c
  1631   0005A6  6ADA               	clrf	fsr2h,c
  1632   0005A8  0E00               	movlw	high _conv7seg
  1633   0005AA  22DA               	addwfc	fsr2h,f,c
  1634   0005AC  50DF               	movf	indf2,w,c
  1635   0005AE  6E8C               	movwf	140,c	;volatile
  1636   0005B0                     
  1637                           ;Displays.c: 43:             estado = 0;
  1638   0005B0  0E00               	movlw	0
  1639   0005B2  6E26               	movwf	mux_display@estado^0,c
  1640                           
  1641                           ;Displays.c: 44:             break;
  1642   0005B4  EFF9  F002         	goto	i2l65
  1643   0005B8                     i2l1272:
  1644   0005B8  5026               	movf	mux_display@estado^0,w,c
  1645   0005BA  6E2E               	movwf	??_mux_display^0,c
  1646   0005BC  6A2F               	clrf	(??_mux_display+1)^0,c
  1647                           
  1648                           ; Switch on 2 bytes has been partitioned into a top level switch of size 1, and 1 sub-sw
      +                          itches
  1649                           ; Switch size 1, requested type "simple"
  1650                           ; Number of cases is 1, Range of values is 0 to 0
  1651                           ; switch strategies available:
  1652                           ; Name         Instructions Cycles
  1653                           ; simple_byte            4     3 (average)
  1654                           ;	Chosen strategy is simple_byte
  1655   0005BE  502F               	movf	(??_mux_display+1)^0,w,c
  1656   0005C0  0A00               	xorlw	0	; case 0
  1657   0005C2  B4D8               	btfsc	status,2,c
  1658   0005C4  EFE6  F002         	goto	i2l1544
  1659   0005C8  EFF9  F002         	goto	i2l65
  1660   0005CC                     i2l1544:
  1661                           
  1662                           ; Switch size 1, requested type "simple"
  1663                           ; Number of cases is 4, Range of values is 0 to 3
  1664                           ; switch strategies available:
  1665                           ; Name         Instructions Cycles
  1666                           ; simple_byte           13     7 (average)
  1667                           ;	Chosen strategy is simple_byte
  1668   0005CC  502E               	movf	??_mux_display^0,w,c
  1669   0005CE  0A00               	xorlw	0	; case 0
  1670   0005D0  B4D8               	btfsc	status,2,c
  1671   0005D2  EFA4  F002         	goto	i2l60
  1672   0005D6  0A01               	xorlw	1	; case 1
  1673   0005D8  B4D8               	btfsc	status,2,c
  1674   0005DA  EFB2  F002         	goto	i2l62
  1675   0005DE  0A03               	xorlw	3	; case 2
  1676   0005E0  B4D8               	btfsc	status,2,c
  1677   0005E2  EFC0  F002         	goto	i2l63
  1678   0005E6  0A01               	xorlw	1	; case 3
  1679   0005E8  B4D8               	btfsc	status,2,c
  1680   0005EA  EFCE  F002         	goto	i2l64
  1681   0005EE  EFF9  F002         	goto	i2l65
  1682   0005F2                     i2l65:
  1683   0005F2  0012               	return		;funcret
  1684   0005F4                     __end_of_mux_display:
  1685                           	callstack 0
  1686                           
  1687 ;; *************** function _contador_displays_02 *****************
  1688 ;; Defined at:
  1689 ;;		line 131 in file "P1_GA.c"
  1690 ;; Parameters:    Size  Location     Type
  1691 ;;		None
  1692 ;; Auto vars:     Size  Location     Type
  1693 ;;		None
  1694 ;; Return value:  Size  Location     Type
  1695 ;;                  1    wreg      void 
  1696 ;; Registers used:
  1697 ;;		wreg, status,2, status,0, cstack
  1698 ;; Tracked objects:
  1699 ;;		On entry : 0/0
  1700 ;;		On exit  : 0/0
  1701 ;;		Unchanged: 0/0
  1702 ;; Data sizes:     COMRAM   BANK0   BANK1   BANK2   BANK3   BANK4   BANK5
  1703 ;;      Params:         0       0       0       0       0       0       0
  1704 ;;      Locals:         0       0       0       0       0       0       0
  1705 ;;      Temps:          0       0       0       0       0       0       0
  1706 ;;      Totals:         0       0       0       0       0       0       0
  1707 ;;Total ram usage:        0 bytes
  1708 ;; Hardware stack levels used: 1
  1709 ;; Hardware stack levels required when called: 1
  1710 ;; This function calls:
  1711 ;;		_cont2_crescente
  1712 ;;		_cont2_decrescente
  1713 ;; This function is called by:
  1714 ;;		_f_timers
  1715 ;; This function uses a non-reentrant model
  1716 ;;
  1717                           
  1718                           	psect	text16
  1719   000910                     __ptext16:
  1720                           	callstack 0
  1721   000910                     _contador_displays_02:
  1722                           	callstack 25
  1723   000910                     
  1724                           ;P1_GA.c: 133:     if(!pausa_ou_continua)
  1725   000910  501D               	movf	_pausa_ou_continua^0,w,c
  1726   000912  A4D8               	btfss	status,2,c
  1727   000914  EF8E  F004         	goto	i2u5_41
  1728   000918  EF90  F004         	goto	i2u5_40
  1729   00091C                     i2u5_41:
  1730   00091C  EF9E  F004         	goto	i2l348
  1731   000920                     i2u5_40:
  1732   000920                     
  1733                           ;P1_GA.c: 134:     {;P1_GA.c: 135:         if(!sequencia_2)
  1734   000920  5024               	movf	_sequencia_2^0,w,c
  1735   000922  A4D8               	btfss	status,2,c
  1736   000924  EF96  F004         	goto	i2u6_41
  1737   000928  EF98  F004         	goto	i2u6_40
  1738   00092C                     i2u6_41:
  1739   00092C  EF9C  F004         	goto	i2l1300
  1740   000930                     i2u6_40:
  1741   000930                     
  1742                           ;P1_GA.c: 136:             cont2_crescente();
  1743   000930  EC99  F000         	call	_cont2_crescente	;wreg free
  1744   000934  EF9E  F004         	goto	i2l348
  1745   000938                     i2l1300:
  1746                           
  1747                           ;P1_GA.c: 139:             cont2_decrescente();
  1748   000938  EC09  F000         	call	_cont2_decrescente	;wreg free
  1749   00093C                     i2l348:
  1750   00093C  0012               	return		;funcret
  1751   00093E                     __end_of_contador_displays_02:
  1752                           	callstack 0
  1753                           
  1754 ;; *************** function _cont2_decrescente *****************
  1755 ;; Defined at:
  1756 ;;		line 262 in file "Displays.c"
  1757 ;; Parameters:    Size  Location     Type
  1758 ;;		None
  1759 ;; Auto vars:     Size  Location     Type
  1760 ;;		None
  1761 ;; Return value:  Size  Location     Type
  1762 ;;                  1    wreg      void 
  1763 ;; Registers used:
  1764 ;;		wreg, status,2, status,0
  1765 ;; Tracked objects:
  1766 ;;		On entry : 0/0
  1767 ;;		On exit  : 0/0
  1768 ;;		Unchanged: 0/0
  1769 ;; Data sizes:     COMRAM   BANK0   BANK1   BANK2   BANK3   BANK4   BANK5
  1770 ;;      Params:         0       0       0       0       0       0       0
  1771 ;;      Locals:         0       0       0       0       0       0       0
  1772 ;;      Temps:          2       0       0       0       0       0       0
  1773 ;;      Totals:         2       0       0       0       0       0       0
  1774 ;;Total ram usage:        2 bytes
  1775 ;; Hardware stack levels used: 1
  1776 ;; This function calls:
  1777 ;;		Nothing
  1778 ;; This function is called by:
  1779 ;;		_contador_displays_02
  1780 ;; This function uses a non-reentrant model
  1781 ;;
  1782                           
  1783                           	psect	text17
  1784   000012                     __ptext17:
  1785                           	callstack 0
  1786   000012                     _cont2_decrescente:
  1787                           	callstack 25
  1788   000012                     
  1789                           ;Displays.c: 264:     switch (estado_sequencia02)
  1790   000012  EF63  F000         	goto	i2l1210
  1791   000016                     i2l1186:
  1792                           
  1793                           ;Displays.c: 267:             display3 = 2;
  1794   000016  0E02               	movlw	2
  1795   000018  6E2A               	movwf	_display3^0,c
  1796                           
  1797                           ;Displays.c: 268:             display4 = 0;
  1798   00001A  0E00               	movlw	0
  1799   00001C  6E29               	movwf	_display4^0,c
  1800                           
  1801                           ;Displays.c: 269:             estado_sequencia02 = 62;
  1802   00001E  0E3E               	movlw	62
  1803   000020  6E27               	movwf	_estado_sequencia02^0,c
  1804                           
  1805                           ;Displays.c: 270:             break;
  1806   000022  EF98  F000         	goto	i2l129
  1807   000026                     i2l1188:
  1808                           
  1809                           ;Displays.c: 273:             display3 = 1;
  1810   000026  0E01               	movlw	1
  1811   000028  6E2A               	movwf	_display3^0,c
  1812                           
  1813                           ;Displays.c: 274:             display4 = 2;
  1814   00002A  0E02               	movlw	2
  1815   00002C  6E29               	movwf	_display4^0,c
  1816                           
  1817                           ;Displays.c: 275:             estado_sequencia02 = 20;
  1818   00002E  0E14               	movlw	20
  1819   000030  6E27               	movwf	_estado_sequencia02^0,c
  1820                           
  1821                           ;Displays.c: 276:             break;
  1822   000032  EF98  F000         	goto	i2l129
  1823   000036                     i2l1190:
  1824                           
  1825                           ;Displays.c: 279:             display3 = 8;
  1826   000036  0E08               	movlw	8
  1827   000038  6E2A               	movwf	_display3^0,c
  1828                           
  1829                           ;Displays.c: 280:             display4 = 1;
  1830   00003A  0E01               	movlw	1
  1831   00003C  6E29               	movwf	_display4^0,c
  1832                           
  1833                           ;Displays.c: 281:             estado_sequencia02 = 12;
  1834   00003E  0E0C               	movlw	12
  1835   000040  6E27               	movwf	_estado_sequencia02^0,c
  1836                           
  1837                           ;Displays.c: 282:             break;
  1838   000042  EF98  F000         	goto	i2l129
  1839   000046                     i2l1192:
  1840                           
  1841                           ;Displays.c: 285:             display3 = 3;
  1842   000046  0E03               	movlw	3
  1843   000048  6E2A               	movwf	_display3^0,c
  1844                           
  1845                           ;Displays.c: 286:             display4 = 1;
  1846   00004A  0E01               	movlw	1
  1847   00004C  6E29               	movwf	_display4^0,c
  1848                           
  1849                           ;Displays.c: 287:             estado_sequencia02 = 81;
  1850   00004E  0E51               	movlw	81
  1851   000050  6E27               	movwf	_estado_sequencia02^0,c
  1852                           
  1853                           ;Displays.c: 288:             break;
  1854   000052  EF98  F000         	goto	i2l129
  1855   000056                     i2l1194:
  1856                           
  1857                           ;Displays.c: 291:             display3 = 7;
  1858   000056  0E07               	movlw	7
  1859   000058  6E2A               	movwf	_display3^0,c
  1860                           
  1861                           ;Displays.c: 292:             display4 = 5;
  1862   00005A  0E05               	movlw	5
  1863   00005C  6E29               	movwf	_display4^0,c
  1864                           
  1865                           ;Displays.c: 293:             estado_sequencia02 = 31;
  1866   00005E  0E1F               	movlw	31
  1867   000060  6E27               	movwf	_estado_sequencia02^0,c
  1868                           
  1869                           ;Displays.c: 294:             break;
  1870   000062  EF98  F000         	goto	i2l129
  1871   000066                     i2l1196:
  1872                           
  1873                           ;Displays.c: 297:             display3 = 6;
  1874   000066  0E06               	movlw	6
  1875   000068  6E2A               	movwf	_display3^0,c
  1876                           
  1877                           ;Displays.c: 298:             display4 = 5;
  1878   00006A  0E05               	movlw	5
  1879   00006C  6E29               	movwf	_display4^0,c
  1880                           
  1881                           ;Displays.c: 299:             estado_sequencia02 = 75;
  1882   00006E  0E4B               	movlw	75
  1883   000070  6E27               	movwf	_estado_sequencia02^0,c
  1884                           
  1885                           ;Displays.c: 300:             break;
  1886   000072  EF98  F000         	goto	i2l129
  1887   000076                     i2l1198:
  1888                           
  1889                           ;Displays.c: 303:             display3 = 9;
  1890   000076  0E09               	movlw	9
  1891   000078  6E2A               	movwf	_display3^0,c
  1892                           
  1893                           ;Displays.c: 304:             display4 = 0;
  1894   00007A  0E00               	movlw	0
  1895   00007C  6E29               	movwf	_display4^0,c
  1896                           
  1897                           ;Displays.c: 305:             estado_sequencia02 = 65;
  1898   00007E  0E41               	movlw	65
  1899   000080  6E27               	movwf	_estado_sequencia02^0,c
  1900                           
  1901                           ;Displays.c: 306:             break;
  1902   000082  EF98  F000         	goto	i2l129
  1903   000086                     i2l1200:
  1904                           
  1905                           ;Displays.c: 309:             display3 = 1;
  1906   000086  0E01               	movlw	1
  1907   000088  6E2A               	movwf	_display3^0,c
  1908                           
  1909                           ;Displays.c: 310:             display4 = 6;
  1910   00008A  0E06               	movlw	6
  1911   00008C  6E29               	movwf	_display4^0,c
  1912                           
  1913                           ;Displays.c: 311:             estado_sequencia02 = 90;
  1914   00008E  0E5A               	movlw	90
  1915   000090  6E27               	movwf	_estado_sequencia02^0,c
  1916                           
  1917                           ;Displays.c: 312:             break;
  1918   000092  EF98  F000         	goto	i2l129
  1919   000096                     i2l1202:
  1920                           
  1921                           ;Displays.c: 315:             display3 = 5;
  1922   000096  0E05               	movlw	5
  1923   000098  6E2A               	movwf	_display3^0,c
  1924                           
  1925                           ;Displays.c: 316:             display4 = 8;
  1926   00009A  0E08               	movlw	8
  1927   00009C  6E29               	movwf	_display4^0,c
  1928                           
  1929                           ;Displays.c: 317:             estado_sequencia02 = 16;
  1930   00009E  0E10               	movlw	16
  1931   0000A0  6E27               	movwf	_estado_sequencia02^0,c
  1932                           
  1933                           ;Displays.c: 318:             break;
  1934   0000A2  EF98  F000         	goto	i2l129
  1935   0000A6                     i2l1204:
  1936                           
  1937                           ;Displays.c: 321:             display3 = 6;
  1938   0000A6  0E06               	movlw	6
  1939   0000A8  6E2A               	movwf	_display3^0,c
  1940                           
  1941                           ;Displays.c: 322:             display4 = 2;
  1942   0000AA  0E02               	movlw	2
  1943   0000AC  6E29               	movwf	_display4^0,c
  1944                           
  1945                           ;Displays.c: 323:             estado_sequencia02 = 58;
  1946   0000AE  0E3A               	movlw	58
  1947   0000B0  6E27               	movwf	_estado_sequencia02^0,c
  1948                           
  1949                           ;Displays.c: 324:             break;
  1950   0000B2  EF98  F000         	goto	i2l129
  1951   0000B6                     i2l1206:
  1952                           
  1953                           ;Displays.c: 327:             display3 = 1;
  1954   0000B6  0E01               	movlw	1
  1955   0000B8  6E2A               	movwf	_display3^0,c
  1956                           
  1957                           ;Displays.c: 328:             display4 = 6;
  1958   0000BA  0E06               	movlw	6
  1959   0000BC  6E29               	movwf	_display4^0,c
  1960                           
  1961                           ;Displays.c: 329:             estado_sequencia02 = 16;
  1962   0000BE  0E10               	movlw	16
  1963   0000C0  6E27               	movwf	_estado_sequencia02^0,c
  1964                           
  1965                           ;Displays.c: 330:             break;
  1966   0000C2  EF98  F000         	goto	i2l129
  1967   0000C6                     i2l1210:
  1968   0000C6  5027               	movf	_estado_sequencia02^0,w,c
  1969   0000C8  6E2E               	movwf	??_cont2_decrescente^0,c
  1970   0000CA  6A2F               	clrf	(??_cont2_decrescente+1)^0,c
  1971                           
  1972                           ; Switch on 2 bytes has been partitioned into a top level switch of size 1, and 1 sub-sw
      +                          itches
  1973                           ; Switch size 1, requested type "simple"
  1974                           ; Number of cases is 1, Range of values is 0 to 0
  1975                           ; switch strategies available:
  1976                           ; Name         Instructions Cycles
  1977                           ; simple_byte            4     3 (average)
  1978                           ;	Chosen strategy is simple_byte
  1979   0000CC  502F               	movf	(??_cont2_decrescente+1)^0,w,c
  1980   0000CE  0A00               	xorlw	0	; case 0
  1981   0000D0  B4D8               	btfsc	status,2,c
  1982   0000D2  EF6D  F000         	goto	i2l1546
  1983   0000D6  EF5B  F000         	goto	i2l1206
  1984   0000DA                     i2l1546:
  1985                           
  1986                           ; Switch size 1, requested type "simple"
  1987                           ; Number of cases is 10, Range of values is 12 to 90
  1988                           ; switch strategies available:
  1989                           ; Name         Instructions Cycles
  1990                           ; simple_byte           31    16 (average)
  1991                           ;	Chosen strategy is simple_byte
  1992   0000DA  502E               	movf	??_cont2_decrescente^0,w,c
  1993   0000DC  0A0C               	xorlw	12	; case 12
  1994   0000DE  B4D8               	btfsc	status,2,c
  1995   0000E0  EF13  F000         	goto	i2l1188
  1996   0000E4  0A1C               	xorlw	28	; case 16
  1997   0000E6  B4D8               	btfsc	status,2,c
  1998   0000E8  EF43  F000         	goto	i2l1200
  1999   0000EC  0A04               	xorlw	4	; case 20
  2000   0000EE  B4D8               	btfsc	status,2,c
  2001   0000F0  EF0B  F000         	goto	i2l1186
  2002   0000F4  0A0B               	xorlw	11	; case 31
  2003   0000F6  B4D8               	btfsc	status,2,c
  2004   0000F8  EF23  F000         	goto	i2l1192
  2005   0000FC  0A25               	xorlw	37	; case 58
  2006   0000FE  B4D8               	btfsc	status,2,c
  2007   000100  EF4B  F000         	goto	i2l1202
  2008   000104  0A04               	xorlw	4	; case 62
  2009   000106  B4D8               	btfsc	status,2,c
  2010   000108  EF53  F000         	goto	i2l1204
  2011   00010C  0A7F               	xorlw	127	; case 65
  2012   00010E  B4D8               	btfsc	status,2,c
  2013   000110  EF33  F000         	goto	i2l1196
  2014   000114  0A0A               	xorlw	10	; case 75
  2015   000116  B4D8               	btfsc	status,2,c
  2016   000118  EF2B  F000         	goto	i2l1194
  2017   00011C  0A1A               	xorlw	26	; case 81
  2018   00011E  B4D8               	btfsc	status,2,c
  2019   000120  EF1B  F000         	goto	i2l1190
  2020   000124  0A0B               	xorlw	11	; case 90
  2021   000126  B4D8               	btfsc	status,2,c
  2022   000128  EF3B  F000         	goto	i2l1198
  2023   00012C  EF5B  F000         	goto	i2l1206
  2024   000130                     i2l129:
  2025   000130  0012               	return		;funcret
  2026   000132                     __end_of_cont2_decrescente:
  2027                           	callstack 0
  2028                           
  2029 ;; *************** function _cont2_crescente *****************
  2030 ;; Defined at:
  2031 ;;		line 190 in file "Displays.c"
  2032 ;; Parameters:    Size  Location     Type
  2033 ;;		None
  2034 ;; Auto vars:     Size  Location     Type
  2035 ;;		None
  2036 ;; Return value:  Size  Location     Type
  2037 ;;                  1    wreg      void 
  2038 ;; Registers used:
  2039 ;;		wreg, status,2, status,0
  2040 ;; Tracked objects:
  2041 ;;		On entry : 0/0
  2042 ;;		On exit  : 0/0
  2043 ;;		Unchanged: 0/0
  2044 ;; Data sizes:     COMRAM   BANK0   BANK1   BANK2   BANK3   BANK4   BANK5
  2045 ;;      Params:         0       0       0       0       0       0       0
  2046 ;;      Locals:         0       0       0       0       0       0       0
  2047 ;;      Temps:          2       0       0       0       0       0       0
  2048 ;;      Totals:         2       0       0       0       0       0       0
  2049 ;;Total ram usage:        2 bytes
  2050 ;; Hardware stack levels used: 1
  2051 ;; This function calls:
  2052 ;;		Nothing
  2053 ;; This function is called by:
  2054 ;;		_contador_displays_02
  2055 ;; This function uses a non-reentrant model
  2056 ;;
  2057                           
  2058                           	psect	text18
  2059   000132                     __ptext18:
  2060                           	callstack 0
  2061   000132                     _cont2_crescente:
  2062                           	callstack 25
  2063   000132                     
  2064                           ;Displays.c: 192:     switch (estado_sequencia02)
  2065   000132  EFF3  F000         	goto	i2l1178
  2066   000136                     i2l1154:
  2067                           
  2068                           ;Displays.c: 195:             display3 = 2;
  2069   000136  0E02               	movlw	2
  2070   000138  6E2A               	movwf	_display3^0,c
  2071                           
  2072                           ;Displays.c: 196:             display4 = 0;
  2073   00013A  0E00               	movlw	0
  2074   00013C  6E29               	movwf	_display4^0,c
  2075                           
  2076                           ;Displays.c: 197:             estado_sequencia02 = 12;
  2077   00013E  0E0C               	movlw	12
  2078   000140  6E27               	movwf	_estado_sequencia02^0,c
  2079                           
  2080                           ;Displays.c: 198:             break;
  2081   000142  EF28  F001         	goto	i2l113
  2082   000146                     i2l1156:
  2083                           
  2084                           ;Displays.c: 201:             display3 = 1;
  2085   000146  0E01               	movlw	1
  2086   000148  6E2A               	movwf	_display3^0,c
  2087                           
  2088                           ;Displays.c: 202:             display4 = 2;
  2089   00014A  0E02               	movlw	2
  2090   00014C  6E29               	movwf	_display4^0,c
  2091                           
  2092                           ;Displays.c: 203:             estado_sequencia02 = 81;
  2093   00014E  0E51               	movlw	81
  2094   000150  6E27               	movwf	_estado_sequencia02^0,c
  2095                           
  2096                           ;Displays.c: 204:             break;
  2097   000152  EF28  F001         	goto	i2l113
  2098   000156                     i2l1158:
  2099                           
  2100                           ;Displays.c: 207:             display3 = 8;
  2101   000156  0E08               	movlw	8
  2102   000158  6E2A               	movwf	_display3^0,c
  2103                           
  2104                           ;Displays.c: 208:             display4 = 1;
  2105   00015A  0E01               	movlw	1
  2106   00015C  6E29               	movwf	_display4^0,c
  2107                           
  2108                           ;Displays.c: 209:             estado_sequencia02 = 31;
  2109   00015E  0E1F               	movlw	31
  2110   000160  6E27               	movwf	_estado_sequencia02^0,c
  2111                           
  2112                           ;Displays.c: 210:             break;
  2113   000162  EF28  F001         	goto	i2l113
  2114   000166                     i2l1160:
  2115                           
  2116                           ;Displays.c: 213:             display3 = 3;
  2117   000166  0E03               	movlw	3
  2118   000168  6E2A               	movwf	_display3^0,c
  2119                           
  2120                           ;Displays.c: 214:             display4 = 1;
  2121   00016A  0E01               	movlw	1
  2122   00016C  6E29               	movwf	_display4^0,c
  2123                           
  2124                           ;Displays.c: 215:             estado_sequencia02 = 75;
  2125   00016E  0E4B               	movlw	75
  2126   000170  6E27               	movwf	_estado_sequencia02^0,c
  2127                           
  2128                           ;Displays.c: 216:             break;
  2129   000172  EF28  F001         	goto	i2l113
  2130   000176                     i2l1162:
  2131                           
  2132                           ;Displays.c: 219:             display3 = 7;
  2133   000176  0E07               	movlw	7
  2134   000178  6E2A               	movwf	_display3^0,c
  2135                           
  2136                           ;Displays.c: 220:             display4 = 5;
  2137   00017A  0E05               	movlw	5
  2138   00017C  6E29               	movwf	_display4^0,c
  2139                           
  2140                           ;Displays.c: 221:             estado_sequencia02 = 65;
  2141   00017E  0E41               	movlw	65
  2142   000180  6E27               	movwf	_estado_sequencia02^0,c
  2143                           
  2144                           ;Displays.c: 222:             break;
  2145   000182  EF28  F001         	goto	i2l113
  2146   000186                     i2l1164:
  2147                           
  2148                           ;Displays.c: 225:             display3 = 6;
  2149   000186  0E06               	movlw	6
  2150   000188  6E2A               	movwf	_display3^0,c
  2151                           
  2152                           ;Displays.c: 226:             display4 = 5;
  2153   00018A  0E05               	movlw	5
  2154   00018C  6E29               	movwf	_display4^0,c
  2155                           
  2156                           ;Displays.c: 227:             estado_sequencia02 = 90;
  2157   00018E  0E5A               	movlw	90
  2158   000190  6E27               	movwf	_estado_sequencia02^0,c
  2159                           
  2160                           ;Displays.c: 228:             break;
  2161   000192  EF28  F001         	goto	i2l113
  2162   000196                     i2l1166:
  2163                           
  2164                           ;Displays.c: 231:             display3 = 9;
  2165   000196  0E09               	movlw	9
  2166   000198  6E2A               	movwf	_display3^0,c
  2167                           
  2168                           ;Displays.c: 232:             display4 = 0;
  2169   00019A  0E00               	movlw	0
  2170   00019C  6E29               	movwf	_display4^0,c
  2171                           
  2172                           ;Displays.c: 233:             estado_sequencia02 = 16;
  2173   00019E  0E10               	movlw	16
  2174   0001A0  6E27               	movwf	_estado_sequencia02^0,c
  2175                           
  2176                           ;Displays.c: 234:             break;
  2177   0001A2  EF28  F001         	goto	i2l113
  2178   0001A6                     i2l1168:
  2179                           
  2180                           ;Displays.c: 237:             display3 = 1;
  2181   0001A6  0E01               	movlw	1
  2182   0001A8  6E2A               	movwf	_display3^0,c
  2183                           
  2184                           ;Displays.c: 238:             display4 = 6;
  2185   0001AA  0E06               	movlw	6
  2186   0001AC  6E29               	movwf	_display4^0,c
  2187                           
  2188                           ;Displays.c: 239:             estado_sequencia02 = 58;
  2189   0001AE  0E3A               	movlw	58
  2190   0001B0  6E27               	movwf	_estado_sequencia02^0,c
  2191                           
  2192                           ;Displays.c: 240:             break;
  2193   0001B2  EF28  F001         	goto	i2l113
  2194   0001B6                     i2l1170:
  2195                           
  2196                           ;Displays.c: 243:             display3 = 5;
  2197   0001B6  0E05               	movlw	5
  2198   0001B8  6E2A               	movwf	_display3^0,c
  2199                           
  2200                           ;Displays.c: 244:             display4 = 8;
  2201   0001BA  0E08               	movlw	8
  2202   0001BC  6E29               	movwf	_display4^0,c
  2203                           
  2204                           ;Displays.c: 245:             estado_sequencia02 = 62;
  2205   0001BE  0E3E               	movlw	62
  2206   0001C0  6E27               	movwf	_estado_sequencia02^0,c
  2207                           
  2208                           ;Displays.c: 246:             break;
  2209   0001C2  EF28  F001         	goto	i2l113
  2210   0001C6                     i2l1172:
  2211                           
  2212                           ;Displays.c: 249:             display3 = 6;
  2213   0001C6  0E06               	movlw	6
  2214   0001C8  6E2A               	movwf	_display3^0,c
  2215                           
  2216                           ;Displays.c: 250:             display4 = 2;
  2217   0001CA  0E02               	movlw	2
  2218   0001CC  6E29               	movwf	_display4^0,c
  2219                           
  2220                           ;Displays.c: 251:             estado_sequencia02 = 20;
  2221   0001CE  0E14               	movlw	20
  2222   0001D0  6E27               	movwf	_estado_sequencia02^0,c
  2223                           
  2224                           ;Displays.c: 252:             break;
  2225   0001D2  EF28  F001         	goto	i2l113
  2226   0001D6                     i2l1174:
  2227                           
  2228                           ;Displays.c: 255:             display3 = 1;
  2229   0001D6  0E01               	movlw	1
  2230   0001D8  6E2A               	movwf	_display3^0,c
  2231                           
  2232                           ;Displays.c: 256:             display4 = 6;
  2233   0001DA  0E06               	movlw	6
  2234   0001DC  6E29               	movwf	_display4^0,c
  2235                           
  2236                           ;Displays.c: 257:             estado_sequencia02 = 16;
  2237   0001DE  0E10               	movlw	16
  2238   0001E0  6E27               	movwf	_estado_sequencia02^0,c
  2239                           
  2240                           ;Displays.c: 258:             break;
  2241   0001E2  EF28  F001         	goto	i2l113
  2242   0001E6                     i2l1178:
  2243   0001E6  5027               	movf	_estado_sequencia02^0,w,c
  2244   0001E8  6E2E               	movwf	??_cont2_crescente^0,c
  2245   0001EA  6A2F               	clrf	(??_cont2_crescente+1)^0,c
  2246                           
  2247                           ; Switch on 2 bytes has been partitioned into a top level switch of size 1, and 1 sub-sw
      +                          itches
  2248                           ; Switch size 1, requested type "simple"
  2249                           ; Number of cases is 1, Range of values is 0 to 0
  2250                           ; switch strategies available:
  2251                           ; Name         Instructions Cycles
  2252                           ; simple_byte            4     3 (average)
  2253                           ;	Chosen strategy is simple_byte
  2254   0001EC  502F               	movf	(??_cont2_crescente+1)^0,w,c
  2255   0001EE  0A00               	xorlw	0	; case 0
  2256   0001F0  B4D8               	btfsc	status,2,c
  2257   0001F2  EFFD  F000         	goto	i2l1548
  2258   0001F6  EFEB  F000         	goto	i2l1174
  2259   0001FA                     i2l1548:
  2260                           
  2261                           ; Switch size 1, requested type "simple"
  2262                           ; Number of cases is 10, Range of values is 12 to 90
  2263                           ; switch strategies available:
  2264                           ; Name         Instructions Cycles
  2265                           ; simple_byte           31    16 (average)
  2266                           ;	Chosen strategy is simple_byte
  2267   0001FA  502E               	movf	??_cont2_crescente^0,w,c
  2268   0001FC  0A0C               	xorlw	12	; case 12
  2269   0001FE  B4D8               	btfsc	status,2,c
  2270   000200  EFA3  F000         	goto	i2l1156
  2271   000204  0A1C               	xorlw	28	; case 16
  2272   000206  B4D8               	btfsc	status,2,c
  2273   000208  EFD3  F000         	goto	i2l1168
  2274   00020C  0A04               	xorlw	4	; case 20
  2275   00020E  B4D8               	btfsc	status,2,c
  2276   000210  EF9B  F000         	goto	i2l1154
  2277   000214  0A0B               	xorlw	11	; case 31
  2278   000216  B4D8               	btfsc	status,2,c
  2279   000218  EFB3  F000         	goto	i2l1160
  2280   00021C  0A25               	xorlw	37	; case 58
  2281   00021E  B4D8               	btfsc	status,2,c
  2282   000220  EFDB  F000         	goto	i2l1170
  2283   000224  0A04               	xorlw	4	; case 62
  2284   000226  B4D8               	btfsc	status,2,c
  2285   000228  EFE3  F000         	goto	i2l1172
  2286   00022C  0A7F               	xorlw	127	; case 65
  2287   00022E  B4D8               	btfsc	status,2,c
  2288   000230  EFC3  F000         	goto	i2l1164
  2289   000234  0A0A               	xorlw	10	; case 75
  2290   000236  B4D8               	btfsc	status,2,c
  2291   000238  EFBB  F000         	goto	i2l1162
  2292   00023C  0A1A               	xorlw	26	; case 81
  2293   00023E  B4D8               	btfsc	status,2,c
  2294   000240  EFAB  F000         	goto	i2l1158
  2295   000244  0A0B               	xorlw	11	; case 90
  2296   000246  B4D8               	btfsc	status,2,c
  2297   000248  EFCB  F000         	goto	i2l1166
  2298   00024C  EFEB  F000         	goto	i2l1174
  2299   000250                     i2l113:
  2300   000250  0012               	return		;funcret
  2301   000252                     __end_of_cont2_crescente:
  2302                           	callstack 0
  2303                           
  2304 ;; *************** function _contador_displays_01 *****************
  2305 ;; Defined at:
  2306 ;;		line 117 in file "P1_GA.c"
  2307 ;; Parameters:    Size  Location     Type
  2308 ;;		None
  2309 ;; Auto vars:     Size  Location     Type
  2310 ;;		None
  2311 ;; Return value:  Size  Location     Type
  2312 ;;                  1    wreg      void 
  2313 ;; Registers used:
  2314 ;;		wreg, status,2, status,0, cstack
  2315 ;; Tracked objects:
  2316 ;;		On entry : 0/0
  2317 ;;		On exit  : 0/0
  2318 ;;		Unchanged: 0/0
  2319 ;; Data sizes:     COMRAM   BANK0   BANK1   BANK2   BANK3   BANK4   BANK5
  2320 ;;      Params:         0       0       0       0       0       0       0
  2321 ;;      Locals:         0       0       0       0       0       0       0
  2322 ;;      Temps:          0       0       0       0       0       0       0
  2323 ;;      Totals:         0       0       0       0       0       0       0
  2324 ;;Total ram usage:        0 bytes
  2325 ;; Hardware stack levels used: 1
  2326 ;; Hardware stack levels required when called: 1
  2327 ;; This function calls:
  2328 ;;		_cont1_crescente
  2329 ;;		_cont1_decrescente
  2330 ;; This function is called by:
  2331 ;;		_f_timers
  2332 ;; This function uses a non-reentrant model
  2333 ;;
  2334                           
  2335                           	psect	text19
  2336   00093E                     __ptext19:
  2337                           	callstack 0
  2338   00093E                     _contador_displays_01:
  2339                           	callstack 25
  2340   00093E                     
  2341                           ;P1_GA.c: 119:     if(!pausa_ou_continua)
  2342   00093E  501D               	movf	_pausa_ou_continua^0,w,c
  2343   000940  A4D8               	btfss	status,2,c
  2344   000942  EFA5  F004         	goto	i2u3_41
  2345   000946  EFA7  F004         	goto	i2u3_40
  2346   00094A                     i2u3_41:
  2347   00094A  EFB5  F004         	goto	i2l342
  2348   00094E                     i2u3_40:
  2349   00094E                     
  2350                           ;P1_GA.c: 120:     {;P1_GA.c: 121:         if(!sequencia_1)
  2351   00094E  5025               	movf	_sequencia_1^0,w,c
  2352   000950  A4D8               	btfss	status,2,c
  2353   000952  EFAD  F004         	goto	i2u4_41
  2354   000956  EFAF  F004         	goto	i2u4_40
  2355   00095A                     i2u4_41:
  2356   00095A  EFB3  F004         	goto	i2l1292
  2357   00095E                     i2u4_40:
  2358   00095E                     
  2359                           ;P1_GA.c: 122:             cont1_crescente();
  2360   00095E  ECB9  F001         	call	_cont1_crescente	;wreg free
  2361   000962  EFB5  F004         	goto	i2l342
  2362   000966                     i2l1292:
  2363                           
  2364                           ;P1_GA.c: 125:             cont1_decrescente();
  2365   000966  EC29  F001         	call	_cont1_decrescente	;wreg free
  2366   00096A                     i2l342:
  2367   00096A  0012               	return		;funcret
  2368   00096C                     __end_of_contador_displays_01:
  2369                           	callstack 0
  2370                           
  2371 ;; *************** function _cont1_decrescente *****************
  2372 ;; Defined at:
  2373 ;;		line 119 in file "Displays.c"
  2374 ;; Parameters:    Size  Location     Type
  2375 ;;		None
  2376 ;; Auto vars:     Size  Location     Type
  2377 ;;		None
  2378 ;; Return value:  Size  Location     Type
  2379 ;;                  1    wreg      void 
  2380 ;; Registers used:
  2381 ;;		wreg, status,2, status,0
  2382 ;; Tracked objects:
  2383 ;;		On entry : 0/0
  2384 ;;		On exit  : 0/0
  2385 ;;		Unchanged: 0/0
  2386 ;; Data sizes:     COMRAM   BANK0   BANK1   BANK2   BANK3   BANK4   BANK5
  2387 ;;      Params:         0       0       0       0       0       0       0
  2388 ;;      Locals:         0       0       0       0       0       0       0
  2389 ;;      Temps:          2       0       0       0       0       0       0
  2390 ;;      Totals:         2       0       0       0       0       0       0
  2391 ;;Total ram usage:        2 bytes
  2392 ;; Hardware stack levels used: 1
  2393 ;; This function calls:
  2394 ;;		Nothing
  2395 ;; This function is called by:
  2396 ;;		_contador_displays_01
  2397 ;; This function uses a non-reentrant model
  2398 ;;
  2399                           
  2400                           	psect	text20
  2401   000252                     __ptext20:
  2402                           	callstack 0
  2403   000252                     _cont1_decrescente:
  2404                           	callstack 25
  2405   000252                     
  2406                           ;Displays.c: 121:     switch (estado_sequencia01) {
  2407   000252  EF83  F001         	goto	i2l1146
  2408   000256                     i2l1122:
  2409                           
  2410                           ;Displays.c: 123:             display1 = 1;
  2411   000256  0E01               	movlw	1
  2412   000258  6E2C               	movwf	_display1^0,c
  2413                           
  2414                           ;Displays.c: 124:             display2 = 3;
  2415   00025A  0E03               	movlw	3
  2416   00025C  6E2B               	movwf	_display2^0,c
  2417                           
  2418                           ;Displays.c: 125:             estado_sequencia01 = 41;
  2419   00025E  0E29               	movlw	41
  2420   000260  6E28               	movwf	_estado_sequencia01^0,c
  2421                           
  2422                           ;Displays.c: 126:             break;
  2423   000262  EFB8  F001         	goto	i2l97
  2424   000266                     i2l1124:
  2425                           
  2426                           ;Displays.c: 129:             display1 = 2;
  2427   000266  0E02               	movlw	2
  2428   000268  6E2C               	movwf	_display1^0,c
  2429                           
  2430                           ;Displays.c: 130:             display2 = 9;
  2431   00026A  0E09               	movlw	9
  2432   00026C  6E2B               	movwf	_display2^0,c
  2433                           
  2434                           ;Displays.c: 131:             estado_sequencia01 = 13;
  2435   00026E  0E0D               	movlw	13
  2436   000270  6E28               	movwf	_estado_sequencia01^0,c
  2437                           
  2438                           ;Displays.c: 132:             break;
  2439   000272  EFB8  F001         	goto	i2l97
  2440   000276                     i2l1126:
  2441                           
  2442                           ;Displays.c: 135:             display1 = 2;
  2443   000276  0E02               	movlw	2
  2444   000278  6E2C               	movwf	_display1^0,c
  2445                           
  2446                           ;Displays.c: 136:             display2 = 7;
  2447   00027A  0E07               	movlw	7
  2448   00027C  6E2B               	movwf	_display2^0,c
  2449                           
  2450                           ;Displays.c: 137:             estado_sequencia01 = 29;
  2451   00027E  0E1D               	movlw	29
  2452   000280  6E28               	movwf	_estado_sequencia01^0,c
  2453                           
  2454                           ;Displays.c: 138:             break;
  2455   000282  EFB8  F001         	goto	i2l97
  2456   000286                     i2l1128:
  2457                           
  2458                           ;Displays.c: 141:             display1 = 4;
  2459   000286  0E04               	movlw	4
  2460   000288  6E2C               	movwf	_display1^0,c
  2461                           
  2462                           ;Displays.c: 142:             display2 = 7;
  2463   00028A  0E07               	movlw	7
  2464   00028C  6E2B               	movwf	_display2^0,c
  2465                           
  2466                           ;Displays.c: 143:             estado_sequencia01 = 27;
  2467   00028E  0E1B               	movlw	27
  2468   000290  6E28               	movwf	_estado_sequencia01^0,c
  2469                           
  2470                           ;Displays.c: 144:             break;
  2471   000292  EFB8  F001         	goto	i2l97
  2472   000296                     i2l1130:
  2473                           
  2474                           ;Displays.c: 147:             display1 = 5;
  2475   000296  0E05               	movlw	5
  2476   000298  6E2C               	movwf	_display1^0,c
  2477                           
  2478                           ;Displays.c: 148:             display2 = 2;
  2479   00029A  0E02               	movlw	2
  2480   00029C  6E2B               	movwf	_display2^0,c
  2481                           
  2482                           ;Displays.c: 149:             estado_sequencia01 = 47;
  2483   00029E  0E2F               	movlw	47
  2484   0002A0  6E28               	movwf	_estado_sequencia01^0,c
  2485                           
  2486                           ;Displays.c: 150:             break;
  2487   0002A2  EFB8  F001         	goto	i2l97
  2488   0002A6                     i2l1132:
  2489                           
  2490                           ;Displays.c: 153:             display1 = 5;
  2491   0002A6  0E05               	movlw	5
  2492   0002A8  6E2C               	movwf	_display1^0,c
  2493                           
  2494                           ;Displays.c: 154:             display2 = 1;
  2495   0002AA  0E01               	movlw	1
  2496   0002AC  6E2B               	movwf	_display2^0,c
  2497                           
  2498                           ;Displays.c: 155:             estado_sequencia01 = 52;
  2499   0002AE  0E34               	movlw	52
  2500   0002B0  6E28               	movwf	_estado_sequencia01^0,c
  2501                           
  2502                           ;Displays.c: 156:             break;
  2503   0002B2  EFB8  F001         	goto	i2l97
  2504   0002B6                     i2l1134:
  2505                           
  2506                           ;Displays.c: 159:             display1 = 8;
  2507   0002B6  0E08               	movlw	8
  2508   0002B8  6E2C               	movwf	_display1^0,c
  2509                           
  2510                           ;Displays.c: 160:             display2 = 3;
  2511   0002BA  0E03               	movlw	3
  2512   0002BC  6E2B               	movwf	_display2^0,c
  2513                           
  2514                           ;Displays.c: 161:             estado_sequencia01 = 51;
  2515   0002BE  0E33               	movlw	51
  2516   0002C0  6E28               	movwf	_estado_sequencia01^0,c
  2517                           
  2518                           ;Displays.c: 162:             break;
  2519   0002C2  EFB8  F001         	goto	i2l97
  2520   0002C6                     i2l1136:
  2521                           
  2522                           ;Displays.c: 165:             display1 = 7;
  2523   0002C6  0E07               	movlw	7
  2524   0002C8  6E2C               	movwf	_display1^0,c
  2525                           
  2526                           ;Displays.c: 166:             display2 = 8;
  2527   0002CA  0E08               	movlw	8
  2528   0002CC  6E2B               	movwf	_display2^0,c
  2529                           
  2530                           ;Displays.c: 167:             estado_sequencia01 = 83;
  2531   0002CE  0E53               	movlw	83
  2532   0002D0  6E28               	movwf	_estado_sequencia01^0,c
  2533                           
  2534                           ;Displays.c: 168:             break;
  2535   0002D2  EFB8  F001         	goto	i2l97
  2536   0002D6                     i2l1138:
  2537                           
  2538                           ;Displays.c: 171:             display1 = 5;
  2539   0002D6  0E05               	movlw	5
  2540   0002D8  6E2C               	movwf	_display1^0,c
  2541                           
  2542                           ;Displays.c: 172:             display2 = 0;
  2543   0002DA  0E00               	movlw	0
  2544   0002DC  6E2B               	movwf	_display2^0,c
  2545                           
  2546                           ;Displays.c: 173:             estado_sequencia01 = 78;
  2547   0002DE  0E4E               	movlw	78
  2548   0002E0  6E28               	movwf	_estado_sequencia01^0,c
  2549                           
  2550                           ;Displays.c: 174:             break;
  2551   0002E2  EFB8  F001         	goto	i2l97
  2552   0002E6                     i2l1140:
  2553                           
  2554                           ;Displays.c: 177:             display1 = 4;
  2555   0002E6  0E04               	movlw	4
  2556   0002E8  6E2C               	movwf	_display1^0,c
  2557                           
  2558                           ;Displays.c: 178:             display2 = 1;
  2559   0002EA  0E01               	movlw	1
  2560   0002EC  6E2B               	movwf	_display2^0,c
  2561                           
  2562                           ;Displays.c: 179:             estado_sequencia01 = 50;
  2563   0002EE  0E32               	movlw	50
  2564   0002F0  6E28               	movwf	_estado_sequencia01^0,c
  2565                           
  2566                           ;Displays.c: 180:             break;
  2567   0002F2  EFB8  F001         	goto	i2l97
  2568   0002F6                     i2l1142:
  2569                           
  2570                           ;Displays.c: 183:             display1 = 2;
  2571   0002F6  0E02               	movlw	2
  2572   0002F8  6E2C               	movwf	_display1^0,c
  2573                           
  2574                           ;Displays.c: 184:             display2 = 7;
  2575   0002FA  0E07               	movlw	7
  2576   0002FC  6E2B               	movwf	_display2^0,c
  2577                           
  2578                           ;Displays.c: 185:             estado_sequencia01 = 27;
  2579   0002FE  0E1B               	movlw	27
  2580   000300  6E28               	movwf	_estado_sequencia01^0,c
  2581                           
  2582                           ;Displays.c: 186:             break;
  2583   000302  EFB8  F001         	goto	i2l97
  2584   000306                     i2l1146:
  2585   000306  5028               	movf	_estado_sequencia01^0,w,c
  2586   000308  6E2E               	movwf	??_cont1_decrescente^0,c
  2587   00030A  6A2F               	clrf	(??_cont1_decrescente+1)^0,c
  2588                           
  2589                           ; Switch on 2 bytes has been partitioned into a top level switch of size 1, and 1 sub-sw
      +                          itches
  2590                           ; Switch size 1, requested type "simple"
  2591                           ; Number of cases is 1, Range of values is 0 to 0
  2592                           ; switch strategies available:
  2593                           ; Name         Instructions Cycles
  2594                           ; simple_byte            4     3 (average)
  2595                           ;	Chosen strategy is simple_byte
  2596   00030C  502F               	movf	(??_cont1_decrescente+1)^0,w,c
  2597   00030E  0A00               	xorlw	0	; case 0
  2598   000310  B4D8               	btfsc	status,2,c
  2599   000312  EF8D  F001         	goto	i2l1550
  2600   000316  EF7B  F001         	goto	i2l1142
  2601   00031A                     i2l1550:
  2602                           
  2603                           ; Switch size 1, requested type "simple"
  2604                           ; Number of cases is 10, Range of values is 13 to 83
  2605                           ; switch strategies available:
  2606                           ; Name         Instructions Cycles
  2607                           ; simple_byte           31    16 (average)
  2608                           ;	Chosen strategy is simple_byte
  2609   00031A  502E               	movf	??_cont1_decrescente^0,w,c
  2610   00031C  0A0D               	xorlw	13	; case 13
  2611   00031E  B4D8               	btfsc	status,2,c
  2612   000320  EF2B  F001         	goto	i2l1122
  2613   000324  0A16               	xorlw	22	; case 27
  2614   000326  B4D8               	btfsc	status,2,c
  2615   000328  EF3B  F001         	goto	i2l1126
  2616   00032C  0A06               	xorlw	6	; case 29
  2617   00032E  B4D8               	btfsc	status,2,c
  2618   000330  EF33  F001         	goto	i2l1124
  2619   000334  0A34               	xorlw	52	; case 41
  2620   000336  B4D8               	btfsc	status,2,c
  2621   000338  EF73  F001         	goto	i2l1140
  2622   00033C  0A06               	xorlw	6	; case 47
  2623   00033E  B4D8               	btfsc	status,2,c
  2624   000340  EF43  F001         	goto	i2l1128
  2625   000344  0A1D               	xorlw	29	; case 50
  2626   000346  B4D8               	btfsc	status,2,c
  2627   000348  EF6B  F001         	goto	i2l1138
  2628   00034C  0A01               	xorlw	1	; case 51
  2629   00034E  B4D8               	btfsc	status,2,c
  2630   000350  EF53  F001         	goto	i2l1132
  2631   000354  0A07               	xorlw	7	; case 52
  2632   000356  B4D8               	btfsc	status,2,c
  2633   000358  EF4B  F001         	goto	i2l1130
  2634   00035C  0A7A               	xorlw	122	; case 78
  2635   00035E  B4D8               	btfsc	status,2,c
  2636   000360  EF63  F001         	goto	i2l1136
  2637   000364  0A1D               	xorlw	29	; case 83
  2638   000366  B4D8               	btfsc	status,2,c
  2639   000368  EF5B  F001         	goto	i2l1134
  2640   00036C  EF7B  F001         	goto	i2l1142
  2641   000370                     i2l97:
  2642   000370  0012               	return		;funcret
  2643   000372                     __end_of_cont1_decrescente:
  2644                           	callstack 0
  2645                           
  2646 ;; *************** function _cont1_crescente *****************
  2647 ;; Defined at:
  2648 ;;		line 48 in file "Displays.c"
  2649 ;; Parameters:    Size  Location     Type
  2650 ;;		None
  2651 ;; Auto vars:     Size  Location     Type
  2652 ;;		None
  2653 ;; Return value:  Size  Location     Type
  2654 ;;                  1    wreg      void 
  2655 ;; Registers used:
  2656 ;;		wreg, status,2, status,0
  2657 ;; Tracked objects:
  2658 ;;		On entry : 0/0
  2659 ;;		On exit  : 0/0
  2660 ;;		Unchanged: 0/0
  2661 ;; Data sizes:     COMRAM   BANK0   BANK1   BANK2   BANK3   BANK4   BANK5
  2662 ;;      Params:         0       0       0       0       0       0       0
  2663 ;;      Locals:         0       0       0       0       0       0       0
  2664 ;;      Temps:          2       0       0       0       0       0       0
  2665 ;;      Totals:         2       0       0       0       0       0       0
  2666 ;;Total ram usage:        2 bytes
  2667 ;; Hardware stack levels used: 1
  2668 ;; This function calls:
  2669 ;;		Nothing
  2670 ;; This function is called by:
  2671 ;;		_contador_displays_01
  2672 ;; This function uses a non-reentrant model
  2673 ;;
  2674                           
  2675                           	psect	text21
  2676   000372                     __ptext21:
  2677                           	callstack 0
  2678   000372                     _cont1_crescente:
  2679                           	callstack 25
  2680   000372                     
  2681                           ;Displays.c: 50:     switch (estado_sequencia01) {
  2682   000372  EF13  F002         	goto	i2l1114
  2683   000376                     i2l1090:
  2684                           
  2685                           ;Displays.c: 52:             display1 = 1;
  2686   000376  0E01               	movlw	1
  2687   000378  6E2C               	movwf	_display1^0,c
  2688                           
  2689                           ;Displays.c: 53:             display2 = 3;
  2690   00037A  0E03               	movlw	3
  2691   00037C  6E2B               	movwf	_display2^0,c
  2692                           
  2693                           ;Displays.c: 54:             estado_sequencia01 = 29;
  2694   00037E  0E1D               	movlw	29
  2695   000380  6E28               	movwf	_estado_sequencia01^0,c
  2696                           
  2697                           ;Displays.c: 55:             break;
  2698   000382  EF48  F002         	goto	i2l81
  2699   000386                     i2l1092:
  2700                           
  2701                           ;Displays.c: 58:             display1 = 2;
  2702   000386  0E02               	movlw	2
  2703   000388  6E2C               	movwf	_display1^0,c
  2704                           
  2705                           ;Displays.c: 59:             display2 = 9;
  2706   00038A  0E09               	movlw	9
  2707   00038C  6E2B               	movwf	_display2^0,c
  2708                           
  2709                           ;Displays.c: 60:             estado_sequencia01 = 27;
  2710   00038E  0E1B               	movlw	27
  2711   000390  6E28               	movwf	_estado_sequencia01^0,c
  2712                           
  2713                           ;Displays.c: 61:             break;
  2714   000392  EF48  F002         	goto	i2l81
  2715   000396                     i2l1094:
  2716                           
  2717                           ;Displays.c: 64:             display1 = 2;
  2718   000396  0E02               	movlw	2
  2719   000398  6E2C               	movwf	_display1^0,c
  2720                           
  2721                           ;Displays.c: 65:             display2 = 7;
  2722   00039A  0E07               	movlw	7
  2723   00039C  6E2B               	movwf	_display2^0,c
  2724                           
  2725                           ;Displays.c: 66:             estado_sequencia01 = 47;
  2726   00039E  0E2F               	movlw	47
  2727   0003A0  6E28               	movwf	_estado_sequencia01^0,c
  2728                           
  2729                           ;Displays.c: 67:             break;
  2730   0003A2  EF48  F002         	goto	i2l81
  2731   0003A6                     i2l1096:
  2732                           
  2733                           ;Displays.c: 70:             display1 = 4;
  2734   0003A6  0E04               	movlw	4
  2735   0003A8  6E2C               	movwf	_display1^0,c
  2736                           
  2737                           ;Displays.c: 71:             display2 = 7;
  2738   0003AA  0E07               	movlw	7
  2739   0003AC  6E2B               	movwf	_display2^0,c
  2740                           
  2741                           ;Displays.c: 72:             estado_sequencia01 = 52;
  2742   0003AE  0E34               	movlw	52
  2743   0003B0  6E28               	movwf	_estado_sequencia01^0,c
  2744                           
  2745                           ;Displays.c: 73:             break;
  2746   0003B2  EF48  F002         	goto	i2l81
  2747   0003B6                     i2l1098:
  2748                           
  2749                           ;Displays.c: 76:             display1 = 5;
  2750   0003B6  0E05               	movlw	5
  2751   0003B8  6E2C               	movwf	_display1^0,c
  2752                           
  2753                           ;Displays.c: 77:             display2 = 2;
  2754   0003BA  0E02               	movlw	2
  2755   0003BC  6E2B               	movwf	_display2^0,c
  2756                           
  2757                           ;Displays.c: 78:             estado_sequencia01 = 51;
  2758   0003BE  0E33               	movlw	51
  2759   0003C0  6E28               	movwf	_estado_sequencia01^0,c
  2760                           
  2761                           ;Displays.c: 79:             break;
  2762   0003C2  EF48  F002         	goto	i2l81
  2763   0003C6                     i2l1100:
  2764                           
  2765                           ;Displays.c: 82:             display1 = 5;
  2766   0003C6  0E05               	movlw	5
  2767   0003C8  6E2C               	movwf	_display1^0,c
  2768                           
  2769                           ;Displays.c: 83:             display2 = 1;
  2770   0003CA  0E01               	movlw	1
  2771   0003CC  6E2B               	movwf	_display2^0,c
  2772                           
  2773                           ;Displays.c: 84:             estado_sequencia01 = 83;
  2774   0003CE  0E53               	movlw	83
  2775   0003D0  6E28               	movwf	_estado_sequencia01^0,c
  2776                           
  2777                           ;Displays.c: 85:             break;
  2778   0003D2  EF48  F002         	goto	i2l81
  2779   0003D6                     i2l1102:
  2780                           
  2781                           ;Displays.c: 88:             display1 = 8;
  2782   0003D6  0E08               	movlw	8
  2783   0003D8  6E2C               	movwf	_display1^0,c
  2784                           
  2785                           ;Displays.c: 89:             display2 = 3;
  2786   0003DA  0E03               	movlw	3
  2787   0003DC  6E2B               	movwf	_display2^0,c
  2788                           
  2789                           ;Displays.c: 90:             estado_sequencia01 = 78;
  2790   0003DE  0E4E               	movlw	78
  2791   0003E0  6E28               	movwf	_estado_sequencia01^0,c
  2792                           
  2793                           ;Displays.c: 91:             break;
  2794   0003E2  EF48  F002         	goto	i2l81
  2795   0003E6                     i2l1104:
  2796                           
  2797                           ;Displays.c: 94:             display1 = 7;
  2798   0003E6  0E07               	movlw	7
  2799   0003E8  6E2C               	movwf	_display1^0,c
  2800                           
  2801                           ;Displays.c: 95:             display2 = 8;
  2802   0003EA  0E08               	movlw	8
  2803   0003EC  6E2B               	movwf	_display2^0,c
  2804                           
  2805                           ;Displays.c: 96:             estado_sequencia01 = 50;
  2806   0003EE  0E32               	movlw	50
  2807   0003F0  6E28               	movwf	_estado_sequencia01^0,c
  2808                           
  2809                           ;Displays.c: 97:             break;
  2810   0003F2  EF48  F002         	goto	i2l81
  2811   0003F6                     i2l1106:
  2812                           
  2813                           ;Displays.c: 100:             display1 = 5;
  2814   0003F6  0E05               	movlw	5
  2815   0003F8  6E2C               	movwf	_display1^0,c
  2816                           
  2817                           ;Displays.c: 101:             display2 = 0;
  2818   0003FA  0E00               	movlw	0
  2819   0003FC  6E2B               	movwf	_display2^0,c
  2820                           
  2821                           ;Displays.c: 102:             estado_sequencia01 = 41;
  2822   0003FE  0E29               	movlw	41
  2823   000400  6E28               	movwf	_estado_sequencia01^0,c
  2824                           
  2825                           ;Displays.c: 103:             break;
  2826   000402  EF48  F002         	goto	i2l81
  2827   000406                     i2l1108:
  2828                           
  2829                           ;Displays.c: 106:             display1 = 4;
  2830   000406  0E04               	movlw	4
  2831   000408  6E2C               	movwf	_display1^0,c
  2832                           
  2833                           ;Displays.c: 107:             display2 = 1;
  2834   00040A  0E01               	movlw	1
  2835   00040C  6E2B               	movwf	_display2^0,c
  2836                           
  2837                           ;Displays.c: 108:             estado_sequencia01 = 13;
  2838   00040E  0E0D               	movlw	13
  2839   000410  6E28               	movwf	_estado_sequencia01^0,c
  2840                           
  2841                           ;Displays.c: 109:             break;
  2842   000412  EF48  F002         	goto	i2l81
  2843   000416                     i2l1110:
  2844                           
  2845                           ;Displays.c: 112:             display1 = 2;
  2846   000416  0E02               	movlw	2
  2847   000418  6E2C               	movwf	_display1^0,c
  2848                           
  2849                           ;Displays.c: 113:             display2 = 7;
  2850   00041A  0E07               	movlw	7
  2851   00041C  6E2B               	movwf	_display2^0,c
  2852                           
  2853                           ;Displays.c: 114:             estado_sequencia01 = 27;
  2854   00041E  0E1B               	movlw	27
  2855   000420  6E28               	movwf	_estado_sequencia01^0,c
  2856                           
  2857                           ;Displays.c: 115:             break;
  2858   000422  EF48  F002         	goto	i2l81
  2859   000426                     i2l1114:
  2860   000426  5028               	movf	_estado_sequencia01^0,w,c
  2861   000428  6E2E               	movwf	??_cont1_crescente^0,c
  2862   00042A  6A2F               	clrf	(??_cont1_crescente+1)^0,c
  2863                           
  2864                           ; Switch on 2 bytes has been partitioned into a top level switch of size 1, and 1 sub-sw
      +                          itches
  2865                           ; Switch size 1, requested type "simple"
  2866                           ; Number of cases is 1, Range of values is 0 to 0
  2867                           ; switch strategies available:
  2868                           ; Name         Instructions Cycles
  2869                           ; simple_byte            4     3 (average)
  2870                           ;	Chosen strategy is simple_byte
  2871   00042C  502F               	movf	(??_cont1_crescente+1)^0,w,c
  2872   00042E  0A00               	xorlw	0	; case 0
  2873   000430  B4D8               	btfsc	status,2,c
  2874   000432  EF1D  F002         	goto	i2l1552
  2875   000436  EF0B  F002         	goto	i2l1110
  2876   00043A                     i2l1552:
  2877                           
  2878                           ; Switch size 1, requested type "simple"
  2879                           ; Number of cases is 10, Range of values is 13 to 83
  2880                           ; switch strategies available:
  2881                           ; Name         Instructions Cycles
  2882                           ; simple_byte           31    16 (average)
  2883                           ;	Chosen strategy is simple_byte
  2884   00043A  502E               	movf	??_cont1_crescente^0,w,c
  2885   00043C  0A0D               	xorlw	13	; case 13
  2886   00043E  B4D8               	btfsc	status,2,c
  2887   000440  EFBB  F001         	goto	i2l1090
  2888   000444  0A16               	xorlw	22	; case 27
  2889   000446  B4D8               	btfsc	status,2,c
  2890   000448  EFCB  F001         	goto	i2l1094
  2891   00044C  0A06               	xorlw	6	; case 29
  2892   00044E  B4D8               	btfsc	status,2,c
  2893   000450  EFC3  F001         	goto	i2l1092
  2894   000454  0A34               	xorlw	52	; case 41
  2895   000456  B4D8               	btfsc	status,2,c
  2896   000458  EF03  F002         	goto	i2l1108
  2897   00045C  0A06               	xorlw	6	; case 47
  2898   00045E  B4D8               	btfsc	status,2,c
  2899   000460  EFD3  F001         	goto	i2l1096
  2900   000464  0A1D               	xorlw	29	; case 50
  2901   000466  B4D8               	btfsc	status,2,c
  2902   000468  EFFB  F001         	goto	i2l1106
  2903   00046C  0A01               	xorlw	1	; case 51
  2904   00046E  B4D8               	btfsc	status,2,c
  2905   000470  EFE3  F001         	goto	i2l1100
  2906   000474  0A07               	xorlw	7	; case 52
  2907   000476  B4D8               	btfsc	status,2,c
  2908   000478  EFDB  F001         	goto	i2l1098
  2909   00047C  0A7A               	xorlw	122	; case 78
  2910   00047E  B4D8               	btfsc	status,2,c
  2911   000480  EFF3  F001         	goto	i2l1104
  2912   000484  0A1D               	xorlw	29	; case 83
  2913   000486  B4D8               	btfsc	status,2,c
  2914   000488  EFEB  F001         	goto	i2l1102
  2915   00048C  EF0B  F002         	goto	i2l1110
  2916   000490                     i2l81:
  2917   000490  0012               	return		;funcret
  2918   000492                     __end_of_cont1_crescente:
  2919                           	callstack 0
  2920                           
  2921 ;; *************** function _Read_AD *****************
  2922 ;; Defined at:
  2923 ;;		line 85 in file "P1_GA.c"
  2924 ;; Parameters:    Size  Location     Type
  2925 ;;		None
  2926 ;; Auto vars:     Size  Location     Type
  2927 ;;		None
  2928 ;; Return value:  Size  Location     Type
  2929 ;;                  1    wreg      void 
  2930 ;; Registers used:
  2931 ;;		wreg, status,2, status,0
  2932 ;; Tracked objects:
  2933 ;;		On entry : 0/0
  2934 ;;		On exit  : 0/0
  2935 ;;		Unchanged: 0/0
  2936 ;; Data sizes:     COMRAM   BANK0   BANK1   BANK2   BANK3   BANK4   BANK5
  2937 ;;      Params:         0       0       0       0       0       0       0
  2938 ;;      Locals:         0       0       0       0       0       0       0
  2939 ;;      Temps:          2       0       0       0       0       0       0
  2940 ;;      Totals:         2       0       0       0       0       0       0
  2941 ;;Total ram usage:        2 bytes
  2942 ;; Hardware stack levels used: 1
  2943 ;; This function calls:
  2944 ;;		Nothing
  2945 ;; This function is called by:
  2946 ;;		_f_timers
  2947 ;; This function uses a non-reentrant model
  2948 ;;
  2949                           
  2950                           	psect	text22
  2951   000724                     __ptext22:
  2952                           	callstack 0
  2953   000724                     _Read_AD:
  2954                           	callstack 26
  2955   000724                     
  2956                           ;P1_GA.c: 87:     static uint8_t Valor_AD0 = 0;;P1_GA.c: 89:     Valor_AD0 = AD_data[0] 
      +                          >> 6;
  2957   000724  441E               	rlncf	_AD_data^0,w,c
  2958   000726  46E8               	rlncf	wreg,f,c
  2959   000728  0B03               	andlw	3
  2960   00072A  6E23               	movwf	Read_AD@Valor_AD0^0,c
  2961                           
  2962                           ;P1_GA.c: 91:     switch(Valor_AD0)
  2963   00072C  EFB0  F003         	goto	i2l1370
  2964   000730                     i2l1360:
  2965                           
  2966                           ;P1_GA.c: 94:             sequencia_1 = 0; sequencia_2 = 0;
  2967   000730  0E00               	movlw	0
  2968   000732  6E25               	movwf	_sequencia_1^0,c
  2969   000734  0E00               	movlw	0
  2970   000736  6E24               	movwf	_sequencia_2^0,c
  2971                           
  2972                           ;P1_GA.c: 95:             break;
  2973   000738  EFCD  F003         	goto	i2l333
  2974   00073C                     i2l1362:
  2975                           
  2976                           ;P1_GA.c: 98:             sequencia_1 = 0; sequencia_2 = 1;
  2977   00073C  0E00               	movlw	0
  2978   00073E  6E25               	movwf	_sequencia_1^0,c
  2979   000740  0E01               	movlw	1
  2980   000742  6E24               	movwf	_sequencia_2^0,c
  2981                           
  2982                           ;P1_GA.c: 99:             break;
  2983   000744  EFCD  F003         	goto	i2l333
  2984   000748                     i2l1364:
  2985                           
  2986                           ;P1_GA.c: 102:             sequencia_1 = 1; sequencia_2 = 0;
  2987   000748  0E01               	movlw	1
  2988   00074A  6E25               	movwf	_sequencia_1^0,c
  2989   00074C  0E00               	movlw	0
  2990   00074E  6E24               	movwf	_sequencia_2^0,c
  2991                           
  2992                           ;P1_GA.c: 103:             break;
  2993   000750  EFCD  F003         	goto	i2l333
  2994   000754                     i2l1366:
  2995                           
  2996                           ;P1_GA.c: 106:             sequencia_1 = 1; sequencia_2 = 1;
  2997   000754  0E01               	movlw	1
  2998   000756  6E25               	movwf	_sequencia_1^0,c
  2999   000758  0E01               	movlw	1
  3000   00075A  6E24               	movwf	_sequencia_2^0,c
  3001                           
  3002                           ;P1_GA.c: 107:             break;
  3003   00075C  EFCD  F003         	goto	i2l333
  3004   000760                     i2l1370:
  3005   000760  5023               	movf	Read_AD@Valor_AD0^0,w,c
  3006   000762  6E2E               	movwf	??_Read_AD^0,c
  3007   000764  6A2F               	clrf	(??_Read_AD+1)^0,c
  3008                           
  3009                           ; Switch on 2 bytes has been partitioned into a top level switch of size 1, and 1 sub-sw
      +                          itches
  3010                           ; Switch size 1, requested type "simple"
  3011                           ; Number of cases is 1, Range of values is 0 to 0
  3012                           ; switch strategies available:
  3013                           ; Name         Instructions Cycles
  3014                           ; simple_byte            4     3 (average)
  3015                           ;	Chosen strategy is simple_byte
  3016   000766  502F               	movf	(??_Read_AD+1)^0,w,c
  3017   000768  0A00               	xorlw	0	; case 0
  3018   00076A  B4D8               	btfsc	status,2,c
  3019   00076C  EFBA  F003         	goto	i2l1554
  3020   000770  EFCD  F003         	goto	i2l333
  3021   000774                     i2l1554:
  3022                           
  3023                           ; Switch size 1, requested type "simple"
  3024                           ; Number of cases is 4, Range of values is 0 to 3
  3025                           ; switch strategies available:
  3026                           ; Name         Instructions Cycles
  3027                           ; simple_byte           13     7 (average)
  3028                           ;	Chosen strategy is simple_byte
  3029   000774  502E               	movf	??_Read_AD^0,w,c
  3030   000776  0A00               	xorlw	0	; case 0
  3031   000778  B4D8               	btfsc	status,2,c
  3032   00077A  EF98  F003         	goto	i2l1360
  3033   00077E  0A01               	xorlw	1	; case 1
  3034   000780  B4D8               	btfsc	status,2,c
  3035   000782  EF9E  F003         	goto	i2l1362
  3036   000786  0A03               	xorlw	3	; case 2
  3037   000788  B4D8               	btfsc	status,2,c
  3038   00078A  EFA4  F003         	goto	i2l1364
  3039   00078E  0A01               	xorlw	1	; case 3
  3040   000790  B4D8               	btfsc	status,2,c
  3041   000792  EFAA  F003         	goto	i2l1366
  3042   000796  EFCD  F003         	goto	i2l333
  3043   00079A                     i2l333:
  3044   00079A  0012               	return		;funcret
  3045   00079C                     __end_of_Read_AD:
  3046                           	callstack 0
  3047                           
  3048 ;; *************** function _LED_State *****************
  3049 ;; Defined at:
  3050 ;;		line 280 in file "P1_GA.c"
  3051 ;; Parameters:    Size  Location     Type
  3052 ;;		None
  3053 ;; Auto vars:     Size  Location     Type
  3054 ;;		None
  3055 ;; Return value:  Size  Location     Type
  3056 ;;                  1    wreg      void 
  3057 ;; Registers used:
  3058 ;;		wreg, status,2, status,0
  3059 ;; Tracked objects:
  3060 ;;		On entry : 0/0
  3061 ;;		On exit  : 0/0
  3062 ;;		Unchanged: 0/0
  3063 ;; Data sizes:     COMRAM   BANK0   BANK1   BANK2   BANK3   BANK4   BANK5
  3064 ;;      Params:         0       0       0       0       0       0       0
  3065 ;;      Locals:         0       0       0       0       0       0       0
  3066 ;;      Temps:          0       0       0       0       0       0       0
  3067 ;;      Totals:         0       0       0       0       0       0       0
  3068 ;;Total ram usage:        0 bytes
  3069 ;; Hardware stack levels used: 1
  3070 ;; This function calls:
  3071 ;;		Nothing
  3072 ;; This function is called by:
  3073 ;;		_f_timers
  3074 ;; This function uses a non-reentrant model
  3075 ;;
  3076                           
  3077                           	psect	text23
  3078   00069E                     __ptext23:
  3079                           	callstack 0
  3080   00069E                     _LED_State:
  3081                           	callstack 26
  3082   00069E                     
  3083                           ;P1_GA.c: 282:     if(pausa_ou_continua)
  3084   00069E  501D               	movf	_pausa_ou_continua^0,w,c
  3085   0006A0  B4D8               	btfsc	status,2,c
  3086   0006A2  EF55  F003         	goto	i2u7_41
  3087   0006A6  EF57  F003         	goto	i2u7_40
  3088   0006AA                     i2u7_41:
  3089   0006AA  EF5A  F003         	goto	i2l402
  3090   0006AE                     i2u7_40:
  3091   0006AE                     
  3092                           ;P1_GA.c: 283:     {;P1_GA.c: 284:        LATB0 = 1;
  3093   0006AE  808A               	bsf	3978,0,c	;volatile
  3094                           
  3095                           ;P1_GA.c: 285:     }
  3096   0006B0  EF5B  F003         	goto	i2l1306
  3097   0006B4                     i2l402:
  3098                           
  3099                           ;P1_GA.c: 288:     {;P1_GA.c: 289:         LATB0 = 0;
  3100   0006B4  908A               	bcf	3978,0,c	;volatile
  3101   0006B6                     i2l1306:
  3102                           
  3103                           ;P1_GA.c: 292:     if(!sequencia_1)
  3104   0006B6  5025               	movf	_sequencia_1^0,w,c
  3105   0006B8  A4D8               	btfss	status,2,c
  3106   0006BA  EF61  F003         	goto	i2u8_41
  3107   0006BE  EF63  F003         	goto	i2u8_40
  3108   0006C2                     i2u8_41:
  3109   0006C2  EF66  F003         	goto	i2l404
  3110   0006C6                     i2u8_40:
  3111   0006C6                     
  3112                           ;P1_GA.c: 293:     {;P1_GA.c: 294:         LATB1 = 1;
  3113   0006C6  828A               	bsf	3978,1,c	;volatile
  3114                           
  3115                           ;P1_GA.c: 295:     }
  3116   0006C8  EF67  F003         	goto	i2l1310
  3117   0006CC                     i2l404:
  3118                           
  3119                           ;P1_GA.c: 298:     {;P1_GA.c: 299:         LATB1 = 0;
  3120   0006CC  928A               	bcf	3978,1,c	;volatile
  3121   0006CE                     i2l1310:
  3122                           
  3123                           ;P1_GA.c: 302:     if(!sequencia_2)
  3124   0006CE  5024               	movf	_sequencia_2^0,w,c
  3125   0006D0  A4D8               	btfss	status,2,c
  3126   0006D2  EF6D  F003         	goto	i2u9_41
  3127   0006D6  EF6F  F003         	goto	i2u9_40
  3128   0006DA                     i2u9_41:
  3129   0006DA  EF72  F003         	goto	i2l406
  3130   0006DE                     i2u9_40:
  3131   0006DE                     
  3132                           ;P1_GA.c: 303:     {;P1_GA.c: 304:         LATB2 = 1;
  3133   0006DE  848A               	bsf	3978,2,c	;volatile
  3134                           
  3135                           ;P1_GA.c: 305:     }
  3136   0006E0  EF73  F003         	goto	i2l1314
  3137   0006E4                     i2l406:
  3138                           
  3139                           ;P1_GA.c: 308:     {;P1_GA.c: 309:         LATB2 = 0;
  3140   0006E4  948A               	bcf	3978,2,c	;volatile
  3141   0006E6                     i2l1314:
  3142                           
  3143                           ;P1_GA.c: 312:     if(temporizador1 == 300)
  3144   0006E6  0E2C               	movlw	44
  3145   0006E8  1838               	xorwf	_temporizador1^0,w,c
  3146   0006EA  E106               	bnz	i2u10_41
  3147   0006EC  0439               	decf	(_temporizador1+1)^0,w,c
  3148   0006EE  A4D8               	btfss	status,2,c
  3149   0006F0  EF7C  F003         	goto	i2u10_41
  3150   0006F4  EF7E  F003         	goto	i2u10_40
  3151   0006F8                     i2u10_41:
  3152   0006F8  EF81  F003         	goto	i2l408
  3153   0006FC                     i2u10_40:
  3154   0006FC                     
  3155                           ;P1_GA.c: 313:     {;P1_GA.c: 314:         LATB6 = 1;
  3156   0006FC  8C8A               	bsf	3978,6,c	;volatile
  3157                           
  3158                           ;P1_GA.c: 315:     }
  3159   0006FE  EF82  F003         	goto	i2l1318
  3160   000702                     i2l408:
  3161                           
  3162                           ;P1_GA.c: 318:     {;P1_GA.c: 319:         LATB6 = 0;
  3163   000702  9C8A               	bcf	3978,6,c	;volatile
  3164   000704                     i2l1318:
  3165                           
  3166                           ;P1_GA.c: 322:     if(temporizador2 == 300)
  3167   000704  0E2C               	movlw	44
  3168   000706  1836               	xorwf	_temporizador2^0,w,c
  3169   000708  E106               	bnz	i2u11_41
  3170   00070A  0437               	decf	(_temporizador2+1)^0,w,c
  3171   00070C  A4D8               	btfss	status,2,c
  3172   00070E  EF8B  F003         	goto	i2u11_41
  3173   000712  EF8D  F003         	goto	i2u11_40
  3174   000716                     i2u11_41:
  3175   000716  EF90  F003         	goto	i2l410
  3176   00071A                     i2u11_40:
  3177   00071A                     
  3178                           ;P1_GA.c: 323:     {;P1_GA.c: 324:         LATB7 = 1;
  3179   00071A  8E8A               	bsf	3978,7,c	;volatile
  3180                           
  3181                           ;P1_GA.c: 325:     }
  3182   00071C  EF91  F003         	goto	i2l412
  3183   000720                     i2l410:
  3184                           
  3185                           ;P1_GA.c: 328:     {;P1_GA.c: 329:         LATB7 = 0;
  3186   000720  9E8A               	bcf	3978,7,c	;volatile
  3187   000722                     i2l412:
  3188   000722  0012               	return		;funcret
  3189   000724                     __end_of_LED_State:
  3190                           	callstack 0
  3191                           
  3192 ;; *************** function _ADC_maq *****************
  3193 ;; Defined at:
  3194 ;;		line 32 in file "ADC.c"
  3195 ;; Parameters:    Size  Location     Type
  3196 ;;		None
  3197 ;; Auto vars:     Size  Location     Type
  3198 ;;		None
  3199 ;; Return value:  Size  Location     Type
  3200 ;;                  1    wreg      void 
  3201 ;; Registers used:
  3202 ;;		wreg, status,2, status,0, cstack
  3203 ;; Tracked objects:
  3204 ;;		On entry : 0/0
  3205 ;;		On exit  : 0/0
  3206 ;;		Unchanged: 0/0
  3207 ;; Data sizes:     COMRAM   BANK0   BANK1   BANK2   BANK3   BANK4   BANK5
  3208 ;;      Params:         0       0       0       0       0       0       0
  3209 ;;      Locals:         0       0       0       0       0       0       0
  3210 ;;      Temps:          2       0       0       0       0       0       0
  3211 ;;      Totals:         2       0       0       0       0       0       0
  3212 ;;Total ram usage:        2 bytes
  3213 ;; Hardware stack levels used: 1
  3214 ;; Hardware stack levels required when called: 1
  3215 ;; This function calls:
  3216 ;;		_select_channel
  3217 ;;		i2_start_AD_conversion
  3218 ;; This function is called by:
  3219 ;;		_f_interrupt_high
  3220 ;; This function uses a non-reentrant model
  3221 ;;
  3222                           
  3223                           	psect	text24
  3224   00079C                     __ptext24:
  3225                           	callstack 0
  3226   00079C                     _ADC_maq:
  3227                           	callstack 26
  3228   00079C                     
  3229                           ;ADC.c: 34:     static uint8_t estado = 0;;ADC.c: 36:     switch (estado)
  3230   00079C  EFE6  F003         	goto	i2l1394
  3231   0007A0                     i2l27:
  3232                           
  3233                           ;ADC.c: 39:             AD_data[0] = ADRESH;
  3234   0007A0  CFC4 F01E          	movff	4036,_AD_data	;volatile
  3235   0007A4                     
  3236                           ;ADC.c: 40:             select_channel(1);
  3237   0007A4  0E01               	movlw	1
  3238   0007A6  EC18  F005         	call	_select_channel
  3239   0007AA                     
  3240                           ;ADC.c: 41:             start_AD_conversion();
  3241   0007AA  EC2A  F005         	call	i2_start_AD_conversion	;wreg free
  3242   0007AE                     
  3243                           ;ADC.c: 42:             estado = 1;
  3244   0007AE  0E01               	movlw	1
  3245   0007B0  6E2D               	movwf	ADC_maq@estado^0,c
  3246                           
  3247                           ;ADC.c: 43:             break;
  3248   0007B2  EFFB  F003         	goto	i2l30
  3249   0007B6                     i2l29:
  3250                           
  3251                           ;ADC.c: 46:             AD_data[1] = ADRESH;
  3252   0007B6  CFC4 F01F          	movff	4036,_AD_data+1	;volatile
  3253   0007BA                     
  3254                           ;ADC.c: 48:             select_channel(0);
  3255   0007BA  0E00               	movlw	0
  3256   0007BC  EC18  F005         	call	_select_channel
  3257   0007C0                     
  3258                           ;ADC.c: 49:             start_AD_conversion();
  3259   0007C0  EC2A  F005         	call	i2_start_AD_conversion	;wreg free
  3260   0007C4                     
  3261                           ;ADC.c: 50:             estado = 0;
  3262   0007C4  0E00               	movlw	0
  3263   0007C6  6E2D               	movwf	ADC_maq@estado^0,c
  3264                           
  3265                           ;ADC.c: 51:             break;
  3266   0007C8  EFFB  F003         	goto	i2l30
  3267   0007CC                     i2l1394:
  3268   0007CC  502D               	movf	ADC_maq@estado^0,w,c
  3269   0007CE  6E2F               	movwf	??_ADC_maq^0,c
  3270   0007D0  6A30               	clrf	(??_ADC_maq+1)^0,c
  3271                           
  3272                           ; Switch on 2 bytes has been partitioned into a top level switch of size 1, and 1 sub-sw
      +                          itches
  3273                           ; Switch size 1, requested type "simple"
  3274                           ; Number of cases is 1, Range of values is 0 to 0
  3275                           ; switch strategies available:
  3276                           ; Name         Instructions Cycles
  3277                           ; simple_byte            4     3 (average)
  3278                           ;	Chosen strategy is simple_byte
  3279   0007D2  5030               	movf	(??_ADC_maq+1)^0,w,c
  3280   0007D4  0A00               	xorlw	0	; case 0
  3281   0007D6  B4D8               	btfsc	status,2,c
  3282   0007D8  EFF0  F003         	goto	i2l1556
  3283   0007DC  EFFB  F003         	goto	i2l30
  3284   0007E0                     i2l1556:
  3285                           
  3286                           ; Switch size 1, requested type "simple"
  3287                           ; Number of cases is 2, Range of values is 0 to 1
  3288                           ; switch strategies available:
  3289                           ; Name         Instructions Cycles
  3290                           ; simple_byte            7     4 (average)
  3291                           ;	Chosen strategy is simple_byte
  3292   0007E0  502F               	movf	??_ADC_maq^0,w,c
  3293   0007E2  0A00               	xorlw	0	; case 0
  3294   0007E4  B4D8               	btfsc	status,2,c
  3295   0007E6  EFD0  F003         	goto	i2l27
  3296   0007EA  0A01               	xorlw	1	; case 1
  3297   0007EC  B4D8               	btfsc	status,2,c
  3298   0007EE  EFDB  F003         	goto	i2l29
  3299   0007F2  EFFB  F003         	goto	i2l30
  3300   0007F6                     i2l30:
  3301   0007F6  0012               	return		;funcret
  3302   0007F8                     __end_of_ADC_maq:
  3303                           	callstack 0
  3304                           
  3305 ;; *************** function i2_start_AD_conversion *****************
  3306 ;; Defined at:
  3307 ;;		line 19 in file "ADC.c"
  3308 ;; Parameters:    Size  Location     Type
  3309 ;;		None
  3310 ;; Auto vars:     Size  Location     Type
  3311 ;;		None
  3312 ;; Return value:  Size  Location     Type
  3313 ;;                  1    wreg      void 
  3314 ;; Registers used:
  3315 ;;		None
  3316 ;; Tracked objects:
  3317 ;;		On entry : 0/0
  3318 ;;		On exit  : 0/0
  3319 ;;		Unchanged: 0/0
  3320 ;; Data sizes:     COMRAM   BANK0   BANK1   BANK2   BANK3   BANK4   BANK5
  3321 ;;      Params:         0       0       0       0       0       0       0
  3322 ;;      Locals:         0       0       0       0       0       0       0
  3323 ;;      Temps:          0       0       0       0       0       0       0
  3324 ;;      Totals:         0       0       0       0       0       0       0
  3325 ;;Total ram usage:        0 bytes
  3326 ;; Hardware stack levels used: 1
  3327 ;; This function calls:
  3328 ;;		Nothing
  3329 ;; This function is called by:
  3330 ;;		_ADC_maq
  3331 ;; This function uses a non-reentrant model
  3332 ;;
  3333                           
  3334                           	psect	text25
  3335   000A54                     __ptext25:
  3336                           	callstack 0
  3337   000A54                     i2_start_AD_conversion:
  3338                           	callstack 26
  3339   000A54                     
  3340                           ;ADC.c: 21:     GO = 1;
  3341   000A54  82C2               	bsf	4034,1,c	;volatile
  3342   000A56  0012               	return		;funcret
  3343   000A58                     __end_ofi2_start_AD_conversion:
  3344                           	callstack 0
  3345                           
  3346 ;; *************** function _select_channel *****************
  3347 ;; Defined at:
  3348 ;;		line 24 in file "ADC.c"
  3349 ;; Parameters:    Size  Location     Type
  3350 ;;  channel         1    wreg     unsigned char 
  3351 ;; Auto vars:     Size  Location     Type
  3352 ;;  channel         1    0[COMRAM] unsigned char 
  3353 ;; Return value:  Size  Location     Type
  3354 ;;                  1    wreg      void 
  3355 ;; Registers used:
  3356 ;;		wreg, status,2, status,0
  3357 ;; Tracked objects:
  3358 ;;		On entry : 0/0
  3359 ;;		On exit  : 0/0
  3360 ;;		Unchanged: 0/0
  3361 ;; Data sizes:     COMRAM   BANK0   BANK1   BANK2   BANK3   BANK4   BANK5
  3362 ;;      Params:         0       0       0       0       0       0       0
  3363 ;;      Locals:         1       0       0       0       0       0       0
  3364 ;;      Temps:          0       0       0       0       0       0       0
  3365 ;;      Totals:         1       0       0       0       0       0       0
  3366 ;;Total ram usage:        1 bytes
  3367 ;; Hardware stack levels used: 1
  3368 ;; This function calls:
  3369 ;;		Nothing
  3370 ;; This function is called by:
  3371 ;;		_ADC_maq
  3372 ;; This function uses a non-reentrant model
  3373 ;;
  3374                           
  3375                           	psect	text26
  3376   000A30                     __ptext26:
  3377                           	callstack 0
  3378   000A30                     _select_channel:
  3379                           	callstack 26
  3380                           
  3381                           ;incstack = 0
  3382                           ;select_channel@channel stored from wreg
  3383   000A30  6E2E               	movwf	select_channel@channel^0,c
  3384   000A32                     
  3385                           ;ADC.c: 24: void select_channel(uint8_t channel);ADC.c: 25: {;ADC.c: 29:     ADCON0 = 0b
      +                          00000001 | (channel << 2);
  3386   000A32  442E               	rlncf	select_channel@channel^0,w,c
  3387   000A34  46E8               	rlncf	wreg,f,c
  3388   000A36  0BFC               	andlw	252
  3389   000A38  0901               	iorlw	1
  3390   000A3A  6EC2               	movwf	194,c	;volatile
  3391   000A3C  0012               	return		;funcret
  3392   000A3E                     __end_of_select_channel:
  3393                           	callstack 0
  3394   000000                     
  3395                           	psect	rparam
  3396   000000                     
  3397                           	psect	temp
  3398   00003A                     btemp:
  3399                           	callstack 0
  3400   00003A                     	ds	1
  3401   000000                     int$flags	set	btemp
  3402   000000                     wtemp8	set	btemp+1
  3403   000000                     ttemp5	set	btemp+1
  3404   000000                     ttemp6	set	btemp+4
  3405   000000                     ttemp7	set	btemp+8
  3406                           
  3407                           	psect	idloc
  3408                           
  3409                           ;Config register IDLOC0 @ 0x200000
  3410                           ;	unspecified, using default values
  3411   200000                     	org	2097152
  3412   200000  FF                 	db	255
  3413                           
  3414                           ;Config register IDLOC1 @ 0x200001
  3415                           ;	unspecified, using default values
  3416   200001                     	org	2097153
  3417   200001  FF                 	db	255
  3418                           
  3419                           ;Config register IDLOC2 @ 0x200002
  3420                           ;	unspecified, using default values
  3421   200002                     	org	2097154
  3422   200002  FF                 	db	255
  3423                           
  3424                           ;Config register IDLOC3 @ 0x200003
  3425                           ;	unspecified, using default values
  3426   200003                     	org	2097155
  3427   200003  FF                 	db	255
  3428                           
  3429                           ;Config register IDLOC4 @ 0x200004
  3430                           ;	unspecified, using default values
  3431   200004                     	org	2097156
  3432   200004  FF                 	db	255
  3433                           
  3434                           ;Config register IDLOC5 @ 0x200005
  3435                           ;	unspecified, using default values
  3436   200005                     	org	2097157
  3437   200005  FF                 	db	255
  3438                           
  3439                           ;Config register IDLOC6 @ 0x200006
  3440                           ;	unspecified, using default values
  3441   200006                     	org	2097158
  3442   200006  FF                 	db	255
  3443                           
  3444                           ;Config register IDLOC7 @ 0x200007
  3445                           ;	unspecified, using default values
  3446   200007                     	org	2097159
  3447   200007  FF                 	db	255
  3448                           
  3449                           	psect	config
  3450                           
  3451                           ; Padding undefined space
  3452   300000                     	org	3145728
  3453   300000  FF                 	db	255
  3454                           
  3455                           ;Config register CONFIG1H @ 0x300001
  3456                           ;	Oscillator Selection bits
  3457                           ;	OSC = HS, HS oscillator
  3458                           ;	Fail-Safe Clock Monitor Enable bit
  3459                           ;	FCMEN = OFF, Fail-Safe Clock Monitor disabled
  3460                           ;	Internal/External Oscillator Switchover bit
  3461                           ;	IESO = OFF, Oscillator Switchover mode disabled
  3462   300001                     	org	3145729
  3463   300001  02                 	db	2
  3464                           
  3465                           ;Config register CONFIG2L @ 0x300002
  3466                           ;	Power-up Timer Enable bit
  3467                           ;	PWRT = OFF, PWRT disabled
  3468                           ;	Brown-out Reset Enable bits
  3469                           ;	BOREN = SBORDIS, Brown-out Reset enabled in hardware only (SBOREN is disabled)
  3470                           ;	Brown Out Reset Voltage bits
  3471                           ;	BORV = 3, Minimum setting
  3472   300002                     	org	3145730
  3473   300002  1F                 	db	31
  3474                           
  3475                           ;Config register CONFIG2H @ 0x300003
  3476                           ;	Watchdog Timer Enable bit
  3477                           ;	WDT = OFF, WDT disabled (control is placed on the SWDTEN bit)
  3478                           ;	Watchdog Timer Postscale Select bits
  3479                           ;	WDTPS = 32768, 1:32768
  3480   300003                     	org	3145731
  3481   300003  1E                 	db	30
  3482                           
  3483                           ; Padding undefined space
  3484   300004                     	org	3145732
  3485   300004  FF                 	db	255
  3486                           
  3487                           ;Config register CONFIG3H @ 0x300005
  3488                           ;	CCP2 MUX bit
  3489                           ;	CCP2MX = PORTC, CCP2 input/output is multiplexed with RC1
  3490                           ;	PORTB A/D Enable bit
  3491                           ;	PBADEN = ON, PORTB<4:0> pins are configured as analog input channels on Reset
  3492                           ;	Low-Power Timer1 Oscillator Enable bit
  3493                           ;	LPT1OSC = OFF, Timer1 configured for higher power operation
  3494                           ;	MCLR Pin Enable bit
  3495                           ;	MCLRE = ON, MCLR pin enabled; RE3 input pin disabled
  3496   300005                     	org	3145733
  3497   300005  83                 	db	131
  3498                           
  3499                           ;Config register CONFIG4L @ 0x300006
  3500                           ;	Stack Full/Underflow Reset Enable bit
  3501                           ;	STVREN = ON, Stack full/underflow will cause Reset
  3502                           ;	Single-Supply ICSP Enable bit
  3503                           ;	LVP = OFF, Single-Supply ICSP disabled
  3504                           ;	Extended Instruction Set Enable bit
  3505                           ;	XINST = OFF, Instruction set extension and Indexed Addressing mode disabled (Legacy mo
      +                          de)
  3506                           ;	Background Debugger Enable bit
  3507                           ;	DEBUG = 0x1, unprogrammed default
  3508   300006                     	org	3145734
  3509   300006  81                 	db	129
  3510                           
  3511                           ; Padding undefined space
  3512   300007                     	org	3145735
  3513   300007  FF                 	db	255
  3514                           
  3515                           ;Config register CONFIG5L @ 0x300008
  3516                           ;	Code Protection bit
  3517                           ;	CP0 = OFF, Block 0 (000800-001FFFh) not code-protected
  3518                           ;	Code Protection bit
  3519                           ;	CP1 = OFF, Block 1 (002000-003FFFh) not code-protected
  3520                           ;	Code Protection bit
  3521                           ;	CP2 = OFF, Block 2 (004000-005FFFh) not code-protected
  3522                           ;	Code Protection bit
  3523                           ;	CP3 = OFF, Block 3 (006000-007FFFh) not code-protected
  3524   300008                     	org	3145736
  3525   300008  0F                 	db	15
  3526                           
  3527                           ;Config register CONFIG5H @ 0x300009
  3528                           ;	Boot Block Code Protection bit
  3529                           ;	CPB = OFF, Boot block (000000-0007FFh) not code-protected
  3530                           ;	Data EEPROM Code Protection bit
  3531                           ;	CPD = OFF, Data EEPROM not code-protected
  3532   300009                     	org	3145737
  3533   300009  C0                 	db	192
  3534                           
  3535                           ;Config register CONFIG6L @ 0x30000A
  3536                           ;	Write Protection bit
  3537                           ;	WRT0 = OFF, Block 0 (000800-001FFFh) not write-protected
  3538                           ;	Write Protection bit
  3539                           ;	WRT1 = OFF, Block 1 (002000-003FFFh) not write-protected
  3540                           ;	Write Protection bit
  3541                           ;	WRT2 = OFF, Block 2 (004000-005FFFh) not write-protected
  3542                           ;	Write Protection bit
  3543                           ;	WRT3 = OFF, Block 3 (006000-007FFFh) not write-protected
  3544   30000A                     	org	3145738
  3545   30000A  0F                 	db	15
  3546                           
  3547                           ;Config register CONFIG6H @ 0x30000B
  3548                           ;	Configuration Register Write Protection bit
  3549                           ;	WRTC = OFF, Configuration registers (300000-3000FFh) not write-protected
  3550                           ;	Boot Block Write Protection bit
  3551                           ;	WRTB = OFF, Boot block (000000-0007FFh) not write-protected
  3552                           ;	Data EEPROM Write Protection bit
  3553                           ;	WRTD = OFF, Data EEPROM not write-protected
  3554   30000B                     	org	3145739
  3555   30000B  E0                 	db	224
  3556                           
  3557                           ;Config register CONFIG7L @ 0x30000C
  3558                           ;	Table Read Protection bit
  3559                           ;	EBTR0 = OFF, Block 0 (000800-001FFFh) not protected from table reads executed in other
      +                           blocks
  3560                           ;	Table Read Protection bit
  3561                           ;	EBTR1 = OFF, Block 1 (002000-003FFFh) not protected from table reads executed in other
      +                           blocks
  3562                           ;	Table Read Protection bit
  3563                           ;	EBTR2 = OFF, Block 2 (004000-005FFFh) not protected from table reads executed in other
      +                           blocks
  3564                           ;	Table Read Protection bit
  3565                           ;	EBTR3 = OFF, Block 3 (006000-007FFFh) not protected from table reads executed in other
      +                           blocks
  3566   30000C                     	org	3145740
  3567   30000C  0F                 	db	15
  3568                           
  3569                           ;Config register CONFIG7H @ 0x30000D
  3570                           ;	Boot Block Table Read Protection bit
  3571                           ;	EBTRB = OFF, Boot block (000000-0007FFh) not protected from table reads executed in ot
      +                          her blocks
  3572   30000D                     	org	3145741
  3573   30000D  40                 	db	64
  3574                           tosu	equ	0xFFF
  3575                           tosh	equ	0xFFE
  3576                           tosl	equ	0xFFD
  3577                           stkptr	equ	0xFFC
  3578                           pclatu	equ	0xFFB
  3579                           pclath	equ	0xFFA
  3580                           pcl	equ	0xFF9
  3581                           tblptru	equ	0xFF8
  3582                           tblptrh	equ	0xFF7
  3583                           tblptrl	equ	0xFF6
  3584                           tablat	equ	0xFF5
  3585                           prodh	equ	0xFF4
  3586                           prodl	equ	0xFF3
  3587                           indf0	equ	0xFEF
  3588                           postinc0	equ	0xFEE
  3589                           postdec0	equ	0xFED
  3590                           preinc0	equ	0xFEC
  3591                           plusw0	equ	0xFEB
  3592                           fsr0h	equ	0xFEA
  3593                           fsr0l	equ	0xFE9
  3594                           wreg	equ	0xFE8
  3595                           indf1	equ	0xFE7
  3596                           postinc1	equ	0xFE6
  3597                           postdec1	equ	0xFE5
  3598                           preinc1	equ	0xFE4
  3599                           plusw1	equ	0xFE3
  3600                           fsr1h	equ	0xFE2
  3601                           fsr1l	equ	0xFE1
  3602                           bsr	equ	0xFE0
  3603                           indf2	equ	0xFDF
  3604                           postinc2	equ	0xFDE
  3605                           postdec2	equ	0xFDD
  3606                           preinc2	equ	0xFDC
  3607                           plusw2	equ	0xFDB
  3608                           fsr2h	equ	0xFDA
  3609                           fsr2l	equ	0xFD9
  3610                           status	equ	0xFD8

Data Sizes:
    Strings     0
    Constant    0
    Data        29
    BSS         16
    Persistent  4
    Stack       0

Auto Spaces:
    Space          Size  Autos    Used
    COMRAM          126      8      57
    BANK0           128      0       0
    BANK1           256      0       0
    BANK2           256      0       0
    BANK3           256      0       0
    BANK4           256      0       0
    BANK5           256      0       0

Pointer List with Targets:

    None.

Critical Paths under _main in COMRAM

    None.

Critical Paths under _f_interrupt_high in COMRAM

    _f_timers->_read_keyb
    _read_keyb->_f_int0
    _contador_displays_02->_cont2_crescente
    _contador_displays_02->_cont2_decrescente
    _contador_displays_01->_cont1_crescente
    _contador_displays_01->_cont1_decrescente
    _ADC_maq->_select_channel

Critical Paths under _main in BANK0

    None.

Critical Paths under _f_interrupt_high in BANK0

    None.

Critical Paths under _main in BANK1

    None.

Critical Paths under _f_interrupt_high in BANK1

    None.

Critical Paths under _main in BANK2

    None.

Critical Paths under _f_interrupt_high in BANK2

    None.

Critical Paths under _main in BANK3

    None.

Critical Paths under _f_interrupt_high in BANK3

    None.

Critical Paths under _main in BANK4

    None.

Critical Paths under _f_interrupt_high in BANK4

    None.

Critical Paths under _main in BANK5

    None.

Critical Paths under _f_interrupt_high in BANK5

    None.

Call Graph Tables:

 ---------------------------------------------------------------------------------
 (Depth) Function   	        Calls       Base Space   Used Autos Params    Refs
 ---------------------------------------------------------------------------------
 (0) _main                                                 0     0      0       0
                               _loop
                              _setup
 ---------------------------------------------------------------------------------
 (1) _setup                                                0     0      0       0
                            _AD_init
                 _disable_interrupts
                  _enable_interrupts
                     _interrupt_init
                           _setup_io
                _start_AD_conversion
 ---------------------------------------------------------------------------------
 (2) _start_AD_conversion                                  0     0      0       0
 ---------------------------------------------------------------------------------
 (2) _setup_io                                             0     0      0       0
 ---------------------------------------------------------------------------------
 (2) _interrupt_init                                       0     0      0       0
 ---------------------------------------------------------------------------------
 (2) _enable_interrupts                                    0     0      0       0
 ---------------------------------------------------------------------------------
 (2) _disable_interrupts                                   0     0      0       0
 ---------------------------------------------------------------------------------
 (2) _AD_init                                              0     0      0       0
 ---------------------------------------------------------------------------------
 (1) _loop                                                 0     0      0       0
 ---------------------------------------------------------------------------------
 Estimated maximum stack depth 2
 ---------------------------------------------------------------------------------
 (Depth) Function   	        Calls       Base Space   Used Autos Params    Refs
 ---------------------------------------------------------------------------------
 (3) _f_interrupt_high                                     2     2      0     150
                                              6 COMRAM     2     2      0
                            _ADC_maq
                           _f_timers
 ---------------------------------------------------------------------------------
 (4) _f_timers                                             0     0      0     135
                          _LED_State
                            _Read_AD
               _contador_displays_01
               _contador_displays_02
                        _mux_display
                          _read_keyb
 ---------------------------------------------------------------------------------
 (5) _read_keyb                                            4     4      0     135
                                              2 COMRAM     4     4      0
                             _f_int0
                             _f_int1
                             _f_int2
 ---------------------------------------------------------------------------------
 (6) _f_int2                                               0     0      0       0
 ---------------------------------------------------------------------------------
 (6) _f_int1                                               0     0      0       0
 ---------------------------------------------------------------------------------
 (6) _f_int0                                               2     2      0       0
                                              0 COMRAM     2     2      0
 ---------------------------------------------------------------------------------
 (5) _mux_display                                          2     2      0       0
                                              0 COMRAM     2     2      0
 ---------------------------------------------------------------------------------
 (5) _contador_displays_02                                 0     0      0       0
                    _cont2_crescente
                  _cont2_decrescente
 ---------------------------------------------------------------------------------
 (6) _cont2_decrescente                                    2     2      0       0
                                              0 COMRAM     2     2      0
 ---------------------------------------------------------------------------------
 (6) _cont2_crescente                                      2     2      0       0
                                              0 COMRAM     2     2      0
 ---------------------------------------------------------------------------------
 (5) _contador_displays_01                                 0     0      0       0
                    _cont1_crescente
                  _cont1_decrescente
 ---------------------------------------------------------------------------------
 (6) _cont1_decrescente                                    2     2      0       0
                                              0 COMRAM     2     2      0
 ---------------------------------------------------------------------------------
 (6) _cont1_crescente                                      2     2      0       0
                                              0 COMRAM     2     2      0
 ---------------------------------------------------------------------------------
 (5) _Read_AD                                              2     2      0       0
                                              0 COMRAM     2     2      0
 ---------------------------------------------------------------------------------
 (5) _LED_State                                            0     0      0       0
 ---------------------------------------------------------------------------------
 (4) _ADC_maq                                              2     2      0      15
                                              1 COMRAM     2     2      0
                     _select_channel
              i2_start_AD_conversion
 ---------------------------------------------------------------------------------
 (5) i2_start_AD_conversion                                0     0      0       0
 ---------------------------------------------------------------------------------
 (5) _select_channel                                       1     1      0      15
                                              0 COMRAM     1     1      0
 ---------------------------------------------------------------------------------
 Estimated maximum stack depth 6
 ---------------------------------------------------------------------------------

 Call Graph Graphs:

 _main (ROOT)
   _loop
   _setup
     _AD_init
     _disable_interrupts
     _enable_interrupts
     _interrupt_init
     _setup_io
     _start_AD_conversion

 _f_interrupt_high (ROOT)
   _ADC_maq
     _select_channel
     i2_start_AD_conversion
   _f_timers
     _LED_State
     _Read_AD
     _contador_displays_01
       _cont1_crescente
       _cont1_decrescente
     _contador_displays_02
       _cont2_crescente
       _cont2_decrescente
     _mux_display
     _read_keyb
       _f_int0
       _f_int1
       _f_int2

 Address spaces:
Name               Size   Autos  Total    Cost      Usage
BIGRAM             5FF      0       0      29        0.0%
EEDATA             100      0       0       0        0.0%
BITBANK5           100      0       0      14        0.0%
BANK5              100      0       0      15        0.0%
BITBANK4           100      0       0      12        0.0%
BANK4              100      0       0      13        0.0%
BITBANK3           100      0       0      10        0.0%
BANK3              100      0       0      11        0.0%
BITBANK2           100      0       0       8        0.0%
BANK2              100      0       0       9        0.0%
BITBANK1           100      0       0       6        0.0%
BANK1              100      0       0       7        0.0%
BITBANK0            80      0       0       4        0.0%
BANK0               80      0       0       5        0.0%
BITCOMRAM           7E      0       0       0        0.0%
COMRAM              7E      8      39       1       45.2%
BITBIGSFRlhhhhh     21      0       0      21        0.0%
BITBIGSFRhhlh       18      0       0      17        0.0%
BITBIGSFRhhh         D      0       0      16        0.0%
BITBIGSFRhhlll       B      0       0      19        0.0%
BITBIGSFRllh         7      0       0      26        0.0%
BITBIGSFRlhhhhl      7      0       0      22        0.0%
BITBIGSFRlhhl        5      0       0      24        0.0%
BITBIGSFRhhllh       4      0       0      18        0.0%
BITBIGSFRlhhhl       1      0       0      23        0.0%
BITBIGSFRlhl         1      0       0      25        0.0%
BITBIGSFRhl          1      0       0      20        0.0%
BITBIGSFRlll         1      0       0      27        0.0%
BIGSFR               0      0       0     200        0.0%
BITSFR               0      0       0     200        0.0%
SFR                  0      0       0     200        0.0%
STACK                0      0       0       2        0.0%
NULL                 0      0       0       0        0.0%
ABS                  0      0      39      28        0.0%
DATA                 0      0      39       3        0.0%
CODE                 0      0       0       0        0.0%


Microchip Technology PIC18 Macro Assembler V2.40 build 20220703182018 
Symbol Table                                                                                   Wed Nov 09 19:47:12 2022

                           l15 0A2E                             l18 0A52                             _GO 007E11  
             f_timers@counter0 0018               f_timers@counter1 0016               f_timers@counter2 0014  
             f_timers@counter3 0012         __end_of_interrupt_init 0A12                            l223 0A4E  
                          l226 0A46                            l180 08D4                            l229 0A10  
                          l183 09F6                            l336 0A58                            _GIE 007F97  
                          wreg 000FE8                __end_of_ADC_maq 07F8                  ADC_maq@estado 002D  
              __end_of_AD_init 0A30                           l1400 0894                           l1410 08A6  
                         l1402 0898                           l1420 08C4                           l1412 08A8  
                         l1404 089C                           l1246 0A22                           l1422 08C8  
                         l1414 08AA                           l1406 08A0                           l1280 09DE  
                         l1248 0A50                           l1424 08CC                           l1416 08BC  
                         l1408 08A4                           l1282 09F8                           l1426 08D0  
                         l1418 08C0                           l1284 0A3E                           l1278 0A48  
                         l1476 0A12                           l1478 0A16                           _ADIE 007CEE  
                         _ADIF 007CF6                           _LATA 000F89                           _LATB 000F8A  
                         _LATD 000F8C                           _IPEN 007E87                           _PEIE 007F96  
                         i2l21 0A3C                           i2l30 07F6                           i2l18 0A56  
                         i2l27 07A0                           i2l60 0548                           i2l29 07B6  
                         i2l62 0564                           i2l63 0580                           i2l64 059C  
                         i2l81 0490                           i2l65 05F2                           i2l97 0370  
                         _TMR0 000FD6                           _main 0A12                           _loop 0A58  
                         fsr2h 000FDA                           indf2 000FDF                           fsr1l 000FE1  
        i2_start_AD_conversion 0A54                           fsr2l 000FD9                           btemp 003A  
                         start 000E                   ___param_bank 000000                __end_of_Read_AD 079C  
       ??_contador_displays_01 0030         ??_contador_displays_02 0030                          ?_main 002E  
                        ?_loop 002E                ?_interrupt_init 002E                          _T0CON 000FD5  
                        _LATA2 007C4A                          _LATB0 007C50                          _LATA3 007C4B  
                        _LATB1 007C51                          _LATA4 007C4C                          _LATB2 007C52  
                        _LATA5 007C4D                          _LATB6 007C56                          _LATB7 007C57  
                        i2l113 0250                          i2l220 0840                          i2l129 0130  
                        i2l410 0720                          i2l402 06B4                          i2l322 0542  
                        i2l412 0722                          i2l404 06CC                          i2l333 079A  
                        i2l406 06E4                          i2l342 096A                          i2l408 0702  
                        i2l371 0994                          i2l348 093C                          i2l364 09BE  
                        i2l357 0892                          i2l389 069C                          _PORTB 000F81  
                        _TRISA 000F92                          _TRISB 000F93                          _TRISD 000F95  
           _disable_interrupts 0A48                          _setup 0894                          tablat 000FF5  
                        ttemp5 003B                          ttemp6 003E                          ttemp7 0042  
                        status 000FD8                          wtemp8 003B            ?_disable_interrupts 002E  
             _f_interrupt_high 0008                __initialization 08D6                   __end_of_main 0A22  
                 __end_of_loop 0A5A                      ??_ADC_maq 002F              read_keyb@dado_RB3 0030  
            read_keyb@dado_RB4 0031              read_keyb@dado_RB5 0032                         ??_main 0036  
                       ??_loop 0036                  __activetblptr 000002           ??_disable_interrupts 0036  
                    ??_AD_init 0036              __end_of_LED_State 0724                         _ADCON0 000FC2  
                       _ADCON1 000FC1                         _ADCON2 000FC0                         _ADRESH 000FC4  
                       ?_setup 002E                         i2l1100 03C6                         i2l1110 0416  
                       i2l1102 03D6                         i2l1104 03E6                         i2l1120 0252  
                       i2l1200 0086                         i2l1106 03F6                         i2l1114 0426  
                       i2l1130 0296                         i2l1122 0256                         i2l1202 0096  
                       i2l1210 00C6                         i2l1108 0406                         i2l1140 02E6  
                       i2l1132 02A6                         i2l1124 0266                         i2l1204 00A6  
                       i2l1300 0938                         i2l1220 085C                         i2l1310 06CE  
                       i2l1302 069E                         i2l1142 02F6                         i2l1134 02B6  
                       i2l1126 0276                         i2l1206 00B6                         i2l1230 0996  
                       i2l1320 071A                         i2l1312 06DE                         i2l1304 06AE  
                       i2l1136 02C6                         i2l1128 0286                         i2l1160 0166  
                       i2l1152 0132                         i2l1224 0868                         i2l1216 084C  
                       i2l1232 099A                         i2l1240 0970                         i2l1250 0A32  
                       i2l1314 06E6                         i2l1306 06B6                         i2l1090 0376  
                       i2l1138 02D6                         i2l1146 0306                         i2l1170 01B6  
                       i2l1162 0176                         i2l1154 0136                         i2l1218 0850  
                       i2l1234 09AA                         i2l1242 0980                         i2l1330 0628  
                       i2l1322 05F4                         i2l1316 06FC                         i2l1308 06C6  
                       i2l1092 0386                         i2l1172 01C6                         i2l1164 0186  
                       i2l1156 0146                         i2l1260 0578                         i2l1252 0544  
                       i2l1236 09B6                         i2l1244 098C                         i2l1340 064E  
                       i2l1332 0630                         i2l1324 0606                         i2l1318 0704  
                       i2l1094 0396                         i2l1174 01D6                         i2l1166 0196  
                       i2l1158 0156                         i2l1190 0036                         i2l1262 0584  
                       i2l1254 054C                         i2l1238 096C                         i2l1350 068C  
                       i2l1342 0660                         i2l1334 0634                         i2l1326 060E  
                       i2l1430 04A8                         i2l1360 0730                         i2l1096 03A6  
                       i2l1088 0372                         i2l1168 01A6                         i2l1192 0046  
                       i2l1184 0012                         i2l1264 0594                         i2l1256 055C  
                       i2l1272 05B8                         i2l1352 0690                         i2l1344 0664  
                       i2l1336 0642                         i2l1328 061A                         i2l1440 04DA  
                       i2l1432 04B0                         i2l1362 073C                         i2l1370 0760  
                       i2l1098 03B6                         i2l1290 095E                         i2l1178 01E6  
                       i2l1194 0056                         i2l1186 0016                         i2l1266 05A0  
                       i2l1258 0568                         i2l1354 0694                         i2l1346 0676  
                       i2l1338 064A                         i2l1450 0508                         i2l1442 04DE  
                       i2l1434 04B4                         i2l1380 07A4                         i2l1364 0748  
                       i2l1292 0966                         i2l1196 0066                         i2l1188 0026  
                       i2l1268 05B0                         i2l1356 0698                         i2l1348 067A  
                       i2l1452 0510                         i2l1444 04E6                         i2l1436 04BC  
                       i2l1428 0492                         i2l1460 0802                         i2l1390 07C4  
                       i2l1382 07AA                         i2l1366 0754                         i2l1358 0724  
                       i2l1550 031A                         i2l1286 093E                         i2l1198 0076  
                       i2l1294 0910                         i2l1542 087C                         i2l1454 0526  
                       i2l1446 04FC                         i2l1438 04D2                         i2l1470 082C  
                       i2l1462 0810                         i2l1376 0A54                         i2l1384 07AE  
                       i2l1552 043A                         i2l1288 094E                         i2l1296 0920  
                       i2l1544 05CC                         i2l1456 052E                         i2l1448 0504  
                       i2l1472 083A                         i2l1464 0818                         i2l1386 07BA  
                       i2l1394 07CC                         i2l1378 079C                         i2l1554 0774  
                       i2l1546 00DA                         i2l1298 0930                         i2l1458 053A  
                       i2l1474 083E                         i2l1466 081C                         i2l1556 07E0  
                       i2l1388 07C0                         i2l1548 01FA                         i2l1468 081E  
                       _INTCON 000FF2         ?i2_start_AD_conversion 002E                         _TMR0IE 007F95  
                       _TMR0IF 007F92                         i2u1_40 09AA                         i2u1_41 09A6  
                       i2u2_40 0980                         i2u2_41 097C                         i2u3_40 094E  
                       i2u3_41 094A                         i2u4_40 095E                         i2u4_41 095A  
                       i2u5_40 0920                         i2u5_41 091C                         i2u6_40 0930  
                       i2u6_41 092C                         i2u7_40 06AE                         i2u7_41 06AA  
                       i2u8_40 06C6                         i2u8_41 06C2                         i2u9_40 06DE  
                       i2u9_41 06DA                      ??_Read_AD 002E                _cont1_crescente 0372  
             __end_of_f_timers 0544                         _f_int0 084C                         _f_int1 0996  
                       _f_int2 096C                _cont2_crescente 0132                         clear_0 08FC  
                       isa$std 000001                   __pdataCOMRAM 0001             _estado_sequencia01 0028  
           _estado_sequencia02 0027                         tblptrh 000FF7                         tblptrl 000FF6  
             __end_of_setup_io 09F8                         tblptru 000FF8                   ?_mux_display 002E  
                   __accesstop 0080        __end_of__initialization 0902                 _select_channel 0A30  
          _start_AD_conversion 0A50                  ___rparam_used 000001                 __pcstackCOMRAM 002E  
                __end_of_setup 08D6           ?_start_AD_conversion 002E                        ??_setup 0036  
       __end_of_select_channel 0A3E        __end_of_cont1_crescente 0492                     __pnvCOMRAM 0036  
      __end_of_cont2_crescente 0252               ??_interrupt_init 0036                        ?_f_int0 002E  
                      ?_f_int1 002E                        ?_f_int2 002E                        _ADC_maq 079C  
        ??_start_AD_conversion 0036                        _AD_data 001E                        _AD_init 0A22  
                      _INTCON2 000FF1                        _INTCON3 000FF0                        i2u10_40 06FC  
                      i2u10_41 06F8                        i2u11_40 071A                        i2u11_41 0716  
     __end_of_f_interrupt_high 084C                        i2u12_40 0606                        i2u20_40 04FC  
                      i2u12_41 0602                        i2u20_41 04F8                        i2u13_40 0628  
                      i2u21_40 0526                        i2u13_41 0624                        i2u21_41 0522  
                      i2u14_40 0642                        i2u22_40 0810                        i2u14_41 063E  
                      i2u22_41 080C                        i2u15_40 0660                        i2u23_40 082C  
                      i2u15_41 065C                        i2u23_41 0828                        i2u16_40 0676  
                      i2u24_40 083A                        i2u16_41 0672                        i2u24_41 0836  
                      i2u17_40 068C                        i2u17_41 0688                        i2u18_40 04A8  
                      i2u18_41 04A4                        i2u19_40 04D2                        i2u19_41 04CE  
                    ?_f_timers 002E                ?_select_channel 002E                        _Read_AD 0724  
                      __Hparam 0000                        __Lparam 0000                      ?_setup_io 002E  
                      __pcinit 08D6                        __ramtop 0600                        __ptext0 0A12  
                      __ptext1 0894                        __ptext2 0A50                        __ptext3 09DE  
                      __ptext4 09F8                        __ptext5 0A3E                        __ptext6 0A48  
                      __ptext7 0A22                        __ptext8 0A58              __end_of_read_keyb 069E  
                   ??_f_timers 0034        ??i2_start_AD_conversion 002E                 f_int1@sentido1 0021  
               __pintcode_body 07F8           end_of_initialization 0902                      _LED_State 069E  
             ?_cont1_crescente 002E                 f_int2@sentido2 0020                  __Lmediumconst 0000  
                      int_func 07F8               ?_cont2_crescente 002E                        postdec1 000FE5  
                   ??_setup_io 0036                        postinc0 000FEE               Read_AD@Valor_AD0 0023  
            _pausa_ou_continua 001D                     ?_LED_State 002E                 __end_of_f_int0 0894  
               __end_of_f_int1 09C0                 __end_of_f_int2 0996                  __pidataCOMRAM 09C0  
            _enable_interrupts 0A3E          select_channel@channel 002E             ?_enable_interrupts 002E  
          start_initialization 08D6            ??_enable_interrupts 0036                   f_int0@estado 0022  
                     ??_f_int0 002E                       ??_f_int1 002E                       ??_f_int2 002E  
    __end_of_enable_interrupts 0A48                       ?_ADC_maq 002E                       ?_AD_init 002E  
                  __pbssCOMRAM 001E               ??_select_channel 002E              ?_f_interrupt_high 002E  
                  ??_LED_State 002E             ??_f_interrupt_high 0034                       ?_Read_AD 002E  
                    __pintcode 0008    __end_of_start_AD_conversion 0A54            read_keyb@m_dado_RB3 001C  
          read_keyb@m_dado_RB4 001B            read_keyb@m_dado_RB5 001A              _cont1_decrescente 0252  
           ?_cont1_decrescente 002E            ??_cont1_decrescente 002E                      _read_keyb 05F4  
__end_ofi2_start_AD_conversion 0A58   __end_of_contador_displays_01 096C   __end_of_contador_displays_02 093E  
    __end_of_cont1_decrescente 0372              _cont2_decrescente 0012             ?_cont2_decrescente 002E  
                   ?_read_keyb 002E                      copy_data0 08EA            ??_cont2_decrescente 002E  
                ??_mux_display 002E                       __Hrparam 0000                       __Lrparam 0000  
    __end_of_cont2_decrescente 0132     __end_of_disable_interrupts 0A50                       _f_timers 0492  
                     __ptext10 0492                       __ptext11 05F4                       __ptext20 0252  
                     __ptext12 096C                       __ptext21 0372                       __ptext13 0996  
                     __ptext22 0724                       __ptext14 084C                       __ptext23 069E  
                     __ptext15 0544                       __ptext24 079C                       __ptext16 0910  
                     __ptext25 0A54                       __ptext17 0012                       __ptext26 0A30  
                     __ptext18 0132                       __ptext19 093E                       _conv7seg 0001  
                     _display1 002C                       _display2 002B                       _display3 002A  
                     _display4 0029              mux_display@estado 0026            __end_of_mux_display 05F4  
                     isa$xinst 000000                  _temporizador1 0038                  _temporizador2 0036  
                     _setup_io 09DE                       int$flags 003A           _contador_displays_01 093E  
         _contador_displays_02 0910                    ??_read_keyb 0030                       intlevel2 0000  
                read_keyb@dado 0033          ?_contador_displays_01 002E          ?_contador_displays_02 002E  
            ??_cont1_crescente 002E                    _sequencia_1 0025                    _sequencia_2 0024  
               _interrupt_init 09F8              ??_cont2_crescente 002E                    _mux_display 0544  
