

Microchip MPLAB XC8 Assembler V2.40 build 20220703182018 
                                                                                               Tue Dec 13 20:19:11 2022

Microchip MPLAB XC8 C Compiler v2.40 (Free license) build 20220703182018 Og1 
     1                           	processor	18F4520
     2                           	fnconf	rparam,??,?,0
     3                           	pagewidth 120
     4                           	opt	flic
     5                           	psect	idataCOMRAM,global,class=CODE,delta=1,noexec
     6                           	psect	idataBANK0,global,class=CODE,delta=1,noexec
     7                           	psect	idataBANK1,global,class=CODE,delta=1,noexec
     8                           	psect	nvBANK1,global,class=BANK1,space=1,delta=1,lowdata,noexec
     9                           	psect	smallconst,global,reloc=2,class=SMALLCONST,delta=1,noexec
    10                           	psect	cinit,global,reloc=2,class=CODE,delta=1
    11                           	psect	bssCOMRAM,global,class=COMRAM,space=1,delta=1,lowdata,noexec
    12                           	psect	dataCOMRAM,global,class=COMRAM,space=1,delta=1,lowdata,noexec
    13                           	psect	bssBANK0,global,class=BANK0,space=1,delta=1,lowdata,noexec
    14                           	psect	dataBANK0,global,class=BANK0,space=1,delta=1,lowdata,noexec
    15                           	psect	bssBANK1,global,class=BANK1,space=1,delta=1,lowdata,noexec
    16                           	psect	dataBANK1,global,class=BANK1,space=1,delta=1,lowdata,noexec
    17                           	psect	cstackBANK1,global,class=BANK1,space=1,delta=1,lowdata,noexec
    18                           	psect	cstackBANK0,global,class=BANK0,space=1,delta=1,lowdata,noexec
    19                           	psect	cstackCOMRAM,global,class=COMRAM,space=1,delta=1,lowdata,noexec
    20                           	psect	text0,global,reloc=2,class=CODE,delta=1
    21                           	psect	text1,global,reloc=2,class=CODE,delta=1
    22                           	psect	text2,global,reloc=2,class=CODE,delta=1
    23                           	psect	text3,global,reloc=2,class=CODE,delta=1
    24                           	psect	text4,global,reloc=2,class=CODE,delta=1
    25                           	psect	text5,global,reloc=2,class=CODE,delta=1
    26                           	psect	text6,global,reloc=2,class=CODE,delta=1
    27                           	psect	text7,global,reloc=2,class=CODE,delta=1
    28                           	psect	text8,global,reloc=2,class=CODE,delta=1
    29                           	psect	text9,global,reloc=2,class=CODE,delta=1
    30                           	psect	text10,global,reloc=2,class=CODE,delta=1
    31                           	psect	text11,global,reloc=2,class=CODE,delta=1
    32                           	psect	text12,global,reloc=2,class=CODE,delta=1
    33                           	psect	text13,global,reloc=2,class=CODE,delta=1,group=2
    34                           	psect	text14,global,reloc=2,class=CODE,delta=1,group=2
    35                           	psect	text15,global,reloc=2,class=CODE,delta=1,group=2
    36                           	psect	text16,global,reloc=2,class=CODE,delta=1,group=2
    37                           	psect	text17,global,reloc=2,class=CODE,delta=1,group=2
    38                           	psect	text18,global,reloc=2,class=CODE,delta=1,group=2
    39                           	psect	intcode,global,reloc=2,class=CODE,delta=1
    40                           	psect	intcode_body,global,reloc=2,class=CODE,delta=1
    41                           	psect	text20,global,reloc=2,class=CODE,delta=1
    42                           	psect	text21,global,reloc=2,class=CODE,delta=1
    43                           	psect	text22,global,reloc=2,class=CODE,delta=1
    44                           	psect	text23,global,reloc=2,class=CODE,delta=1
    45                           	psect	text24,global,reloc=2,class=CODE,delta=1
    46                           	psect	text25,global,reloc=2,class=CODE,delta=1
    47                           	psect	text26,global,reloc=2,class=CODE,delta=1,group=2
    48                           	psect	text27,global,reloc=2,class=CODE,delta=1
    49                           	psect	text28,global,reloc=2,class=CODE,delta=1
    50                           	psect	text29,global,reloc=2,class=CODE,delta=1
    51                           	psect	text30,global,reloc=2,class=CODE,delta=1
    52                           	psect	text31,global,reloc=2,class=CODE,delta=1
    53                           	psect	text32,global,reloc=2,class=CODE,delta=1,group=3
    54                           	psect	text33,global,reloc=2,class=CODE,delta=1,group=1
    55                           	psect	text34,global,reloc=2,class=CODE,delta=1,group=1
    56                           	psect	text35,global,reloc=2,class=CODE,delta=1,group=1
    57                           	psect	text36,global,reloc=2,class=CODE,delta=1,group=1
    58                           	psect	text37,global,reloc=2,class=CODE,delta=1,group=3
    59                           	psect	text38,global,reloc=2,class=CODE,delta=1,group=3
    60                           	psect	text39,global,reloc=2,class=CODE,delta=1,group=3
    61                           	psect	text40,global,reloc=2,class=CODE,delta=1,group=3
    62                           	psect	text41,global,reloc=2,class=CODE,delta=1,group=2
    63                           	psect	text42,global,reloc=2,class=CODE,delta=1,group=2
    64                           	psect	text43,global,reloc=2,class=CODE,delta=1
    65                           	psect	text44,global,reloc=2,class=CODE,delta=1
    66                           	psect	text45,global,reloc=2,class=CODE,delta=1
    67                           	psect	text46,global,reloc=2,class=CODE,delta=1
    68                           	psect	text47,global,reloc=2,class=CODE,delta=1
    69                           	psect	text48,global,reloc=2,class=CODE,delta=1
    70                           	psect	text49,global,reloc=2,class=CODE,delta=1
    71                           	psect	text50,global,reloc=2,class=CODE,delta=1
    72                           	psect	text51,global,reloc=2,class=CODE,delta=1
    73                           	psect	text52,global,reloc=2,class=CODE,delta=1
    74                           	psect	text53,global,reloc=2,class=CODE,delta=1
    75                           	psect	intsave_regs,global,class=BIGRAM,space=1,delta=1,noexec
    76                           	psect	rparam,global,class=COMRAM,space=1,delta=1,noexec
    77                           	psect	temp,global,ovrld,common,class=COMRAM,space=1,delta=1
    78                           	psect	idloc,global,abs,ovrld,class=IDLOC,space=5,delta=1,noexec
    79                           	psect	config,global,abs,ovrld,class=CONFIG,space=4,delta=1,noexec
    80   000000                     
    81                           ; Version 2.40
    82                           ; Generated 17/11/2021 GMT
    83                           ; 
    84                           ; Copyright © 2021, Microchip Technology Inc. and its subsidiaries ("Microchip")
    85                           ; All rights reserved.
    86                           ; 
    87                           ; This software is developed by Microchip Technology Inc. and its subsidiaries ("Microch
      +                          ip").
    88                           ; 
    89                           ; Redistribution and use in source and binary forms, with or without modification, are
    90                           ; permitted provided that the following conditions are met:
    91                           ; 
    92                           ;     1. Redistributions of source code must retain the above copyright notice, this lis
      +                          t of
    93                           ;        conditions and the following disclaimer.
    94                           ; 
    95                           ;     2. Redistributions in binary form must reproduce the above copyright notice, this 
      +                          list
    96                           ;        of conditions and the following disclaimer in the documentation and/or other
    97                           ;        materials provided with the distribution. Publication is not required when
    98                           ;        this file is used in an embedded application.
    99                           ; 
   100                           ;     3. Microchip's name may not be used to endorse or promote products derived from th
      +                          is
   101                           ;        software without specific prior written permission.
   102                           ; 
   103                           ; THIS SOFTWARE IS PROVIDED BY MICROCHIP "AS IS" AND ANY EXPRESS OR IMPLIED WARRANTIES,
   104                           ; INCLUDING, BUT NOT LIMITED TO, THE IMPLIED WARRANTIES OF MERCHANTABILITY AND FITNESS F
      +                          OR
   105                           ; PURPOSE ARE DISCLAIMED.  IN NO EVENT SHALL MICROCHIP BE LIABLE FOR ANY DIRECT, INDIREC
      +                          T,
   106                           ; INCIDENTAL, SPECIAL, EXEMPLARY, OR CONSEQUENTIAL DAMAGES (INCLUDING BUT NOT LIMITED TO
   107                           ; PROCUREMENT OF SUBSTITUTE GOODS OR SERVICES; LOSS OF USE, DATA OR PROFITS; OR BUSINESS
   108                           ; INTERRUPTION) HOWSOEVER CAUSED AND ON ANY THEORY OF LIABILITY, WHETHER IN CONTRACT, ST
      +                          RICT
   109                           ; LIABILITY, OR TORT (INCLUDING NEGLIGENCE OR OTHERWISE) ARISING IN ANY WAY OUT OF THE U
      +                          SE OF
   110                           ; THIS SOFTWARE, EVEN IF ADVISED OF THE POSSIBILITY OF SUCH DAMAGE.
   111                           ; 
   112                           ; 
   113                           ; Code-generator required, PIC18F4520 Definitions
   114                           ; 
   115                           ; SFR Addresses
   116   000000                     
   117                           	psect	idataCOMRAM
   118   00348E                     __pidataCOMRAM:
   119                           	callstack 0
   120                           
   121                           ;initializer for _duty_LCD1_TECLADO
   122   00348E  20                 	db	32
   123                           
   124                           	psect	idataBANK0
   125   00347E                     __pidataBANK0:
   126                           	callstack 0
   127                           
   128                           ;initializer for read_keyb@m_dado_RB5
   129   00347E  01                 	db	1
   130                           
   131                           ;initializer for read_keyb@m_dado_RB4
   132   00347F  01                 	db	1
   133                           
   134                           ;initializer for read_keyb@m_dado_RB3
   135   003480  01                 	db	1
   136                           
   137                           ;initializer for _duty_LCD4_TECLADO
   138   003481  20                 	db	32
   139                           
   140                           ;initializer for _duty_LCD3_TECLADO
   141   003482  20                 	db	32
   142                           
   143                           ;initializer for _duty_LCD2_TECLADO
   144   003483  20                 	db	32
   145                           
   146                           	psect	idataBANK1
   147   00328A                     __pidataBANK1:
   148                           	callstack 0
   149                           
   150                           ;initializer for _linha2
   151   00328A  41                 	db	65
   152   00328B  42                 	db	66
   153   00328C  43                 	db	67
   154   00328D  44                 	db	68
   155   00328E  45                 	db	69
   156   00328F  46                 	db	70
   157   003290  47                 	db	71
   158   003291  48                 	db	72
   159   003292  49                 	db	73
   160   003293  4A                 	db	74
   161   003294  00                 	db	0
   162   003295  00                 	db	0
   163   003296  00                 	db	0
   164   003297  00                 	db	0
   165   003298  00                 	db	0
   166   003299  00                 	db	0
   167   00329A  00                 	db	0
   168                           
   169                           ;initializer for _linha1
   170   00329B  41                 	db	65
   171   00329C  42                 	db	66
   172   00329D  43                 	db	67
   173   00329E  44                 	db	68
   174   00329F  45                 	db	69
   175   0032A0  46                 	db	70
   176   0032A1  47                 	db	71
   177   0032A2  48                 	db	72
   178   0032A3  49                 	db	73
   179   0032A4  4A                 	db	74
   180   0032A5  00                 	db	0
   181   0032A6  00                 	db	0
   182   0032A7  00                 	db	0
   183   0032A8  00                 	db	0
   184   0032A9  00                 	db	0
   185   0032AA  00                 	db	0
   186   0032AB  00                 	db	0
   187                           
   188                           ;initializer for _conv7seg
   189   0032AC  3F                 	db	63
   190   0032AD  06                 	db	6
   191   0032AE  5B                 	db	91
   192   0032AF  4F                 	db	79
   193   0032B0  66                 	db	102
   194   0032B1  6D                 	db	109
   195   0032B2  7D                 	db	125
   196   0032B3  07                 	db	7
   197   0032B4  7F                 	db	127
   198   0032B5  6F                 	db	111
   199   0032B6  77                 	db	119
   200   0032B7  7C                 	db	124
   201   0032B8  39                 	db	57
   202   0032B9  5E                 	db	94
   203   0032BA  79                 	db	121
   204   0032BB  71                 	db	113
   205   0032BC  00                 	db	0
   206                           
   207                           ;initializer for f_timers@counter3
   208   0032BD  0001               	dw	1
   209                           
   210                           ;initializer for f_timers@counter2
   211   0032BF  0001               	dw	1
   212                           
   213                           ;initializer for f_timers@counter1
   214   0032C1  0001               	dw	1
   215                           
   216                           ;initializer for f_timers@counter0
   217   0032C3  0001               	dw	1
   218   000000                     _PORTD	set	3971
   219   000000                     _INTCON2	set	4081
   220   000000                     _LATC	set	3979
   221   000000                     _LATB	set	3978
   222   000000                     _LATD	set	3980
   223                           
   224                           	psect	nvBANK1
   225   00017F                     __pnvBANK1:
   226                           	callstack 0
   227   00017F                     _temporizador2:
   228                           	callstack 0
   229   00017F                     	ds	2
   230   000181                     _temporizador1:
   231                           	callstack 0
   232   000181                     	ds	2
   233   000000                     _ADRES	set	4035
   234   000000                     _PORTEbits	set	3972
   235   000000                     _INTCON3	set	4080
   236   000000                     _INTCON	set	4082
   237   000000                     _LATA	set	3977
   238   000000                     _TMR0IE	set	32661
   239   000000                     _GIE	set	32663
   240   000000                     _PEIE	set	32662
   241   000000                     _INT2IE	set	32644
   242   000000                     _INT2IF	set	32641
   243   000000                     _INT1IE	set	32643
   244   000000                     _INT0IE	set	32660
   245   000000                     _INT0IF	set	32657
   246   000000                     _LATA4	set	31820
   247   000000                     _LATA3	set	31819
   248   000000                     _LATA5	set	31821
   249   000000                     _GO	set	32273
   250   000000                     _PORTB	set	3969
   251   000000                     _TRISA	set	3986
   252   000000                     _ADCON2	set	4032
   253   000000                     _ADCON1	set	4033
   254   000000                     _ADCON0	set	4034
   255   000000                     _RC5	set	31765
   256   000000                     _RE0	set	31776
   257   000000                     _LATA2	set	31818
   258   000000                     _T2CON	set	4042
   259   000000                     _ADRESH	set	4036
   260   000000                     _ADRESL	set	4035
   261   000000                     _TRISE	set	3990
   262   000000                     _TRISD	set	3989
   263   000000                     _TRISC	set	3988
   264   000000                     _TRISB	set	3987
   265   000000                     _CCP1CON	set	4029
   266   000000                     _ADIE	set	31982
   267   000000                     _ADIF	set	31990
   268   000000                     _TMR0	set	4054
   269   000000                     _PR2	set	4043
   270   000000                     _IPEN	set	32391
   271   000000                     _TMR0IF	set	32658
   272   000000                     _CCPR1L	set	4030
   273   000000                     _INT1IF	set	32640
   274   000000                     _T0CON	set	4053
   275                           
   276                           	psect	smallconst
   277   000600                     __psmallconst:
   278                           	callstack 0
   279   000600  00                 	db	0
   280   000601                     STR_4:
   281   000601  20                 	db	32
   282   000602  20                 	db	32
   283   000603  20                 	db	32
   284   000604  20                 	db	32
   285   000605  25                 	db	37
   286   000606  64                 	db	100	;'d'
   287   000607  25                 	db	37
   288   000608  25                 	db	37
   289   000609  00                 	db	0
   290   00060A                     STR_1:
   291   00060A  54                 	db	84	;'T'
   292   00060B  45                 	db	69	;'E'
   293   00060C  4D                 	db	77	;'M'
   294   00060D  50                 	db	80	;'P'
   295   00060E  20                 	db	32
   296   00060F  3D                 	db	61	;'='
   297   000610  20                 	db	32
   298   000611  00                 	db	0
   299   000612                     STR_3:
   300   000612  20                 	db	32
   301   000613  20                 	db	32
   302   000614  20                 	db	32
   303   000615  20                 	db	32
   304   000616  30                 	db	48	;'0'
   305   000617  25                 	db	37
   306   000618  00                 	db	0
   307   000619                     STR_2:
   308   000619  20                 	db	32
   309   00061A  20                 	db	32
   310   00061B  20                 	db	32
   311   00061C  20                 	db	32
   312   00061D  00                 	db	0
   313   00061E  00                 	db	0	; dummy byte at the end
   314   000000                     
   315                           ; #config settings
   316                           
   317                           	psect	cinit
   318   002DE6                     __pcinit:
   319                           	callstack 0
   320   002DE6                     start_initialization:
   321                           	callstack 0
   322   002DE6                     __initialization:
   323                           	callstack 0
   324                           
   325                           ; Initialize objects allocated to BANK1 (59 bytes)
   326                           ; load TBLPTR registers with __pidataBANK1
   327   002DE6  0E8A               	movlw	low __pidataBANK1
   328   002DE8  6EF6               	movwf	tblptrl,c
   329   002DEA  0E32               	movlw	high __pidataBANK1
   330   002DEC  6EF7               	movwf	tblptrh,c
   331   002DEE  0E00               	movlw	low (__pidataBANK1 shr (0+16))
   332   002DF0  6EF8               	movwf	tblptru,c
   333   002DF2  EE01  F000         	lfsr	0,__pdataBANK1
   334   002DF6  EE10 F03B          	lfsr	1,59
   335   002DFA                     copy_data0:
   336   002DFA  0009               	tblrd		*+
   337   002DFC  CFF5 FFEE          	movff	tablat,postinc0
   338   002E00  50E5               	movf	postdec1,w,c
   339   002E02  50E1               	movf	fsr1l,w,c
   340   002E04  E1FA               	bnz	copy_data0
   341                           
   342                           ; Initialize objects allocated to BANK0 (6 bytes)
   343                           ; load TBLPTR registers with __pidataBANK0
   344   002E06  0E7E               	movlw	low __pidataBANK0
   345   002E08  6EF6               	movwf	tblptrl,c
   346   002E0A  0E34               	movlw	high __pidataBANK0
   347   002E0C  6EF7               	movwf	tblptrh,c
   348   002E0E  0E00               	movlw	low (__pidataBANK0 shr (0+16))
   349   002E10  6EF8               	movwf	tblptru,c
   350   002E12  EE00  F0EF         	lfsr	0,__pdataBANK0
   351   002E16  EE10 F006          	lfsr	1,6
   352   002E1A                     copy_data1:
   353   002E1A  0009               	tblrd		*+
   354   002E1C  CFF5 FFEE          	movff	tablat,postinc0
   355   002E20  50E5               	movf	postdec1,w,c
   356   002E22  50E1               	movf	fsr1l,w,c
   357   002E24  E1FA               	bnz	copy_data1
   358                           
   359                           ; Initialize objects allocated to COMRAM (1 bytes)
   360                           ; load TBLPTR registers with __pidataCOMRAM
   361   002E26  0E8E               	movlw	low __pidataCOMRAM
   362   002E28  6EF6               	movwf	tblptrl,c
   363   002E2A  0E34               	movlw	high __pidataCOMRAM
   364   002E2C  6EF7               	movwf	tblptrh,c
   365   002E2E  0E00               	movlw	low (__pidataCOMRAM shr (0+16))
   366   002E30  6EF8               	movwf	tblptru,c
   367   002E32  0009               	tblrd		*+	;fetch initializer
   368   002E34  CFF5 F07A          	movff	tablat,__pdataCOMRAM
   369                           
   370                           ; Clear objects allocated to BANK1 (58 bytes)
   371   002E38  EE01  F03B         	lfsr	0,__pbssBANK1
   372   002E3C  0E3A               	movlw	58
   373   002E3E                     clear_0:
   374   002E3E  6AEE               	clrf	postinc0,c
   375   002E40  06E8               	decf	wreg,f,c
   376   002E42  E1FD               	bnz	clear_0
   377                           
   378                           ; Clear objects allocated to BANK0 (37 bytes)
   379   002E44  EE00  F0CA         	lfsr	0,__pbssBANK0
   380   002E48  0E25               	movlw	37
   381   002E4A                     clear_1:
   382   002E4A  6AEE               	clrf	postinc0,c
   383   002E4C  06E8               	decf	wreg,f,c
   384   002E4E  E1FD               	bnz	clear_1
   385                           
   386                           ; Clear objects allocated to COMRAM (4 bytes)
   387   002E50  6A79               	clrf	(__pbssCOMRAM+3)& (0+255),c
   388   002E52  6A78               	clrf	(__pbssCOMRAM+2)& (0+255),c
   389   002E54  6A77               	clrf	(__pbssCOMRAM+1)& (0+255),c
   390   002E56  6A76               	clrf	__pbssCOMRAM& (0+255),c
   391   002E58                     end_of_initialization:
   392                           	callstack 0
   393   002E58                     __end_of__initialization:
   394                           	callstack 0
   395   002E58  907B               	bcf	int$flags,0,c	;clear compiler interrupt flag (level 1)
   396   002E5A  927B               	bcf	int$flags,1,c	;clear compiler interrupt flag (level 2)
   397   002E5C  0E00               	movlw	low (__Lmediumconst shr (0+16))
   398   002E5E  6EF8               	movwf	tblptru,c
   399   002E60  0100               	movlb	0
   400   002E62  EF12  F01A         	goto	_main	;jump to C main() function
   401                           
   402                           	psect	bssCOMRAM
   403   000076                     __pbssCOMRAM:
   404                           	callstack 0
   405   000076                     _temperature:
   406                           	callstack 0
   407   000076                     	ds	2
   408   000078                     read_keyboard@dado:
   409                           	callstack 0
   410   000078                     	ds	1
   411   000079                     _i:
   412                           	callstack 0
   413   000079                     	ds	1
   414                           
   415                           	psect	dataCOMRAM
   416   00007A                     __pdataCOMRAM:
   417                           	callstack 0
   418   00007A                     _duty_LCD1_TECLADO:
   419                           	callstack 0
   420   00007A                     	ds	1
   421                           
   422                           	psect	bssBANK0
   423   0000CA                     __pbssBANK0:
   424                           	callstack 0
   425   0000CA                     _duty_teclado:
   426                           	callstack 0
   427   0000CA                     	ds	8
   428   0000D2                     _prec:
   429                           	callstack 0
   430   0000D2                     	ds	2
   431   0000D4                     _pwm_aux:
   432                           	callstack 0
   433   0000D4                     	ds	2
   434   0000D6                     _porcentagem:
   435                           	callstack 0
   436   0000D6                     	ds	2
   437   0000D8                     _pwm_ventoinha:
   438                           	callstack 0
   439   0000D8                     	ds	2
   440   0000DA                     read_AD_10bits@leitura_low:
   441                           	callstack 0
   442   0000DA                     	ds	2
   443   0000DC                     _flags:
   444                           	callstack 0
   445   0000DC                     	ds	1
   446   0000DD                     _memoria_dado:
   447                           	callstack 0
   448   0000DD                     	ds	1
   449   0000DE                     _dado4:
   450                           	callstack 0
   451   0000DE                     	ds	1
   452   0000DF                     _dado3:
   453                           	callstack 0
   454   0000DF                     	ds	1
   455   0000E0                     _dado2:
   456                           	callstack 0
   457   0000E0                     	ds	1
   458   0000E1                     _dado1:
   459                           	callstack 0
   460   0000E1                     	ds	1
   461   0000E2                     f_timers@old_latd:
   462                           	callstack 0
   463   0000E2                     	ds	1
   464   0000E3                     _digito4_temperatura:
   465                           	callstack 0
   466   0000E3                     	ds	1
   467   0000E4                     _digito3_temperatura:
   468                           	callstack 0
   469   0000E4                     	ds	1
   470   0000E5                     _digito2_temperatura:
   471                           	callstack 0
   472   0000E5                     	ds	1
   473   0000E6                     _digito1_temperatura:
   474                           	callstack 0
   475   0000E6                     	ds	1
   476   0000E7                     mux_display@estado:
   477                           	callstack 0
   478   0000E7                     	ds	1
   479   0000E8                     _estado_sequencia02:
   480                           	callstack 0
   481   0000E8                     	ds	1
   482   0000E9                     _estado_sequencia01:
   483                           	callstack 0
   484   0000E9                     	ds	1
   485   0000EA                     _display4:
   486                           	callstack 0
   487   0000EA                     	ds	1
   488   0000EB                     _display3:
   489                           	callstack 0
   490   0000EB                     	ds	1
   491   0000EC                     _display2:
   492                           	callstack 0
   493   0000EC                     	ds	1
   494   0000ED                     _display1:
   495                           	callstack 0
   496   0000ED                     	ds	1
   497   0000EE                     ADC_maq@estado:
   498                           	callstack 0
   499   0000EE                     	ds	1
   500                           
   501                           	psect	dataBANK0
   502   0000EF                     __pdataBANK0:
   503                           	callstack 0
   504   0000EF                     read_keyb@m_dado_RB5:
   505                           	callstack 0
   506   0000EF                     	ds	1
   507   0000F0                     read_keyb@m_dado_RB4:
   508                           	callstack 0
   509   0000F0                     	ds	1
   510   0000F1                     read_keyb@m_dado_RB3:
   511                           	callstack 0
   512   0000F1                     	ds	1
   513   0000F2                     _duty_LCD4_TECLADO:
   514                           	callstack 0
   515   0000F2                     	ds	1
   516   0000F3                     _duty_LCD3_TECLADO:
   517                           	callstack 0
   518   0000F3                     	ds	1
   519   0000F4                     _duty_LCD2_TECLADO:
   520                           	callstack 0
   521   0000F4                     	ds	1
   522                           
   523                           	psect	bssBANK1
   524   00013B                     __pbssBANK1:
   525                           	callstack 0
   526   00013B                     _width:
   527                           	callstack 0
   528   00013B                     	ds	2
   529   00013D                     f_int2@duty_normalized:
   530                           	callstack 0
   531   00013D                     	ds	2
   532   00013F                     _memoria_temperatura:
   533                           	callstack 0
   534   00013F                     	ds	2
   535   000141                     read_AD_10bits@leitura:
   536                           	callstack 0
   537   000141                     	ds	2
   538   000143                     read_AD_10bits@leitura_high:
   539                           	callstack 0
   540   000143                     	ds	2
   541   000145                     _dbuf:
   542                           	callstack 0
   543   000145                     	ds	32
   544   000165                     _buffer:
   545                           	callstack 0
   546   000165                     	ds	10
   547   00016F                     _AD_data:
   548                           	callstack 0
   549   00016F                     	ds	6
   550                           
   551                           	psect	dataBANK1
   552   000100                     __pdataBANK1:
   553                           	callstack 0
   554   000100                     _linha2:
   555                           	callstack 0
   556   000100                     	ds	17
   557   000111                     _linha1:
   558                           	callstack 0
   559   000111                     	ds	17
   560   000122                     _conv7seg:
   561                           	callstack 0
   562   000122                     	ds	17
   563   000133                     f_timers@counter3:
   564                           	callstack 0
   565   000133                     	ds	2
   566   000135                     	ds	2
   567   000137                     f_timers@counter1:
   568                           	callstack 0
   569   000137                     	ds	2
   570   000139                     f_timers@counter0:
   571                           	callstack 0
   572   000139                     	ds	2
   573                           
   574                           	psect	cstackBANK1
   575   000175                     __pcstackBANK1:
   576                           	callstack 0
   577   000175                     ?___fltol:
   578                           	callstack 0
   579   000175                     ___fltol@f1:
   580                           	callstack 0
   581                           
   582                           ; 4 bytes @ 0x0
   583   000175                     	ds	4
   584   000179                     ??___fltol:
   585                           
   586                           ; 1 bytes @ 0x4
   587   000179                     	ds	4
   588   00017D                     ___fltol@sign1:
   589                           	callstack 0
   590                           
   591                           ; 1 bytes @ 0x8
   592   00017D                     	ds	1
   593   00017E                     ___fltol@exp1:
   594                           	callstack 0
   595                           
   596                           ; 1 bytes @ 0x9
   597   00017E                     	ds	1
   598                           
   599                           	psect	cstackBANK0
   600   000080                     __pcstackBANK0:
   601                           	callstack 0
   602   000080                     ??_f_interrupt_high:
   603                           
   604                           ; 1 bytes @ 0x0
   605   000080                     	ds	10
   606   00008A                     ?___lwmod:
   607                           	callstack 0
   608   00008A                     ?___xxtofl:
   609                           	callstack 0
   610   00008A                     lcd_wr@val:
   611                           	callstack 0
   612   00008A                     ___lwmod@dividend:
   613                           	callstack 0
   614   00008A                     ___xxtofl@val:
   615                           	callstack 0
   616                           
   617                           ; 4 bytes @ 0xA
   618   00008A                     	ds	1
   619   00008B                     lcd_cmd@val:
   620                           	callstack 0
   621                           
   622                           ; 1 bytes @ 0xB
   623   00008B                     	ds	1
   624   00008C                     ??_lcd_init:
   625   00008C                     ___lwmod@divisor:
   626                           	callstack 0
   627                           
   628                           ; 2 bytes @ 0xC
   629   00008C                     	ds	1
   630   00008D                     
   631                           ; 1 bytes @ 0xD
   632   00008D                     	ds	1
   633   00008E                     ??___xxtofl:
   634   00008E                     ___lwmod@counter:
   635                           	callstack 0
   636                           
   637                           ; 1 bytes @ 0xE
   638   00008E                     	ds	1
   639   00008F                     ?___lwdiv:
   640                           	callstack 0
   641   00008F                     ___lwdiv@dividend:
   642                           	callstack 0
   643                           
   644                           ; 2 bytes @ 0xF
   645   00008F                     	ds	2
   646   000091                     ___lwdiv@divisor:
   647                           	callstack 0
   648                           
   649                           ; 2 bytes @ 0x11
   650   000091                     	ds	1
   651   000092                     ___xxtofl@sign:
   652                           	callstack 0
   653                           
   654                           ; 1 bytes @ 0x12
   655   000092                     	ds	1
   656   000093                     ___xxtofl@exp:
   657                           	callstack 0
   658   000093                     ___lwdiv@quotient:
   659                           	callstack 0
   660                           
   661                           ; 2 bytes @ 0x13
   662   000093                     	ds	1
   663   000094                     ___xxtofl@arg:
   664                           	callstack 0
   665                           
   666                           ; 4 bytes @ 0x14
   667   000094                     	ds	1
   668   000095                     ___lwdiv@counter:
   669                           	callstack 0
   670                           
   671                           ; 1 bytes @ 0x15
   672   000095                     	ds	3
   673   000098                     ?___flmul:
   674                           	callstack 0
   675   000098                     ___flmul@b:
   676                           	callstack 0
   677                           
   678                           ; 4 bytes @ 0x18
   679   000098                     	ds	4
   680   00009C                     ___flmul@a:
   681                           	callstack 0
   682                           
   683                           ; 4 bytes @ 0x1C
   684   00009C                     	ds	4
   685   0000A0                     ??___flmul:
   686                           
   687                           ; 1 bytes @ 0x20
   688   0000A0                     	ds	4
   689   0000A4                     ___flmul@sign:
   690                           	callstack 0
   691                           
   692                           ; 1 bytes @ 0x24
   693   0000A4                     	ds	1
   694   0000A5                     ___flmul@grs:
   695                           	callstack 0
   696                           
   697                           ; 4 bytes @ 0x25
   698   0000A5                     	ds	4
   699   0000A9                     ___flmul@aexp:
   700                           	callstack 0
   701                           
   702                           ; 1 bytes @ 0x29
   703   0000A9                     	ds	1
   704   0000AA                     ___flmul@bexp:
   705                           	callstack 0
   706                           
   707                           ; 1 bytes @ 0x2A
   708   0000AA                     	ds	1
   709   0000AB                     ___flmul@prod:
   710                           	callstack 0
   711                           
   712                           ; 4 bytes @ 0x2B
   713   0000AB                     	ds	4
   714   0000AF                     ___flmul@temp:
   715                           	callstack 0
   716                           
   717                           ; 2 bytes @ 0x2F
   718   0000AF                     	ds	2
   719   0000B1                     ?___fldiv:
   720                           	callstack 0
   721   0000B1                     ___fldiv@b:
   722                           	callstack 0
   723                           
   724                           ; 4 bytes @ 0x31
   725   0000B1                     	ds	4
   726   0000B5                     ___fldiv@a:
   727                           	callstack 0
   728                           
   729                           ; 4 bytes @ 0x35
   730   0000B5                     	ds	4
   731   0000B9                     ??___fldiv:
   732                           
   733                           ; 1 bytes @ 0x39
   734   0000B9                     	ds	4
   735   0000BD                     ___fldiv@rem:
   736                           	callstack 0
   737                           
   738                           ; 4 bytes @ 0x3D
   739   0000BD                     	ds	4
   740   0000C1                     ___fldiv@sign:
   741                           	callstack 0
   742                           
   743                           ; 1 bytes @ 0x41
   744   0000C1                     	ds	1
   745   0000C2                     ___fldiv@new_exp:
   746                           	callstack 0
   747                           
   748                           ; 2 bytes @ 0x42
   749   0000C2                     	ds	2
   750   0000C4                     ___fldiv@grs:
   751                           	callstack 0
   752                           
   753                           ; 4 bytes @ 0x44
   754   0000C4                     	ds	4
   755   0000C8                     ___fldiv@bexp:
   756                           	callstack 0
   757                           
   758                           ; 1 bytes @ 0x48
   759   0000C8                     	ds	1
   760   0000C9                     ___fldiv@aexp:
   761                           	callstack 0
   762                           
   763                           ; 1 bytes @ 0x49
   764   0000C9                     	ds	1
   765   0000CA                     
   766                           ; 1 bytes @ 0x4A
   767                           
   768                           	psect	cstackCOMRAM
   769   000001                     __pcstackCOMRAM:
   770                           	callstack 0
   771   000001                     ??_mux_display:
   772   000001                     ?___wmul:
   773                           	callstack 0
   774   000001                     ?i2___xxtofl:
   775                           	callstack 0
   776   000001                     ?___aodiv:
   777                           	callstack 0
   778   000001                     ?___aomod:
   779                           	callstack 0
   780   000001                     select_channel@channel:
   781                           	callstack 0
   782   000001                     i2lcd_wr@val:
   783                           	callstack 0
   784   000001                     f_pwm@duty:
   785                           	callstack 0
   786   000001                     ler_teclado@i:
   787                           	callstack 0
   788   000001                     ___wmul@multiplier:
   789                           	callstack 0
   790   000001                     fputc@c:
   791                           	callstack 0
   792   000001                     i2___xxtofl@val:
   793                           	callstack 0
   794   000001                     ___aodiv@dividend:
   795                           	callstack 0
   796   000001                     ___aomod@dividend:
   797                           	callstack 0
   798                           
   799                           ; 8 bytes @ 0x0
   800   000001                     	ds	1
   801   000002                     ??_ADC_maq:
   802   000002                     lcd_dat@val:
   803                           	callstack 0
   804   000002                     i2lcd_cmd@val:
   805                           	callstack 0
   806                           
   807                           ; 1 bytes @ 0x1
   808   000002                     	ds	1
   809   000003                     ??_f_pwm:
   810   000003                     lcd_str@str:
   811                           	callstack 0
   812   000003                     ler_teclado@i_429:
   813                           	callstack 0
   814   000003                     ___wmul@multiplicand:
   815                           	callstack 0
   816   000003                     fputc@fp:
   817                           	callstack 0
   818                           
   819                           ; 2 bytes @ 0x2
   820   000003                     	ds	2
   821   000005                     ??_lcd_str:
   822   000005                     ??_fputc:
   823   000005                     ??i2___xxtofl:
   824   000005                     ler_teclado@i_430:
   825                           	callstack 0
   826   000005                     ___wmul@product:
   827                           	callstack 0
   828                           
   829                           ; 2 bytes @ 0x4
   830   000005                     	ds	2
   831   000007                     lcd_str@i:
   832                           	callstack 0
   833   000007                     ler_teclado@saida:
   834                           	callstack 0
   835                           
   836                           ; 1 bytes @ 0x6
   837   000007                     	ds	1
   838   000008                     ler_teclado@entrada:
   839                           	callstack 0
   840                           
   841                           ; 1 bytes @ 0x7
   842   000008                     	ds	1
   843   000009                     ??_read_keyboard:
   844   000009                     i2___xxtofl@sign:
   845                           	callstack 0
   846   000009                     ___aodiv@divisor:
   847                           	callstack 0
   848   000009                     ___aomod@divisor:
   849                           	callstack 0
   850                           
   851                           ; 8 bytes @ 0x8
   852   000009                     	ds	1
   853   00000A                     i2___xxtofl@exp:
   854                           	callstack 0
   855   00000A                     fputs@s:
   856                           	callstack 0
   857                           
   858                           ; 2 bytes @ 0x9
   859   00000A                     	ds	1
   860   00000B                     read_keyboard@i:
   861                           	callstack 0
   862   00000B                     i2___xxtofl@arg:
   863                           	callstack 0
   864                           
   865                           ; 4 bytes @ 0xA
   866   00000B                     	ds	1
   867   00000C                     fputs@fp:
   868                           	callstack 0
   869                           
   870                           ; 2 bytes @ 0xB
   871   00000C                     	ds	2
   872   00000E                     fputs@c:
   873                           	callstack 0
   874                           
   875                           ; 1 bytes @ 0xD
   876   00000E                     	ds	1
   877   00000F                     ?i2___flmul:
   878                           	callstack 0
   879   00000F                     fputs@i:
   880                           	callstack 0
   881   00000F                     i2___flmul@b:
   882                           	callstack 0
   883                           
   884                           ; 4 bytes @ 0xE
   885   00000F                     	ds	2
   886   000011                     ___aodiv@counter:
   887                           	callstack 0
   888   000011                     ___aomod@counter:
   889                           	callstack 0
   890   000011                     pad@fp:
   891                           	callstack 0
   892                           
   893                           ; 2 bytes @ 0x10
   894   000011                     	ds	1
   895   000012                     ___aodiv@sign:
   896                           	callstack 0
   897   000012                     ___aomod@sign:
   898                           	callstack 0
   899                           
   900                           ; 1 bytes @ 0x11
   901   000012                     	ds	1
   902   000013                     ?_abs:
   903                           	callstack 0
   904   000013                     pad@buf:
   905                           	callstack 0
   906   000013                     abs@a:
   907                           	callstack 0
   908   000013                     i2___flmul@a:
   909                           	callstack 0
   910   000013                     ___aodiv@quotient:
   911                           	callstack 0
   912                           
   913                           ; 8 bytes @ 0x12
   914   000013                     	ds	2
   915   000015                     ??_abs:
   916   000015                     pad@p:
   917                           	callstack 0
   918                           
   919                           ; 2 bytes @ 0x14
   920   000015                     	ds	2
   921   000017                     ??_pad:
   922   000017                     ??i2___flmul:
   923                           
   924                           ; 1 bytes @ 0x16
   925   000017                     	ds	1
   926   000018                     pad@i:
   927                           	callstack 0
   928                           
   929                           ; 2 bytes @ 0x17
   930   000018                     	ds	2
   931   00001A                     pad@w:
   932                           	callstack 0
   933                           
   934                           ; 2 bytes @ 0x19
   935   00001A                     	ds	1
   936   00001B                     i2___flmul@sign:
   937                           	callstack 0
   938                           
   939                           ; 1 bytes @ 0x1A
   940   00001B                     	ds	1
   941   00001C                     dtoa@fp:
   942                           	callstack 0
   943   00001C                     i2___flmul@grs:
   944                           	callstack 0
   945                           
   946                           ; 4 bytes @ 0x1B
   947   00001C                     	ds	2
   948   00001E                     dtoa@d:
   949                           	callstack 0
   950                           
   951                           ; 8 bytes @ 0x1D
   952   00001E                     	ds	2
   953   000020                     i2___flmul@aexp:
   954                           	callstack 0
   955                           
   956                           ; 1 bytes @ 0x1F
   957   000020                     	ds	1
   958   000021                     i2___flmul@bexp:
   959                           	callstack 0
   960                           
   961                           ; 1 bytes @ 0x20
   962   000021                     	ds	1
   963   000022                     i2___flmul@prod:
   964                           	callstack 0
   965                           
   966                           ; 4 bytes @ 0x21
   967   000022                     	ds	4
   968   000026                     ??_dtoa:
   969   000026                     i2___flmul@temp:
   970                           	callstack 0
   971                           
   972                           ; 2 bytes @ 0x25
   973   000026                     	ds	2
   974   000028                     ?i2___fldiv:
   975                           	callstack 0
   976   000028                     i2___fldiv@b:
   977                           	callstack 0
   978                           
   979                           ; 4 bytes @ 0x27
   980   000028                     	ds	4
   981   00002C                     i2___fldiv@a:
   982                           	callstack 0
   983                           
   984                           ; 4 bytes @ 0x2B
   985   00002C                     	ds	2
   986   00002E                     _dtoa$949:
   987                           	callstack 0
   988                           
   989                           ; 2 bytes @ 0x2D
   990   00002E                     	ds	2
   991   000030                     ??i2___fldiv:
   992   000030                     dtoa@p:
   993                           	callstack 0
   994                           
   995                           ; 2 bytes @ 0x2F
   996   000030                     	ds	2
   997   000032                     dtoa@w:
   998                           	callstack 0
   999                           
  1000                           ; 2 bytes @ 0x31
  1001   000032                     	ds	2
  1002   000034                     i2___fldiv@rem:
  1003                           	callstack 0
  1004   000034                     dtoa@n:
  1005                           	callstack 0
  1006                           
  1007                           ; 8 bytes @ 0x33
  1008   000034                     	ds	4
  1009   000038                     i2___fldiv@sign:
  1010                           	callstack 0
  1011                           
  1012                           ; 1 bytes @ 0x37
  1013   000038                     	ds	1
  1014   000039                     i2___fldiv@new_exp:
  1015                           	callstack 0
  1016                           
  1017                           ; 2 bytes @ 0x38
  1018   000039                     	ds	2
  1019   00003B                     i2___fldiv@grs:
  1020                           	callstack 0
  1021                           
  1022                           ; 4 bytes @ 0x3A
  1023   00003B                     	ds	1
  1024   00003C                     dtoa@i:
  1025                           	callstack 0
  1026                           
  1027                           ; 2 bytes @ 0x3B
  1028   00003C                     	ds	2
  1029   00003E                     dtoa@s:
  1030                           	callstack 0
  1031                           
  1032                           ; 1 bytes @ 0x3D
  1033   00003E                     	ds	1
  1034   00003F                     i2___fldiv@bexp:
  1035                           	callstack 0
  1036   00003F                     vfpfcnvrt@fp:
  1037                           	callstack 0
  1038                           
  1039                           ; 2 bytes @ 0x3E
  1040   00003F                     	ds	1
  1041   000040                     i2___fldiv@aexp:
  1042                           	callstack 0
  1043                           
  1044                           ; 1 bytes @ 0x3F
  1045   000040                     	ds	1
  1046   000041                     ?i2___fltol:
  1047                           	callstack 0
  1048   000041                     vfpfcnvrt@fmt:
  1049                           	callstack 0
  1050   000041                     i2___fltol@f1:
  1051                           	callstack 0
  1052                           
  1053                           ; 4 bytes @ 0x40
  1054   000041                     	ds	2
  1055   000043                     vfpfcnvrt@ap:
  1056                           	callstack 0
  1057                           
  1058                           ; 2 bytes @ 0x42
  1059   000043                     	ds	2
  1060   000045                     ??_vfpfcnvrt:
  1061   000045                     ??i2___fltol:
  1062                           
  1063                           ; 1 bytes @ 0x44
  1064   000045                     	ds	2
  1065   000047                     vfpfcnvrt@convarg:
  1066                           	callstack 0
  1067                           
  1068                           ; 8 bytes @ 0x46
  1069   000047                     	ds	2
  1070   000049                     i2___fltol@sign1:
  1071                           	callstack 0
  1072                           
  1073                           ; 1 bytes @ 0x48
  1074   000049                     	ds	1
  1075   00004A                     i2___fltol@exp1:
  1076                           	callstack 0
  1077                           
  1078                           ; 1 bytes @ 0x49
  1079   00004A                     	ds	5
  1080   00004F                     vfpfcnvrt@cp:
  1081                           	callstack 0
  1082                           
  1083                           ; 2 bytes @ 0x4E
  1084   00004F                     	ds	2
  1085   000051                     ?_vfprintf:
  1086                           	callstack 0
  1087   000051                     vfprintf@fp:
  1088                           	callstack 0
  1089                           
  1090                           ; 2 bytes @ 0x50
  1091   000051                     	ds	2
  1092   000053                     vfprintf@fmt:
  1093                           	callstack 0
  1094                           
  1095                           ; 2 bytes @ 0x52
  1096   000053                     	ds	2
  1097   000055                     vfprintf@ap:
  1098                           	callstack 0
  1099                           
  1100                           ; 2 bytes @ 0x54
  1101   000055                     	ds	2
  1102   000057                     vfprintf@cfmt:
  1103                           	callstack 0
  1104                           
  1105                           ; 2 bytes @ 0x56
  1106   000057                     	ds	2
  1107   000059                     ?_sprintf:
  1108                           	callstack 0
  1109   000059                     sprintf@s:
  1110                           	callstack 0
  1111                           
  1112                           ; 2 bytes @ 0x58
  1113   000059                     	ds	2
  1114   00005B                     sprintf@fmt:
  1115                           	callstack 0
  1116                           
  1117                           ; 2 bytes @ 0x5A
  1118   00005B                     	ds	4
  1119   00005F                     sprintf@ap:
  1120                           	callstack 0
  1121                           
  1122                           ; 2 bytes @ 0x5E
  1123   00005F                     	ds	2
  1124   000061                     sprintf@f:
  1125                           	callstack 0
  1126                           
  1127                           ; 11 bytes @ 0x60
  1128   000061                     	ds	11
  1129   00006C                     ??_f_int2:
  1130                           
  1131                           ; 1 bytes @ 0x6B
  1132   00006C                     	ds	6
  1133   000072                     read_keyb@dado_RB3:
  1134                           	callstack 0
  1135                           
  1136                           ; 1 bytes @ 0x71
  1137   000072                     	ds	1
  1138   000073                     read_keyb@dado_RB4:
  1139                           	callstack 0
  1140                           
  1141                           ; 1 bytes @ 0x72
  1142   000073                     	ds	1
  1143   000074                     read_keyb@dado_RB5:
  1144                           	callstack 0
  1145                           
  1146                           ; 1 bytes @ 0x73
  1147   000074                     	ds	1
  1148   000075                     read_keyb@dado:
  1149                           	callstack 0
  1150                           
  1151                           ; 1 bytes @ 0x74
  1152   000075                     	ds	1
  1153   000076                     
  1154                           ; 1 bytes @ 0x75
  1155 ;;
  1156 ;;Main: autosize = 0, tempsize = 0, incstack = 0, save=0
  1157 ;;
  1158 ;; *************** function _main *****************
  1159 ;; Defined at:
  1160 ;;		line 36 in file "main.c"
  1161 ;; Parameters:    Size  Location     Type
  1162 ;;		None
  1163 ;; Auto vars:     Size  Location     Type
  1164 ;;		None
  1165 ;; Return value:  Size  Location     Type
  1166 ;;                  2  401[None  ] int 
  1167 ;; Registers used:
  1168 ;;		wreg, status,2, status,0, prodl, prodh, cstack
  1169 ;; Tracked objects:
  1170 ;;		On entry : 0/0
  1171 ;;		On exit  : 0/0
  1172 ;;		Unchanged: 0/0
  1173 ;; Data sizes:     COMRAM   BANK0   BANK1   BANK2   BANK3   BANK4   BANK5
  1174 ;;      Params:         0       0       0       0       0       0       0
  1175 ;;      Locals:         0       0       0       0       0       0       0
  1176 ;;      Temps:          0       0       0       0       0       0       0
  1177 ;;      Totals:         0       0       0       0       0       0       0
  1178 ;;Total ram usage:        0 bytes
  1179 ;; Hardware stack levels required when called: 16
  1180 ;; This function calls:
  1181 ;;		_loop
  1182 ;;		_setup
  1183 ;; This function is called by:
  1184 ;;		Startup code after reset
  1185 ;; This function uses a non-reentrant model
  1186 ;;
  1187                           
  1188                           	psect	text0
  1189   003424                     __ptext0:
  1190                           	callstack 0
  1191   003424                     _main:
  1192                           	callstack 15
  1193   003424                     
  1194                           ;main.c: 39:    setup();
  1195   003424  EC8B  F018         	call	_setup	;wreg free
  1196   003428                     l4521:
  1197   003428  ECA4  F012         	call	_loop	;wreg free
  1198   00342C  EF14  F01A         	goto	l4521
  1199   003430  EF07  F000         	goto	start
  1200   003434                     __end_of_main:
  1201                           	callstack 0
  1202                           
  1203 ;; *************** function _setup *****************
  1204 ;; Defined at:
  1205 ;;		line 16 in file "IO.c"
  1206 ;; Parameters:    Size  Location     Type
  1207 ;;		None
  1208 ;; Auto vars:     Size  Location     Type
  1209 ;;		None
  1210 ;; Return value:  Size  Location     Type
  1211 ;;                  1    wreg      void 
  1212 ;; Registers used:
  1213 ;;		wreg, status,2, cstack
  1214 ;; Tracked objects:
  1215 ;;		On entry : 0/0
  1216 ;;		On exit  : 0/0
  1217 ;;		Unchanged: 0/0
  1218 ;; Data sizes:     COMRAM   BANK0   BANK1   BANK2   BANK3   BANK4   BANK5
  1219 ;;      Params:         0       0       0       0       0       0       0
  1220 ;;      Locals:         0       0       0       0       0       0       0
  1221 ;;      Temps:          0       0       0       0       0       0       0
  1222 ;;      Totals:         0       0       0       0       0       0       0
  1223 ;;Total ram usage:        0 bytes
  1224 ;; Hardware stack levels used: 1
  1225 ;; Hardware stack levels required when called: 15
  1226 ;; This function calls:
  1227 ;;		_AD_init
  1228 ;;		_disable_interrupts
  1229 ;;		_enable_interrupts
  1230 ;;		_interrupt_init
  1231 ;;		_lcd_init
  1232 ;;		_setup_io
  1233 ;;		_start_AD_conversion
  1234 ;; This function is called by:
  1235 ;;		_main
  1236 ;; This function uses a non-reentrant model
  1237 ;;
  1238                           
  1239                           	psect	text1
  1240   003116                     __ptext1:
  1241                           	callstack 0
  1242   003116                     _setup:
  1243                           	callstack 15
  1244   003116                     
  1245                           ;IO.c: 18:     disable_interrupts();
  1246   003116  EC37  F01A         	call	_disable_interrupts	;wreg free
  1247   00311A                     
  1248                           ;IO.c: 19:     setup_io();
  1249   00311A  ECAA  F019         	call	_setup_io	;wreg free
  1250   00311E                     
  1251                           ;IO.c: 20:     interrupt_init();
  1252   00311E  EC05  F01A         	call	_interrupt_init	;wreg free
  1253   003122                     
  1254                           ;IO.c: 21:     T2CON = 0b00000101;
  1255   003122  0E05               	movlw	5
  1256   003124  6ECA               	movwf	202,c	;volatile
  1257   003126                     
  1258                           ;IO.c: 22:     PR2 = 255;
  1259   003126  68CB               	setf	203,c	;volatile
  1260   003128                     
  1261                           ;IO.c: 23:     CCP1CON = 0b00001100;
  1262   003128  0E0C               	movlw	12
  1263   00312A  6EBD               	movwf	189,c	;volatile
  1264   00312C                     
  1265                           ;IO.c: 24:     AD_init();
  1266   00312C  EC1A  F01A         	call	_AD_init	;wreg free
  1267   003130                     
  1268                           ;IO.c: 25:     LATA2 = 1, LATA3 = 1, LATA4 = 1, LATA5 = 1;
  1269   003130  8489               	bsf	3977,2,c	;volatile
  1270   003132  8689               	bsf	3977,3,c	;volatile
  1271   003134  8889               	bsf	3977,4,c	;volatile
  1272   003136  8A89               	bsf	3977,5,c	;volatile
  1273                           
  1274                           ;IO.c: 26:     temporizador1 = 200;
  1275   003138  0E00               	movlw	0
  1276   00313A  0101               	movlb	1	; () banked
  1277   00313C  6F82               	movwf	(_temporizador1+1)& (0+255),b
  1278   00313E  0EC8               	movlw	200
  1279   003140  6F81               	movwf	_temporizador1& (0+255),b
  1280                           
  1281                           ;IO.c: 27:     temporizador2 = 300;
  1282   003142  0E01               	movlw	1
  1283   003144  6F80               	movwf	(_temporizador2+1)& (0+255),b
  1284   003146  0E2C               	movlw	44
  1285   003148  6F7F               	movwf	_temporizador2& (0+255),b
  1286   00314A                     
  1287                           ; BSR set to: 1
  1288                           ;IO.c: 28:     lcd_init();
  1289   00314A  EC24  F018         	call	_lcd_init	;wreg free
  1290   00314E                     
  1291                           ;IO.c: 29:     display1 = 0;
  1292   00314E  0E00               	movlw	0
  1293   003150  0100               	movlb	0	; () banked
  1294   003152  6FED               	movwf	_display1& (0+255),b
  1295   003154                     
  1296                           ; BSR set to: 0
  1297                           ;IO.c: 30:     display2 = 0;
  1298   003154  0E00               	movlw	0
  1299   003156  6FEC               	movwf	_display2& (0+255),b
  1300   003158                     
  1301                           ; BSR set to: 0
  1302                           ;IO.c: 31:     display3 = 0;
  1303   003158  0E00               	movlw	0
  1304   00315A  6FEB               	movwf	_display3& (0+255),b
  1305   00315C                     
  1306                           ; BSR set to: 0
  1307                           ;IO.c: 32:     display4 = 0;
  1308   00315C  0E00               	movlw	0
  1309   00315E  6FEA               	movwf	_display4& (0+255),b
  1310                           
  1311                           ;IO.c: 33:     enable_interrupts();
  1312   003160  EC2D  F01A         	call	_enable_interrupts	;wreg free
  1313                           
  1314                           ;IO.c: 34:     start_AD_conversion();
  1315   003164  EC42  F01A         	call	_start_AD_conversion	;wreg free
  1316   003168  0012               	return		;funcret
  1317   00316A                     __end_of_setup:
  1318                           	callstack 0
  1319                           
  1320 ;; *************** function _start_AD_conversion *****************
  1321 ;; Defined at:
  1322 ;;		line 19 in file "ADC.c"
  1323 ;; Parameters:    Size  Location     Type
  1324 ;;		None
  1325 ;; Auto vars:     Size  Location     Type
  1326 ;;		None
  1327 ;; Return value:  Size  Location     Type
  1328 ;;                  1    wreg      void 
  1329 ;; Registers used:
  1330 ;;		None
  1331 ;; Tracked objects:
  1332 ;;		On entry : 0/0
  1333 ;;		On exit  : 0/0
  1334 ;;		Unchanged: 0/0
  1335 ;; Data sizes:     COMRAM   BANK0   BANK1   BANK2   BANK3   BANK4   BANK5
  1336 ;;      Params:         0       0       0       0       0       0       0
  1337 ;;      Locals:         0       0       0       0       0       0       0
  1338 ;;      Temps:          0       0       0       0       0       0       0
  1339 ;;      Totals:         0       0       0       0       0       0       0
  1340 ;;Total ram usage:        0 bytes
  1341 ;; Hardware stack levels used: 1
  1342 ;; Hardware stack levels required when called: 12
  1343 ;; This function calls:
  1344 ;;		Nothing
  1345 ;; This function is called by:
  1346 ;;		_setup
  1347 ;; This function uses a non-reentrant model
  1348 ;;
  1349                           
  1350                           	psect	text2
  1351   003484                     __ptext2:
  1352                           	callstack 0
  1353   003484                     _start_AD_conversion:
  1354                           	callstack 17
  1355   003484                     
  1356                           ;ADC.c: 21:     GO = 1;
  1357   003484  82C2               	bsf	4034,1,c	;volatile
  1358   003486  0012               	return		;funcret
  1359   003488                     __end_of_start_AD_conversion:
  1360                           	callstack 0
  1361                           
  1362 ;; *************** function _setup_io *****************
  1363 ;; Defined at:
  1364 ;;		line 38 in file "IO.c"
  1365 ;; Parameters:    Size  Location     Type
  1366 ;;		None
  1367 ;; Auto vars:     Size  Location     Type
  1368 ;;		None
  1369 ;; Return value:  Size  Location     Type
  1370 ;;                  1    wreg      void 
  1371 ;; Registers used:
  1372 ;;		wreg, status,2
  1373 ;; Tracked objects:
  1374 ;;		On entry : 0/0
  1375 ;;		On exit  : 0/0
  1376 ;;		Unchanged: 0/0
  1377 ;; Data sizes:     COMRAM   BANK0   BANK1   BANK2   BANK3   BANK4   BANK5
  1378 ;;      Params:         0       0       0       0       0       0       0
  1379 ;;      Locals:         0       0       0       0       0       0       0
  1380 ;;      Temps:          0       0       0       0       0       0       0
  1381 ;;      Totals:         0       0       0       0       0       0       0
  1382 ;;Total ram usage:        0 bytes
  1383 ;; Hardware stack levels used: 1
  1384 ;; Hardware stack levels required when called: 12
  1385 ;; This function calls:
  1386 ;;		Nothing
  1387 ;; This function is called by:
  1388 ;;		_setup
  1389 ;; This function uses a non-reentrant model
  1390 ;;
  1391                           
  1392                           	psect	text3
  1393   003354                     __ptext3:
  1394                           	callstack 0
  1395   003354                     _setup_io:
  1396                           	callstack 17
  1397   003354                     
  1398                           ;IO.c: 40:     TRISA = 0b11000011;
  1399   003354  0EC3               	movlw	195
  1400   003356  6E92               	movwf	146,c	;volatile
  1401                           
  1402                           ;IO.c: 41:     TRISB = 0b00111111;
  1403   003358  0E3F               	movlw	63
  1404   00335A  6E93               	movwf	147,c	;volatile
  1405                           
  1406                           ;IO.c: 42:     TRISC = 0b11011011;
  1407   00335C  0EDB               	movlw	219
  1408   00335E  6E94               	movwf	148,c	;volatile
  1409                           
  1410                           ;IO.c: 43:     TRISD = 0b00000000;
  1411   003360  0E00               	movlw	0
  1412   003362  6E95               	movwf	149,c	;volatile
  1413                           
  1414                           ;IO.c: 44:     TRISE = 0b11111000;
  1415   003364  0EF8               	movlw	248
  1416   003366  6E96               	movwf	150,c	;volatile
  1417                           
  1418                           ;IO.c: 45:     LATA = 0b00000000;
  1419   003368  0E00               	movlw	0
  1420   00336A  6E89               	movwf	137,c	;volatile
  1421                           
  1422                           ;IO.c: 46:     LATB = 0b00000000;
  1423   00336C  0E00               	movlw	0
  1424   00336E  6E8A               	movwf	138,c	;volatile
  1425                           
  1426                           ;IO.c: 47:     LATC = 0b00100000;
  1427   003370  0E20               	movlw	32
  1428   003372  6E8B               	movwf	139,c	;volatile
  1429                           
  1430                           ;IO.c: 48:     LATD = 0b00000000;
  1431   003374  0E00               	movlw	0
  1432   003376  6E8C               	movwf	140,c	;volatile
  1433   003378  0012               	return		;funcret
  1434   00337A                     __end_of_setup_io:
  1435                           	callstack 0
  1436                           
  1437 ;; *************** function _lcd_init *****************
  1438 ;; Defined at:
  1439 ;;		line 56 in file "lcd.c"
  1440 ;; Parameters:    Size  Location     Type
  1441 ;;		None
  1442 ;; Auto vars:     Size  Location     Type
  1443 ;;		None
  1444 ;; Return value:  Size  Location     Type
  1445 ;;                  1    wreg      void 
  1446 ;; Registers used:
  1447 ;;		wreg, status,2, cstack
  1448 ;; Tracked objects:
  1449 ;;		On entry : 0/0
  1450 ;;		On exit  : 0/0
  1451 ;;		Unchanged: 0/0
  1452 ;; Data sizes:     COMRAM   BANK0   BANK1   BANK2   BANK3   BANK4   BANK5
  1453 ;;      Params:         0       0       0       0       0       0       0
  1454 ;;      Locals:         0       0       0       0       0       0       0
  1455 ;;      Temps:          0       1       0       0       0       0       0
  1456 ;;      Totals:         0       1       0       0       0       0       0
  1457 ;;Total ram usage:        1 bytes
  1458 ;; Hardware stack levels used: 1
  1459 ;; Hardware stack levels required when called: 14
  1460 ;; This function calls:
  1461 ;;		_lcd_cmd
  1462 ;; This function is called by:
  1463 ;;		_setup
  1464 ;; This function uses a non-reentrant model
  1465 ;;
  1466                           
  1467                           	psect	text4
  1468   003048                     __ptext4:
  1469                           	callstack 0
  1470   003048                     _lcd_init:
  1471                           	callstack 15
  1472   003048                     
  1473                           ;lcd.c: 58:  PORTEbits.RE1=0;
  1474   003048  9284               	bcf	132,1,c	;volatile
  1475                           
  1476                           ;lcd.c: 59:  PORTEbits.RE2=0;
  1477   00304A  9484               	bcf	132,2,c	;volatile
  1478   00304C                     
  1479                           ;lcd.c: 60:     _delay((unsigned long)((20)*(4000000/4000.0)));
  1480   00304C  0E1A               	movlw	26
  1481   00304E  0100               	movlb	0	; () banked
  1482   003050  6F8C               	movwf	??_lcd_init& (0+255),b
  1483   003052  0EF8               	movlw	248
  1484   003054                     u4287:
  1485   003054  2EE8               	decfsz	wreg,f,c
  1486   003056  D7FE               	bra	u4287
  1487   003058  2F8C               	decfsz	??_lcd_init& (0+255),f,b
  1488   00305A  D7FC               	bra	u4287
  1489   00305C  F000               	nop	
  1490   00305E                     
  1491                           ;lcd.c: 61:  PORTEbits.RE1=1;
  1492   00305E  8284               	bsf	132,1,c	;volatile
  1493   003060                     
  1494                           ;lcd.c: 63:  lcd_cmd(0x38);
  1495   003060  0E38               	movlw	56
  1496   003062  ECBD  F019         	call	_lcd_cmd
  1497   003066                     
  1498                           ;lcd.c: 64:  _delay((unsigned long)((5)*(4000000/4000.0)));
  1499   003066  0E07               	movlw	7
  1500   003068  0100               	movlb	0	; () banked
  1501   00306A  6F8C               	movwf	??_lcd_init& (0+255),b
  1502   00306C  0E7D               	movlw	125
  1503   00306E                     u4297:
  1504   00306E  2EE8               	decfsz	wreg,f,c
  1505   003070  D7FE               	bra	u4297
  1506   003072  2F8C               	decfsz	??_lcd_init& (0+255),f,b
  1507   003074  D7FC               	bra	u4297
  1508                           
  1509                           ;lcd.c: 65:  lcd_cmd(0x38);
  1510   003076  0E38               	movlw	56
  1511   003078  ECBD  F019         	call	_lcd_cmd
  1512   00307C                     
  1513                           ;lcd.c: 66:     _delay((unsigned long)((1)*(4000000/4000.0)));
  1514   00307C  0EC8               	movlw	200
  1515   00307E                     u4307:
  1516   00307E  D000               	nop2	
  1517   003080  2EE8               	decfsz	wreg,f,c
  1518   003082  D7FD               	bra	u4307
  1519   003084                     
  1520                           ;lcd.c: 67:  lcd_cmd(0x38);
  1521   003084  0E38               	movlw	56
  1522   003086  ECBD  F019         	call	_lcd_cmd
  1523   00308A                     
  1524                           ;lcd.c: 68:  lcd_cmd(0x08);
  1525   00308A  0E08               	movlw	8
  1526   00308C  ECBD  F019         	call	_lcd_cmd
  1527   003090                     
  1528                           ;lcd.c: 69:  lcd_cmd(0x0F);
  1529   003090  0E0F               	movlw	15
  1530   003092  ECBD  F019         	call	_lcd_cmd
  1531   003096                     
  1532                           ;lcd.c: 70:  lcd_cmd(0x01);
  1533   003096  0E01               	movlw	1
  1534   003098  ECBD  F019         	call	_lcd_cmd
  1535   00309C                     
  1536                           ;lcd.c: 71:  lcd_cmd(0x38);
  1537   00309C  0E38               	movlw	56
  1538   00309E  ECBD  F019         	call	_lcd_cmd
  1539   0030A2                     
  1540                           ;lcd.c: 72:     lcd_cmd(0x80);
  1541   0030A2  0E80               	movlw	128
  1542   0030A4  ECBD  F019         	call	_lcd_cmd
  1543   0030A8                     
  1544                           ;lcd.c: 73:     lcd_cmd(0x0C);
  1545   0030A8  0E0C               	movlw	12
  1546   0030AA  ECBD  F019         	call	_lcd_cmd
  1547   0030AE  0012               	return		;funcret
  1548   0030B0                     __end_of_lcd_init:
  1549                           	callstack 0
  1550                           
  1551 ;; *************** function _lcd_cmd *****************
  1552 ;; Defined at:
  1553 ;;		line 34 in file "lcd.c"
  1554 ;; Parameters:    Size  Location     Type
  1555 ;;  val             1    wreg     unsigned char 
  1556 ;; Auto vars:     Size  Location     Type
  1557 ;;  val             1   11[BANK0 ] unsigned char 
  1558 ;; Return value:  Size  Location     Type
  1559 ;;                  1    wreg      void 
  1560 ;; Registers used:
  1561 ;;		wreg, status,2, cstack
  1562 ;; Tracked objects:
  1563 ;;		On entry : 0/0
  1564 ;;		On exit  : 0/0
  1565 ;;		Unchanged: 0/0
  1566 ;; Data sizes:     COMRAM   BANK0   BANK1   BANK2   BANK3   BANK4   BANK5
  1567 ;;      Params:         0       0       0       0       0       0       0
  1568 ;;      Locals:         0       1       0       0       0       0       0
  1569 ;;      Temps:          0       0       0       0       0       0       0
  1570 ;;      Totals:         0       1       0       0       0       0       0
  1571 ;;Total ram usage:        1 bytes
  1572 ;; Hardware stack levels used: 1
  1573 ;; Hardware stack levels required when called: 13
  1574 ;; This function calls:
  1575 ;;		_lcd_wr
  1576 ;; This function is called by:
  1577 ;;		_lcd_init
  1578 ;; This function uses a non-reentrant model
  1579 ;;
  1580                           
  1581                           	psect	text5
  1582   00337A                     __ptext5:
  1583                           	callstack 0
  1584   00337A                     _lcd_cmd:
  1585                           	callstack 15
  1586                           
  1587                           ;incstack = 0
  1588                           ;lcd_cmd@val stored from wreg
  1589   00337A  0100               	movlb	0	; () banked
  1590   00337C  6F8B               	movwf	lcd_cmd@val& (0+255),b
  1591   00337E                     
  1592                           ;lcd.c: 34: void lcd_cmd(unsigned char val);lcd.c: 35: {;lcd.c: 36:  PORTEbits.RE1=1;
  1593   00337E  8284               	bsf	132,1,c	;volatile
  1594   003380                     
  1595                           ;lcd.c: 37:     lcd_wr(val);
  1596   003380  0100               	movlb	0	; () banked
  1597   003382  518B               	movf	lcd_cmd@val& (0+255),w,b
  1598   003384  EC28  F01A         	call	_lcd_wr
  1599   003388                     
  1600                           ;lcd.c: 38:     PORTEbits.RE2=0;
  1601   003388  9484               	bcf	132,2,c	;volatile
  1602   00338A                     
  1603                           ;lcd.c: 39:     _delay((unsigned long)((40)*(4000000/4000000.0)));
  1604   00338A  0E0D               	movlw	13
  1605   00338C                     u4317:
  1606   00338C  2EE8               	decfsz	wreg,f,c
  1607   00338E  D7FE               	bra	u4317
  1608   003390  F000               	nop	
  1609   003392                     
  1610                           ;lcd.c: 40:     PORTEbits.RE1=0;
  1611   003392  9284               	bcf	132,1,c	;volatile
  1612   003394                     
  1613                           ;lcd.c: 41:     _delay((unsigned long)((40)*(4000000/4000000.0)));
  1614   003394  0E0D               	movlw	13
  1615   003396                     u4327:
  1616   003396  2EE8               	decfsz	wreg,f,c
  1617   003398  D7FE               	bra	u4327
  1618   00339A  F000               	nop	
  1619   00339C                     
  1620                           ;lcd.c: 42:  PORTEbits.RE1=1;
  1621   00339C  8284               	bsf	132,1,c	;volatile
  1622   00339E  0012               	return		;funcret
  1623   0033A0                     __end_of_lcd_cmd:
  1624                           	callstack 0
  1625                           
  1626 ;; *************** function _lcd_wr *****************
  1627 ;; Defined at:
  1628 ;;		line 29 in file "lcd.c"
  1629 ;; Parameters:    Size  Location     Type
  1630 ;;  val             1    wreg     unsigned char 
  1631 ;; Auto vars:     Size  Location     Type
  1632 ;;  val             1   10[BANK0 ] unsigned char 
  1633 ;; Return value:  Size  Location     Type
  1634 ;;                  1    wreg      void 
  1635 ;; Registers used:
  1636 ;;		wreg
  1637 ;; Tracked objects:
  1638 ;;		On entry : 0/0
  1639 ;;		On exit  : 0/0
  1640 ;;		Unchanged: 0/0
  1641 ;; Data sizes:     COMRAM   BANK0   BANK1   BANK2   BANK3   BANK4   BANK5
  1642 ;;      Params:         0       0       0       0       0       0       0
  1643 ;;      Locals:         0       1       0       0       0       0       0
  1644 ;;      Temps:          0       0       0       0       0       0       0
  1645 ;;      Totals:         0       1       0       0       0       0       0
  1646 ;;Total ram usage:        1 bytes
  1647 ;; Hardware stack levels used: 1
  1648 ;; Hardware stack levels required when called: 12
  1649 ;; This function calls:
  1650 ;;		Nothing
  1651 ;; This function is called by:
  1652 ;;		_lcd_cmd
  1653 ;; This function uses a non-reentrant model
  1654 ;;
  1655                           
  1656                           	psect	text6
  1657   003450                     __ptext6:
  1658                           	callstack 0
  1659   003450                     _lcd_wr:
  1660                           	callstack 15
  1661                           
  1662                           ;incstack = 0
  1663                           ;lcd_wr@val stored from wreg
  1664   003450  0100               	movlb	0	; () banked
  1665   003452  6F8A               	movwf	lcd_wr@val& (0+255),b
  1666   003454                     
  1667                           ;lcd.c: 29: void lcd_wr(unsigned char val);lcd.c: 30: {;lcd.c: 31:   PORTD=val;
  1668   003454  C08A  FF83         	movff	lcd_wr@val,3971	;volatile
  1669   003458  0012               	return		;funcret
  1670   00345A                     __end_of_lcd_wr:
  1671                           	callstack 0
  1672                           
  1673 ;; *************** function _interrupt_init *****************
  1674 ;; Defined at:
  1675 ;;		line 74 in file "Interrupt.c"
  1676 ;; Parameters:    Size  Location     Type
  1677 ;;		None
  1678 ;; Auto vars:     Size  Location     Type
  1679 ;;		None
  1680 ;; Return value:  Size  Location     Type
  1681 ;;                  1    wreg      void 
  1682 ;; Registers used:
  1683 ;;		wreg, status,2
  1684 ;; Tracked objects:
  1685 ;;		On entry : 0/0
  1686 ;;		On exit  : 0/0
  1687 ;;		Unchanged: 0/0
  1688 ;; Data sizes:     COMRAM   BANK0   BANK1   BANK2   BANK3   BANK4   BANK5
  1689 ;;      Params:         0       0       0       0       0       0       0
  1690 ;;      Locals:         0       0       0       0       0       0       0
  1691 ;;      Temps:          0       0       0       0       0       0       0
  1692 ;;      Totals:         0       0       0       0       0       0       0
  1693 ;;Total ram usage:        0 bytes
  1694 ;; Hardware stack levels used: 1
  1695 ;; Hardware stack levels required when called: 12
  1696 ;; This function calls:
  1697 ;;		Nothing
  1698 ;; This function is called by:
  1699 ;;		_setup
  1700 ;; This function uses a non-reentrant model
  1701 ;;
  1702                           
  1703                           	psect	text7
  1704   00340A                     __ptext7:
  1705                           	callstack 0
  1706   00340A                     _interrupt_init:
  1707                           	callstack 17
  1708   00340A                     
  1709                           ;Interrupt.c: 76:     INTCON = 0b10010000;
  1710   00340A  0E90               	movlw	144
  1711   00340C  6EF2               	movwf	242,c	;volatile
  1712                           
  1713                           ;Interrupt.c: 77:     INTCON2 = 0b00000101;
  1714   00340E  0E05               	movlw	5
  1715   003410  6EF1               	movwf	241,c	;volatile
  1716                           
  1717                           ;Interrupt.c: 78:     INTCON3 = 0b11011000;
  1718   003412  0ED8               	movlw	216
  1719   003414  6EF0               	movwf	240,c	;volatile
  1720                           
  1721                           ;Interrupt.c: 79:     T0CON = 0b11000001;
  1722   003416  0EC1               	movlw	193
  1723   003418  6ED5               	movwf	213,c	;volatile
  1724                           
  1725                           ;Interrupt.c: 85:     TMR0 = 0x06;
  1726   00341A  0E00               	movlw	0
  1727   00341C  6ED7               	movwf	215,c	;volatile
  1728   00341E  0E06               	movlw	6
  1729   003420  6ED6               	movwf	214,c	;volatile
  1730   003422  0012               	return		;funcret
  1731   003424                     __end_of_interrupt_init:
  1732                           	callstack 0
  1733                           
  1734 ;; *************** function _enable_interrupts *****************
  1735 ;; Defined at:
  1736 ;;		line 67 in file "Interrupt.c"
  1737 ;; Parameters:    Size  Location     Type
  1738 ;;		None
  1739 ;; Auto vars:     Size  Location     Type
  1740 ;;		None
  1741 ;; Return value:  Size  Location     Type
  1742 ;;                  1    wreg      void 
  1743 ;; Registers used:
  1744 ;;		None
  1745 ;; Tracked objects:
  1746 ;;		On entry : 0/0
  1747 ;;		On exit  : 0/0
  1748 ;;		Unchanged: 0/0
  1749 ;; Data sizes:     COMRAM   BANK0   BANK1   BANK2   BANK3   BANK4   BANK5
  1750 ;;      Params:         0       0       0       0       0       0       0
  1751 ;;      Locals:         0       0       0       0       0       0       0
  1752 ;;      Temps:          0       0       0       0       0       0       0
  1753 ;;      Totals:         0       0       0       0       0       0       0
  1754 ;;Total ram usage:        0 bytes
  1755 ;; Hardware stack levels used: 1
  1756 ;; Hardware stack levels required when called: 12
  1757 ;; This function calls:
  1758 ;;		Nothing
  1759 ;; This function is called by:
  1760 ;;		_setup
  1761 ;; This function uses a non-reentrant model
  1762 ;;
  1763                           
  1764                           	psect	text8
  1765   00345A                     __ptext8:
  1766                           	callstack 0
  1767   00345A                     _enable_interrupts:
  1768                           	callstack 17
  1769   00345A                     
  1770                           ;Interrupt.c: 68:     TMR0IE = 1;
  1771   00345A  8AF2               	bsf	4082,5,c	;volatile
  1772                           
  1773                           ;Interrupt.c: 69:     ADIE = 1;
  1774   00345C  8C9D               	bsf	3997,6,c	;volatile
  1775                           
  1776                           ;Interrupt.c: 70:     PEIE = 0;
  1777   00345E  9CF2               	bcf	4082,6,c	;volatile
  1778                           
  1779                           ;Interrupt.c: 71:     GIE = 1;
  1780   003460  8EF2               	bsf	4082,7,c	;volatile
  1781   003462  0012               	return		;funcret
  1782   003464                     __end_of_enable_interrupts:
  1783                           	callstack 0
  1784                           
  1785 ;; *************** function _disable_interrupts *****************
  1786 ;; Defined at:
  1787 ;;		line 61 in file "Interrupt.c"
  1788 ;; Parameters:    Size  Location     Type
  1789 ;;		None
  1790 ;; Auto vars:     Size  Location     Type
  1791 ;;		None
  1792 ;; Return value:  Size  Location     Type
  1793 ;;                  1    wreg      void 
  1794 ;; Registers used:
  1795 ;;		None
  1796 ;; Tracked objects:
  1797 ;;		On entry : 0/0
  1798 ;;		On exit  : 0/0
  1799 ;;		Unchanged: 0/0
  1800 ;; Data sizes:     COMRAM   BANK0   BANK1   BANK2   BANK3   BANK4   BANK5
  1801 ;;      Params:         0       0       0       0       0       0       0
  1802 ;;      Locals:         0       0       0       0       0       0       0
  1803 ;;      Temps:          0       0       0       0       0       0       0
  1804 ;;      Totals:         0       0       0       0       0       0       0
  1805 ;;Total ram usage:        0 bytes
  1806 ;; Hardware stack levels used: 1
  1807 ;; Hardware stack levels required when called: 12
  1808 ;; This function calls:
  1809 ;;		Nothing
  1810 ;; This function is called by:
  1811 ;;		_setup
  1812 ;; This function uses a non-reentrant model
  1813 ;;
  1814                           
  1815                           	psect	text9
  1816   00346E                     __ptext9:
  1817                           	callstack 0
  1818   00346E                     _disable_interrupts:
  1819                           	callstack 17
  1820   00346E                     
  1821                           ;Interrupt.c: 62:     IPEN = 0;
  1822   00346E  9ED0               	bcf	4048,7,c	;volatile
  1823                           
  1824                           ;Interrupt.c: 63:     GIE = 0;
  1825   003470  9EF2               	bcf	4082,7,c	;volatile
  1826                           
  1827                           ;Interrupt.c: 64:     PEIE = 0;
  1828   003472  9CF2               	bcf	4082,6,c	;volatile
  1829   003474  0012               	return		;funcret
  1830   003476                     __end_of_disable_interrupts:
  1831                           	callstack 0
  1832                           
  1833 ;; *************** function _AD_init *****************
  1834 ;; Defined at:
  1835 ;;		line 12 in file "ADC.c"
  1836 ;; Parameters:    Size  Location     Type
  1837 ;;		None
  1838 ;; Auto vars:     Size  Location     Type
  1839 ;;		None
  1840 ;; Return value:  Size  Location     Type
  1841 ;;                  1    wreg      void 
  1842 ;; Registers used:
  1843 ;;		wreg, status,2
  1844 ;; Tracked objects:
  1845 ;;		On entry : 0/0
  1846 ;;		On exit  : 0/0
  1847 ;;		Unchanged: 0/0
  1848 ;; Data sizes:     COMRAM   BANK0   BANK1   BANK2   BANK3   BANK4   BANK5
  1849 ;;      Params:         0       0       0       0       0       0       0
  1850 ;;      Locals:         0       0       0       0       0       0       0
  1851 ;;      Temps:          0       0       0       0       0       0       0
  1852 ;;      Totals:         0       0       0       0       0       0       0
  1853 ;;Total ram usage:        0 bytes
  1854 ;; Hardware stack levels used: 1
  1855 ;; Hardware stack levels required when called: 12
  1856 ;; This function calls:
  1857 ;;		Nothing
  1858 ;; This function is called by:
  1859 ;;		_setup
  1860 ;; This function uses a non-reentrant model
  1861 ;;
  1862                           
  1863                           	psect	text10
  1864   003434                     __ptext10:
  1865                           	callstack 0
  1866   003434                     _AD_init:
  1867                           	callstack 17
  1868   003434                     
  1869                           ;ADC.c: 14:     ADCON0 = 0b00000001;
  1870   003434  0E01               	movlw	1
  1871   003436  6EC2               	movwf	194,c	;volatile
  1872                           
  1873                           ;ADC.c: 15:     ADCON1 = 0b00001101;
  1874   003438  0E0D               	movlw	13
  1875   00343A  6EC1               	movwf	193,c	;volatile
  1876                           
  1877                           ;ADC.c: 16:     ADCON2 = 0b10010100;
  1878   00343C  0E94               	movlw	148
  1879   00343E  6EC0               	movwf	192,c	;volatile
  1880   003440  0012               	return		;funcret
  1881   003442                     __end_of_AD_init:
  1882                           	callstack 0
  1883                           
  1884 ;; *************** function _loop *****************
  1885 ;; Defined at:
  1886 ;;		line 52 in file "main.c"
  1887 ;; Parameters:    Size  Location     Type
  1888 ;;		None
  1889 ;; Auto vars:     Size  Location     Type
  1890 ;;		None
  1891 ;; Return value:  Size  Location     Type
  1892 ;;                  1    wreg      void 
  1893 ;; Registers used:
  1894 ;;		wreg, status,2, status,0, prodl, prodh, cstack
  1895 ;; Tracked objects:
  1896 ;;		On entry : 0/0
  1897 ;;		On exit  : 0/0
  1898 ;;		Unchanged: 0/0
  1899 ;; Data sizes:     COMRAM   BANK0   BANK1   BANK2   BANK3   BANK4   BANK5
  1900 ;;      Params:         0       0       0       0       0       0       0
  1901 ;;      Locals:         0       0       0       0       0       0       0
  1902 ;;      Temps:          0       0       0       0       0       0       0
  1903 ;;      Totals:         0       0       0       0       0       0       0
  1904 ;;Total ram usage:        0 bytes
  1905 ;; Hardware stack levels used: 1
  1906 ;; Hardware stack levels required when called: 14
  1907 ;; This function calls:
  1908 ;;		___lwdiv
  1909 ;;		___lwmod
  1910 ;;		_read_temperature
  1911 ;; This function is called by:
  1912 ;;		_main
  1913 ;; This function uses a non-reentrant model
  1914 ;;
  1915                           
  1916                           	psect	text11
  1917   002548                     __ptext11:
  1918                           	callstack 0
  1919   002548                     _loop:
  1920                           	callstack 16
  1921   002548                     
  1922                           ;main.c: 54:     display1 = (pwm_aux)/1000;
  1923   002548  C0D4  F08F         	movff	_pwm_aux,___lwdiv@dividend
  1924   00254C  C0D5  F090         	movff	_pwm_aux+1,___lwdiv@dividend+1
  1925   002550  0E03               	movlw	3
  1926   002552  0100               	movlb	0	; () banked
  1927   002554  6F92               	movwf	(___lwdiv@divisor+1)& (0+255),b
  1928   002556  0EE8               	movlw	232
  1929   002558  6F91               	movwf	___lwdiv@divisor& (0+255),b
  1930   00255A  ECE9  F017         	call	___lwdiv	;wreg free
  1931   00255E  0100               	movlb	0	; () banked
  1932   002560  518F               	movf	?___lwdiv& (0+255),w,b
  1933   002562  6FED               	movwf	_display1& (0+255),b
  1934                           
  1935                           ;main.c: 55:     display2 = ((pwm_aux)%1000)/100;
  1936   002564  0E03               	movlw	3
  1937   002566  6F8D               	movwf	(___lwmod@divisor+1)& (0+255),b
  1938   002568  0EE8               	movlw	232
  1939   00256A  6F8C               	movwf	___lwmod@divisor& (0+255),b
  1940   00256C  C0D4  F08A         	movff	_pwm_aux,___lwmod@dividend
  1941   002570  C0D5  F08B         	movff	_pwm_aux+1,___lwmod@dividend+1
  1942   002574  EC58  F018         	call	___lwmod	;wreg free
  1943   002578  C08A  F08F         	movff	?___lwmod,___lwdiv@dividend
  1944   00257C  C08B  F090         	movff	?___lwmod+1,___lwdiv@dividend+1
  1945   002580  0E00               	movlw	0
  1946   002582  0100               	movlb	0	; () banked
  1947   002584  6F92               	movwf	(___lwdiv@divisor+1)& (0+255),b
  1948   002586  0E64               	movlw	100
  1949   002588  6F91               	movwf	___lwdiv@divisor& (0+255),b
  1950   00258A  ECE9  F017         	call	___lwdiv	;wreg free
  1951   00258E  0100               	movlb	0	; () banked
  1952   002590  518F               	movf	?___lwdiv& (0+255),w,b
  1953   002592  6FEC               	movwf	_display2& (0+255),b
  1954                           
  1955                           ;main.c: 56:     display3 = ((pwm_aux)%100)/10;
  1956   002594  0E00               	movlw	0
  1957   002596  6F8D               	movwf	(___lwmod@divisor+1)& (0+255),b
  1958   002598  0E64               	movlw	100
  1959   00259A  6F8C               	movwf	___lwmod@divisor& (0+255),b
  1960   00259C  C0D4  F08A         	movff	_pwm_aux,___lwmod@dividend
  1961   0025A0  C0D5  F08B         	movff	_pwm_aux+1,___lwmod@dividend+1
  1962   0025A4  EC58  F018         	call	___lwmod	;wreg free
  1963   0025A8  C08A  F08F         	movff	?___lwmod,___lwdiv@dividend
  1964   0025AC  C08B  F090         	movff	?___lwmod+1,___lwdiv@dividend+1
  1965   0025B0  0E00               	movlw	0
  1966   0025B2  0100               	movlb	0	; () banked
  1967   0025B4  6F92               	movwf	(___lwdiv@divisor+1)& (0+255),b
  1968   0025B6  0E0A               	movlw	10
  1969   0025B8  6F91               	movwf	___lwdiv@divisor& (0+255),b
  1970   0025BA  ECE9  F017         	call	___lwdiv	;wreg free
  1971   0025BE  0100               	movlb	0	; () banked
  1972   0025C0  518F               	movf	?___lwdiv& (0+255),w,b
  1973   0025C2  6FEB               	movwf	_display3& (0+255),b
  1974                           
  1975                           ;main.c: 57:     display4 = (pwm_aux)%10;
  1976   0025C4  C0D4  F08A         	movff	_pwm_aux,___lwmod@dividend
  1977   0025C8  C0D5  F08B         	movff	_pwm_aux+1,___lwmod@dividend+1
  1978   0025CC  0E00               	movlw	0
  1979   0025CE  6F8D               	movwf	(___lwmod@divisor+1)& (0+255),b
  1980   0025D0  0E0A               	movlw	10
  1981   0025D2  6F8C               	movwf	___lwmod@divisor& (0+255),b
  1982   0025D4  EC58  F018         	call	___lwmod	;wreg free
  1983   0025D8  0100               	movlb	0	; () banked
  1984   0025DA  518A               	movf	?___lwmod& (0+255),w,b
  1985   0025DC  6FEA               	movwf	_display4& (0+255),b
  1986   0025DE                     
  1987                           ; BSR set to: 0
  1988                           ;main.c: 59:     read_temperature();
  1989   0025DE  EC33  F017         	call	_read_temperature	;wreg free
  1990   0025E2                     
  1991                           ;main.c: 60:     digito1_temperatura = (temperature)/1000;
  1992   0025E2  C076  F08F         	movff	_temperature,___lwdiv@dividend
  1993   0025E6  C077  F090         	movff	_temperature+1,___lwdiv@dividend+1
  1994   0025EA  0E03               	movlw	3
  1995   0025EC  0100               	movlb	0	; () banked
  1996   0025EE  6F92               	movwf	(___lwdiv@divisor+1)& (0+255),b
  1997   0025F0  0EE8               	movlw	232
  1998   0025F2  6F91               	movwf	___lwdiv@divisor& (0+255),b
  1999   0025F4  ECE9  F017         	call	___lwdiv	;wreg free
  2000   0025F8  0100               	movlb	0	; () banked
  2001   0025FA  518F               	movf	?___lwdiv& (0+255),w,b
  2002   0025FC  6FE6               	movwf	_digito1_temperatura& (0+255),b
  2003   0025FE                     
  2004                           ; BSR set to: 0
  2005                           ;main.c: 61:     digito2_temperatura = ((temperature)%1000)/100;
  2006   0025FE  0E03               	movlw	3
  2007   002600  6F8D               	movwf	(___lwmod@divisor+1)& (0+255),b
  2008   002602  0EE8               	movlw	232
  2009   002604  6F8C               	movwf	___lwmod@divisor& (0+255),b
  2010   002606  C076  F08A         	movff	_temperature,___lwmod@dividend
  2011   00260A  C077  F08B         	movff	_temperature+1,___lwmod@dividend+1
  2012   00260E  EC58  F018         	call	___lwmod	;wreg free
  2013   002612  C08A  F08F         	movff	?___lwmod,___lwdiv@dividend
  2014   002616  C08B  F090         	movff	?___lwmod+1,___lwdiv@dividend+1
  2015   00261A  0E00               	movlw	0
  2016   00261C  0100               	movlb	0	; () banked
  2017   00261E  6F92               	movwf	(___lwdiv@divisor+1)& (0+255),b
  2018   002620  0E64               	movlw	100
  2019   002622  6F91               	movwf	___lwdiv@divisor& (0+255),b
  2020   002624  ECE9  F017         	call	___lwdiv	;wreg free
  2021   002628  0100               	movlb	0	; () banked
  2022   00262A  518F               	movf	?___lwdiv& (0+255),w,b
  2023   00262C  6FE5               	movwf	_digito2_temperatura& (0+255),b
  2024   00262E                     
  2025                           ; BSR set to: 0
  2026                           ;main.c: 62:     digito3_temperatura = ((temperature)%100)/10;
  2027   00262E  0E00               	movlw	0
  2028   002630  6F8D               	movwf	(___lwmod@divisor+1)& (0+255),b
  2029   002632  0E64               	movlw	100
  2030   002634  6F8C               	movwf	___lwmod@divisor& (0+255),b
  2031   002636  C076  F08A         	movff	_temperature,___lwmod@dividend
  2032   00263A  C077  F08B         	movff	_temperature+1,___lwmod@dividend+1
  2033   00263E  EC58  F018         	call	___lwmod	;wreg free
  2034   002642  C08A  F08F         	movff	?___lwmod,___lwdiv@dividend
  2035   002646  C08B  F090         	movff	?___lwmod+1,___lwdiv@dividend+1
  2036   00264A  0E00               	movlw	0
  2037   00264C  0100               	movlb	0	; () banked
  2038   00264E  6F92               	movwf	(___lwdiv@divisor+1)& (0+255),b
  2039   002650  0E0A               	movlw	10
  2040   002652  6F91               	movwf	___lwdiv@divisor& (0+255),b
  2041   002654  ECE9  F017         	call	___lwdiv	;wreg free
  2042   002658  0100               	movlb	0	; () banked
  2043   00265A  518F               	movf	?___lwdiv& (0+255),w,b
  2044   00265C  6FE4               	movwf	_digito3_temperatura& (0+255),b
  2045   00265E                     
  2046                           ; BSR set to: 0
  2047                           ;main.c: 63:     digito4_temperatura = (temperature)%10;
  2048   00265E  C076  F08A         	movff	_temperature,___lwmod@dividend
  2049   002662  C077  F08B         	movff	_temperature+1,___lwmod@dividend+1
  2050   002666  0E00               	movlw	0
  2051   002668  6F8D               	movwf	(___lwmod@divisor+1)& (0+255),b
  2052   00266A  0E0A               	movlw	10
  2053   00266C  6F8C               	movwf	___lwmod@divisor& (0+255),b
  2054   00266E  EC58  F018         	call	___lwmod	;wreg free
  2055   002672  0100               	movlb	0	; () banked
  2056   002674  518A               	movf	?___lwmod& (0+255),w,b
  2057   002676  6FE3               	movwf	_digito4_temperatura& (0+255),b
  2058   002678                     
  2059                           ; BSR set to: 0
  2060   002678  0012               	return		;funcret
  2061   00267A                     __end_of_loop:
  2062                           	callstack 0
  2063                           
  2064 ;; *************** function _read_temperature *****************
  2065 ;; Defined at:
  2066 ;;		line 245 in file "main.c"
  2067 ;; Parameters:    Size  Location     Type
  2068 ;;		None
  2069 ;; Auto vars:     Size  Location     Type
  2070 ;;		None
  2071 ;; Return value:  Size  Location     Type
  2072 ;;                  1    wreg      void 
  2073 ;; Registers used:
  2074 ;;		wreg, status,2, status,0, prodl, prodh, cstack
  2075 ;; Tracked objects:
  2076 ;;		On entry : 0/0
  2077 ;;		On exit  : 0/0
  2078 ;;		Unchanged: 0/0
  2079 ;; Data sizes:     COMRAM   BANK0   BANK1   BANK2   BANK3   BANK4   BANK5
  2080 ;;      Params:         0       0       0       0       0       0       0
  2081 ;;      Locals:         0       0       0       0       0       0       0
  2082 ;;      Temps:          0       0       0       0       0       0       0
  2083 ;;      Totals:         0       0       0       0       0       0       0
  2084 ;;Total ram usage:        0 bytes
  2085 ;; Hardware stack levels used: 1
  2086 ;; Hardware stack levels required when called: 13
  2087 ;; This function calls:
  2088 ;;		___fldiv
  2089 ;;		___flmul
  2090 ;;		___fltol
  2091 ;;		___xxtofl
  2092 ;; This function is called by:
  2093 ;;		_loop
  2094 ;; This function uses a non-reentrant model
  2095 ;;
  2096                           
  2097                           	psect	text12
  2098   002E66                     __ptext12:
  2099                           	callstack 0
  2100   002E66                     _read_temperature:
  2101                           	callstack 16
  2102   002E66                     
  2103                           ;main.c: 248:     temperature = (50000.0*AD_data[2])/1023.0;
  2104   002E66  0E00               	movlw	0
  2105   002E68  0100               	movlb	0	; () banked
  2106   002E6A  6FB5               	movwf	___fldiv@a& (0+255),b
  2107   002E6C  0EC0               	movlw	192
  2108   002E6E  6FB6               	movwf	(___fldiv@a+1)& (0+255),b
  2109   002E70  0E7F               	movlw	127
  2110   002E72  6FB7               	movwf	(___fldiv@a+2)& (0+255),b
  2111   002E74  0E44               	movlw	68
  2112   002E76  6FB8               	movwf	(___fldiv@a+3)& (0+255),b
  2113   002E78  0E00               	movlw	0
  2114   002E7A  6F9C               	movwf	___flmul@a& (0+255),b
  2115   002E7C  0E50               	movlw	80
  2116   002E7E  6F9D               	movwf	(___flmul@a+1)& (0+255),b
  2117   002E80  0E43               	movlw	67
  2118   002E82  6F9E               	movwf	(___flmul@a+2)& (0+255),b
  2119   002E84  0E47               	movlw	71
  2120   002E86  6F9F               	movwf	(___flmul@a+3)& (0+255),b
  2121   002E88  C173  F08A         	movff	_AD_data+4,___xxtofl@val
  2122   002E8C  C174  F08B         	movff	_AD_data+5,___xxtofl@val+1
  2123   002E90  6B8C               	clrf	(___xxtofl@val+2)& (0+255),b
  2124   002E92  6B8D               	clrf	(___xxtofl@val+3)& (0+255),b
  2125   002E94  0E00               	movlw	0
  2126   002E96  EC1B  F00D         	call	___xxtofl
  2127   002E9A  C08A  F098         	movff	?___xxtofl,___flmul@b
  2128   002E9E  C08B  F099         	movff	?___xxtofl+1,___flmul@b+1
  2129   002EA2  C08C  F09A         	movff	?___xxtofl+2,___flmul@b+2
  2130   002EA6  C08D  F09B         	movff	?___xxtofl+3,___flmul@b+3
  2131   002EAA  EC10  F003         	call	___flmul	;wreg free
  2132   002EAE  C098  F0B1         	movff	?___flmul,___fldiv@b
  2133   002EB2  C099  F0B2         	movff	?___flmul+1,___fldiv@b+1
  2134   002EB6  C09A  F0B3         	movff	?___flmul+2,___fldiv@b+2
  2135   002EBA  C09B  F0B4         	movff	?___flmul+3,___fldiv@b+3
  2136   002EBE  EC3B  F007         	call	___fldiv	;wreg free
  2137   002EC2  C0B1  F175         	movff	?___fldiv,___fltol@f1
  2138   002EC6  C0B2  F176         	movff	?___fldiv+1,___fltol@f1+1
  2139   002ECA  C0B3  F177         	movff	?___fldiv+2,___fltol@f1+2
  2140   002ECE  C0B4  F178         	movff	?___fldiv+3,___fltol@f1+3
  2141   002ED2  EC3D  F013         	call	___fltol	;wreg free
  2142   002ED6  C175  F076         	movff	?___fltol,_temperature
  2143   002EDA  C176  F077         	movff	?___fltol+1,_temperature+1
  2144   002EDE  0012               	return		;funcret
  2145   002EE0                     __end_of_read_temperature:
  2146                           	callstack 0
  2147                           
  2148 ;; *************** function ___xxtofl *****************
  2149 ;; Defined at:
  2150 ;;		line 10 in file "C:\Program Files\Microchip\xc8\v2.40\pic\sources\c99\common\xxtofl.c"
  2151 ;; Parameters:    Size  Location     Type
  2152 ;;  sign            1    wreg     unsigned char 
  2153 ;;  val             4   10[BANK0 ] long 
  2154 ;; Auto vars:     Size  Location     Type
  2155 ;;  sign            1   18[BANK0 ] unsigned char 
  2156 ;;  arg             4   20[BANK0 ] unsigned long 
  2157 ;;  exp             1   19[BANK0 ] unsigned char 
  2158 ;; Return value:  Size  Location     Type
  2159 ;;                  4   10[BANK0 ] unsigned char 
  2160 ;; Registers used:
  2161 ;;		wreg, status,2, status,0
  2162 ;; Tracked objects:
  2163 ;;		On entry : 0/0
  2164 ;;		On exit  : 0/0
  2165 ;;		Unchanged: 0/0
  2166 ;; Data sizes:     COMRAM   BANK0   BANK1   BANK2   BANK3   BANK4   BANK5
  2167 ;;      Params:         0       4       0       0       0       0       0
  2168 ;;      Locals:         0       6       0       0       0       0       0
  2169 ;;      Temps:          0       4       0       0       0       0       0
  2170 ;;      Totals:         0      14       0       0       0       0       0
  2171 ;;Total ram usage:       14 bytes
  2172 ;; Hardware stack levels used: 1
  2173 ;; Hardware stack levels required when called: 12
  2174 ;; This function calls:
  2175 ;;		Nothing
  2176 ;; This function is called by:
  2177 ;;		_read_temperature
  2178 ;; This function uses a non-reentrant model
  2179 ;;
  2180                           
  2181                           	psect	text13
  2182   001A36                     __ptext13:
  2183                           	callstack 0
  2184   001A36                     ___xxtofl:
  2185                           	callstack 16
  2186                           
  2187                           ;incstack = 0
  2188                           ;___xxtofl@sign stored from wreg
  2189   001A36  0100               	movlb	0	; () banked
  2190   001A38  6F92               	movwf	___xxtofl@sign& (0+255),b
  2191   001A3A  0100               	movlb	0	; () banked
  2192   001A3C  5192               	movf	___xxtofl@sign& (0+255),w,b
  2193   001A3E  B4D8               	btfsc	status,2,c
  2194   001A40  EF24  F00D         	goto	u3781
  2195   001A44  EF26  F00D         	goto	u3780
  2196   001A48                     u3781:
  2197   001A48  EF48  F00D         	goto	l1167
  2198   001A4C                     u3780:
  2199   001A4C                     
  2200                           ; BSR set to: 0
  2201   001A4C  BF8D               	btfsc	(___xxtofl@val+3)& (0+255),7,b
  2202   001A4E  EF2D  F00D         	goto	u3790
  2203   001A52  EF2B  F00D         	goto	u3791
  2204   001A56                     u3791:
  2205   001A56  EF48  F00D         	goto	l1167
  2206   001A5A                     u3790:
  2207   001A5A                     
  2208                           ; BSR set to: 0
  2209   001A5A  C08A  F08E         	movff	___xxtofl@val,??___xxtofl
  2210   001A5E  C08B  F08F         	movff	___xxtofl@val+1,??___xxtofl+1
  2211   001A62  C08C  F090         	movff	___xxtofl@val+2,??___xxtofl+2
  2212   001A66  C08D  F091         	movff	___xxtofl@val+3,??___xxtofl+3
  2213   001A6A  1F8E               	comf	??___xxtofl& (0+255),f,b
  2214   001A6C  1F8F               	comf	(??___xxtofl+1)& (0+255),f,b
  2215   001A6E  1F90               	comf	(??___xxtofl+2)& (0+255),f,b
  2216   001A70  1F91               	comf	(??___xxtofl+3)& (0+255),f,b
  2217   001A72  2B8E               	incf	??___xxtofl& (0+255),f,b
  2218   001A74  0E00               	movlw	0
  2219   001A76  238F               	addwfc	(??___xxtofl+1)& (0+255),f,b
  2220   001A78  2390               	addwfc	(??___xxtofl+2)& (0+255),f,b
  2221   001A7A  2391               	addwfc	(??___xxtofl+3)& (0+255),f,b
  2222   001A7C  C08E  F094         	movff	??___xxtofl,___xxtofl@arg
  2223   001A80  C08F  F095         	movff	??___xxtofl+1,___xxtofl@arg+1
  2224   001A84  C090  F096         	movff	??___xxtofl+2,___xxtofl@arg+2
  2225   001A88  C091  F097         	movff	??___xxtofl+3,___xxtofl@arg+3
  2226   001A8C  EF50  F00D         	goto	l3965
  2227   001A90                     l1167:
  2228                           
  2229                           ; BSR set to: 0
  2230   001A90  C08A  F094         	movff	___xxtofl@val,___xxtofl@arg
  2231   001A94  C08B  F095         	movff	___xxtofl@val+1,___xxtofl@arg+1
  2232   001A98  C08C  F096         	movff	___xxtofl@val+2,___xxtofl@arg+2
  2233   001A9C  C08D  F097         	movff	___xxtofl@val+3,___xxtofl@arg+3
  2234   001AA0                     l3965:
  2235                           
  2236                           ; BSR set to: 0
  2237   001AA0  518A               	movf	___xxtofl@val& (0+255),w,b
  2238   001AA2  118B               	iorwf	(___xxtofl@val+1)& (0+255),w,b
  2239   001AA4  118C               	iorwf	(___xxtofl@val+2)& (0+255),w,b
  2240   001AA6  118D               	iorwf	(___xxtofl@val+3)& (0+255),w,b
  2241   001AA8  A4D8               	btfss	status,2,c
  2242   001AAA  EF59  F00D         	goto	u3801
  2243   001AAE  EF5B  F00D         	goto	u3800
  2244   001AB2                     u3801:
  2245   001AB2  EF65  F00D         	goto	l3971
  2246   001AB6                     u3800:
  2247   001AB6                     
  2248                           ; BSR set to: 0
  2249   001AB6  0E00               	movlw	0
  2250   001AB8  6F8A               	movwf	?___xxtofl& (0+255),b
  2251   001ABA  0E00               	movlw	0
  2252   001ABC  6F8B               	movwf	(?___xxtofl+1)& (0+255),b
  2253   001ABE  0E00               	movlw	0
  2254   001AC0  6F8C               	movwf	(?___xxtofl+2)& (0+255),b
  2255   001AC2  0E00               	movlw	0
  2256   001AC4  6F8D               	movwf	(?___xxtofl+3)& (0+255),b
  2257   001AC6  EFF6  F00D         	goto	l1170
  2258   001ACA                     l3971:
  2259                           
  2260                           ; BSR set to: 0
  2261   001ACA  0E96               	movlw	150
  2262   001ACC  6F93               	movwf	___xxtofl@exp& (0+255),b
  2263   001ACE  EF6F  F00D         	goto	l3975
  2264   001AD2                     l3973:
  2265                           
  2266                           ; BSR set to: 0
  2267   001AD2  2B93               	incf	___xxtofl@exp& (0+255),f,b
  2268   001AD4  90D8               	bcf	status,0,c
  2269   001AD6  3397               	rrcf	(___xxtofl@arg+3)& (0+255),f,b
  2270   001AD8  3396               	rrcf	(___xxtofl@arg+2)& (0+255),f,b
  2271   001ADA  3395               	rrcf	(___xxtofl@arg+1)& (0+255),f,b
  2272   001ADC  3394               	rrcf	___xxtofl@arg& (0+255),f,b
  2273   001ADE                     l3975:
  2274                           
  2275                           ; BSR set to: 0
  2276   001ADE  0E00               	movlw	0
  2277   001AE0  1594               	andwf	___xxtofl@arg& (0+255),w,b
  2278   001AE2  6F8E               	movwf	??___xxtofl& (0+255),b
  2279   001AE4  0E00               	movlw	0
  2280   001AE6  1595               	andwf	(___xxtofl@arg+1)& (0+255),w,b
  2281   001AE8  6F8F               	movwf	(??___xxtofl+1)& (0+255),b
  2282   001AEA  0E00               	movlw	0
  2283   001AEC  1596               	andwf	(___xxtofl@arg+2)& (0+255),w,b
  2284   001AEE  6F90               	movwf	(??___xxtofl+2)& (0+255),b
  2285   001AF0  0EFE               	movlw	254
  2286   001AF2  1597               	andwf	(___xxtofl@arg+3)& (0+255),w,b
  2287   001AF4  6F91               	movwf	(??___xxtofl+3)& (0+255),b
  2288   001AF6  518E               	movf	??___xxtofl& (0+255),w,b
  2289   001AF8  118F               	iorwf	(??___xxtofl+1)& (0+255),w,b
  2290   001AFA  1190               	iorwf	(??___xxtofl+2)& (0+255),w,b
  2291   001AFC  1191               	iorwf	(??___xxtofl+3)& (0+255),w,b
  2292   001AFE  A4D8               	btfss	status,2,c
  2293   001B00  EF84  F00D         	goto	u3811
  2294   001B04  EF86  F00D         	goto	u3810
  2295   001B08                     u3811:
  2296   001B08  EF69  F00D         	goto	l3973
  2297   001B0C                     u3810:
  2298   001B0C  EF94  F00D         	goto	l1174
  2299   001B10                     l3977:
  2300                           
  2301                           ; BSR set to: 0
  2302   001B10  2B93               	incf	___xxtofl@exp& (0+255),f,b
  2303   001B12                     
  2304                           ; BSR set to: 0
  2305   001B12  0E01               	movlw	1
  2306   001B14  2794               	addwf	___xxtofl@arg& (0+255),f,b
  2307   001B16  0E00               	movlw	0
  2308   001B18  2395               	addwfc	(___xxtofl@arg+1)& (0+255),f,b
  2309   001B1A  2396               	addwfc	(___xxtofl@arg+2)& (0+255),f,b
  2310   001B1C  2397               	addwfc	(___xxtofl@arg+3)& (0+255),f,b
  2311   001B1E                     
  2312                           ; BSR set to: 0
  2313   001B1E  90D8               	bcf	status,0,c
  2314   001B20  3397               	rrcf	(___xxtofl@arg+3)& (0+255),f,b
  2315   001B22  3396               	rrcf	(___xxtofl@arg+2)& (0+255),f,b
  2316   001B24  3395               	rrcf	(___xxtofl@arg+1)& (0+255),f,b
  2317   001B26  3394               	rrcf	___xxtofl@arg& (0+255),f,b
  2318   001B28                     l1174:
  2319                           
  2320                           ; BSR set to: 0
  2321   001B28  0E00               	movlw	0
  2322   001B2A  1594               	andwf	___xxtofl@arg& (0+255),w,b
  2323   001B2C  6F8E               	movwf	??___xxtofl& (0+255),b
  2324   001B2E  0E00               	movlw	0
  2325   001B30  1595               	andwf	(___xxtofl@arg+1)& (0+255),w,b
  2326   001B32  6F8F               	movwf	(??___xxtofl+1)& (0+255),b
  2327   001B34  0E00               	movlw	0
  2328   001B36  1596               	andwf	(___xxtofl@arg+2)& (0+255),w,b
  2329   001B38  6F90               	movwf	(??___xxtofl+2)& (0+255),b
  2330   001B3A  0EFF               	movlw	255
  2331   001B3C  1597               	andwf	(___xxtofl@arg+3)& (0+255),w,b
  2332   001B3E  6F91               	movwf	(??___xxtofl+3)& (0+255),b
  2333   001B40  518E               	movf	??___xxtofl& (0+255),w,b
  2334   001B42  118F               	iorwf	(??___xxtofl+1)& (0+255),w,b
  2335   001B44  1190               	iorwf	(??___xxtofl+2)& (0+255),w,b
  2336   001B46  1191               	iorwf	(??___xxtofl+3)& (0+255),w,b
  2337   001B48  A4D8               	btfss	status,2,c
  2338   001B4A  EFA9  F00D         	goto	u3821
  2339   001B4E  EFAB  F00D         	goto	u3820
  2340   001B52                     u3821:
  2341   001B52  EF88  F00D         	goto	l3977
  2342   001B56                     u3820:
  2343   001B56  EFB3  F00D         	goto	l3985
  2344   001B5A                     l3983:
  2345                           
  2346                           ; BSR set to: 0
  2347   001B5A  0793               	decf	___xxtofl@exp& (0+255),f,b
  2348   001B5C  90D8               	bcf	status,0,c
  2349   001B5E  3794               	rlcf	___xxtofl@arg& (0+255),f,b
  2350   001B60  3795               	rlcf	(___xxtofl@arg+1)& (0+255),f,b
  2351   001B62  3796               	rlcf	(___xxtofl@arg+2)& (0+255),f,b
  2352   001B64  3797               	rlcf	(___xxtofl@arg+3)& (0+255),f,b
  2353   001B66                     l3985:
  2354                           
  2355                           ; BSR set to: 0
  2356   001B66  BF96               	btfsc	(___xxtofl@arg+2)& (0+255),7,b
  2357   001B68  EFB8  F00D         	goto	u3831
  2358   001B6C  EFBA  F00D         	goto	u3830
  2359   001B70                     u3831:
  2360   001B70  EFC2  F00D         	goto	l1181
  2361   001B74                     u3830:
  2362   001B74                     
  2363                           ; BSR set to: 0
  2364   001B74  0E02               	movlw	2
  2365   001B76  6193               	cpfslt	___xxtofl@exp& (0+255),b
  2366   001B78  EFC0  F00D         	goto	u3841
  2367   001B7C  EFC2  F00D         	goto	u3840
  2368   001B80                     u3841:
  2369   001B80  EFAD  F00D         	goto	l3983
  2370   001B84                     u3840:
  2371   001B84                     l1181:
  2372                           
  2373                           ; BSR set to: 0
  2374   001B84  B193               	btfsc	___xxtofl@exp& (0+255),0,b
  2375   001B86  EFC7  F00D         	goto	u3851
  2376   001B8A  EFC9  F00D         	goto	u3850
  2377   001B8E                     u3851:
  2378   001B8E  EFCA  F00D         	goto	l3991
  2379   001B92                     u3850:
  2380   001B92                     
  2381                           ; BSR set to: 0
  2382   001B92  9F96               	bcf	(___xxtofl@arg+2)& (0+255),7,b
  2383   001B94                     l3991:
  2384                           
  2385                           ; BSR set to: 0
  2386   001B94  90D8               	bcf	status,0,c
  2387   001B96  3393               	rrcf	___xxtofl@exp& (0+255),f,b
  2388   001B98                     
  2389                           ; BSR set to: 0
  2390   001B98  C093  F08E         	movff	___xxtofl@exp,??___xxtofl
  2391   001B9C  6B8F               	clrf	(??___xxtofl+1)& (0+255),b
  2392   001B9E  6B90               	clrf	(??___xxtofl+2)& (0+255),b
  2393   001BA0  6B91               	clrf	(??___xxtofl+3)& (0+255),b
  2394   001BA2  C08E  F091         	movff	??___xxtofl,??___xxtofl+3
  2395   001BA6  6B90               	clrf	(??___xxtofl+2)& (0+255),b
  2396   001BA8  6B8F               	clrf	(??___xxtofl+1)& (0+255),b
  2397   001BAA  6B8E               	clrf	??___xxtofl& (0+255),b
  2398   001BAC  518E               	movf	??___xxtofl& (0+255),w,b
  2399   001BAE  1394               	iorwf	___xxtofl@arg& (0+255),f,b
  2400   001BB0  518F               	movf	(??___xxtofl+1)& (0+255),w,b
  2401   001BB2  1395               	iorwf	(___xxtofl@arg+1)& (0+255),f,b
  2402   001BB4  5190               	movf	(??___xxtofl+2)& (0+255),w,b
  2403   001BB6  1396               	iorwf	(___xxtofl@arg+2)& (0+255),f,b
  2404   001BB8  5191               	movf	(??___xxtofl+3)& (0+255),w,b
  2405   001BBA  1397               	iorwf	(___xxtofl@arg+3)& (0+255),f,b
  2406   001BBC                     
  2407                           ; BSR set to: 0
  2408   001BBC  5192               	movf	___xxtofl@sign& (0+255),w,b
  2409   001BBE  B4D8               	btfsc	status,2,c
  2410   001BC0  EFE4  F00D         	goto	u3861
  2411   001BC4  EFE6  F00D         	goto	u3860
  2412   001BC8                     u3861:
  2413   001BC8  EFEE  F00D         	goto	l4001
  2414   001BCC                     u3860:
  2415   001BCC                     
  2416                           ; BSR set to: 0
  2417   001BCC  BF8D               	btfsc	(___xxtofl@val+3)& (0+255),7,b
  2418   001BCE  EFED  F00D         	goto	u3870
  2419   001BD2  EFEB  F00D         	goto	u3871
  2420   001BD6                     u3871:
  2421   001BD6  EFEE  F00D         	goto	l4001
  2422   001BDA                     u3870:
  2423   001BDA                     
  2424                           ; BSR set to: 0
  2425   001BDA  8F97               	bsf	(___xxtofl@arg+3)& (0+255),7,b
  2426   001BDC                     l4001:
  2427                           
  2428                           ; BSR set to: 0
  2429   001BDC  C094  F08A         	movff	___xxtofl@arg,?___xxtofl
  2430   001BE0  C095  F08B         	movff	___xxtofl@arg+1,?___xxtofl+1
  2431   001BE4  C096  F08C         	movff	___xxtofl@arg+2,?___xxtofl+2
  2432   001BE8  C097  F08D         	movff	___xxtofl@arg+3,?___xxtofl+3
  2433   001BEC                     l1170:
  2434                           
  2435                           ; BSR set to: 0
  2436   001BEC  0012               	return		;funcret
  2437   001BEE                     __end_of___xxtofl:
  2438                           	callstack 0
  2439                           
  2440 ;; *************** function ___fltol *****************
  2441 ;; Defined at:
  2442 ;;		line 43 in file "C:\Program Files\Microchip\xc8\v2.40\pic\sources\c99\common\fltol.c"
  2443 ;; Parameters:    Size  Location     Type
  2444 ;;  f1              4    0[BANK1 ] unsigned char 
  2445 ;; Auto vars:     Size  Location     Type
  2446 ;;  exp1            1    9[BANK1 ] unsigned char 
  2447 ;;  sign1           1    8[BANK1 ] unsigned char 
  2448 ;; Return value:  Size  Location     Type
  2449 ;;                  4    0[BANK1 ] long 
  2450 ;; Registers used:
  2451 ;;		wreg, status,2, status,0
  2452 ;; Tracked objects:
  2453 ;;		On entry : 0/0
  2454 ;;		On exit  : 0/0
  2455 ;;		Unchanged: 0/0
  2456 ;; Data sizes:     COMRAM   BANK0   BANK1   BANK2   BANK3   BANK4   BANK5
  2457 ;;      Params:         0       0       4       0       0       0       0
  2458 ;;      Locals:         0       0       2       0       0       0       0
  2459 ;;      Temps:          0       0       4       0       0       0       0
  2460 ;;      Totals:         0       0      10       0       0       0       0
  2461 ;;Total ram usage:       10 bytes
  2462 ;; Hardware stack levels used: 1
  2463 ;; Hardware stack levels required when called: 12
  2464 ;; This function calls:
  2465 ;;		Nothing
  2466 ;; This function is called by:
  2467 ;;		_read_temperature
  2468 ;; This function uses a non-reentrant model
  2469 ;;
  2470                           
  2471                           	psect	text14
  2472   00267A                     __ptext14:
  2473                           	callstack 0
  2474   00267A                     ___fltol:
  2475                           	callstack 16
  2476   00267A  0101               	movlb	1	; () banked
  2477   00267C  3577               	rlcf	(___fltol@f1+2)& (0+255),w,b
  2478   00267E  3578               	rlcf	(___fltol@f1+3)& (0+255),w,b
  2479   002680  6F7E               	movwf	___fltol@exp1& (0+255),b
  2480   002682  517E               	movf	___fltol@exp1& (0+255),w,b
  2481   002684  A4D8               	btfss	status,2,c
  2482   002686  EF47  F013         	goto	u4211
  2483   00268A  EF49  F013         	goto	u4210
  2484   00268E                     u4211:
  2485   00268E  EF53  F013         	goto	l4467
  2486   002692                     u4210:
  2487   002692                     l4463:
  2488                           
  2489                           ; BSR set to: 1
  2490   002692  0E00               	movlw	0
  2491   002694  6F75               	movwf	?___fltol& (0+255),b
  2492   002696  0E00               	movlw	0
  2493   002698  6F76               	movwf	(?___fltol+1)& (0+255),b
  2494   00269A  0E00               	movlw	0
  2495   00269C  6F77               	movwf	(?___fltol+2)& (0+255),b
  2496   00269E  0E00               	movlw	0
  2497   0026A0  6F78               	movwf	(?___fltol+3)& (0+255),b
  2498   0026A2  EFC0  F013         	goto	l809
  2499   0026A6                     l4467:
  2500                           
  2501                           ; BSR set to: 1
  2502   0026A6  C175  F179         	movff	___fltol@f1,??___fltol
  2503   0026AA  C176  F17A         	movff	___fltol@f1+1,??___fltol+1
  2504   0026AE  C177  F17B         	movff	___fltol@f1+2,??___fltol+2
  2505   0026B2  C178  F17C         	movff	___fltol@f1+3,??___fltol+3
  2506   0026B6  0E20               	movlw	32
  2507   0026B8  EF63  F013         	goto	u4220
  2508   0026BC                     u4225:
  2509   0026BC  90D8               	bcf	status,0,c
  2510   0026BE  337C               	rrcf	(??___fltol+3)& (0+255),f,b
  2511   0026C0  337B               	rrcf	(??___fltol+2)& (0+255),f,b
  2512   0026C2  337A               	rrcf	(??___fltol+1)& (0+255),f,b
  2513   0026C4  3379               	rrcf	??___fltol& (0+255),f,b
  2514   0026C6                     u4220:
  2515   0026C6  2EE8               	decfsz	wreg,f,c
  2516   0026C8  EF5E  F013         	goto	u4225
  2517   0026CC  5179               	movf	??___fltol& (0+255),w,b
  2518   0026CE  6F7D               	movwf	___fltol@sign1& (0+255),b
  2519   0026D0                     
  2520                           ; BSR set to: 1
  2521   0026D0  8F77               	bsf	(___fltol@f1+2)& (0+255),7,b
  2522   0026D2                     
  2523                           ; BSR set to: 1
  2524   0026D2  0EFF               	movlw	255
  2525   0026D4  1775               	andwf	___fltol@f1& (0+255),f,b
  2526   0026D6  0EFF               	movlw	255
  2527   0026D8  1776               	andwf	(___fltol@f1+1)& (0+255),f,b
  2528   0026DA  0EFF               	movlw	255
  2529   0026DC  1777               	andwf	(___fltol@f1+2)& (0+255),f,b
  2530   0026DE  0E00               	movlw	0
  2531   0026E0  1778               	andwf	(___fltol@f1+3)& (0+255),f,b
  2532   0026E2                     
  2533                           ; BSR set to: 1
  2534   0026E2  0E96               	movlw	150
  2535   0026E4  5F7E               	subwf	___fltol@exp1& (0+255),f,b
  2536   0026E6                     
  2537                           ; BSR set to: 1
  2538   0026E6  BF7E               	btfsc	___fltol@exp1& (0+255),7,b
  2539   0026E8  EF7A  F013         	goto	u4230
  2540   0026EC  EF78  F013         	goto	u4231
  2541   0026F0                     u4231:
  2542   0026F0  EF90  F013         	goto	l4487
  2543   0026F4                     u4230:
  2544   0026F4                     
  2545                           ; BSR set to: 1
  2546   0026F4  517E               	movf	___fltol@exp1& (0+255),w,b
  2547   0026F6  0A80               	xorlw	128
  2548   0026F8  0F97               	addlw	151
  2549   0026FA  B0D8               	btfsc	status,0,c
  2550   0026FC  EF82  F013         	goto	u4241
  2551   002700  EF84  F013         	goto	u4240
  2552   002704                     u4241:
  2553   002704  EF86  F013         	goto	l4483
  2554   002708                     u4240:
  2555   002708  EF49  F013         	goto	l4463
  2556   00270C                     l4483:
  2557                           
  2558                           ; BSR set to: 1
  2559   00270C  90D8               	bcf	status,0,c
  2560   00270E  3378               	rrcf	(___fltol@f1+3)& (0+255),f,b
  2561   002710  3377               	rrcf	(___fltol@f1+2)& (0+255),f,b
  2562   002712  3376               	rrcf	(___fltol@f1+1)& (0+255),f,b
  2563   002714  3375               	rrcf	___fltol@f1& (0+255),f,b
  2564   002716                     
  2565                           ; BSR set to: 1
  2566   002716  3F7E               	incfsz	___fltol@exp1& (0+255),f,b
  2567   002718  EF86  F013         	goto	l4483
  2568   00271C  EFA8  F013         	goto	l4497
  2569   002720                     l4487:
  2570                           
  2571                           ; BSR set to: 1
  2572   002720  0E1F               	movlw	31
  2573   002722  657E               	cpfsgt	___fltol@exp1& (0+255),b
  2574   002724  EF96  F013         	goto	u4251
  2575   002728  EF98  F013         	goto	u4250
  2576   00272C                     u4251:
  2577   00272C  EFA0  F013         	goto	l4495
  2578   002730                     u4250:
  2579   002730  EF49  F013         	goto	l4463
  2580   002734                     l4493:
  2581                           
  2582                           ; BSR set to: 1
  2583   002734  90D8               	bcf	status,0,c
  2584   002736  3775               	rlcf	___fltol@f1& (0+255),f,b
  2585   002738  3776               	rlcf	(___fltol@f1+1)& (0+255),f,b
  2586   00273A  3777               	rlcf	(___fltol@f1+2)& (0+255),f,b
  2587   00273C  3778               	rlcf	(___fltol@f1+3)& (0+255),f,b
  2588   00273E  077E               	decf	___fltol@exp1& (0+255),f,b
  2589   002740                     l4495:
  2590                           
  2591                           ; BSR set to: 1
  2592   002740  517E               	movf	___fltol@exp1& (0+255),w,b
  2593   002742  A4D8               	btfss	status,2,c
  2594   002744  EFA6  F013         	goto	u4261
  2595   002748  EFA8  F013         	goto	u4260
  2596   00274C                     u4261:
  2597   00274C  EF9A  F013         	goto	l4493
  2598   002750                     u4260:
  2599   002750                     l4497:
  2600                           
  2601                           ; BSR set to: 1
  2602   002750  517D               	movf	___fltol@sign1& (0+255),w,b
  2603   002752  B4D8               	btfsc	status,2,c
  2604   002754  EFAE  F013         	goto	u4271
  2605   002758  EFB0  F013         	goto	u4270
  2606   00275C                     u4271:
  2607   00275C  EFB8  F013         	goto	l4501
  2608   002760                     u4270:
  2609   002760                     
  2610                           ; BSR set to: 1
  2611   002760  1F78               	comf	(___fltol@f1+3)& (0+255),f,b
  2612   002762  1F77               	comf	(___fltol@f1+2)& (0+255),f,b
  2613   002764  1F76               	comf	(___fltol@f1+1)& (0+255),f,b
  2614   002766  6D75               	negf	___fltol@f1& (0+255),b
  2615   002768  0E00               	movlw	0
  2616   00276A  2376               	addwfc	(___fltol@f1+1)& (0+255),f,b
  2617   00276C  2377               	addwfc	(___fltol@f1+2)& (0+255),f,b
  2618   00276E  2378               	addwfc	(___fltol@f1+3)& (0+255),f,b
  2619   002770                     l4501:
  2620                           
  2621                           ; BSR set to: 1
  2622   002770  C175  F175         	movff	___fltol@f1,?___fltol
  2623   002774  C176  F176         	movff	___fltol@f1+1,?___fltol+1
  2624   002778  C177  F177         	movff	___fltol@f1+2,?___fltol+2
  2625   00277C  C178  F178         	movff	___fltol@f1+3,?___fltol+3
  2626   002780                     l809:
  2627                           
  2628                           ; BSR set to: 1
  2629   002780  0012               	return		;funcret
  2630   002782                     __end_of___fltol:
  2631                           	callstack 0
  2632                           
  2633 ;; *************** function ___flmul *****************
  2634 ;; Defined at:
  2635 ;;		line 8 in file "C:\Program Files\Microchip\xc8\v2.40\pic\sources\c99\common\sprcmul.c"
  2636 ;; Parameters:    Size  Location     Type
  2637 ;;  b               4   24[BANK0 ] long 
  2638 ;;  a               4   28[BANK0 ] long 
  2639 ;; Auto vars:     Size  Location     Type
  2640 ;;  prod            4   43[BANK0 ] struct .
  2641 ;;  grs             4   37[BANK0 ] unsigned long 
  2642 ;;  temp            2   47[BANK0 ] struct .
  2643 ;;  bexp            1   42[BANK0 ] unsigned char 
  2644 ;;  aexp            1   41[BANK0 ] unsigned char 
  2645 ;;  sign            1   36[BANK0 ] unsigned char 
  2646 ;; Return value:  Size  Location     Type
  2647 ;;                  4   24[BANK0 ] unsigned char 
  2648 ;; Registers used:
  2649 ;;		wreg, status,2, status,0, prodl, prodh
  2650 ;; Tracked objects:
  2651 ;;		On entry : 0/0
  2652 ;;		On exit  : 0/0
  2653 ;;		Unchanged: 0/0
  2654 ;; Data sizes:     COMRAM   BANK0   BANK1   BANK2   BANK3   BANK4   BANK5
  2655 ;;      Params:         0       8       0       0       0       0       0
  2656 ;;      Locals:         0      13       0       0       0       0       0
  2657 ;;      Temps:          0       4       0       0       0       0       0
  2658 ;;      Totals:         0      25       0       0       0       0       0
  2659 ;;Total ram usage:       25 bytes
  2660 ;; Hardware stack levels used: 1
  2661 ;; Hardware stack levels required when called: 12
  2662 ;; This function calls:
  2663 ;;		Nothing
  2664 ;; This function is called by:
  2665 ;;		_read_temperature
  2666 ;; This function uses a non-reentrant model
  2667 ;;
  2668                           
  2669                           	psect	text15
  2670   000620                     __ptext15:
  2671                           	callstack 0
  2672   000620                     ___flmul:
  2673                           	callstack 16
  2674   000620  0100               	movlb	0	; () banked
  2675   000622  519B               	movf	(___flmul@b+3)& (0+255),w,b
  2676   000624  0B80               	andlw	128
  2677   000626  6FA4               	movwf	___flmul@sign& (0+255),b
  2678   000628  519B               	movf	(___flmul@b+3)& (0+255),w,b
  2679   00062A  259B               	addwf	(___flmul@b+3)& (0+255),w,b
  2680   00062C  6FAA               	movwf	___flmul@bexp& (0+255),b
  2681   00062E                     
  2682                           ; BSR set to: 0
  2683   00062E  AF9A               	btfss	(___flmul@b+2)& (0+255),7,b
  2684   000630  EF1C  F003         	goto	u3521
  2685   000634  EF1E  F003         	goto	u3520
  2686   000638                     u3521:
  2687   000638  EF1F  F003         	goto	l3791
  2688   00063C                     u3520:
  2689   00063C                     
  2690                           ; BSR set to: 0
  2691   00063C  81AA               	bsf	___flmul@bexp& (0+255),0,b
  2692   00063E                     l3791:
  2693                           
  2694                           ; BSR set to: 0
  2695   00063E  51AA               	movf	___flmul@bexp& (0+255),w,b
  2696   000640  B4D8               	btfsc	status,2,c
  2697   000642  EF25  F003         	goto	u3531
  2698   000646  EF27  F003         	goto	u3530
  2699   00064A                     u3531:
  2700   00064A  EF3A  F003         	goto	l3799
  2701   00064E                     u3530:
  2702   00064E                     
  2703                           ; BSR set to: 0
  2704   00064E  29AA               	incf	___flmul@bexp& (0+255),w,b
  2705   000650  A4D8               	btfss	status,2,c
  2706   000652  EF2D  F003         	goto	u3541
  2707   000656  EF2F  F003         	goto	u3540
  2708   00065A                     u3541:
  2709   00065A  EF37  F003         	goto	l3797
  2710   00065E                     u3540:
  2711   00065E                     
  2712                           ; BSR set to: 0
  2713   00065E  0E00               	movlw	0
  2714   000660  6F98               	movwf	___flmul@b& (0+255),b
  2715   000662  0E00               	movlw	0
  2716   000664  6F99               	movwf	(___flmul@b+1)& (0+255),b
  2717   000666  0E00               	movlw	0
  2718   000668  6F9A               	movwf	(___flmul@b+2)& (0+255),b
  2719   00066A  0E00               	movlw	0
  2720   00066C  6F9B               	movwf	(___flmul@b+3)& (0+255),b
  2721   00066E                     l3797:
  2722                           
  2723                           ; BSR set to: 0
  2724   00066E  8F9A               	bsf	(___flmul@b+2)& (0+255),7,b
  2725   000670  EF42  F003         	goto	l3801
  2726   000674                     l3799:
  2727                           
  2728                           ; BSR set to: 0
  2729   000674  0E00               	movlw	0
  2730   000676  6F98               	movwf	___flmul@b& (0+255),b
  2731   000678  0E00               	movlw	0
  2732   00067A  6F99               	movwf	(___flmul@b+1)& (0+255),b
  2733   00067C  0E00               	movlw	0
  2734   00067E  6F9A               	movwf	(___flmul@b+2)& (0+255),b
  2735   000680  0E00               	movlw	0
  2736   000682  6F9B               	movwf	(___flmul@b+3)& (0+255),b
  2737   000684                     l3801:
  2738                           
  2739                           ; BSR set to: 0
  2740   000684  519F               	movf	(___flmul@a+3)& (0+255),w,b
  2741   000686  0B80               	andlw	128
  2742   000688  1BA4               	xorwf	___flmul@sign& (0+255),f,b
  2743   00068A                     
  2744                           ; BSR set to: 0
  2745   00068A  519F               	movf	(___flmul@a+3)& (0+255),w,b
  2746   00068C  259F               	addwf	(___flmul@a+3)& (0+255),w,b
  2747   00068E  6FA9               	movwf	___flmul@aexp& (0+255),b
  2748   000690                     
  2749                           ; BSR set to: 0
  2750   000690  AF9E               	btfss	(___flmul@a+2)& (0+255),7,b
  2751   000692  EF4D  F003         	goto	u3551
  2752   000696  EF4F  F003         	goto	u3550
  2753   00069A                     u3551:
  2754   00069A  EF50  F003         	goto	l3809
  2755   00069E                     u3550:
  2756   00069E                     
  2757                           ; BSR set to: 0
  2758   00069E  81A9               	bsf	___flmul@aexp& (0+255),0,b
  2759   0006A0                     l3809:
  2760                           
  2761                           ; BSR set to: 0
  2762   0006A0  51A9               	movf	___flmul@aexp& (0+255),w,b
  2763   0006A2  B4D8               	btfsc	status,2,c
  2764   0006A4  EF56  F003         	goto	u3561
  2765   0006A8  EF58  F003         	goto	u3560
  2766   0006AC                     u3561:
  2767   0006AC  EF6B  F003         	goto	l3817
  2768   0006B0                     u3560:
  2769   0006B0                     
  2770                           ; BSR set to: 0
  2771   0006B0  29A9               	incf	___flmul@aexp& (0+255),w,b
  2772   0006B2  A4D8               	btfss	status,2,c
  2773   0006B4  EF5E  F003         	goto	u3571
  2774   0006B8  EF60  F003         	goto	u3570
  2775   0006BC                     u3571:
  2776   0006BC  EF68  F003         	goto	l3815
  2777   0006C0                     u3570:
  2778   0006C0                     
  2779                           ; BSR set to: 0
  2780   0006C0  0E00               	movlw	0
  2781   0006C2  6F9C               	movwf	___flmul@a& (0+255),b
  2782   0006C4  0E00               	movlw	0
  2783   0006C6  6F9D               	movwf	(___flmul@a+1)& (0+255),b
  2784   0006C8  0E00               	movlw	0
  2785   0006CA  6F9E               	movwf	(___flmul@a+2)& (0+255),b
  2786   0006CC  0E00               	movlw	0
  2787   0006CE  6F9F               	movwf	(___flmul@a+3)& (0+255),b
  2788   0006D0                     l3815:
  2789                           
  2790                           ; BSR set to: 0
  2791   0006D0  8F9E               	bsf	(___flmul@a+2)& (0+255),7,b
  2792   0006D2  EF73  F003         	goto	l1126
  2793   0006D6                     l3817:
  2794                           
  2795                           ; BSR set to: 0
  2796   0006D6  0E00               	movlw	0
  2797   0006D8  6F9C               	movwf	___flmul@a& (0+255),b
  2798   0006DA  0E00               	movlw	0
  2799   0006DC  6F9D               	movwf	(___flmul@a+1)& (0+255),b
  2800   0006DE  0E00               	movlw	0
  2801   0006E0  6F9E               	movwf	(___flmul@a+2)& (0+255),b
  2802   0006E2  0E00               	movlw	0
  2803   0006E4  6F9F               	movwf	(___flmul@a+3)& (0+255),b
  2804   0006E6                     l1126:
  2805                           
  2806                           ; BSR set to: 0
  2807   0006E6  51A9               	movf	___flmul@aexp& (0+255),w,b
  2808   0006E8  B4D8               	btfsc	status,2,c
  2809   0006EA  EF79  F003         	goto	u3581
  2810   0006EE  EF7B  F003         	goto	u3580
  2811   0006F2                     u3581:
  2812   0006F2  EF83  F003         	goto	l3821
  2813   0006F6                     u3580:
  2814   0006F6                     
  2815                           ; BSR set to: 0
  2816   0006F6  51AA               	movf	___flmul@bexp& (0+255),w,b
  2817   0006F8  A4D8               	btfss	status,2,c
  2818   0006FA  EF81  F003         	goto	u3591
  2819   0006FE  EF83  F003         	goto	u3590
  2820   000702                     u3591:
  2821   000702  EF8D  F003         	goto	l3825
  2822   000706                     u3590:
  2823   000706                     l3821:
  2824                           
  2825                           ; BSR set to: 0
  2826   000706  0E00               	movlw	0
  2827   000708  6F98               	movwf	?___flmul& (0+255),b
  2828   00070A  0E00               	movlw	0
  2829   00070C  6F99               	movwf	(?___flmul+1)& (0+255),b
  2830   00070E  0E00               	movlw	0
  2831   000710  6F9A               	movwf	(?___flmul+2)& (0+255),b
  2832   000712  0E00               	movlw	0
  2833   000714  6F9B               	movwf	(?___flmul+3)& (0+255),b
  2834   000716  EF25  F005         	goto	l1130
  2835   00071A                     l3825:
  2836                           
  2837                           ; BSR set to: 0
  2838   00071A  519E               	movf	(___flmul@a+2)& (0+255),w,b
  2839   00071C  0398               	mulwf	___flmul@b& (0+255),b
  2840   00071E  CFF3 F0AF          	movff	prodl,___flmul@temp
  2841   000722  CFF4 F0B0          	movff	prodh,___flmul@temp+1
  2842   000726                     
  2843                           ; BSR set to: 0
  2844   000726  51AF               	movf	___flmul@temp& (0+255),w,b
  2845   000728  6FA5               	movwf	___flmul@grs& (0+255),b
  2846   00072A  6BA6               	clrf	(___flmul@grs+1)& (0+255),b
  2847   00072C  6BA7               	clrf	(___flmul@grs+2)& (0+255),b
  2848   00072E  6BA8               	clrf	(___flmul@grs+3)& (0+255),b
  2849   000730                     
  2850                           ; BSR set to: 0
  2851   000730  51B0               	movf	(___flmul@temp+1)& (0+255),w,b
  2852   000732  6FAB               	movwf	___flmul@prod& (0+255),b
  2853   000734  6BAC               	clrf	(___flmul@prod+1)& (0+255),b
  2854   000736  6BAD               	clrf	(___flmul@prod+2)& (0+255),b
  2855   000738  6BAE               	clrf	(___flmul@prod+3)& (0+255),b
  2856   00073A  519D               	movf	(___flmul@a+1)& (0+255),w,b
  2857   00073C  0399               	mulwf	(___flmul@b+1)& (0+255),b
  2858   00073E  CFF3 F0AF          	movff	prodl,___flmul@temp
  2859   000742  CFF4 F0B0          	movff	prodh,___flmul@temp+1
  2860   000746                     
  2861                           ; BSR set to: 0
  2862   000746  51AF               	movf	___flmul@temp& (0+255),w,b
  2863   000748  27A5               	addwf	___flmul@grs& (0+255),f,b
  2864   00074A  0E00               	movlw	0
  2865   00074C  23A6               	addwfc	(___flmul@grs+1)& (0+255),f,b
  2866   00074E  23A7               	addwfc	(___flmul@grs+2)& (0+255),f,b
  2867   000750  23A8               	addwfc	(___flmul@grs+3)& (0+255),f,b
  2868   000752                     
  2869                           ; BSR set to: 0
  2870   000752  51B0               	movf	(___flmul@temp+1)& (0+255),w,b
  2871   000754  27AB               	addwf	___flmul@prod& (0+255),f,b
  2872   000756  0E00               	movlw	0
  2873   000758  23AC               	addwfc	(___flmul@prod+1)& (0+255),f,b
  2874   00075A  23AD               	addwfc	(___flmul@prod+2)& (0+255),f,b
  2875   00075C  23AE               	addwfc	(___flmul@prod+3)& (0+255),f,b
  2876   00075E  519C               	movf	___flmul@a& (0+255),w,b
  2877   000760  039A               	mulwf	(___flmul@b+2)& (0+255),b
  2878   000762  CFF3 F0AF          	movff	prodl,___flmul@temp
  2879   000766  CFF4 F0B0          	movff	prodh,___flmul@temp+1
  2880   00076A                     
  2881                           ; BSR set to: 0
  2882   00076A  51AF               	movf	___flmul@temp& (0+255),w,b
  2883   00076C  27A5               	addwf	___flmul@grs& (0+255),f,b
  2884   00076E  0E00               	movlw	0
  2885   000770  23A6               	addwfc	(___flmul@grs+1)& (0+255),f,b
  2886   000772  23A7               	addwfc	(___flmul@grs+2)& (0+255),f,b
  2887   000774  23A8               	addwfc	(___flmul@grs+3)& (0+255),f,b
  2888   000776                     
  2889                           ; BSR set to: 0
  2890   000776  51B0               	movf	(___flmul@temp+1)& (0+255),w,b
  2891   000778  27AB               	addwf	___flmul@prod& (0+255),f,b
  2892   00077A  0E00               	movlw	0
  2893   00077C  23AC               	addwfc	(___flmul@prod+1)& (0+255),f,b
  2894   00077E  23AD               	addwfc	(___flmul@prod+2)& (0+255),f,b
  2895   000780  23AE               	addwfc	(___flmul@prod+3)& (0+255),f,b
  2896   000782                     
  2897                           ; BSR set to: 0
  2898   000782  C0A7  F0A8         	movff	___flmul@grs+2,___flmul@grs+3
  2899   000786  C0A6  F0A7         	movff	___flmul@grs+1,___flmul@grs+2
  2900   00078A  C0A5  F0A6         	movff	___flmul@grs,___flmul@grs+1
  2901   00078E  6BA5               	clrf	___flmul@grs& (0+255),b
  2902   000790                     
  2903                           ; BSR set to: 0
  2904   000790  519C               	movf	___flmul@a& (0+255),w,b
  2905   000792  0399               	mulwf	(___flmul@b+1)& (0+255),b
  2906   000794  CFF3 F0AF          	movff	prodl,___flmul@temp
  2907   000798  CFF4 F0B0          	movff	prodh,___flmul@temp+1
  2908   00079C                     
  2909                           ; BSR set to: 0
  2910   00079C  51AF               	movf	___flmul@temp& (0+255),w,b
  2911   00079E  27A5               	addwf	___flmul@grs& (0+255),f,b
  2912   0007A0  51B0               	movf	(___flmul@temp+1)& (0+255),w,b
  2913   0007A2  23A6               	addwfc	(___flmul@grs+1)& (0+255),f,b
  2914   0007A4  0E00               	movlw	0
  2915   0007A6  23A7               	addwfc	(___flmul@grs+2)& (0+255),f,b
  2916   0007A8  0E00               	movlw	0
  2917   0007AA  23A8               	addwfc	(___flmul@grs+3)& (0+255),f,b
  2918   0007AC                     
  2919                           ; BSR set to: 0
  2920   0007AC  519D               	movf	(___flmul@a+1)& (0+255),w,b
  2921   0007AE  0398               	mulwf	___flmul@b& (0+255),b
  2922   0007B0  CFF3 F0AF          	movff	prodl,___flmul@temp
  2923   0007B4  CFF4 F0B0          	movff	prodh,___flmul@temp+1
  2924   0007B8                     
  2925                           ; BSR set to: 0
  2926   0007B8  51AF               	movf	___flmul@temp& (0+255),w,b
  2927   0007BA  27A5               	addwf	___flmul@grs& (0+255),f,b
  2928   0007BC  51B0               	movf	(___flmul@temp+1)& (0+255),w,b
  2929   0007BE  23A6               	addwfc	(___flmul@grs+1)& (0+255),f,b
  2930   0007C0  0E00               	movlw	0
  2931   0007C2  23A7               	addwfc	(___flmul@grs+2)& (0+255),f,b
  2932   0007C4  0E00               	movlw	0
  2933   0007C6  23A8               	addwfc	(___flmul@grs+3)& (0+255),f,b
  2934   0007C8                     
  2935                           ; BSR set to: 0
  2936   0007C8  C0A7  F0A8         	movff	___flmul@grs+2,___flmul@grs+3
  2937   0007CC  C0A6  F0A7         	movff	___flmul@grs+1,___flmul@grs+2
  2938   0007D0  C0A5  F0A6         	movff	___flmul@grs,___flmul@grs+1
  2939   0007D4  6BA5               	clrf	___flmul@grs& (0+255),b
  2940   0007D6  519C               	movf	___flmul@a& (0+255),w,b
  2941   0007D8  0398               	mulwf	___flmul@b& (0+255),b
  2942   0007DA  CFF3 F0AF          	movff	prodl,___flmul@temp
  2943   0007DE  CFF4 F0B0          	movff	prodh,___flmul@temp+1
  2944   0007E2                     
  2945                           ; BSR set to: 0
  2946   0007E2  51AF               	movf	___flmul@temp& (0+255),w,b
  2947   0007E4  27A5               	addwf	___flmul@grs& (0+255),f,b
  2948   0007E6  51B0               	movf	(___flmul@temp+1)& (0+255),w,b
  2949   0007E8  23A6               	addwfc	(___flmul@grs+1)& (0+255),f,b
  2950   0007EA  0E00               	movlw	0
  2951   0007EC  23A7               	addwfc	(___flmul@grs+2)& (0+255),f,b
  2952   0007EE  0E00               	movlw	0
  2953   0007F0  23A8               	addwfc	(___flmul@grs+3)& (0+255),f,b
  2954   0007F2                     
  2955                           ; BSR set to: 0
  2956   0007F2  519E               	movf	(___flmul@a+2)& (0+255),w,b
  2957   0007F4  0399               	mulwf	(___flmul@b+1)& (0+255),b
  2958   0007F6  CFF3 F0AF          	movff	prodl,___flmul@temp
  2959   0007FA  CFF4 F0B0          	movff	prodh,___flmul@temp+1
  2960   0007FE  51AF               	movf	___flmul@temp& (0+255),w,b
  2961   000800  27AB               	addwf	___flmul@prod& (0+255),f,b
  2962   000802  51B0               	movf	(___flmul@temp+1)& (0+255),w,b
  2963   000804  23AC               	addwfc	(___flmul@prod+1)& (0+255),f,b
  2964   000806  0E00               	movlw	0
  2965   000808  23AD               	addwfc	(___flmul@prod+2)& (0+255),f,b
  2966   00080A  0E00               	movlw	0
  2967   00080C  23AE               	addwfc	(___flmul@prod+3)& (0+255),f,b
  2968   00080E                     
  2969                           ; BSR set to: 0
  2970   00080E  519D               	movf	(___flmul@a+1)& (0+255),w,b
  2971   000810  039A               	mulwf	(___flmul@b+2)& (0+255),b
  2972   000812  CFF3 F0AF          	movff	prodl,___flmul@temp
  2973   000816  CFF4 F0B0          	movff	prodh,___flmul@temp+1
  2974   00081A                     
  2975                           ; BSR set to: 0
  2976   00081A  51AF               	movf	___flmul@temp& (0+255),w,b
  2977   00081C  27AB               	addwf	___flmul@prod& (0+255),f,b
  2978   00081E  51B0               	movf	(___flmul@temp+1)& (0+255),w,b
  2979   000820  23AC               	addwfc	(___flmul@prod+1)& (0+255),f,b
  2980   000822  0E00               	movlw	0
  2981   000824  23AD               	addwfc	(___flmul@prod+2)& (0+255),f,b
  2982   000826  0E00               	movlw	0
  2983   000828  23AE               	addwfc	(___flmul@prod+3)& (0+255),f,b
  2984   00082A  519E               	movf	(___flmul@a+2)& (0+255),w,b
  2985   00082C  039A               	mulwf	(___flmul@b+2)& (0+255),b
  2986   00082E  CFF3 F0AF          	movff	prodl,___flmul@temp
  2987   000832  CFF4 F0B0          	movff	prodh,___flmul@temp+1
  2988   000836                     
  2989                           ; BSR set to: 0
  2990   000836  51AF               	movf	___flmul@temp& (0+255),w,b
  2991   000838  6FA0               	movwf	??___flmul& (0+255),b
  2992   00083A  51B0               	movf	(___flmul@temp+1)& (0+255),w,b
  2993   00083C  6FA1               	movwf	(??___flmul+1)& (0+255),b
  2994   00083E  6BA2               	clrf	(??___flmul+2)& (0+255),b
  2995   000840  6BA3               	clrf	(??___flmul+3)& (0+255),b
  2996   000842  C0A2  F0A3         	movff	??___flmul+2,??___flmul+3
  2997   000846  C0A1  F0A2         	movff	??___flmul+1,??___flmul+2
  2998   00084A  C0A0  F0A1         	movff	??___flmul,??___flmul+1
  2999   00084E  6BA0               	clrf	??___flmul& (0+255),b
  3000   000850  51A0               	movf	??___flmul& (0+255),w,b
  3001   000852  27AB               	addwf	___flmul@prod& (0+255),f,b
  3002   000854  51A1               	movf	(??___flmul+1)& (0+255),w,b
  3003   000856  23AC               	addwfc	(___flmul@prod+1)& (0+255),f,b
  3004   000858  51A2               	movf	(??___flmul+2)& (0+255),w,b
  3005   00085A  23AD               	addwfc	(___flmul@prod+2)& (0+255),f,b
  3006   00085C  51A3               	movf	(??___flmul+3)& (0+255),w,b
  3007   00085E  23AE               	addwfc	(___flmul@prod+3)& (0+255),f,b
  3008   000860                     
  3009                           ; BSR set to: 0
  3010   000860  C0A5  F0A0         	movff	___flmul@grs,??___flmul
  3011   000864  C0A6  F0A1         	movff	___flmul@grs+1,??___flmul+1
  3012   000868  C0A7  F0A2         	movff	___flmul@grs+2,??___flmul+2
  3013   00086C  C0A8  F0A3         	movff	___flmul@grs+3,??___flmul+3
  3014   000870  0E19               	movlw	25
  3015   000872  EF40  F004         	goto	u3600
  3016   000876                     u3605:
  3017   000876  90D8               	bcf	status,0,c
  3018   000878  33A3               	rrcf	(??___flmul+3)& (0+255),f,b
  3019   00087A  33A2               	rrcf	(??___flmul+2)& (0+255),f,b
  3020   00087C  33A1               	rrcf	(??___flmul+1)& (0+255),f,b
  3021   00087E  33A0               	rrcf	??___flmul& (0+255),f,b
  3022   000880                     u3600:
  3023   000880  2EE8               	decfsz	wreg,f,c
  3024   000882  EF3B  F004         	goto	u3605
  3025   000886  51A0               	movf	??___flmul& (0+255),w,b
  3026   000888  27AB               	addwf	___flmul@prod& (0+255),f,b
  3027   00088A  51A1               	movf	(??___flmul+1)& (0+255),w,b
  3028   00088C  23AC               	addwfc	(___flmul@prod+1)& (0+255),f,b
  3029   00088E  51A2               	movf	(??___flmul+2)& (0+255),w,b
  3030   000890  23AD               	addwfc	(___flmul@prod+2)& (0+255),f,b
  3031   000892  51A3               	movf	(??___flmul+3)& (0+255),w,b
  3032   000894  23AE               	addwfc	(___flmul@prod+3)& (0+255),f,b
  3033   000896                     
  3034                           ; BSR set to: 0
  3035   000896  C0A7  F0A8         	movff	___flmul@grs+2,___flmul@grs+3
  3036   00089A  C0A6  F0A7         	movff	___flmul@grs+1,___flmul@grs+2
  3037   00089E  C0A5  F0A6         	movff	___flmul@grs,___flmul@grs+1
  3038   0008A2  6BA5               	clrf	___flmul@grs& (0+255),b
  3039   0008A4                     
  3040                           ; BSR set to: 0
  3041   0008A4  51A9               	movf	___flmul@aexp& (0+255),w,b
  3042   0008A6  C0AA  F0A0         	movff	___flmul@bexp,??___flmul
  3043   0008AA  6BA1               	clrf	(??___flmul+1)& (0+255),b
  3044   0008AC  27A0               	addwf	??___flmul& (0+255),f,b
  3045   0008AE  0E00               	movlw	0
  3046   0008B0  23A1               	addwfc	(??___flmul+1)& (0+255),f,b
  3047   0008B2  0E82               	movlw	130
  3048   0008B4  25A0               	addwf	??___flmul& (0+255),w,b
  3049   0008B6  6FAF               	movwf	___flmul@temp& (0+255),b
  3050   0008B8  0EFF               	movlw	255
  3051   0008BA  21A1               	addwfc	(??___flmul+1)& (0+255),w,b
  3052   0008BC  6FB0               	movwf	(___flmul@temp+1)& (0+255),b
  3053   0008BE  EF76  F004         	goto	l3873
  3054   0008C2                     l3867:
  3055                           
  3056                           ; BSR set to: 0
  3057   0008C2  90D8               	bcf	status,0,c
  3058   0008C4  37AB               	rlcf	___flmul@prod& (0+255),f,b
  3059   0008C6  37AC               	rlcf	(___flmul@prod+1)& (0+255),f,b
  3060   0008C8  37AD               	rlcf	(___flmul@prod+2)& (0+255),f,b
  3061   0008CA  37AE               	rlcf	(___flmul@prod+3)& (0+255),f,b
  3062   0008CC                     
  3063                           ; BSR set to: 0
  3064   0008CC  AFA8               	btfss	(___flmul@grs+3)& (0+255),7,b
  3065   0008CE  EF6B  F004         	goto	u3611
  3066   0008D2  EF6D  F004         	goto	u3610
  3067   0008D6                     u3611:
  3068   0008D6  EF6E  F004         	goto	l1133
  3069   0008DA                     u3610:
  3070   0008DA                     
  3071                           ; BSR set to: 0
  3072   0008DA  81AB               	bsf	___flmul@prod& (0+255),0,b
  3073   0008DC                     l1133:
  3074                           
  3075                           ; BSR set to: 0
  3076   0008DC  90D8               	bcf	status,0,c
  3077   0008DE  37A5               	rlcf	___flmul@grs& (0+255),f,b
  3078   0008E0  37A6               	rlcf	(___flmul@grs+1)& (0+255),f,b
  3079   0008E2  37A7               	rlcf	(___flmul@grs+2)& (0+255),f,b
  3080   0008E4  37A8               	rlcf	(___flmul@grs+3)& (0+255),f,b
  3081   0008E6  07AF               	decf	___flmul@temp& (0+255),f,b
  3082   0008E8  A0D8               	btfss	status,0,c
  3083   0008EA  07B0               	decf	(___flmul@temp+1)& (0+255),f,b
  3084   0008EC                     l3873:
  3085                           
  3086                           ; BSR set to: 0
  3087   0008EC  AFAD               	btfss	(___flmul@prod+2)& (0+255),7,b
  3088   0008EE  EF7B  F004         	goto	u3621
  3089   0008F2  EF7D  F004         	goto	u3620
  3090   0008F6                     u3621:
  3091   0008F6  EF61  F004         	goto	l3867
  3092   0008FA                     u3620:
  3093   0008FA                     
  3094                           ; BSR set to: 0
  3095   0008FA  0E00               	movlw	0
  3096   0008FC  6FA9               	movwf	___flmul@aexp& (0+255),b
  3097   0008FE                     
  3098                           ; BSR set to: 0
  3099   0008FE  AFA8               	btfss	(___flmul@grs+3)& (0+255),7,b
  3100   000900  EF84  F004         	goto	u3631
  3101   000904  EF86  F004         	goto	u3630
  3102   000908                     u3631:
  3103   000908  EFAA  F004         	goto	l1135
  3104   00090C                     u3630:
  3105   00090C                     
  3106                           ; BSR set to: 0
  3107   00090C  0EFF               	movlw	255
  3108   00090E  15A5               	andwf	___flmul@grs& (0+255),w,b
  3109   000910  6FA0               	movwf	??___flmul& (0+255),b
  3110   000912  0EFF               	movlw	255
  3111   000914  15A6               	andwf	(___flmul@grs+1)& (0+255),w,b
  3112   000916  6FA1               	movwf	(??___flmul+1)& (0+255),b
  3113   000918  0EFF               	movlw	255
  3114   00091A  15A7               	andwf	(___flmul@grs+2)& (0+255),w,b
  3115   00091C  6FA2               	movwf	(??___flmul+2)& (0+255),b
  3116   00091E  0E7F               	movlw	127
  3117   000920  15A8               	andwf	(___flmul@grs+3)& (0+255),w,b
  3118   000922  6FA3               	movwf	(??___flmul+3)& (0+255),b
  3119   000924  51A0               	movf	??___flmul& (0+255),w,b
  3120   000926  11A1               	iorwf	(??___flmul+1)& (0+255),w,b
  3121   000928  11A2               	iorwf	(??___flmul+2)& (0+255),w,b
  3122   00092A  11A3               	iorwf	(??___flmul+3)& (0+255),w,b
  3123   00092C  B4D8               	btfsc	status,2,c
  3124   00092E  EF9B  F004         	goto	u3641
  3125   000932  EF9D  F004         	goto	u3640
  3126   000936                     u3641:
  3127   000936  EFA1  F004         	goto	l1136
  3128   00093A                     u3640:
  3129   00093A                     l3881:
  3130                           
  3131                           ; BSR set to: 0
  3132   00093A  0E01               	movlw	1
  3133   00093C  6FA9               	movwf	___flmul@aexp& (0+255),b
  3134   00093E  EFAA  F004         	goto	l1135
  3135   000942                     l1136:
  3136                           
  3137                           ; BSR set to: 0
  3138   000942  A1AB               	btfss	___flmul@prod& (0+255),0,b
  3139   000944  EFA6  F004         	goto	u3651
  3140   000948  EFA8  F004         	goto	u3650
  3141   00094C                     u3651:
  3142   00094C  EFAA  F004         	goto	l1135
  3143   000950                     u3650:
  3144   000950  EF9D  F004         	goto	l3881
  3145   000954                     l1135:
  3146                           
  3147                           ; BSR set to: 0
  3148   000954  51A9               	movf	___flmul@aexp& (0+255),w,b
  3149   000956  B4D8               	btfsc	status,2,c
  3150   000958  EFB0  F004         	goto	u3661
  3151   00095C  EFB2  F004         	goto	u3660
  3152   000960                     u3661:
  3153   000960  EFD6  F004         	goto	l3893
  3154   000964                     u3660:
  3155   000964                     
  3156                           ; BSR set to: 0
  3157   000964  0E01               	movlw	1
  3158   000966  27AB               	addwf	___flmul@prod& (0+255),f,b
  3159   000968  0E00               	movlw	0
  3160   00096A  23AC               	addwfc	(___flmul@prod+1)& (0+255),f,b
  3161   00096C  23AD               	addwfc	(___flmul@prod+2)& (0+255),f,b
  3162   00096E  23AE               	addwfc	(___flmul@prod+3)& (0+255),f,b
  3163   000970                     
  3164                           ; BSR set to: 0
  3165   000970  A1AE               	btfss	(___flmul@prod+3)& (0+255),0,b
  3166   000972  EFBD  F004         	goto	u3671
  3167   000976  EFBF  F004         	goto	u3670
  3168   00097A                     u3671:
  3169   00097A  EFD6  F004         	goto	l3893
  3170   00097E                     u3670:
  3171   00097E                     
  3172                           ; BSR set to: 0
  3173   00097E  C0AB  F0A0         	movff	___flmul@prod,??___flmul
  3174   000982  C0AC  F0A1         	movff	___flmul@prod+1,??___flmul+1
  3175   000986  C0AD  F0A2         	movff	___flmul@prod+2,??___flmul+2
  3176   00098A  C0AE  F0A3         	movff	___flmul@prod+3,??___flmul+3
  3177   00098E  35A3               	rlcf	(??___flmul+3)& (0+255),w,b
  3178   000990  33A3               	rrcf	(??___flmul+3)& (0+255),f,b
  3179   000992  33A2               	rrcf	(??___flmul+2)& (0+255),f,b
  3180   000994  33A1               	rrcf	(??___flmul+1)& (0+255),f,b
  3181   000996  33A0               	rrcf	??___flmul& (0+255),f,b
  3182   000998  C0A0  F0AB         	movff	??___flmul,___flmul@prod
  3183   00099C  C0A1  F0AC         	movff	??___flmul+1,___flmul@prod+1
  3184   0009A0  C0A2  F0AD         	movff	??___flmul+2,___flmul@prod+2
  3185   0009A4  C0A3  F0AE         	movff	??___flmul+3,___flmul@prod+3
  3186   0009A8                     
  3187                           ; BSR set to: 0
  3188   0009A8  4BAF               	infsnz	___flmul@temp& (0+255),f,b
  3189   0009AA  2BB0               	incf	(___flmul@temp+1)& (0+255),f,b
  3190   0009AC                     l3893:
  3191                           
  3192                           ; BSR set to: 0
  3193   0009AC  BFB0               	btfsc	(___flmul@temp+1)& (0+255),7,b
  3194   0009AE  EFE1  F004         	goto	u3681
  3195   0009B2  51B0               	movf	(___flmul@temp+1)& (0+255),w,b
  3196   0009B4  E108               	bnz	u3680
  3197   0009B6  29AF               	incf	___flmul@temp& (0+255),w,b
  3198   0009B8  A0D8               	btfss	status,0,c
  3199   0009BA  EFE1  F004         	goto	u3681
  3200   0009BE  EFE3  F004         	goto	u3680
  3201   0009C2                     u3681:
  3202   0009C2  EFED  F004         	goto	l3897
  3203   0009C6                     u3680:
  3204   0009C6                     
  3205                           ; BSR set to: 0
  3206   0009C6  0E00               	movlw	0
  3207   0009C8  6FAB               	movwf	___flmul@prod& (0+255),b
  3208   0009CA  0E00               	movlw	0
  3209   0009CC  6FAC               	movwf	(___flmul@prod+1)& (0+255),b
  3210   0009CE  0E80               	movlw	128
  3211   0009D0  6FAD               	movwf	(___flmul@prod+2)& (0+255),b
  3212   0009D2  0E7F               	movlw	127
  3213   0009D4  6FAE               	movwf	(___flmul@prod+3)& (0+255),b
  3214   0009D6  EF1B  F005         	goto	l3909
  3215   0009DA                     l3897:
  3216                           
  3217                           ; BSR set to: 0
  3218   0009DA  BFB0               	btfsc	(___flmul@temp+1)& (0+255),7,b
  3219   0009DC  EFFA  F004         	goto	u3690
  3220   0009E0  51B0               	movf	(___flmul@temp+1)& (0+255),w,b
  3221   0009E2  E106               	bnz	u3691
  3222   0009E4  05AF               	decf	___flmul@temp& (0+255),w,b
  3223   0009E6  B0D8               	btfsc	status,0,c
  3224   0009E8  EFF8  F004         	goto	u3691
  3225   0009EC  EFFA  F004         	goto	u3690
  3226   0009F0                     u3691:
  3227   0009F0  EF06  F005         	goto	l1143
  3228   0009F4                     u3690:
  3229   0009F4                     
  3230                           ; BSR set to: 0
  3231   0009F4  0E00               	movlw	0
  3232   0009F6  6FAB               	movwf	___flmul@prod& (0+255),b
  3233   0009F8  0E00               	movlw	0
  3234   0009FA  6FAC               	movwf	(___flmul@prod+1)& (0+255),b
  3235   0009FC  0E00               	movlw	0
  3236   0009FE  6FAD               	movwf	(___flmul@prod+2)& (0+255),b
  3237   000A00  0E00               	movlw	0
  3238   000A02  6FAE               	movwf	(___flmul@prod+3)& (0+255),b
  3239   000A04  0E00               	movlw	0
  3240   000A06  6FA4               	movwf	___flmul@sign& (0+255),b
  3241   000A08  EF1B  F005         	goto	l3909
  3242   000A0C                     l1143:
  3243                           
  3244                           ; BSR set to: 0
  3245   000A0C  C0AF  F0AA         	movff	___flmul@temp,___flmul@bexp
  3246   000A10                     
  3247                           ; BSR set to: 0
  3248   000A10  0EFF               	movlw	255
  3249   000A12  17AB               	andwf	___flmul@prod& (0+255),f,b
  3250   000A14  0EFF               	movlw	255
  3251   000A16  17AC               	andwf	(___flmul@prod+1)& (0+255),f,b
  3252   000A18  0E7F               	movlw	127
  3253   000A1A  17AD               	andwf	(___flmul@prod+2)& (0+255),f,b
  3254   000A1C  0E00               	movlw	0
  3255   000A1E  17AE               	andwf	(___flmul@prod+3)& (0+255),f,b
  3256   000A20                     
  3257                           ; BSR set to: 0
  3258   000A20  A1AA               	btfss	___flmul@bexp& (0+255),0,b
  3259   000A22  EF15  F005         	goto	u3701
  3260   000A26  EF17  F005         	goto	u3700
  3261   000A2A                     u3701:
  3262   000A2A  EF18  F005         	goto	l3907
  3263   000A2E                     u3700:
  3264   000A2E                     
  3265                           ; BSR set to: 0
  3266   000A2E  8FAD               	bsf	(___flmul@prod+2)& (0+255),7,b
  3267   000A30                     l3907:
  3268                           
  3269                           ; BSR set to: 0
  3270   000A30  90D8               	bcf	status,0,c
  3271   000A32  31AA               	rrcf	___flmul@bexp& (0+255),w,b
  3272   000A34  6FAE               	movwf	(___flmul@prod+3)& (0+255),b
  3273   000A36                     l3909:
  3274                           
  3275                           ; BSR set to: 0
  3276   000A36  51A4               	movf	___flmul@sign& (0+255),w,b
  3277   000A38  13AE               	iorwf	(___flmul@prod+3)& (0+255),f,b
  3278   000A3A                     
  3279                           ; BSR set to: 0
  3280   000A3A  C0AB  F098         	movff	___flmul@prod,?___flmul
  3281   000A3E  C0AC  F099         	movff	___flmul@prod+1,?___flmul+1
  3282   000A42  C0AD  F09A         	movff	___flmul@prod+2,?___flmul+2
  3283   000A46  C0AE  F09B         	movff	___flmul@prod+3,?___flmul+3
  3284   000A4A                     l1130:
  3285                           
  3286                           ; BSR set to: 0
  3287   000A4A  0012               	return		;funcret
  3288   000A4C                     __end_of___flmul:
  3289                           	callstack 0
  3290                           
  3291 ;; *************** function ___fldiv *****************
  3292 ;; Defined at:
  3293 ;;		line 11 in file "C:\Program Files\Microchip\xc8\v2.40\pic\sources\c99\common\sprcdiv.c"
  3294 ;; Parameters:    Size  Location     Type
  3295 ;;  b               4   49[BANK0 ] unsigned char 
  3296 ;;  a               4   53[BANK0 ] unsigned char 
  3297 ;; Auto vars:     Size  Location     Type
  3298 ;;  grs             4   68[BANK0 ] unsigned long 
  3299 ;;  rem             4   61[BANK0 ] unsigned long 
  3300 ;;  new_exp         2   66[BANK0 ] short 
  3301 ;;  aexp            1   73[BANK0 ] unsigned char 
  3302 ;;  bexp            1   72[BANK0 ] unsigned char 
  3303 ;;  sign            1   65[BANK0 ] unsigned char 
  3304 ;; Return value:  Size  Location     Type
  3305 ;;                  4   49[BANK0 ] unsigned char 
  3306 ;; Registers used:
  3307 ;;		wreg, status,2, status,0
  3308 ;; Tracked objects:
  3309 ;;		On entry : 0/0
  3310 ;;		On exit  : 0/0
  3311 ;;		Unchanged: 0/0
  3312 ;; Data sizes:     COMRAM   BANK0   BANK1   BANK2   BANK3   BANK4   BANK5
  3313 ;;      Params:         0       8       0       0       0       0       0
  3314 ;;      Locals:         0      13       0       0       0       0       0
  3315 ;;      Temps:          0       4       0       0       0       0       0
  3316 ;;      Totals:         0      25       0       0       0       0       0
  3317 ;;Total ram usage:       25 bytes
  3318 ;; Hardware stack levels used: 1
  3319 ;; Hardware stack levels required when called: 12
  3320 ;; This function calls:
  3321 ;;		Nothing
  3322 ;; This function is called by:
  3323 ;;		_read_temperature
  3324 ;; This function uses a non-reentrant model
  3325 ;;
  3326                           
  3327                           	psect	text16
  3328   000E76                     __ptext16:
  3329                           	callstack 0
  3330   000E76                     ___fldiv:
  3331                           	callstack 16
  3332   000E76  0100               	movlb	0	; () banked
  3333   000E78  51B4               	movf	(___fldiv@b+3)& (0+255),w,b
  3334   000E7A  0B80               	andlw	128
  3335   000E7C  6FC1               	movwf	___fldiv@sign& (0+255),b
  3336   000E7E  51B4               	movf	(___fldiv@b+3)& (0+255),w,b
  3337   000E80  25B4               	addwf	(___fldiv@b+3)& (0+255),w,b
  3338   000E82  6FC8               	movwf	___fldiv@bexp& (0+255),b
  3339   000E84                     
  3340                           ; BSR set to: 0
  3341   000E84  AFB3               	btfss	(___fldiv@b+2)& (0+255),7,b
  3342   000E86  EF47  F007         	goto	u3291
  3343   000E8A  EF49  F007         	goto	u3290
  3344   000E8E                     u3291:
  3345   000E8E  EF4A  F007         	goto	l3653
  3346   000E92                     u3290:
  3347   000E92                     
  3348                           ; BSR set to: 0
  3349   000E92  81C8               	bsf	___fldiv@bexp& (0+255),0,b
  3350   000E94                     l3653:
  3351                           
  3352                           ; BSR set to: 0
  3353   000E94  51C8               	movf	___fldiv@bexp& (0+255),w,b
  3354   000E96  B4D8               	btfsc	status,2,c
  3355   000E98  EF50  F007         	goto	u3301
  3356   000E9C  EF52  F007         	goto	u3300
  3357   000EA0                     u3301:
  3358   000EA0  EF67  F007         	goto	l3663
  3359   000EA4                     u3300:
  3360   000EA4                     
  3361                           ; BSR set to: 0
  3362   000EA4  29C8               	incf	___fldiv@bexp& (0+255),w,b
  3363   000EA6  A4D8               	btfss	status,2,c
  3364   000EA8  EF58  F007         	goto	u3311
  3365   000EAC  EF5A  F007         	goto	u3310
  3366   000EB0                     u3311:
  3367   000EB0  EF62  F007         	goto	l3659
  3368   000EB4                     u3310:
  3369   000EB4                     
  3370                           ; BSR set to: 0
  3371   000EB4  0E00               	movlw	0
  3372   000EB6  6FB1               	movwf	___fldiv@b& (0+255),b
  3373   000EB8  0E00               	movlw	0
  3374   000EBA  6FB2               	movwf	(___fldiv@b+1)& (0+255),b
  3375   000EBC  0E00               	movlw	0
  3376   000EBE  6FB3               	movwf	(___fldiv@b+2)& (0+255),b
  3377   000EC0  0E00               	movlw	0
  3378   000EC2  6FB4               	movwf	(___fldiv@b+3)& (0+255),b
  3379   000EC4                     l3659:
  3380                           
  3381                           ; BSR set to: 0
  3382   000EC4  8FB3               	bsf	(___fldiv@b+2)& (0+255),7,b
  3383   000EC6                     
  3384                           ; BSR set to: 0
  3385   000EC6  0E00               	movlw	0
  3386   000EC8  6FB4               	movwf	(___fldiv@b+3)& (0+255),b
  3387   000ECA  EF6F  F007         	goto	l3665
  3388   000ECE                     l3663:
  3389                           
  3390                           ; BSR set to: 0
  3391   000ECE  0E00               	movlw	0
  3392   000ED0  6FB1               	movwf	___fldiv@b& (0+255),b
  3393   000ED2  0E00               	movlw	0
  3394   000ED4  6FB2               	movwf	(___fldiv@b+1)& (0+255),b
  3395   000ED6  0E00               	movlw	0
  3396   000ED8  6FB3               	movwf	(___fldiv@b+2)& (0+255),b
  3397   000EDA  0E00               	movlw	0
  3398   000EDC  6FB4               	movwf	(___fldiv@b+3)& (0+255),b
  3399   000EDE                     l3665:
  3400                           
  3401                           ; BSR set to: 0
  3402   000EDE  51B8               	movf	(___fldiv@a+3)& (0+255),w,b
  3403   000EE0  0B80               	andlw	128
  3404   000EE2  1BC1               	xorwf	___fldiv@sign& (0+255),f,b
  3405   000EE4                     
  3406                           ; BSR set to: 0
  3407   000EE4  51B8               	movf	(___fldiv@a+3)& (0+255),w,b
  3408   000EE6  25B8               	addwf	(___fldiv@a+3)& (0+255),w,b
  3409   000EE8  6FC9               	movwf	___fldiv@aexp& (0+255),b
  3410   000EEA                     
  3411                           ; BSR set to: 0
  3412   000EEA  AFB7               	btfss	(___fldiv@a+2)& (0+255),7,b
  3413   000EEC  EF7A  F007         	goto	u3321
  3414   000EF0  EF7C  F007         	goto	u3320
  3415   000EF4                     u3321:
  3416   000EF4  EF7D  F007         	goto	l3673
  3417   000EF8                     u3320:
  3418   000EF8                     
  3419                           ; BSR set to: 0
  3420   000EF8  81C9               	bsf	___fldiv@aexp& (0+255),0,b
  3421   000EFA                     l3673:
  3422                           
  3423                           ; BSR set to: 0
  3424   000EFA  51C9               	movf	___fldiv@aexp& (0+255),w,b
  3425   000EFC  B4D8               	btfsc	status,2,c
  3426   000EFE  EF83  F007         	goto	u3331
  3427   000F02  EF85  F007         	goto	u3330
  3428   000F06                     u3331:
  3429   000F06  EF9A  F007         	goto	l3683
  3430   000F0A                     u3330:
  3431   000F0A                     
  3432                           ; BSR set to: 0
  3433   000F0A  29C9               	incf	___fldiv@aexp& (0+255),w,b
  3434   000F0C  A4D8               	btfss	status,2,c
  3435   000F0E  EF8B  F007         	goto	u3341
  3436   000F12  EF8D  F007         	goto	u3340
  3437   000F16                     u3341:
  3438   000F16  EF95  F007         	goto	l3679
  3439   000F1A                     u3340:
  3440   000F1A                     
  3441                           ; BSR set to: 0
  3442   000F1A  0E00               	movlw	0
  3443   000F1C  6FB5               	movwf	___fldiv@a& (0+255),b
  3444   000F1E  0E00               	movlw	0
  3445   000F20  6FB6               	movwf	(___fldiv@a+1)& (0+255),b
  3446   000F22  0E00               	movlw	0
  3447   000F24  6FB7               	movwf	(___fldiv@a+2)& (0+255),b
  3448   000F26  0E00               	movlw	0
  3449   000F28  6FB8               	movwf	(___fldiv@a+3)& (0+255),b
  3450   000F2A                     l3679:
  3451                           
  3452                           ; BSR set to: 0
  3453   000F2A  8FB7               	bsf	(___fldiv@a+2)& (0+255),7,b
  3454   000F2C                     
  3455                           ; BSR set to: 0
  3456   000F2C  0E00               	movlw	0
  3457   000F2E  6FB8               	movwf	(___fldiv@a+3)& (0+255),b
  3458   000F30  EFA2  F007         	goto	l3685
  3459   000F34                     l3683:
  3460                           
  3461                           ; BSR set to: 0
  3462   000F34  0E00               	movlw	0
  3463   000F36  6FB5               	movwf	___fldiv@a& (0+255),b
  3464   000F38  0E00               	movlw	0
  3465   000F3A  6FB6               	movwf	(___fldiv@a+1)& (0+255),b
  3466   000F3C  0E00               	movlw	0
  3467   000F3E  6FB7               	movwf	(___fldiv@a+2)& (0+255),b
  3468   000F40  0E00               	movlw	0
  3469   000F42  6FB8               	movwf	(___fldiv@a+3)& (0+255),b
  3470   000F44                     l3685:
  3471                           
  3472                           ; BSR set to: 0
  3473   000F44  51B5               	movf	___fldiv@a& (0+255),w,b
  3474   000F46  11B6               	iorwf	(___fldiv@a+1)& (0+255),w,b
  3475   000F48  11B7               	iorwf	(___fldiv@a+2)& (0+255),w,b
  3476   000F4A  11B8               	iorwf	(___fldiv@a+3)& (0+255),w,b
  3477   000F4C  A4D8               	btfss	status,2,c
  3478   000F4E  EFAB  F007         	goto	u3351
  3479   000F52  EFAD  F007         	goto	u3350
  3480   000F56                     u3351:
  3481   000F56  EFC5  F007         	goto	l3697
  3482   000F5A                     u3350:
  3483   000F5A                     
  3484                           ; BSR set to: 0
  3485   000F5A  0E00               	movlw	0
  3486   000F5C  6FB1               	movwf	___fldiv@b& (0+255),b
  3487   000F5E  0E00               	movlw	0
  3488   000F60  6FB2               	movwf	(___fldiv@b+1)& (0+255),b
  3489   000F62  0E00               	movlw	0
  3490   000F64  6FB3               	movwf	(___fldiv@b+2)& (0+255),b
  3491   000F66  0E00               	movlw	0
  3492   000F68  6FB4               	movwf	(___fldiv@b+3)& (0+255),b
  3493   000F6A                     
  3494                           ; BSR set to: 0
  3495   000F6A  0E80               	movlw	128
  3496   000F6C  13B3               	iorwf	(___fldiv@b+2)& (0+255),f,b
  3497   000F6E  0E7F               	movlw	127
  3498   000F70  13B4               	iorwf	(___fldiv@b+3)& (0+255),f,b
  3499   000F72                     l3691:
  3500                           
  3501                           ; BSR set to: 0
  3502   000F72  51C1               	movf	___fldiv@sign& (0+255),w,b
  3503   000F74  13B4               	iorwf	(___fldiv@b+3)& (0+255),f,b
  3504   000F76                     
  3505                           ; BSR set to: 0
  3506   000F76  C0B1  F0B1         	movff	___fldiv@b,?___fldiv
  3507   000F7A  C0B2  F0B2         	movff	___fldiv@b+1,?___fldiv+1
  3508   000F7E  C0B3  F0B3         	movff	___fldiv@b+2,?___fldiv+2
  3509   000F82  C0B4  F0B4         	movff	___fldiv@b+3,?___fldiv+3
  3510   000F86  EF08  F009         	goto	l1094
  3511   000F8A                     l3697:
  3512                           
  3513                           ; BSR set to: 0
  3514   000F8A  51C8               	movf	___fldiv@bexp& (0+255),w,b
  3515   000F8C  A4D8               	btfss	status,2,c
  3516   000F8E  EFCB  F007         	goto	u3361
  3517   000F92  EFCD  F007         	goto	u3360
  3518   000F96                     u3361:
  3519   000F96  EFD7  F007         	goto	l3705
  3520   000F9A                     u3360:
  3521   000F9A                     
  3522                           ; BSR set to: 0
  3523   000F9A  0E00               	movlw	0
  3524   000F9C  6FB1               	movwf	?___fldiv& (0+255),b
  3525   000F9E  0E00               	movlw	0
  3526   000FA0  6FB2               	movwf	(?___fldiv+1)& (0+255),b
  3527   000FA2  0E00               	movlw	0
  3528   000FA4  6FB3               	movwf	(?___fldiv+2)& (0+255),b
  3529   000FA6  0E00               	movlw	0
  3530   000FA8  6FB4               	movwf	(?___fldiv+3)& (0+255),b
  3531   000FAA  EF08  F009         	goto	l1094
  3532   000FAE                     l3705:
  3533                           
  3534                           ; BSR set to: 0
  3535   000FAE  51C9               	movf	___fldiv@aexp& (0+255),w,b
  3536   000FB0  C0C8  F0B9         	movff	___fldiv@bexp,??___fldiv
  3537   000FB4  6BBA               	clrf	(??___fldiv+1)& (0+255),b
  3538   000FB6  5FB9               	subwf	??___fldiv& (0+255),f,b
  3539   000FB8  0E00               	movlw	0
  3540   000FBA  5BBA               	subwfb	(??___fldiv+1)& (0+255),f,b
  3541   000FBC  0E7F               	movlw	127
  3542   000FBE  25B9               	addwf	??___fldiv& (0+255),w,b
  3543   000FC0  6FC2               	movwf	___fldiv@new_exp& (0+255),b
  3544   000FC2  0E00               	movlw	0
  3545   000FC4  21BA               	addwfc	(??___fldiv+1)& (0+255),w,b
  3546   000FC6  6FC3               	movwf	(___fldiv@new_exp+1)& (0+255),b
  3547   000FC8                     
  3548                           ; BSR set to: 0
  3549   000FC8  C0B1  F0BD         	movff	___fldiv@b,___fldiv@rem
  3550   000FCC  C0B2  F0BE         	movff	___fldiv@b+1,___fldiv@rem+1
  3551   000FD0  C0B3  F0BF         	movff	___fldiv@b+2,___fldiv@rem+2
  3552   000FD4  C0B4  F0C0         	movff	___fldiv@b+3,___fldiv@rem+3
  3553   000FD8                     
  3554                           ; BSR set to: 0
  3555   000FD8  0E00               	movlw	0
  3556   000FDA  6FB1               	movwf	___fldiv@b& (0+255),b
  3557   000FDC  0E00               	movlw	0
  3558   000FDE  6FB2               	movwf	(___fldiv@b+1)& (0+255),b
  3559   000FE0  0E00               	movlw	0
  3560   000FE2  6FB3               	movwf	(___fldiv@b+2)& (0+255),b
  3561   000FE4  0E00               	movlw	0
  3562   000FE6  6FB4               	movwf	(___fldiv@b+3)& (0+255),b
  3563   000FE8                     
  3564                           ; BSR set to: 0
  3565   000FE8  0E00               	movlw	0
  3566   000FEA  6FC4               	movwf	___fldiv@grs& (0+255),b
  3567   000FEC  0E00               	movlw	0
  3568   000FEE  6FC5               	movwf	(___fldiv@grs+1)& (0+255),b
  3569   000FF0  0E00               	movlw	0
  3570   000FF2  6FC6               	movwf	(___fldiv@grs+2)& (0+255),b
  3571   000FF4  0E00               	movlw	0
  3572   000FF6  6FC7               	movwf	(___fldiv@grs+3)& (0+255),b
  3573   000FF8                     
  3574                           ; BSR set to: 0
  3575   000FF8  0E00               	movlw	0
  3576   000FFA  6FC9               	movwf	___fldiv@aexp& (0+255),b
  3577   000FFC  EF38  F008         	goto	l1096
  3578   001000                     l3715:
  3579                           
  3580                           ; BSR set to: 0
  3581   001000  51C9               	movf	___fldiv@aexp& (0+255),w,b
  3582   001002  B4D8               	btfsc	status,2,c
  3583   001004  EF06  F008         	goto	u3371
  3584   001008  EF08  F008         	goto	u3370
  3585   00100C                     u3371:
  3586   00100C  EF1F  F008         	goto	l3723
  3587   001010                     u3370:
  3588   001010                     
  3589                           ; BSR set to: 0
  3590   001010  90D8               	bcf	status,0,c
  3591   001012  37BD               	rlcf	___fldiv@rem& (0+255),f,b
  3592   001014  37BE               	rlcf	(___fldiv@rem+1)& (0+255),f,b
  3593   001016  37BF               	rlcf	(___fldiv@rem+2)& (0+255),f,b
  3594   001018  37C0               	rlcf	(___fldiv@rem+3)& (0+255),f,b
  3595   00101A  90D8               	bcf	status,0,c
  3596   00101C  37B1               	rlcf	___fldiv@b& (0+255),f,b
  3597   00101E  37B2               	rlcf	(___fldiv@b+1)& (0+255),f,b
  3598   001020  37B3               	rlcf	(___fldiv@b+2)& (0+255),f,b
  3599   001022  37B4               	rlcf	(___fldiv@b+3)& (0+255),f,b
  3600   001024                     
  3601                           ; BSR set to: 0
  3602   001024  AFC7               	btfss	(___fldiv@grs+3)& (0+255),7,b
  3603   001026  EF17  F008         	goto	u3381
  3604   00102A  EF19  F008         	goto	u3380
  3605   00102E                     u3381:
  3606   00102E  EF1A  F008         	goto	l1099
  3607   001032                     u3380:
  3608   001032                     
  3609                           ; BSR set to: 0
  3610   001032  81B1               	bsf	___fldiv@b& (0+255),0,b
  3611   001034                     l1099:
  3612                           
  3613                           ; BSR set to: 0
  3614   001034  90D8               	bcf	status,0,c
  3615   001036  37C4               	rlcf	___fldiv@grs& (0+255),f,b
  3616   001038  37C5               	rlcf	(___fldiv@grs+1)& (0+255),f,b
  3617   00103A  37C6               	rlcf	(___fldiv@grs+2)& (0+255),f,b
  3618   00103C  37C7               	rlcf	(___fldiv@grs+3)& (0+255),f,b
  3619   00103E                     l3723:
  3620                           
  3621                           ; BSR set to: 0
  3622   00103E  51B5               	movf	___fldiv@a& (0+255),w,b
  3623   001040  5DBD               	subwf	___fldiv@rem& (0+255),w,b
  3624   001042  51B6               	movf	(___fldiv@a+1)& (0+255),w,b
  3625   001044  59BE               	subwfb	(___fldiv@rem+1)& (0+255),w,b
  3626   001046  51B7               	movf	(___fldiv@a+2)& (0+255),w,b
  3627   001048  59BF               	subwfb	(___fldiv@rem+2)& (0+255),w,b
  3628   00104A  51B8               	movf	(___fldiv@a+3)& (0+255),w,b
  3629   00104C  59C0               	subwfb	(___fldiv@rem+3)& (0+255),w,b
  3630   00104E  A0D8               	btfss	status,0,c
  3631   001050  EF2C  F008         	goto	u3391
  3632   001054  EF2E  F008         	goto	u3390
  3633   001058                     u3391:
  3634   001058  EF37  F008         	goto	l3729
  3635   00105C                     u3390:
  3636   00105C                     
  3637                           ; BSR set to: 0
  3638   00105C  8DC7               	bsf	(___fldiv@grs+3)& (0+255),6,b
  3639   00105E                     
  3640                           ; BSR set to: 0
  3641   00105E  51B5               	movf	___fldiv@a& (0+255),w,b
  3642   001060  5FBD               	subwf	___fldiv@rem& (0+255),f,b
  3643   001062  51B6               	movf	(___fldiv@a+1)& (0+255),w,b
  3644   001064  5BBE               	subwfb	(___fldiv@rem+1)& (0+255),f,b
  3645   001066  51B7               	movf	(___fldiv@a+2)& (0+255),w,b
  3646   001068  5BBF               	subwfb	(___fldiv@rem+2)& (0+255),f,b
  3647   00106A  51B8               	movf	(___fldiv@a+3)& (0+255),w,b
  3648   00106C  5BC0               	subwfb	(___fldiv@rem+3)& (0+255),f,b
  3649   00106E                     l3729:
  3650                           
  3651                           ; BSR set to: 0
  3652   00106E  2BC9               	incf	___fldiv@aexp& (0+255),f,b
  3653   001070                     l1096:
  3654                           
  3655                           ; BSR set to: 0
  3656   001070  0E19               	movlw	25
  3657   001072  65C9               	cpfsgt	___fldiv@aexp& (0+255),b
  3658   001074  EF3E  F008         	goto	u3401
  3659   001078  EF40  F008         	goto	u3400
  3660   00107C                     u3401:
  3661   00107C  EF00  F008         	goto	l3715
  3662   001080                     u3400:
  3663   001080                     
  3664                           ; BSR set to: 0
  3665   001080  51BD               	movf	___fldiv@rem& (0+255),w,b
  3666   001082  11BE               	iorwf	(___fldiv@rem+1)& (0+255),w,b
  3667   001084  11BF               	iorwf	(___fldiv@rem+2)& (0+255),w,b
  3668   001086  11C0               	iorwf	(___fldiv@rem+3)& (0+255),w,b
  3669   001088  B4D8               	btfsc	status,2,c
  3670   00108A  EF49  F008         	goto	u3411
  3671   00108E  EF4B  F008         	goto	u3410
  3672   001092                     u3411:
  3673   001092  EF63  F008         	goto	l3741
  3674   001096                     u3410:
  3675   001096                     
  3676                           ; BSR set to: 0
  3677   001096  81C4               	bsf	___fldiv@grs& (0+255),0,b
  3678   001098  EF63  F008         	goto	l3741
  3679   00109C                     l3735:
  3680                           
  3681                           ; BSR set to: 0
  3682   00109C  90D8               	bcf	status,0,c
  3683   00109E  37B1               	rlcf	___fldiv@b& (0+255),f,b
  3684   0010A0  37B2               	rlcf	(___fldiv@b+1)& (0+255),f,b
  3685   0010A2  37B3               	rlcf	(___fldiv@b+2)& (0+255),f,b
  3686   0010A4  37B4               	rlcf	(___fldiv@b+3)& (0+255),f,b
  3687   0010A6                     
  3688                           ; BSR set to: 0
  3689   0010A6  AFC7               	btfss	(___fldiv@grs+3)& (0+255),7,b
  3690   0010A8  EF58  F008         	goto	u3421
  3691   0010AC  EF5A  F008         	goto	u3420
  3692   0010B0                     u3421:
  3693   0010B0  EF5B  F008         	goto	l1105
  3694   0010B4                     u3420:
  3695   0010B4                     
  3696                           ; BSR set to: 0
  3697   0010B4  81B1               	bsf	___fldiv@b& (0+255),0,b
  3698   0010B6                     l1105:
  3699                           
  3700                           ; BSR set to: 0
  3701   0010B6  90D8               	bcf	status,0,c
  3702   0010B8  37C4               	rlcf	___fldiv@grs& (0+255),f,b
  3703   0010BA  37C5               	rlcf	(___fldiv@grs+1)& (0+255),f,b
  3704   0010BC  37C6               	rlcf	(___fldiv@grs+2)& (0+255),f,b
  3705   0010BE  37C7               	rlcf	(___fldiv@grs+3)& (0+255),f,b
  3706   0010C0  07C2               	decf	___fldiv@new_exp& (0+255),f,b
  3707   0010C2  A0D8               	btfss	status,0,c
  3708   0010C4  07C3               	decf	(___fldiv@new_exp+1)& (0+255),f,b
  3709   0010C6                     l3741:
  3710                           
  3711                           ; BSR set to: 0
  3712   0010C6  AFB3               	btfss	(___fldiv@b+2)& (0+255),7,b
  3713   0010C8  EF68  F008         	goto	u3431
  3714   0010CC  EF6A  F008         	goto	u3430
  3715   0010D0                     u3431:
  3716   0010D0  EF4E  F008         	goto	l3735
  3717   0010D4                     u3430:
  3718   0010D4                     
  3719                           ; BSR set to: 0
  3720   0010D4  0E00               	movlw	0
  3721   0010D6  6FC9               	movwf	___fldiv@aexp& (0+255),b
  3722   0010D8                     
  3723                           ; BSR set to: 0
  3724   0010D8  AFC7               	btfss	(___fldiv@grs+3)& (0+255),7,b
  3725   0010DA  EF71  F008         	goto	u3441
  3726   0010DE  EF73  F008         	goto	u3440
  3727   0010E2                     u3441:
  3728   0010E2  EF97  F008         	goto	l1107
  3729   0010E6                     u3440:
  3730   0010E6                     
  3731                           ; BSR set to: 0
  3732   0010E6  0EFF               	movlw	255
  3733   0010E8  15C4               	andwf	___fldiv@grs& (0+255),w,b
  3734   0010EA  6FB9               	movwf	??___fldiv& (0+255),b
  3735   0010EC  0EFF               	movlw	255
  3736   0010EE  15C5               	andwf	(___fldiv@grs+1)& (0+255),w,b
  3737   0010F0  6FBA               	movwf	(??___fldiv+1)& (0+255),b
  3738   0010F2  0EFF               	movlw	255
  3739   0010F4  15C6               	andwf	(___fldiv@grs+2)& (0+255),w,b
  3740   0010F6  6FBB               	movwf	(??___fldiv+2)& (0+255),b
  3741   0010F8  0E7F               	movlw	127
  3742   0010FA  15C7               	andwf	(___fldiv@grs+3)& (0+255),w,b
  3743   0010FC  6FBC               	movwf	(??___fldiv+3)& (0+255),b
  3744   0010FE  51B9               	movf	??___fldiv& (0+255),w,b
  3745   001100  11BA               	iorwf	(??___fldiv+1)& (0+255),w,b
  3746   001102  11BB               	iorwf	(??___fldiv+2)& (0+255),w,b
  3747   001104  11BC               	iorwf	(??___fldiv+3)& (0+255),w,b
  3748   001106  B4D8               	btfsc	status,2,c
  3749   001108  EF88  F008         	goto	u3451
  3750   00110C  EF8A  F008         	goto	u3450
  3751   001110                     u3451:
  3752   001110  EF8E  F008         	goto	l1108
  3753   001114                     u3450:
  3754   001114                     l3749:
  3755                           
  3756                           ; BSR set to: 0
  3757   001114  0E01               	movlw	1
  3758   001116  6FC9               	movwf	___fldiv@aexp& (0+255),b
  3759   001118  EF97  F008         	goto	l1107
  3760   00111C                     l1108:
  3761                           
  3762                           ; BSR set to: 0
  3763   00111C  A1B1               	btfss	___fldiv@b& (0+255),0,b
  3764   00111E  EF93  F008         	goto	u3461
  3765   001122  EF95  F008         	goto	u3460
  3766   001126                     u3461:
  3767   001126  EF97  F008         	goto	l1107
  3768   00112A                     u3460:
  3769   00112A  EF8A  F008         	goto	l3749
  3770   00112E                     l1107:
  3771                           
  3772                           ; BSR set to: 0
  3773   00112E  51C9               	movf	___fldiv@aexp& (0+255),w,b
  3774   001130  B4D8               	btfsc	status,2,c
  3775   001132  EF9D  F008         	goto	u3471
  3776   001136  EF9F  F008         	goto	u3470
  3777   00113A                     u3471:
  3778   00113A  EFC3  F008         	goto	l3761
  3779   00113E                     u3470:
  3780   00113E                     
  3781                           ; BSR set to: 0
  3782   00113E  0E01               	movlw	1
  3783   001140  27B1               	addwf	___fldiv@b& (0+255),f,b
  3784   001142  0E00               	movlw	0
  3785   001144  23B2               	addwfc	(___fldiv@b+1)& (0+255),f,b
  3786   001146  23B3               	addwfc	(___fldiv@b+2)& (0+255),f,b
  3787   001148  23B4               	addwfc	(___fldiv@b+3)& (0+255),f,b
  3788   00114A                     
  3789                           ; BSR set to: 0
  3790   00114A  A1B4               	btfss	(___fldiv@b+3)& (0+255),0,b
  3791   00114C  EFAA  F008         	goto	u3481
  3792   001150  EFAC  F008         	goto	u3480
  3793   001154                     u3481:
  3794   001154  EFC3  F008         	goto	l3761
  3795   001158                     u3480:
  3796   001158                     
  3797                           ; BSR set to: 0
  3798   001158  C0B1  F0B9         	movff	___fldiv@b,??___fldiv
  3799   00115C  C0B2  F0BA         	movff	___fldiv@b+1,??___fldiv+1
  3800   001160  C0B3  F0BB         	movff	___fldiv@b+2,??___fldiv+2
  3801   001164  C0B4  F0BC         	movff	___fldiv@b+3,??___fldiv+3
  3802   001168  35BC               	rlcf	(??___fldiv+3)& (0+255),w,b
  3803   00116A  33BC               	rrcf	(??___fldiv+3)& (0+255),f,b
  3804   00116C  33BB               	rrcf	(??___fldiv+2)& (0+255),f,b
  3805   00116E  33BA               	rrcf	(??___fldiv+1)& (0+255),f,b
  3806   001170  33B9               	rrcf	??___fldiv& (0+255),f,b
  3807   001172  C0B9  F0B1         	movff	??___fldiv,___fldiv@b
  3808   001176  C0BA  F0B2         	movff	??___fldiv+1,___fldiv@b+1
  3809   00117A  C0BB  F0B3         	movff	??___fldiv+2,___fldiv@b+2
  3810   00117E  C0BC  F0B4         	movff	??___fldiv+3,___fldiv@b+3
  3811   001182                     
  3812                           ; BSR set to: 0
  3813   001182  4BC2               	infsnz	___fldiv@new_exp& (0+255),f,b
  3814   001184  2BC3               	incf	(___fldiv@new_exp+1)& (0+255),f,b
  3815   001186                     l3761:
  3816                           
  3817                           ; BSR set to: 0
  3818   001186  BFC3               	btfsc	(___fldiv@new_exp+1)& (0+255),7,b
  3819   001188  EFCE  F008         	goto	u3491
  3820   00118C  51C3               	movf	(___fldiv@new_exp+1)& (0+255),w,b
  3821   00118E  E108               	bnz	u3490
  3822   001190  29C2               	incf	___fldiv@new_exp& (0+255),w,b
  3823   001192  A0D8               	btfss	status,0,c
  3824   001194  EFCE  F008         	goto	u3491
  3825   001198  EFD0  F008         	goto	u3490
  3826   00119C                     u3491:
  3827   00119C  EFDB  F008         	goto	l3765
  3828   0011A0                     u3490:
  3829   0011A0                     
  3830                           ; BSR set to: 0
  3831   0011A0  0E00               	movlw	0
  3832   0011A2  6FC3               	movwf	(___fldiv@new_exp+1)& (0+255),b
  3833   0011A4  69C2               	setf	___fldiv@new_exp& (0+255),b
  3834   0011A6  0E00               	movlw	0
  3835   0011A8  6FB1               	movwf	___fldiv@b& (0+255),b
  3836   0011AA  0E00               	movlw	0
  3837   0011AC  6FB2               	movwf	(___fldiv@b+1)& (0+255),b
  3838   0011AE  0E00               	movlw	0
  3839   0011B0  6FB3               	movwf	(___fldiv@b+2)& (0+255),b
  3840   0011B2  0E00               	movlw	0
  3841   0011B4  6FB4               	movwf	(___fldiv@b+3)& (0+255),b
  3842   0011B6                     l3765:
  3843                           
  3844                           ; BSR set to: 0
  3845   0011B6  BFC3               	btfsc	(___fldiv@new_exp+1)& (0+255),7,b
  3846   0011B8  EFE8  F008         	goto	u3500
  3847   0011BC  51C3               	movf	(___fldiv@new_exp+1)& (0+255),w,b
  3848   0011BE  E106               	bnz	u3501
  3849   0011C0  05C2               	decf	___fldiv@new_exp& (0+255),w,b
  3850   0011C2  B0D8               	btfsc	status,0,c
  3851   0011C4  EFE6  F008         	goto	u3501
  3852   0011C8  EFE8  F008         	goto	u3500
  3853   0011CC                     u3501:
  3854   0011CC  EFF6  F008         	goto	l3769
  3855   0011D0                     u3500:
  3856   0011D0                     
  3857                           ; BSR set to: 0
  3858   0011D0  0E00               	movlw	0
  3859   0011D2  6FC3               	movwf	(___fldiv@new_exp+1)& (0+255),b
  3860   0011D4  0E00               	movlw	0
  3861   0011D6  6FC2               	movwf	___fldiv@new_exp& (0+255),b
  3862   0011D8  0E00               	movlw	0
  3863   0011DA  6FB1               	movwf	___fldiv@b& (0+255),b
  3864   0011DC  0E00               	movlw	0
  3865   0011DE  6FB2               	movwf	(___fldiv@b+1)& (0+255),b
  3866   0011E0  0E00               	movlw	0
  3867   0011E2  6FB3               	movwf	(___fldiv@b+2)& (0+255),b
  3868   0011E4  0E00               	movlw	0
  3869   0011E6  6FB4               	movwf	(___fldiv@b+3)& (0+255),b
  3870   0011E8  0E00               	movlw	0
  3871   0011EA  6FC1               	movwf	___fldiv@sign& (0+255),b
  3872   0011EC                     l3769:
  3873                           
  3874                           ; BSR set to: 0
  3875   0011EC  C0C2  F0C8         	movff	___fldiv@new_exp,___fldiv@bexp
  3876   0011F0                     
  3877                           ; BSR set to: 0
  3878   0011F0  A1C8               	btfss	___fldiv@bexp& (0+255),0,b
  3879   0011F2  EFFD  F008         	goto	u3511
  3880   0011F6  EFFF  F008         	goto	u3510
  3881   0011FA                     u3511:
  3882   0011FA  EF02  F009         	goto	l3775
  3883   0011FE                     u3510:
  3884   0011FE                     
  3885                           ; BSR set to: 0
  3886   0011FE  8FB3               	bsf	(___fldiv@b+2)& (0+255),7,b
  3887   001200  EF03  F009         	goto	l3777
  3888   001204                     l3775:
  3889                           
  3890                           ; BSR set to: 0
  3891   001204  9FB3               	bcf	(___fldiv@b+2)& (0+255),7,b
  3892   001206                     l3777:
  3893                           
  3894                           ; BSR set to: 0
  3895   001206  90D8               	bcf	status,0,c
  3896   001208  31C8               	rrcf	___fldiv@bexp& (0+255),w,b
  3897   00120A  6FB4               	movwf	(___fldiv@b+3)& (0+255),b
  3898   00120C  EFB9  F007         	goto	l3691
  3899   001210                     l1094:
  3900                           
  3901                           ; BSR set to: 0
  3902   001210  0012               	return		;funcret
  3903   001212                     __end_of___fldiv:
  3904                           	callstack 0
  3905                           
  3906 ;; *************** function ___lwmod *****************
  3907 ;; Defined at:
  3908 ;;		line 7 in file "C:\Program Files\Microchip\xc8\v2.40\pic\sources\c99\common\lwmod.c"
  3909 ;; Parameters:    Size  Location     Type
  3910 ;;  dividend        2   10[BANK0 ] unsigned int 
  3911 ;;  divisor         2   12[BANK0 ] unsigned int 
  3912 ;; Auto vars:     Size  Location     Type
  3913 ;;  counter         1   14[BANK0 ] unsigned char 
  3914 ;; Return value:  Size  Location     Type
  3915 ;;                  2   10[BANK0 ] unsigned int 
  3916 ;; Registers used:
  3917 ;;		wreg, status,2, status,0
  3918 ;; Tracked objects:
  3919 ;;		On entry : 0/0
  3920 ;;		On exit  : 0/0
  3921 ;;		Unchanged: 0/0
  3922 ;; Data sizes:     COMRAM   BANK0   BANK1   BANK2   BANK3   BANK4   BANK5
  3923 ;;      Params:         0       4       0       0       0       0       0
  3924 ;;      Locals:         0       1       0       0       0       0       0
  3925 ;;      Temps:          0       0       0       0       0       0       0
  3926 ;;      Totals:         0       5       0       0       0       0       0
  3927 ;;Total ram usage:        5 bytes
  3928 ;; Hardware stack levels used: 1
  3929 ;; Hardware stack levels required when called: 12
  3930 ;; This function calls:
  3931 ;;		Nothing
  3932 ;; This function is called by:
  3933 ;;		_loop
  3934 ;; This function uses a non-reentrant model
  3935 ;;
  3936                           
  3937                           	psect	text17
  3938   0030B0                     __ptext17:
  3939                           	callstack 0
  3940   0030B0                     ___lwmod:
  3941                           	callstack 17
  3942   0030B0  0100               	movlb	0	; () banked
  3943   0030B2  518C               	movf	___lwmod@divisor& (0+255),w,b
  3944   0030B4  118D               	iorwf	(___lwmod@divisor+1)& (0+255),w,b
  3945   0030B6  B4D8               	btfsc	status,2,c
  3946   0030B8  EF60  F018         	goto	u4031
  3947   0030BC  EF62  F018         	goto	u4030
  3948   0030C0                     u4031:
  3949   0030C0  EF86  F018         	goto	l1013
  3950   0030C4                     u4030:
  3951   0030C4                     
  3952                           ; BSR set to: 0
  3953   0030C4  0E01               	movlw	1
  3954   0030C6  6F8E               	movwf	___lwmod@counter& (0+255),b
  3955   0030C8  EF6A  F018         	goto	l4227
  3956   0030CC                     l4225:
  3957                           
  3958                           ; BSR set to: 0
  3959   0030CC  90D8               	bcf	status,0,c
  3960   0030CE  378C               	rlcf	___lwmod@divisor& (0+255),f,b
  3961   0030D0  378D               	rlcf	(___lwmod@divisor+1)& (0+255),f,b
  3962   0030D2  2B8E               	incf	___lwmod@counter& (0+255),f,b
  3963   0030D4                     l4227:
  3964                           
  3965                           ; BSR set to: 0
  3966   0030D4  AF8D               	btfss	(___lwmod@divisor+1)& (0+255),7,b
  3967   0030D6  EF6F  F018         	goto	u4041
  3968   0030DA  EF71  F018         	goto	u4040
  3969   0030DE                     u4041:
  3970   0030DE  EF66  F018         	goto	l4225
  3971   0030E2                     u4040:
  3972   0030E2                     l4229:
  3973                           
  3974                           ; BSR set to: 0
  3975   0030E2  518C               	movf	___lwmod@divisor& (0+255),w,b
  3976   0030E4  5D8A               	subwf	___lwmod@dividend& (0+255),w,b
  3977   0030E6  518D               	movf	(___lwmod@divisor+1)& (0+255),w,b
  3978   0030E8  598B               	subwfb	(___lwmod@dividend+1)& (0+255),w,b
  3979   0030EA  A0D8               	btfss	status,0,c
  3980   0030EC  EF7A  F018         	goto	u4051
  3981   0030F0  EF7C  F018         	goto	u4050
  3982   0030F4                     u4051:
  3983   0030F4  EF80  F018         	goto	l4233
  3984   0030F8                     u4050:
  3985   0030F8                     
  3986                           ; BSR set to: 0
  3987   0030F8  518C               	movf	___lwmod@divisor& (0+255),w,b
  3988   0030FA  5F8A               	subwf	___lwmod@dividend& (0+255),f,b
  3989   0030FC  518D               	movf	(___lwmod@divisor+1)& (0+255),w,b
  3990   0030FE  5B8B               	subwfb	(___lwmod@dividend+1)& (0+255),f,b
  3991   003100                     l4233:
  3992                           
  3993                           ; BSR set to: 0
  3994   003100  90D8               	bcf	status,0,c
  3995   003102  338D               	rrcf	(___lwmod@divisor+1)& (0+255),f,b
  3996   003104  338C               	rrcf	___lwmod@divisor& (0+255),f,b
  3997   003106                     
  3998                           ; BSR set to: 0
  3999   003106  2F8E               	decfsz	___lwmod@counter& (0+255),f,b
  4000   003108  EF71  F018         	goto	l4229
  4001   00310C                     l1013:
  4002                           
  4003                           ; BSR set to: 0
  4004   00310C  C08A  F08A         	movff	___lwmod@dividend,?___lwmod
  4005   003110  C08B  F08B         	movff	___lwmod@dividend+1,?___lwmod+1
  4006   003114                     
  4007                           ; BSR set to: 0
  4008   003114  0012               	return		;funcret
  4009   003116                     __end_of___lwmod:
  4010                           	callstack 0
  4011                           
  4012 ;; *************** function ___lwdiv *****************
  4013 ;; Defined at:
  4014 ;;		line 7 in file "C:\Program Files\Microchip\xc8\v2.40\pic\sources\c99\common\lwdiv.c"
  4015 ;; Parameters:    Size  Location     Type
  4016 ;;  dividend        2   15[BANK0 ] unsigned int 
  4017 ;;  divisor         2   17[BANK0 ] unsigned int 
  4018 ;; Auto vars:     Size  Location     Type
  4019 ;;  quotient        2   19[BANK0 ] unsigned int 
  4020 ;;  counter         1   21[BANK0 ] unsigned char 
  4021 ;; Return value:  Size  Location     Type
  4022 ;;                  2   15[BANK0 ] unsigned int 
  4023 ;; Registers used:
  4024 ;;		wreg, status,2, status,0
  4025 ;; Tracked objects:
  4026 ;;		On entry : 0/0
  4027 ;;		On exit  : 0/0
  4028 ;;		Unchanged: 0/0
  4029 ;; Data sizes:     COMRAM   BANK0   BANK1   BANK2   BANK3   BANK4   BANK5
  4030 ;;      Params:         0       4       0       0       0       0       0
  4031 ;;      Locals:         0       3       0       0       0       0       0
  4032 ;;      Temps:          0       0       0       0       0       0       0
  4033 ;;      Totals:         0       7       0       0       0       0       0
  4034 ;;Total ram usage:        7 bytes
  4035 ;; Hardware stack levels used: 1
  4036 ;; Hardware stack levels required when called: 12
  4037 ;; This function calls:
  4038 ;;		Nothing
  4039 ;; This function is called by:
  4040 ;;		_loop
  4041 ;; This function uses a non-reentrant model
  4042 ;;
  4043                           
  4044                           	psect	text18
  4045   002FD2                     __ptext18:
  4046                           	callstack 0
  4047   002FD2                     ___lwdiv:
  4048                           	callstack 17
  4049   002FD2  0E00               	movlw	0
  4050   002FD4  0100               	movlb	0	; () banked
  4051   002FD6  6F94               	movwf	(___lwdiv@quotient+1)& (0+255),b
  4052   002FD8  0E00               	movlw	0
  4053   002FDA  6F93               	movwf	___lwdiv@quotient& (0+255),b
  4054   002FDC                     
  4055                           ; BSR set to: 0
  4056   002FDC  5191               	movf	___lwdiv@divisor& (0+255),w,b
  4057   002FDE  1192               	iorwf	(___lwdiv@divisor+1)& (0+255),w,b
  4058   002FE0  B4D8               	btfsc	status,2,c
  4059   002FE2  EFF5  F017         	goto	u4001
  4060   002FE6  EFF7  F017         	goto	u4000
  4061   002FEA                     u4001:
  4062   002FEA  EF1F  F018         	goto	l1003
  4063   002FEE                     u4000:
  4064   002FEE                     
  4065                           ; BSR set to: 0
  4066   002FEE  0E01               	movlw	1
  4067   002FF0  6F95               	movwf	___lwdiv@counter& (0+255),b
  4068   002FF2  EFFF  F017         	goto	l4207
  4069   002FF6                     l4205:
  4070                           
  4071                           ; BSR set to: 0
  4072   002FF6  90D8               	bcf	status,0,c
  4073   002FF8  3791               	rlcf	___lwdiv@divisor& (0+255),f,b
  4074   002FFA  3792               	rlcf	(___lwdiv@divisor+1)& (0+255),f,b
  4075   002FFC  2B95               	incf	___lwdiv@counter& (0+255),f,b
  4076   002FFE                     l4207:
  4077                           
  4078                           ; BSR set to: 0
  4079   002FFE  AF92               	btfss	(___lwdiv@divisor+1)& (0+255),7,b
  4080   003000  EF04  F018         	goto	u4011
  4081   003004  EF06  F018         	goto	u4010
  4082   003008                     u4011:
  4083   003008  EFFB  F017         	goto	l4205
  4084   00300C                     u4010:
  4085   00300C                     l4209:
  4086                           
  4087                           ; BSR set to: 0
  4088   00300C  90D8               	bcf	status,0,c
  4089   00300E  3793               	rlcf	___lwdiv@quotient& (0+255),f,b
  4090   003010  3794               	rlcf	(___lwdiv@quotient+1)& (0+255),f,b
  4091   003012                     
  4092                           ; BSR set to: 0
  4093   003012  5191               	movf	___lwdiv@divisor& (0+255),w,b
  4094   003014  5D8F               	subwf	___lwdiv@dividend& (0+255),w,b
  4095   003016  5192               	movf	(___lwdiv@divisor+1)& (0+255),w,b
  4096   003018  5990               	subwfb	(___lwdiv@dividend+1)& (0+255),w,b
  4097   00301A  A0D8               	btfss	status,0,c
  4098   00301C  EF12  F018         	goto	u4021
  4099   003020  EF14  F018         	goto	u4020
  4100   003024                     u4021:
  4101   003024  EF19  F018         	goto	l4217
  4102   003028                     u4020:
  4103   003028                     
  4104                           ; BSR set to: 0
  4105   003028  5191               	movf	___lwdiv@divisor& (0+255),w,b
  4106   00302A  5F8F               	subwf	___lwdiv@dividend& (0+255),f,b
  4107   00302C  5192               	movf	(___lwdiv@divisor+1)& (0+255),w,b
  4108   00302E  5B90               	subwfb	(___lwdiv@dividend+1)& (0+255),f,b
  4109   003030                     
  4110                           ; BSR set to: 0
  4111   003030  8193               	bsf	___lwdiv@quotient& (0+255),0,b
  4112   003032                     l4217:
  4113                           
  4114                           ; BSR set to: 0
  4115   003032  90D8               	bcf	status,0,c
  4116   003034  3392               	rrcf	(___lwdiv@divisor+1)& (0+255),f,b
  4117   003036  3391               	rrcf	___lwdiv@divisor& (0+255),f,b
  4118   003038                     
  4119                           ; BSR set to: 0
  4120   003038  2F95               	decfsz	___lwdiv@counter& (0+255),f,b
  4121   00303A  EF06  F018         	goto	l4209
  4122   00303E                     l1003:
  4123                           
  4124                           ; BSR set to: 0
  4125   00303E  C093  F08F         	movff	___lwdiv@quotient,?___lwdiv
  4126   003042  C094  F090         	movff	___lwdiv@quotient+1,?___lwdiv+1
  4127   003046                     
  4128                           ; BSR set to: 0
  4129   003046  0012               	return		;funcret
  4130   003048                     __end_of___lwdiv:
  4131                           	callstack 0
  4132                           
  4133 ;; *************** function _f_interrupt_high *****************
  4134 ;; Defined at:
  4135 ;;		line 29 in file "Interrupt.c"
  4136 ;; Parameters:    Size  Location     Type
  4137 ;;		None
  4138 ;; Auto vars:     Size  Location     Type
  4139 ;;		None
  4140 ;; Return value:  Size  Location     Type
  4141 ;;                  1    wreg      void 
  4142 ;; Registers used:
  4143 ;;		wreg, fsr1l, fsr1h, fsr2l, fsr2h, status,2, status,0, tblptrl, tblptrh, tblptru, prodl, prodh, cstack
  4144 ;; Tracked objects:
  4145 ;;		On entry : 0/0
  4146 ;;		On exit  : 0/0
  4147 ;;		Unchanged: 0/0
  4148 ;; Data sizes:     COMRAM   BANK0   BANK1   BANK2   BANK3   BANK4   BANK5
  4149 ;;      Params:         0       0       0       0       0       0       0
  4150 ;;      Locals:         0       0       0       0       0       0       0
  4151 ;;      Temps:          0      10       0       0       0       0       0
  4152 ;;      Totals:         0      10       0       0       0       0       0
  4153 ;;Total ram usage:       10 bytes
  4154 ;; Hardware stack levels used: 1
  4155 ;; Hardware stack levels required when called: 11
  4156 ;; This function calls:
  4157 ;;		_f_timers
  4158 ;; This function is called by:
  4159 ;;		Interrupt level 2
  4160 ;; This function uses a non-reentrant model
  4161 ;;
  4162                           
  4163                           	psect	intcode
  4164   000008                     __pintcode:
  4165                           	callstack 0
  4166   000008                     _f_interrupt_high:
  4167                           	callstack 15
  4168                           
  4169                           ; BSR set to: 0
  4170                           ;incstack = 0
  4171   000008  827B               	bsf	int$flags,1,c	;set compiler interrupt flag (level 2)
  4172   00000A  EDC2  F014         	call	int_func,f	;refresh shadow registers
  4173                           
  4174                           	psect	intcode_body
  4175   002984                     __pintcode_body:
  4176                           	callstack 15
  4177   002984                     int_func:
  4178                           	callstack 15
  4179   002984  0006               	pop		; remove dummy address from shadow register refresh
  4180   002986  CFE1 F080          	movff	fsr1l,??_f_interrupt_high
  4181   00298A  CFE2 F081          	movff	fsr1h,??_f_interrupt_high+1
  4182   00298E  CFD9 F082          	movff	fsr2l,??_f_interrupt_high+2
  4183   002992  CFDA F083          	movff	fsr2h,??_f_interrupt_high+3
  4184   002996  CFF3 F084          	movff	prodl,??_f_interrupt_high+4
  4185   00299A  CFF4 F085          	movff	prodh,??_f_interrupt_high+5
  4186   00299E  CFF6 F086          	movff	tblptrl,??_f_interrupt_high+6
  4187   0029A2  CFF7 F087          	movff	tblptrh,??_f_interrupt_high+7
  4188   0029A6  CFF8 F088          	movff	tblptru,??_f_interrupt_high+8
  4189   0029AA  CFF5 F089          	movff	tablat,??_f_interrupt_high+9
  4190   0029AE                     
  4191                           ;Interrupt.c: 31:     if (TMR0IF) {
  4192   0029AE  A4F2               	btfss	4082,2,c	;volatile
  4193   0029B0  EFDC  F014         	goto	i2u411_41
  4194   0029B4  EFDE  F014         	goto	i2u411_40
  4195   0029B8                     i2u411_41:
  4196   0029B8  EFE5  F014         	goto	i2l4347
  4197   0029BC                     i2u411_40:
  4198   0029BC                     
  4199                           ;Interrupt.c: 32:         TMR0 = 0x06;
  4200   0029BC  0E00               	movlw	0
  4201   0029BE  6ED7               	movwf	215,c	;volatile
  4202   0029C0  0E06               	movlw	6
  4203   0029C2  6ED6               	movwf	214,c	;volatile
  4204   0029C4                     
  4205                           ;Interrupt.c: 34:         f_timers();
  4206   0029C4  EC44  F014         	call	_f_timers	;wreg free
  4207   0029C8                     
  4208                           ;Interrupt.c: 37:         TMR0IF = 0x00;
  4209   0029C8  94F2               	bcf	4082,2,c	;volatile
  4210   0029CA                     i2l4347:
  4211                           
  4212                           ;Interrupt.c: 40:     if (INT0IF && INT0IE) {
  4213   0029CA  A2F2               	btfss	4082,1,c	;volatile
  4214   0029CC  EFEA  F014         	goto	i2u412_41
  4215   0029D0  EFEC  F014         	goto	i2u412_40
  4216   0029D4                     i2u412_41:
  4217   0029D4  EFF4  F014         	goto	i2l254
  4218   0029D8                     i2u412_40:
  4219   0029D8  A8F2               	btfss	4082,4,c	;volatile
  4220   0029DA  EFF1  F014         	goto	i2u413_41
  4221   0029DE  EFF3  F014         	goto	i2u413_40
  4222   0029E2                     i2u413_41:
  4223   0029E2  EFF4  F014         	goto	i2l254
  4224   0029E6                     i2u413_40:
  4225   0029E6                     
  4226                           ;Interrupt.c: 42:         INT0IF = 0;
  4227   0029E6  92F2               	bcf	4082,1,c	;volatile
  4228   0029E8                     i2l254:
  4229                           
  4230                           ;Interrupt.c: 45:     if (INT1IF && INT1IE) {
  4231   0029E8  A0F0               	btfss	4080,0,c	;volatile
  4232   0029EA  EFF9  F014         	goto	i2u414_41
  4233   0029EE  EFFB  F014         	goto	i2u414_40
  4234   0029F2                     i2u414_41:
  4235   0029F2  EF03  F015         	goto	i2l255
  4236   0029F6                     i2u414_40:
  4237   0029F6  A6F0               	btfss	4080,3,c	;volatile
  4238   0029F8  EF00  F015         	goto	i2u415_41
  4239   0029FC  EF02  F015         	goto	i2u415_40
  4240   002A00                     i2u415_41:
  4241   002A00  EF03  F015         	goto	i2l255
  4242   002A04                     i2u415_40:
  4243   002A04                     
  4244                           ;Interrupt.c: 47:         INT1IF = 0;
  4245   002A04  90F0               	bcf	4080,0,c	;volatile
  4246   002A06                     i2l255:
  4247                           
  4248                           ;Interrupt.c: 50:     if (INT2IF && INT2IE) {
  4249   002A06  A2F0               	btfss	4080,1,c	;volatile
  4250   002A08  EF08  F015         	goto	i2u416_41
  4251   002A0C  EF0A  F015         	goto	i2u416_40
  4252   002A10                     i2u416_41:
  4253   002A10  EF12  F015         	goto	i2l256
  4254   002A14                     i2u416_40:
  4255   002A14  A8F0               	btfss	4080,4,c	;volatile
  4256   002A16  EF0F  F015         	goto	i2u417_41
  4257   002A1A  EF11  F015         	goto	i2u417_40
  4258   002A1E                     i2u417_41:
  4259   002A1E  EF12  F015         	goto	i2l256
  4260   002A22                     i2u417_40:
  4261   002A22                     
  4262                           ;Interrupt.c: 52:         INT2IF = 0;
  4263   002A22  92F0               	bcf	4080,1,c	;volatile
  4264   002A24                     i2l256:
  4265                           
  4266                           ;Interrupt.c: 55:     if (ADIF && ADIE && PEIE) {
  4267   002A24  AC9E               	btfss	3998,6,c	;volatile
  4268   002A26  EF17  F015         	goto	i2u418_41
  4269   002A2A  EF19  F015         	goto	i2u418_40
  4270   002A2E                     i2u418_41:
  4271   002A2E  EF28  F015         	goto	i2l258
  4272   002A32                     i2u418_40:
  4273   002A32  AC9D               	btfss	3997,6,c	;volatile
  4274   002A34  EF1E  F015         	goto	i2u419_41
  4275   002A38  EF20  F015         	goto	i2u419_40
  4276   002A3C                     i2u419_41:
  4277   002A3C  EF28  F015         	goto	i2l258
  4278   002A40                     i2u419_40:
  4279   002A40  ACF2               	btfss	4082,6,c	;volatile
  4280   002A42  EF25  F015         	goto	i2u420_41
  4281   002A46  EF27  F015         	goto	i2u420_40
  4282   002A4A                     i2u420_41:
  4283   002A4A  EF28  F015         	goto	i2l258
  4284   002A4E                     i2u420_40:
  4285   002A4E                     
  4286                           ;Interrupt.c: 57:         ADIF = 0;
  4287   002A4E  9C9E               	bcf	3998,6,c	;volatile
  4288   002A50                     i2l258:
  4289   002A50  C089  FFF5         	movff	??_f_interrupt_high+9,tablat
  4290   002A54  C088  FFF8         	movff	??_f_interrupt_high+8,tblptru
  4291   002A58  C087  FFF7         	movff	??_f_interrupt_high+7,tblptrh
  4292   002A5C  C086  FFF6         	movff	??_f_interrupt_high+6,tblptrl
  4293   002A60  C085  FFF4         	movff	??_f_interrupt_high+5,prodh
  4294   002A64  C084  FFF3         	movff	??_f_interrupt_high+4,prodl
  4295   002A68  C083  FFDA         	movff	??_f_interrupt_high+3,fsr2h
  4296   002A6C  C082  FFD9         	movff	??_f_interrupt_high+2,fsr2l
  4297   002A70  C081  FFE2         	movff	??_f_interrupt_high+1,fsr1h
  4298   002A74  C080  FFE1         	movff	??_f_interrupt_high,fsr1l
  4299   002A78  927B               	bcf	int$flags,1,c	;clear compiler interrupt flag (level 2)
  4300   002A7A  0011               	retfie		f
  4301   002A7C                     __end_of_f_interrupt_high:
  4302                           	callstack 0
  4303                           
  4304 ;; *************** function _f_timers *****************
  4305 ;; Defined at:
  4306 ;;		line 87 in file "Interrupt.c"
  4307 ;; Parameters:    Size  Location     Type
  4308 ;;		None
  4309 ;; Auto vars:     Size  Location     Type
  4310 ;;		None
  4311 ;; Return value:  Size  Location     Type
  4312 ;;                  1    wreg      void 
  4313 ;; Registers used:
  4314 ;;		wreg, fsr1l, fsr1h, fsr2l, fsr2h, status,2, status,0, tblptrl, tblptrh, tblptru, prodl, prodh, cstack
  4315 ;; Tracked objects:
  4316 ;;		On entry : 0/0
  4317 ;;		On exit  : 0/0
  4318 ;;		Unchanged: 0/0
  4319 ;; Data sizes:     COMRAM   BANK0   BANK1   BANK2   BANK3   BANK4   BANK5
  4320 ;;      Params:         0       0       0       0       0       0       0
  4321 ;;      Locals:         0       0       0       0       0       0       0
  4322 ;;      Temps:          0       0       0       0       0       0       0
  4323 ;;      Totals:         0       0       0       0       0       0       0
  4324 ;;Total ram usage:        0 bytes
  4325 ;; Hardware stack levels used: 1
  4326 ;; Hardware stack levels required when called: 10
  4327 ;; This function calls:
  4328 ;;		_ADC_maq
  4329 ;;		_Read_AD
  4330 ;;		_lcd_dat
  4331 ;;		_lcd_str
  4332 ;;		_mux_display
  4333 ;;		_read_keyb
  4334 ;;		_read_keyboard
  4335 ;;		i2_lcd_cmd
  4336 ;; This function is called by:
  4337 ;;		_f_interrupt_high
  4338 ;; This function uses a non-reentrant model
  4339 ;;
  4340                           
  4341                           	psect	text20
  4342   002888                     __ptext20:
  4343                           	callstack 0
  4344   002888                     _f_timers:
  4345                           	callstack 15
  4346   002888                     
  4347                           ;Interrupt.c: 88:     static uint16_t counter0 = 1, counter1 = 1, counter2 = 1, counter3
      +                           = 1;;Interrupt.c: 90:     RE0 ^= 1;
  4348   002888  7084               	btg	3972,0,c	;volatile
  4349   00288A                     
  4350                           ;Interrupt.c: 92:     ADC_maq();
  4351   00288A  ECA9  F016         	call	_ADC_maq	;wreg free
  4352   00288E                     
  4353                           ;Interrupt.c: 94:     if (counter0 < 5)
  4354   00288E  0101               	movlb	1	; () banked
  4355   002890  513A               	movf	(f_timers@counter0+1)& (0+255),w,b
  4356   002892  E107               	bnz	i2u406_41
  4357   002894  0E05               	movlw	5
  4358   002896  5D39               	subwf	f_timers@counter0& (0+255),w,b
  4359   002898  B0D8               	btfsc	status,0,c
  4360   00289A  EF51  F014         	goto	i2u406_41
  4361   00289E  EF53  F014         	goto	i2u406_40
  4362   0028A2                     i2u406_41:
  4363   0028A2  EF57  F014         	goto	i2l4277
  4364   0028A6                     i2u406_40:
  4365   0028A6                     
  4366                           ; BSR set to: 1
  4367                           ;Interrupt.c: 95:     {;Interrupt.c: 96:         counter0++;
  4368   0028A6  4B39               	infsnz	f_timers@counter0& (0+255),f,b
  4369   0028A8  2B3A               	incf	(f_timers@counter0+1)& (0+255),f,b
  4370                           
  4371                           ;Interrupt.c: 97:     }
  4372   0028AA  EF5E  F014         	goto	i2l4281
  4373   0028AE                     i2l4277:
  4374                           
  4375                           ; BSR set to: 1
  4376                           ;Interrupt.c: 99:         mux_display();
  4377   0028AE  ECFC  F015         	call	_mux_display	;wreg free
  4378   0028B2                     
  4379                           ;Interrupt.c: 100:         counter0 = 1;
  4380   0028B2  0E00               	movlw	0
  4381   0028B4  0101               	movlb	1	; () banked
  4382   0028B6  6F3A               	movwf	(f_timers@counter0+1)& (0+255),b
  4383   0028B8  0E01               	movlw	1
  4384   0028BA  6F39               	movwf	f_timers@counter0& (0+255),b
  4385   0028BC                     i2l4281:
  4386                           
  4387                           ; BSR set to: 1
  4388                           ;Interrupt.c: 103:     if (counter1 < 100)
  4389   0028BC  5138               	movf	(f_timers@counter1+1)& (0+255),w,b
  4390   0028BE  E107               	bnz	i2u407_41
  4391   0028C0  0E64               	movlw	100
  4392   0028C2  5D37               	subwf	f_timers@counter1& (0+255),w,b
  4393   0028C4  B0D8               	btfsc	status,0,c
  4394   0028C6  EF67  F014         	goto	i2u407_41
  4395   0028CA  EF69  F014         	goto	i2u407_40
  4396   0028CE                     i2u407_41:
  4397   0028CE  EF6D  F014         	goto	i2l280
  4398   0028D2                     i2u407_40:
  4399   0028D2                     
  4400                           ; BSR set to: 1
  4401                           ;Interrupt.c: 104:     {;Interrupt.c: 105:         counter1++;
  4402   0028D2  4B37               	infsnz	f_timers@counter1& (0+255),f,b
  4403   0028D4  2B38               	incf	(f_timers@counter1+1)& (0+255),f,b
  4404                           
  4405                           ;Interrupt.c: 106:     }
  4406   0028D6  EFA6  F014         	goto	i2l4307
  4407   0028DA                     i2l280:
  4408                           
  4409                           ; BSR set to: 1
  4410                           ;Interrupt.c: 108:     {;Interrupt.c: 109:         static uint8_t old_latd = 0;;Interrup
      +                          t.c: 110:         old_latd = LATD;
  4411   0028DA  CF8C F0E2          	movff	3980,f_timers@old_latd	;volatile
  4412   0028DE                     
  4413                           ; BSR set to: 1
  4414                           ;Interrupt.c: 112:         if(temperature != memoria_temperatura)
  4415   0028DE  513F               	movf	_memoria_temperatura& (0+255),w,b
  4416   0028E0  1876               	xorwf	_temperature^0,w,c
  4417   0028E2  E109               	bnz	i2u408_40
  4418   0028E4  5140               	movf	(_memoria_temperatura+1)& (0+255),w,b
  4419   0028E6  1877               	xorwf	(_temperature+1)^0,w,c
  4420   0028E8  B4D8               	btfsc	status,2,c
  4421   0028EA  EF79  F014         	goto	i2u408_41
  4422   0028EE  EF7B  F014         	goto	i2u408_40
  4423   0028F2                     i2u408_41:
  4424   0028F2  EF9B  F014         	goto	i2l4301
  4425   0028F6                     i2u408_40:
  4426   0028F6                     
  4427                           ; BSR set to: 1
  4428                           ;Interrupt.c: 113:         {;Interrupt.c: 114:             lcd_cmd(0x80);
  4429   0028F6  0E80               	movlw	128
  4430   0028F8  ECE3  F019         	call	i2_lcd_cmd
  4431   0028FC                     
  4432                           ;Interrupt.c: 115:             lcd_str("TEMP = ");
  4433   0028FC  0E0A               	movlw	low STR_1
  4434   0028FE  6E03               	movwf	lcd_str@str^0,c
  4435   002900  0E06               	movlw	high STR_1
  4436   002902  6E04               	movwf	(lcd_str@str+1)^0,c
  4437   002904  ECAD  F017         	call	_lcd_str	;wreg free
  4438   002908                     
  4439                           ;Interrupt.c: 116:             lcd_dat(digito1_temperatura + '0');
  4440   002908  0100               	movlb	0	; () banked
  4441   00290A  51E6               	movf	_digito1_temperatura& (0+255),w,b
  4442   00290C  0F30               	addlw	48
  4443   00290E  ECF4  F019         	call	_lcd_dat
  4444   002912                     
  4445                           ;Interrupt.c: 117:             lcd_dat(digito2_temperatura + '0');
  4446   002912  0100               	movlb	0	; () banked
  4447   002914  51E5               	movf	_digito2_temperatura& (0+255),w,b
  4448   002916  0F30               	addlw	48
  4449   002918  ECF4  F019         	call	_lcd_dat
  4450   00291C                     
  4451                           ;Interrupt.c: 118:             lcd_dat('.');
  4452   00291C  0E2E               	movlw	46
  4453   00291E  ECF4  F019         	call	_lcd_dat
  4454   002922                     
  4455                           ;Interrupt.c: 119:             lcd_dat(digito3_temperatura + '0');
  4456   002922  0100               	movlb	0	; () banked
  4457   002924  51E4               	movf	_digito3_temperatura& (0+255),w,b
  4458   002926  0F30               	addlw	48
  4459   002928  ECF4  F019         	call	_lcd_dat
  4460   00292C                     
  4461                           ;Interrupt.c: 120:             lcd_dat(digito4_temperatura + '0');
  4462   00292C  0100               	movlb	0	; () banked
  4463   00292E  51E3               	movf	_digito4_temperatura& (0+255),w,b
  4464   002930  0F30               	addlw	48
  4465   002932  ECF4  F019         	call	_lcd_dat
  4466   002936                     i2l4301:
  4467                           
  4468                           ;Interrupt.c: 124:         memoria_temperatura = temperature;
  4469   002936  C076  F13F         	movff	_temperature,_memoria_temperatura
  4470   00293A  C077  F140         	movff	_temperature+1,_memoria_temperatura+1
  4471   00293E                     
  4472                           ;Interrupt.c: 125:         LATD = old_latd;
  4473   00293E  C0E2  FF8C         	movff	f_timers@old_latd,3980	;volatile
  4474   002942                     
  4475                           ;Interrupt.c: 127:         counter1 = 1;
  4476   002942  0E00               	movlw	0
  4477   002944  0101               	movlb	1	; () banked
  4478   002946  6F38               	movwf	(f_timers@counter1+1)& (0+255),b
  4479   002948  0E01               	movlw	1
  4480   00294A  6F37               	movwf	f_timers@counter1& (0+255),b
  4481   00294C                     i2l4307:
  4482                           
  4483                           ; BSR set to: 1
  4484                           ;Interrupt.c: 138:     if (counter3 < 10)
  4485   00294C  5134               	movf	(f_timers@counter3+1)& (0+255),w,b
  4486   00294E  E107               	bnz	i2u409_41
  4487   002950  0E0A               	movlw	10
  4488   002952  5D33               	subwf	f_timers@counter3& (0+255),w,b
  4489   002954  B0D8               	btfsc	status,0,c
  4490   002956  EFAF  F014         	goto	i2u409_41
  4491   00295A  EFB1  F014         	goto	i2u409_40
  4492   00295E                     i2u409_41:
  4493   00295E  EFB5  F014         	goto	i2l285
  4494   002962                     i2u409_40:
  4495   002962                     
  4496                           ; BSR set to: 1
  4497                           ;Interrupt.c: 139:     {;Interrupt.c: 140:         counter3++;
  4498   002962  4B33               	infsnz	f_timers@counter3& (0+255),f,b
  4499   002964  2B34               	incf	(f_timers@counter3+1)& (0+255),f,b
  4500                           
  4501                           ;Interrupt.c: 141:     }
  4502   002966  EFC1  F014         	goto	i2l287
  4503   00296A                     i2l285:
  4504                           
  4505                           ; BSR set to: 1
  4506                           ;Interrupt.c: 144:     {;Interrupt.c: 145:         RC5 ^= 1;
  4507   00296A  7A82               	btg	3970,5,c	;volatile
  4508   00296C                     
  4509                           ; BSR set to: 1
  4510                           ;Interrupt.c: 146:         read_keyboard();
  4511   00296C  EC15  F00C         	call	_read_keyboard	;wreg free
  4512                           
  4513                           ;Interrupt.c: 147:         read_keyb();
  4514   002970  EC55  F016         	call	_read_keyb	;wreg free
  4515   002974                     
  4516                           ;Interrupt.c: 148:         Read_AD();
  4517   002974  EC32  F01A         	call	_Read_AD	;wreg free
  4518   002978                     
  4519                           ;Interrupt.c: 149:         counter3 = 1;
  4520   002978  0E00               	movlw	0
  4521   00297A  0101               	movlb	1	; () banked
  4522   00297C  6F34               	movwf	(f_timers@counter3+1)& (0+255),b
  4523   00297E  0E01               	movlw	1
  4524   002980  6F33               	movwf	f_timers@counter3& (0+255),b
  4525   002982                     i2l287:
  4526                           
  4527                           ; BSR set to: 1
  4528   002982  0012               	return		;funcret
  4529   002984                     __end_of_f_timers:
  4530                           	callstack 0
  4531                           
  4532 ;; *************** function _read_keyboard *****************
  4533 ;; Defined at:
  4534 ;;		line 142 in file "main.c"
  4535 ;; Parameters:    Size  Location     Type
  4536 ;;		None
  4537 ;; Auto vars:     Size  Location     Type
  4538 ;;  i               2   10[COMRAM] int 
  4539 ;; Return value:  Size  Location     Type
  4540 ;;                  1    wreg      void 
  4541 ;; Registers used:
  4542 ;;		wreg, fsr1l, fsr1h, fsr2l, fsr2h, status,2, status,0, tblptrl, tblptrh, tblptru, prodl, prodh, cstack
  4543 ;; Tracked objects:
  4544 ;;		On entry : 0/0
  4545 ;;		On exit  : 0/0
  4546 ;;		Unchanged: 0/0
  4547 ;; Data sizes:     COMRAM   BANK0   BANK1   BANK2   BANK3   BANK4   BANK5
  4548 ;;      Params:         0       0       0       0       0       0       0
  4549 ;;      Locals:         2       0       0       0       0       0       0
  4550 ;;      Temps:          2       0       0       0       0       0       0
  4551 ;;      Totals:         4       0       0       0       0       0       0
  4552 ;;Total ram usage:        4 bytes
  4553 ;; Hardware stack levels used: 1
  4554 ;; Hardware stack levels required when called: 4
  4555 ;; This function calls:
  4556 ;;		_ler_teclado
  4557 ;;		_show_to_LCD
  4558 ;; This function is called by:
  4559 ;;		_f_timers
  4560 ;; This function uses a non-reentrant model
  4561 ;;
  4562                           
  4563                           	psect	text21
  4564   00182A                     __ptext21:
  4565                           	callstack 0
  4566   00182A                     _read_keyboard:
  4567                           	callstack 20
  4568   00182A                     
  4569                           ;main.c: 145:     static uint8_t dado;;main.c: 147:     dado = ler_teclado();
  4570   00182A  EC6A  F010         	call	_ler_teclado	;wreg free
  4571   00182E  6E78               	movwf	read_keyboard@dado^0,c
  4572   001830                     
  4573                           ;main.c: 149:     if (dado!=16 && dado != memoria_dado)
  4574   001830  0E10               	movlw	16
  4575   001832  1878               	xorwf	read_keyboard@dado^0,w,c
  4576   001834  B4D8               	btfsc	status,2,c
  4577   001836  EF1F  F00C         	goto	i2u388_41
  4578   00183A  EF21  F00C         	goto	i2u388_40
  4579   00183E                     i2u388_41:
  4580   00183E  EF18  F00D         	goto	i2l4151
  4581   001842                     i2u388_40:
  4582   001842  0100               	movlb	0	; () banked
  4583   001844  51DD               	movf	_memoria_dado& (0+255),w,b
  4584   001846  1878               	xorwf	read_keyboard@dado^0,w,c
  4585   001848  B4D8               	btfsc	status,2,c
  4586   00184A  EF29  F00C         	goto	i2u389_41
  4587   00184E  EF2B  F00C         	goto	i2u389_40
  4588   001852                     i2u389_41:
  4589   001852  EF18  F00D         	goto	i2l4151
  4590   001856                     i2u389_40:
  4591   001856                     
  4592                           ; BSR set to: 0
  4593                           ;main.c: 150:     {;main.c: 151:         if(dado == 11 || dado == 10)
  4594   001856  0E0B               	movlw	11
  4595   001858  1878               	xorwf	read_keyboard@dado^0,w,c
  4596   00185A  B4D8               	btfsc	status,2,c
  4597   00185C  EF32  F00C         	goto	i2u390_41
  4598   001860  EF34  F00C         	goto	i2u390_40
  4599   001864                     i2u390_41:
  4600   001864  EF3D  F00C         	goto	i2l4117
  4601   001868                     i2u390_40:
  4602   001868                     
  4603                           ; BSR set to: 0
  4604   001868  0E0A               	movlw	10
  4605   00186A  1878               	xorwf	read_keyboard@dado^0,w,c
  4606   00186C  A4D8               	btfss	status,2,c
  4607   00186E  EF3B  F00C         	goto	i2u391_41
  4608   001872  EF3D  F00C         	goto	i2u391_40
  4609   001876                     i2u391_41:
  4610   001876  EFEE  F00C         	goto	i2l4143
  4611   00187A                     i2u391_40:
  4612   00187A                     i2l4117:
  4613                           
  4614                           ; BSR set to: 0
  4615                           ;main.c: 152:         {;main.c: 153:             dado1 = dado2 = dado3 = dado4 = 0;
  4616   00187A  0E00               	movlw	0
  4617   00187C  6FDE               	movwf	_dado4& (0+255),b
  4618   00187E  C0DE  F0DF         	movff	_dado4,_dado3
  4619   001882  C0DF  F0E0         	movff	_dado3,_dado2
  4620   001886  C0E0  F0E1         	movff	_dado2,_dado1
  4621                           
  4622                           ;main.c: 154:             memoria_dado = 0;
  4623   00188A  0E00               	movlw	0
  4624   00188C  6FDD               	movwf	_memoria_dado& (0+255),b
  4625                           
  4626                           ;main.c: 155:             i = 0;
  4627   00188E  0E00               	movlw	0
  4628   001890  6E79               	movwf	_i^0,c
  4629                           
  4630                           ;main.c: 156:             duty_LCD1_TECLADO = ' ';
  4631   001892  0E20               	movlw	32
  4632   001894  6E7A               	movwf	_duty_LCD1_TECLADO^0,c
  4633                           
  4634                           ;main.c: 157:             duty_LCD2_TECLADO = ' ';
  4635   001896  0E20               	movlw	32
  4636   001898  6FF4               	movwf	_duty_LCD2_TECLADO& (0+255),b
  4637                           
  4638                           ;main.c: 158:             duty_LCD3_TECLADO = ' ';
  4639   00189A  0E20               	movlw	32
  4640   00189C  6FF3               	movwf	_duty_LCD3_TECLADO& (0+255),b
  4641                           
  4642                           ;main.c: 159:             duty_LCD4_TECLADO = ' ';
  4643   00189E  0E20               	movlw	32
  4644   0018A0  6FF2               	movwf	_duty_LCD4_TECLADO& (0+255),b
  4645   0018A2                     
  4646                           ; BSR set to: 0
  4647                           ;main.c: 160:             show_to_LCD();
  4648   0018A2  EC63  F019         	call	_show_to_LCD	;wreg free
  4649   0018A6                     
  4650                           ;main.c: 161:             for(int i = 0; i < 3; i++)
  4651   0018A6  0E00               	movlw	0
  4652   0018A8  6E0C               	movwf	(read_keyboard@i+1)^0,c
  4653   0018AA  0E00               	movlw	0
  4654   0018AC  6E0B               	movwf	read_keyboard@i^0,c
  4655   0018AE                     i2l4127:
  4656                           
  4657                           ;main.c: 162:             {;main.c: 163:                 duty_teclado[i] = 0;
  4658   0018AE  90D8               	bcf	status,0,c
  4659   0018B0  340B               	rlcf	read_keyboard@i^0,w,c
  4660   0018B2  6ED9               	movwf	fsr2l,c
  4661   0018B4  340C               	rlcf	(read_keyboard@i+1)^0,w,c
  4662   0018B6  6EDA               	movwf	fsr2h,c
  4663   0018B8  0ECA               	movlw	low _duty_teclado
  4664   0018BA  26D9               	addwf	fsr2l,f,c
  4665   0018BC  0E00               	movlw	high _duty_teclado
  4666   0018BE  22DA               	addwfc	fsr2h,f,c
  4667   0018C0  0E00               	movlw	0
  4668   0018C2  6EDE               	movwf	postinc2,c
  4669   0018C4  0E00               	movlw	0
  4670   0018C6  6EDD               	movwf	postdec2,c
  4671   0018C8                     
  4672                           ;main.c: 164:             }
  4673   0018C8  4A0B               	infsnz	read_keyboard@i^0,f,c
  4674   0018CA  2A0C               	incf	(read_keyboard@i+1)^0,f,c
  4675   0018CC  BE0C               	btfsc	(read_keyboard@i+1)^0,7,c
  4676   0018CE  EF72  F00C         	goto	i2u392_41
  4677   0018D2  500C               	movf	(read_keyboard@i+1)^0,w,c
  4678   0018D4  E109               	bnz	i2u392_40
  4679   0018D6  0E03               	movlw	3
  4680   0018D8  5C0B               	subwf	read_keyboard@i^0,w,c
  4681   0018DA  A0D8               	btfss	status,0,c
  4682   0018DC  EF72  F00C         	goto	i2u392_41
  4683   0018E0  EF74  F00C         	goto	i2u392_40
  4684   0018E4                     i2u392_41:
  4685   0018E4  EF57  F00C         	goto	i2l4127
  4686   0018E8                     i2u392_40:
  4687   0018E8  EF1A  F00D         	goto	i2l451
  4688   0018EC                     i2l453:
  4689                           
  4690                           ; BSR set to: 0
  4691                           ;main.c: 170:                 dado1 = dado;
  4692   0018EC  C078  F0E1         	movff	read_keyboard@dado,_dado1
  4693   0018F0                     
  4694                           ; BSR set to: 0
  4695                           ;main.c: 171:                 duty_teclado[i] = dado1;
  4696   0018F0  51E1               	movf	_dado1& (0+255),w,b
  4697   0018F2  6E09               	movwf	??_read_keyboard^0,c
  4698   0018F4  6A0A               	clrf	(??_read_keyboard+1)^0,c
  4699   0018F6  5079               	movf	_i^0,w,c
  4700   0018F8  0D02               	mullw	2
  4701   0018FA  0ECA               	movlw	low _duty_teclado
  4702   0018FC  24F3               	addwf	243,w,c
  4703   0018FE  6ED9               	movwf	fsr2l,c
  4704   001900  0E00               	movlw	high _duty_teclado
  4705   001902  20F4               	addwfc	prodh,w,c
  4706   001904  6EDA               	movwf	fsr2h,c
  4707   001906  C009  FFDE         	movff	??_read_keyboard,postinc2
  4708   00190A  C00A  FFDD         	movff	??_read_keyboard+1,postdec2
  4709                           
  4710                           ;main.c: 172:                 duty_LCD1_TECLADO = '0' + duty_teclado[i];
  4711   00190E  5079               	movf	_i^0,w,c
  4712   001910  0D02               	mullw	2
  4713   001912  0ECA               	movlw	low _duty_teclado
  4714   001914  24F3               	addwf	243,w,c
  4715   001916  6ED9               	movwf	fsr2l,c
  4716   001918  0E00               	movlw	high _duty_teclado
  4717   00191A  20F4               	addwfc	prodh,w,c
  4718   00191C  6EDA               	movwf	fsr2h,c
  4719   00191E  50DF               	movf	indf2,w,c
  4720   001920  0F30               	addlw	48
  4721   001922  6E7A               	movwf	_duty_LCD1_TECLADO^0,c
  4722                           
  4723                           ;main.c: 173:                 break;
  4724   001924  EF0B  F00D         	goto	i2l4145
  4725   001928                     i2l455:
  4726                           
  4727                           ; BSR set to: 0
  4728                           ;main.c: 176:                 dado2 = dado;
  4729   001928  C078  F0E0         	movff	read_keyboard@dado,_dado2
  4730   00192C                     
  4731                           ; BSR set to: 0
  4732                           ;main.c: 177:                 duty_teclado[i] = dado2;
  4733   00192C  51E0               	movf	_dado2& (0+255),w,b
  4734   00192E  6E09               	movwf	??_read_keyboard^0,c
  4735   001930  6A0A               	clrf	(??_read_keyboard+1)^0,c
  4736   001932  5079               	movf	_i^0,w,c
  4737   001934  0D02               	mullw	2
  4738   001936  0ECA               	movlw	low _duty_teclado
  4739   001938  24F3               	addwf	243,w,c
  4740   00193A  6ED9               	movwf	fsr2l,c
  4741   00193C  0E00               	movlw	high _duty_teclado
  4742   00193E  20F4               	addwfc	prodh,w,c
  4743   001940  6EDA               	movwf	fsr2h,c
  4744   001942  C009  FFDE         	movff	??_read_keyboard,postinc2
  4745   001946  C00A  FFDD         	movff	??_read_keyboard+1,postdec2
  4746                           
  4747                           ;main.c: 178:                 duty_LCD2_TECLADO = '0' + duty_teclado[i];
  4748   00194A  5079               	movf	_i^0,w,c
  4749   00194C  0D02               	mullw	2
  4750   00194E  0ECA               	movlw	low _duty_teclado
  4751   001950  24F3               	addwf	243,w,c
  4752   001952  6ED9               	movwf	fsr2l,c
  4753   001954  0E00               	movlw	high _duty_teclado
  4754   001956  20F4               	addwfc	prodh,w,c
  4755   001958  6EDA               	movwf	fsr2h,c
  4756   00195A  50DF               	movf	indf2,w,c
  4757   00195C  0F30               	addlw	48
  4758   00195E  6FF4               	movwf	_duty_LCD2_TECLADO& (0+255),b
  4759                           
  4760                           ;main.c: 179:                 break;
  4761   001960  EF0B  F00D         	goto	i2l4145
  4762   001964                     i2l456:
  4763                           
  4764                           ; BSR set to: 0
  4765                           ;main.c: 182:                 dado3 = dado;
  4766   001964  C078  F0DF         	movff	read_keyboard@dado,_dado3
  4767   001968                     
  4768                           ; BSR set to: 0
  4769                           ;main.c: 183:                 duty_teclado[i] = dado3;
  4770   001968  51DF               	movf	_dado3& (0+255),w,b
  4771   00196A  6E09               	movwf	??_read_keyboard^0,c
  4772   00196C  6A0A               	clrf	(??_read_keyboard+1)^0,c
  4773   00196E  5079               	movf	_i^0,w,c
  4774   001970  0D02               	mullw	2
  4775   001972  0ECA               	movlw	low _duty_teclado
  4776   001974  24F3               	addwf	243,w,c
  4777   001976  6ED9               	movwf	fsr2l,c
  4778   001978  0E00               	movlw	high _duty_teclado
  4779   00197A  20F4               	addwfc	prodh,w,c
  4780   00197C  6EDA               	movwf	fsr2h,c
  4781   00197E  C009  FFDE         	movff	??_read_keyboard,postinc2
  4782   001982  C00A  FFDD         	movff	??_read_keyboard+1,postdec2
  4783                           
  4784                           ;main.c: 184:                 duty_LCD3_TECLADO = '0' + duty_teclado[i];
  4785   001986  5079               	movf	_i^0,w,c
  4786   001988  0D02               	mullw	2
  4787   00198A  0ECA               	movlw	low _duty_teclado
  4788   00198C  24F3               	addwf	243,w,c
  4789   00198E  6ED9               	movwf	fsr2l,c
  4790   001990  0E00               	movlw	high _duty_teclado
  4791   001992  20F4               	addwfc	prodh,w,c
  4792   001994  6EDA               	movwf	fsr2h,c
  4793   001996  50DF               	movf	indf2,w,c
  4794   001998  0F30               	addlw	48
  4795   00199A  6FF3               	movwf	_duty_LCD3_TECLADO& (0+255),b
  4796                           
  4797                           ;main.c: 185:                 break;
  4798   00199C  EF0B  F00D         	goto	i2l4145
  4799   0019A0                     i2l457:
  4800                           
  4801                           ; BSR set to: 0
  4802                           ;main.c: 188:                 dado4 = dado;
  4803   0019A0  C078  F0DE         	movff	read_keyboard@dado,_dado4
  4804   0019A4                     
  4805                           ; BSR set to: 0
  4806                           ;main.c: 189:                 duty_teclado[i] = dado4;
  4807   0019A4  51DE               	movf	_dado4& (0+255),w,b
  4808   0019A6  6E09               	movwf	??_read_keyboard^0,c
  4809   0019A8  6A0A               	clrf	(??_read_keyboard+1)^0,c
  4810   0019AA  5079               	movf	_i^0,w,c
  4811   0019AC  0D02               	mullw	2
  4812   0019AE  0ECA               	movlw	low _duty_teclado
  4813   0019B0  24F3               	addwf	243,w,c
  4814   0019B2  6ED9               	movwf	fsr2l,c
  4815   0019B4  0E00               	movlw	high _duty_teclado
  4816   0019B6  20F4               	addwfc	prodh,w,c
  4817   0019B8  6EDA               	movwf	fsr2h,c
  4818   0019BA  C009  FFDE         	movff	??_read_keyboard,postinc2
  4819   0019BE  C00A  FFDD         	movff	??_read_keyboard+1,postdec2
  4820                           
  4821                           ;main.c: 190:                 duty_LCD4_TECLADO = '0' + duty_teclado[i];
  4822   0019C2  5079               	movf	_i^0,w,c
  4823   0019C4  0D02               	mullw	2
  4824   0019C6  0ECA               	movlw	low _duty_teclado
  4825   0019C8  24F3               	addwf	243,w,c
  4826   0019CA  6ED9               	movwf	fsr2l,c
  4827   0019CC  0E00               	movlw	high _duty_teclado
  4828   0019CE  20F4               	addwfc	prodh,w,c
  4829   0019D0  6EDA               	movwf	fsr2h,c
  4830   0019D2  50DF               	movf	indf2,w,c
  4831   0019D4  0F30               	addlw	48
  4832   0019D6  6FF2               	movwf	_duty_LCD4_TECLADO& (0+255),b
  4833                           
  4834                           ;main.c: 191:                 break;
  4835   0019D8  EF0B  F00D         	goto	i2l4145
  4836   0019DC                     i2l4143:
  4837                           
  4838                           ; BSR set to: 0
  4839   0019DC  5079               	movf	_i^0,w,c
  4840   0019DE  6E09               	movwf	??_read_keyboard^0,c
  4841   0019E0  6A0A               	clrf	(??_read_keyboard+1)^0,c
  4842                           
  4843                           ; Switch on 2 bytes has been partitioned into a top level switch of size 1, and 1 sub-sw
      +                          itches
  4844                           ; Switch size 1, requested type "simple"
  4845                           ; Number of cases is 1, Range of values is 0 to 0
  4846                           ; switch strategies available:
  4847                           ; Name         Instructions Cycles
  4848                           ; simple_byte            4     3 (average)
  4849                           ;	Chosen strategy is simple_byte
  4850   0019E2  500A               	movf	(??_read_keyboard+1)^0,w,c
  4851   0019E4  0A00               	xorlw	0	; case 0
  4852   0019E6  B4D8               	btfsc	status,2,c
  4853   0019E8  EFF8  F00C         	goto	i2l4613
  4854   0019EC  EF0B  F00D         	goto	i2l4145
  4855   0019F0                     i2l4613:
  4856                           
  4857                           ; BSR set to: 0
  4858                           ; Switch size 1, requested type "simple"
  4859                           ; Number of cases is 4, Range of values is 0 to 3
  4860                           ; switch strategies available:
  4861                           ; Name         Instructions Cycles
  4862                           ; simple_byte           13     7 (average)
  4863                           ;	Chosen strategy is simple_byte
  4864   0019F0  5009               	movf	??_read_keyboard^0,w,c
  4865   0019F2  0A00               	xorlw	0	; case 0
  4866   0019F4  B4D8               	btfsc	status,2,c
  4867   0019F6  EF76  F00C         	goto	i2l453
  4868   0019FA  0A01               	xorlw	1	; case 1
  4869   0019FC  B4D8               	btfsc	status,2,c
  4870   0019FE  EF94  F00C         	goto	i2l455
  4871   001A02  0A03               	xorlw	3	; case 2
  4872   001A04  B4D8               	btfsc	status,2,c
  4873   001A06  EFB2  F00C         	goto	i2l456
  4874   001A0A  0A01               	xorlw	1	; case 3
  4875   001A0C  B4D8               	btfsc	status,2,c
  4876   001A0E  EFD0  F00C         	goto	i2l457
  4877   001A12  EF0B  F00D         	goto	i2l4145
  4878   001A16                     i2l4145:
  4879                           
  4880                           ; BSR set to: 0
  4881                           ;main.c: 195:         if(i > 3) i = 0;
  4882   001A16  0E03               	movlw	3
  4883   001A18  6479               	cpfsgt	_i^0,c
  4884   001A1A  EF11  F00D         	goto	i2u393_41
  4885   001A1E  EF13  F00D         	goto	i2u393_40
  4886   001A22                     i2u393_41:
  4887   001A22  EF17  F00D         	goto	i2l4149
  4888   001A26                     i2u393_40:
  4889   001A26                     
  4890                           ; BSR set to: 0
  4891   001A26  0E00               	movlw	0
  4892   001A28  6E79               	movwf	_i^0,c
  4893   001A2A  EF18  F00D         	goto	i2l4151
  4894   001A2E                     i2l4149:
  4895                           
  4896                           ; BSR set to: 0
  4897   001A2E  2A79               	incf	_i^0,f,c
  4898   001A30                     i2l4151:
  4899                           
  4900                           ;main.c: 199:     memoria_dado = dado;
  4901   001A30  C078  F0DD         	movff	read_keyboard@dado,_memoria_dado
  4902   001A34                     i2l451:
  4903   001A34  0012               	return		;funcret
  4904   001A36                     __end_of_read_keyboard:
  4905                           	callstack 0
  4906                           
  4907 ;; *************** function _show_to_LCD *****************
  4908 ;; Defined at:
  4909 ;;		line 124 in file "main.c"
  4910 ;; Parameters:    Size  Location     Type
  4911 ;;		None
  4912 ;; Auto vars:     Size  Location     Type
  4913 ;;		None
  4914 ;; Return value:  Size  Location     Type
  4915 ;;                  1    wreg      void 
  4916 ;; Registers used:
  4917 ;;		wreg, fsr1l, fsr1h, status,2, status,0, tblptrl, tblptrh, tblptru, cstack
  4918 ;; Tracked objects:
  4919 ;;		On entry : 0/0
  4920 ;;		On exit  : 0/0
  4921 ;;		Unchanged: 0/0
  4922 ;; Data sizes:     COMRAM   BANK0   BANK1   BANK2   BANK3   BANK4   BANK5
  4923 ;;      Params:         0       0       0       0       0       0       0
  4924 ;;      Locals:         0       0       0       0       0       0       0
  4925 ;;      Temps:          0       0       0       0       0       0       0
  4926 ;;      Totals:         0       0       0       0       0       0       0
  4927 ;;Total ram usage:        0 bytes
  4928 ;; Hardware stack levels used: 1
  4929 ;; Hardware stack levels required when called: 3
  4930 ;; This function calls:
  4931 ;;		_lcd_dat
  4932 ;;		_lcd_str
  4933 ;;		i2_lcd_cmd
  4934 ;; This function is called by:
  4935 ;;		_read_keyboard
  4936 ;; This function uses a non-reentrant model
  4937 ;;
  4938                           
  4939                           	psect	text22
  4940   0032C6                     __ptext22:
  4941                           	callstack 0
  4942   0032C6                     _show_to_LCD:
  4943                           	callstack 20
  4944   0032C6                     
  4945                           ;main.c: 133:     lcd_cmd(0x80);
  4946   0032C6  0E80               	movlw	128
  4947   0032C8  ECE3  F019         	call	i2_lcd_cmd
  4948   0032CC                     
  4949                           ;main.c: 134:     lcd_str("    ");
  4950   0032CC  0E19               	movlw	low STR_2
  4951   0032CE  6E03               	movwf	lcd_str@str^0,c
  4952   0032D0  0E06               	movlw	high STR_2
  4953   0032D2  6E04               	movwf	(lcd_str@str+1)^0,c
  4954   0032D4  ECAD  F017         	call	_lcd_str	;wreg free
  4955   0032D8                     
  4956                           ;main.c: 135:     lcd_dat(duty_LCD1_TECLADO);
  4957   0032D8  507A               	movf	_duty_LCD1_TECLADO^0,w,c
  4958   0032DA  ECF4  F019         	call	_lcd_dat
  4959   0032DE                     
  4960                           ;main.c: 136:     lcd_dat(duty_LCD2_TECLADO);
  4961   0032DE  0100               	movlb	0	; () banked
  4962   0032E0  51F4               	movf	_duty_LCD2_TECLADO& (0+255),w,b
  4963   0032E2  ECF4  F019         	call	_lcd_dat
  4964   0032E6                     
  4965                           ;main.c: 137:     lcd_dat(duty_LCD3_TECLADO);
  4966   0032E6  0100               	movlb	0	; () banked
  4967   0032E8  51F3               	movf	_duty_LCD3_TECLADO& (0+255),w,b
  4968   0032EA  ECF4  F019         	call	_lcd_dat
  4969   0032EE                     
  4970                           ;main.c: 138:     lcd_dat(duty_LCD4_TECLADO);
  4971   0032EE  0100               	movlb	0	; () banked
  4972   0032F0  51F2               	movf	_duty_LCD4_TECLADO& (0+255),w,b
  4973   0032F2  ECF4  F019         	call	_lcd_dat
  4974   0032F6  0012               	return		;funcret
  4975   0032F8                     __end_of_show_to_LCD:
  4976                           	callstack 0
  4977                           
  4978 ;; *************** function _ler_teclado *****************
  4979 ;; Defined at:
  4980 ;;		line 15 in file "teclado.c"
  4981 ;; Parameters:    Size  Location     Type
  4982 ;;		None
  4983 ;; Auto vars:     Size  Location     Type
  4984 ;;  i               2    4[COMRAM] int 
  4985 ;;  i               2    2[COMRAM] int 
  4986 ;;  i               2    0[COMRAM] int 
  4987 ;;  entrada         1    7[COMRAM] unsigned char 
  4988 ;;  saida           1    6[COMRAM] unsigned char 
  4989 ;; Return value:  Size  Location     Type
  4990 ;;                  1    wreg      unsigned char 
  4991 ;; Registers used:
  4992 ;;		wreg, status,2, status,0
  4993 ;; Tracked objects:
  4994 ;;		On entry : 0/0
  4995 ;;		On exit  : 0/0
  4996 ;;		Unchanged: 0/0
  4997 ;; Data sizes:     COMRAM   BANK0   BANK1   BANK2   BANK3   BANK4   BANK5
  4998 ;;      Params:         0       0       0       0       0       0       0
  4999 ;;      Locals:         8       0       0       0       0       0       0
  5000 ;;      Temps:          0       0       0       0       0       0       0
  5001 ;;      Totals:         8       0       0       0       0       0       0
  5002 ;;Total ram usage:        8 bytes
  5003 ;; Hardware stack levels used: 1
  5004 ;; This function calls:
  5005 ;;		Nothing
  5006 ;; This function is called by:
  5007 ;;		_read_keyboard
  5008 ;; This function uses a non-reentrant model
  5009 ;;
  5010                           
  5011                           	psect	text23
  5012   0020D4                     __ptext23:
  5013                           	callstack 0
  5014   0020D4                     _ler_teclado:
  5015                           	callstack 23
  5016   0020D4                     
  5017                           ;teclado.c: 18:     uint8_t entrada, saida=16;
  5018   0020D4  0E10               	movlw	16
  5019   0020D6  6E07               	movwf	ler_teclado@saida^0,c
  5020                           
  5021                           ;teclado.c: 20:     TRISB = 0b11111000;
  5022   0020D8  0EF8               	movlw	248
  5023   0020DA  6E93               	movwf	147,c	;volatile
  5024                           
  5025                           ;teclado.c: 21:     TRISD = 0b00001111;
  5026   0020DC  0E0F               	movlw	15
  5027   0020DE  6E95               	movwf	149,c	;volatile
  5028   0020E0                     
  5029                           ;teclado.c: 23:     LATB |= 0b00000111;
  5030   0020E0  0E07               	movlw	7
  5031   0020E2  128A               	iorwf	138,f,c	;volatile
  5032   0020E4                     
  5033                           ;teclado.c: 25:     LATB ^= 0b00000001;
  5034   0020E4  0E01               	movlw	1
  5035   0020E6  1A8A               	xorwf	138,f,c	;volatile
  5036                           
  5037                           ;teclado.c: 26:     for (int i=0; i<10; i++) __nop();
  5038   0020E8  0E00               	movlw	0
  5039   0020EA  6E02               	movwf	(ler_teclado@i+1)^0,c
  5040   0020EC  0E00               	movlw	0
  5041   0020EE  6E01               	movwf	ler_teclado@i^0,c
  5042   0020F0                     i2l491:
  5043   0020F0  F000               	nop	
  5044   0020F2  4A01               	infsnz	ler_teclado@i^0,f,c
  5045   0020F4  2A02               	incf	(ler_teclado@i+1)^0,f,c
  5046   0020F6  BE02               	btfsc	(ler_teclado@i+1)^0,7,c
  5047   0020F8  EF87  F010         	goto	i2u314_41
  5048   0020FC  5002               	movf	(ler_teclado@i+1)^0,w,c
  5049   0020FE  E109               	bnz	i2u314_40
  5050   002100  0E0A               	movlw	10
  5051   002102  5C01               	subwf	ler_teclado@i^0,w,c
  5052   002104  A0D8               	btfss	status,0,c
  5053   002106  EF87  F010         	goto	i2u314_41
  5054   00210A  EF89  F010         	goto	i2u314_40
  5055   00210E                     i2u314_41:
  5056   00210E  EF78  F010         	goto	i2l491
  5057   002112                     i2u314_40:
  5058   002112                     
  5059                           ;teclado.c: 27:     entrada = PORTD;
  5060   002112  CF83 F008          	movff	3971,ler_teclado@entrada	;volatile
  5061                           
  5062                           ;teclado.c: 29:     if ((entrada & 1) == 0) saida=10;
  5063   002116  B008               	btfsc	ler_teclado@entrada^0,0,c
  5064   002118  EF90  F010         	goto	i2u315_41
  5065   00211C  EF92  F010         	goto	i2u315_40
  5066   002120                     i2u315_41:
  5067   002120  EF94  F010         	goto	i2l3583
  5068   002124                     i2u315_40:
  5069   002124  0E0A               	movlw	10
  5070   002126  6E07               	movwf	ler_teclado@saida^0,c
  5071   002128                     i2l3583:
  5072                           
  5073                           ;teclado.c: 30:     if ((entrada & 2) == 0) saida=7;
  5074   002128  B208               	btfsc	ler_teclado@entrada^0,1,c
  5075   00212A  EF99  F010         	goto	i2u316_41
  5076   00212E  EF9B  F010         	goto	i2u316_40
  5077   002132                     i2u316_41:
  5078   002132  EF9D  F010         	goto	i2l3587
  5079   002136                     i2u316_40:
  5080   002136  0E07               	movlw	7
  5081   002138  6E07               	movwf	ler_teclado@saida^0,c
  5082   00213A                     i2l3587:
  5083                           
  5084                           ;teclado.c: 31:     if ((entrada & 4) == 0) saida=4;
  5085   00213A  B408               	btfsc	ler_teclado@entrada^0,2,c
  5086   00213C  EFA2  F010         	goto	i2u317_41
  5087   002140  EFA4  F010         	goto	i2u317_40
  5088   002144                     i2u317_41:
  5089   002144  EFA6  F010         	goto	i2l3591
  5090   002148                     i2u317_40:
  5091   002148  0E04               	movlw	4
  5092   00214A  6E07               	movwf	ler_teclado@saida^0,c
  5093   00214C                     i2l3591:
  5094                           
  5095                           ;teclado.c: 32:     if ((entrada & 8) == 0) saida=1;
  5096   00214C  B608               	btfsc	ler_teclado@entrada^0,3,c
  5097   00214E  EFAB  F010         	goto	i2u318_41
  5098   002152  EFAD  F010         	goto	i2u318_40
  5099   002156                     i2u318_41:
  5100   002156  EFAF  F010         	goto	i2l3595
  5101   00215A                     i2u318_40:
  5102   00215A  0E01               	movlw	1
  5103   00215C  6E07               	movwf	ler_teclado@saida^0,c
  5104   00215E                     i2l3595:
  5105                           
  5106                           ;teclado.c: 34:     LATB ^= 0b00000011;
  5107   00215E  0E03               	movlw	3
  5108   002160  1A8A               	xorwf	138,f,c	;volatile
  5109   002162                     
  5110                           ;teclado.c: 35:     for (int i=0; i<10; i++) __nop();
  5111   002162  0E00               	movlw	0
  5112   002164  6E04               	movwf	(ler_teclado@i_429+1)^0,c
  5113   002166  0E00               	movlw	0
  5114   002168  6E03               	movwf	ler_teclado@i_429^0,c
  5115   00216A                     i2l497:
  5116   00216A  F000               	nop	
  5117   00216C  4A03               	infsnz	ler_teclado@i_429^0,f,c
  5118   00216E  2A04               	incf	(ler_teclado@i_429+1)^0,f,c
  5119   002170  BE04               	btfsc	(ler_teclado@i_429+1)^0,7,c
  5120   002172  EFC4  F010         	goto	i2u319_41
  5121   002176  5004               	movf	(ler_teclado@i_429+1)^0,w,c
  5122   002178  E109               	bnz	i2u319_40
  5123   00217A  0E0A               	movlw	10
  5124   00217C  5C03               	subwf	ler_teclado@i_429^0,w,c
  5125   00217E  A0D8               	btfss	status,0,c
  5126   002180  EFC4  F010         	goto	i2u319_41
  5127   002184  EFC6  F010         	goto	i2u319_40
  5128   002188                     i2u319_41:
  5129   002188  EFB5  F010         	goto	i2l497
  5130   00218C                     i2u319_40:
  5131   00218C                     
  5132                           ;teclado.c: 36:     entrada = PORTD;
  5133   00218C  CF83 F008          	movff	3971,ler_teclado@entrada	;volatile
  5134                           
  5135                           ;teclado.c: 38:     if ((entrada & 1) == 0) saida=0;
  5136   002190  B008               	btfsc	ler_teclado@entrada^0,0,c
  5137   002192  EFCD  F010         	goto	i2u320_41
  5138   002196  EFCF  F010         	goto	i2u320_40
  5139   00219A                     i2u320_41:
  5140   00219A  EFD1  F010         	goto	i2l3607
  5141   00219E                     i2u320_40:
  5142   00219E  0E00               	movlw	0
  5143   0021A0  6E07               	movwf	ler_teclado@saida^0,c
  5144   0021A2                     i2l3607:
  5145                           
  5146                           ;teclado.c: 39:     if ((entrada & 2) == 0) saida=8;
  5147   0021A2  B208               	btfsc	ler_teclado@entrada^0,1,c
  5148   0021A4  EFD6  F010         	goto	i2u321_41
  5149   0021A8  EFD8  F010         	goto	i2u321_40
  5150   0021AC                     i2u321_41:
  5151   0021AC  EFDA  F010         	goto	i2l3611
  5152   0021B0                     i2u321_40:
  5153   0021B0  0E08               	movlw	8
  5154   0021B2  6E07               	movwf	ler_teclado@saida^0,c
  5155   0021B4                     i2l3611:
  5156                           
  5157                           ;teclado.c: 40:     if ((entrada & 4) == 0) saida=5;
  5158   0021B4  B408               	btfsc	ler_teclado@entrada^0,2,c
  5159   0021B6  EFDF  F010         	goto	i2u322_41
  5160   0021BA  EFE1  F010         	goto	i2u322_40
  5161   0021BE                     i2u322_41:
  5162   0021BE  EFE3  F010         	goto	i2l3615
  5163   0021C2                     i2u322_40:
  5164   0021C2  0E05               	movlw	5
  5165   0021C4  6E07               	movwf	ler_teclado@saida^0,c
  5166   0021C6                     i2l3615:
  5167                           
  5168                           ;teclado.c: 41:     if ((entrada & 8) == 0) saida=2;
  5169   0021C6  B608               	btfsc	ler_teclado@entrada^0,3,c
  5170   0021C8  EFE8  F010         	goto	i2u323_41
  5171   0021CC  EFEA  F010         	goto	i2u323_40
  5172   0021D0                     i2u323_41:
  5173   0021D0  EFEC  F010         	goto	i2l3619
  5174   0021D4                     i2u323_40:
  5175   0021D4  0E02               	movlw	2
  5176   0021D6  6E07               	movwf	ler_teclado@saida^0,c
  5177   0021D8                     i2l3619:
  5178                           
  5179                           ;teclado.c: 43:     LATB ^= 0b00000110;
  5180   0021D8  0E06               	movlw	6
  5181   0021DA  1A8A               	xorwf	138,f,c	;volatile
  5182   0021DC                     
  5183                           ;teclado.c: 44:     for (int i=0; i<10; i++) __nop();
  5184   0021DC  0E00               	movlw	0
  5185   0021DE  6E06               	movwf	(ler_teclado@i_430+1)^0,c
  5186   0021E0  0E00               	movlw	0
  5187   0021E2  6E05               	movwf	ler_teclado@i_430^0,c
  5188   0021E4                     i2l503:
  5189   0021E4  F000               	nop	
  5190   0021E6  4A05               	infsnz	ler_teclado@i_430^0,f,c
  5191   0021E8  2A06               	incf	(ler_teclado@i_430+1)^0,f,c
  5192   0021EA  BE06               	btfsc	(ler_teclado@i_430+1)^0,7,c
  5193   0021EC  EF01  F011         	goto	i2u324_41
  5194   0021F0  5006               	movf	(ler_teclado@i_430+1)^0,w,c
  5195   0021F2  E109               	bnz	i2u324_40
  5196   0021F4  0E0A               	movlw	10
  5197   0021F6  5C05               	subwf	ler_teclado@i_430^0,w,c
  5198   0021F8  A0D8               	btfss	status,0,c
  5199   0021FA  EF01  F011         	goto	i2u324_41
  5200   0021FE  EF03  F011         	goto	i2u324_40
  5201   002202                     i2u324_41:
  5202   002202  EFF2  F010         	goto	i2l503
  5203   002206                     i2u324_40:
  5204   002206                     
  5205                           ;teclado.c: 45:     entrada = PORTD;
  5206   002206  CF83 F008          	movff	3971,ler_teclado@entrada	;volatile
  5207                           
  5208                           ;teclado.c: 47:     if ((entrada & 1) == 0) saida=11;
  5209   00220A  B008               	btfsc	ler_teclado@entrada^0,0,c
  5210   00220C  EF0A  F011         	goto	i2u325_41
  5211   002210  EF0C  F011         	goto	i2u325_40
  5212   002214                     i2u325_41:
  5213   002214  EF0E  F011         	goto	i2l3631
  5214   002218                     i2u325_40:
  5215   002218  0E0B               	movlw	11
  5216   00221A  6E07               	movwf	ler_teclado@saida^0,c
  5217   00221C                     i2l3631:
  5218                           
  5219                           ;teclado.c: 48:     if ((entrada & 2) == 0) saida=9;
  5220   00221C  B208               	btfsc	ler_teclado@entrada^0,1,c
  5221   00221E  EF13  F011         	goto	i2u326_41
  5222   002222  EF15  F011         	goto	i2u326_40
  5223   002226                     i2u326_41:
  5224   002226  EF17  F011         	goto	i2l3635
  5225   00222A                     i2u326_40:
  5226   00222A  0E09               	movlw	9
  5227   00222C  6E07               	movwf	ler_teclado@saida^0,c
  5228   00222E                     i2l3635:
  5229                           
  5230                           ;teclado.c: 49:     if ((entrada & 4) == 0) saida=6;
  5231   00222E  B408               	btfsc	ler_teclado@entrada^0,2,c
  5232   002230  EF1C  F011         	goto	i2u327_41
  5233   002234  EF1E  F011         	goto	i2u327_40
  5234   002238                     i2u327_41:
  5235   002238  EF20  F011         	goto	i2l3639
  5236   00223C                     i2u327_40:
  5237   00223C  0E06               	movlw	6
  5238   00223E  6E07               	movwf	ler_teclado@saida^0,c
  5239   002240                     i2l3639:
  5240                           
  5241                           ;teclado.c: 50:     if ((entrada & 8) == 0) saida=3;
  5242   002240  B608               	btfsc	ler_teclado@entrada^0,3,c
  5243   002242  EF25  F011         	goto	i2u328_41
  5244   002246  EF27  F011         	goto	i2u328_40
  5245   00224A                     i2u328_41:
  5246   00224A  EF29  F011         	goto	i2l3643
  5247   00224E                     i2u328_40:
  5248   00224E  0E03               	movlw	3
  5249   002250  6E07               	movwf	ler_teclado@saida^0,c
  5250   002252                     i2l3643:
  5251                           
  5252                           ;teclado.c: 52:     TRISB = 0b11111111;
  5253   002252  6893               	setf	147,c	;volatile
  5254                           
  5255                           ;teclado.c: 53:     TRISD = 0b00000000;
  5256   002254  0E00               	movlw	0
  5257   002256  6E95               	movwf	149,c	;volatile
  5258                           
  5259                           ;teclado.c: 55:     return saida;
  5260   002258  5007               	movf	ler_teclado@saida^0,w,c
  5261   00225A  0012               	return		;funcret
  5262   00225C                     __end_of_ler_teclado:
  5263                           	callstack 0
  5264                           
  5265 ;; *************** function _read_keyb *****************
  5266 ;; Defined at:
  5267 ;;		line 66 in file "main.c"
  5268 ;; Parameters:    Size  Location     Type
  5269 ;;		None
  5270 ;; Auto vars:     Size  Location     Type
  5271 ;;  dado            1  116[COMRAM] unsigned char 
  5272 ;;  dado_RB5        1  115[COMRAM] unsigned char 
  5273 ;;  dado_RB4        1  114[COMRAM] unsigned char 
  5274 ;;  dado_RB3        1  113[COMRAM] unsigned char 
  5275 ;; Return value:  Size  Location     Type
  5276 ;;                  1    wreg      void 
  5277 ;; Registers used:
  5278 ;;		wreg, fsr1l, fsr1h, fsr2l, fsr2h, status,2, status,0, tblptrl, tblptrh, tblptru, prodl, prodh, cstack
  5279 ;; Tracked objects:
  5280 ;;		On entry : 0/0
  5281 ;;		On exit  : 0/0
  5282 ;;		Unchanged: 0/0
  5283 ;; Data sizes:     COMRAM   BANK0   BANK1   BANK2   BANK3   BANK4   BANK5
  5284 ;;      Params:         0       0       0       0       0       0       0
  5285 ;;      Locals:         4       0       0       0       0       0       0
  5286 ;;      Temps:          0       0       0       0       0       0       0
  5287 ;;      Totals:         4       0       0       0       0       0       0
  5288 ;;Total ram usage:        4 bytes
  5289 ;; Hardware stack levels used: 1
  5290 ;; Hardware stack levels required when called: 9
  5291 ;; This function calls:
  5292 ;;		_f_int0
  5293 ;;		_f_int1
  5294 ;;		_f_int2
  5295 ;; This function is called by:
  5296 ;;		_f_timers
  5297 ;; This function uses a non-reentrant model
  5298 ;;
  5299                           
  5300                           	psect	text24
  5301   002CAA                     __ptext24:
  5302                           	callstack 0
  5303   002CAA                     _read_keyb:
  5304                           	callstack 15
  5305   002CAA                     
  5306                           ;main.c: 68:     uint8_t dado, dado_RB3, dado_RB4, dado_RB5;;main.c: 70:     static uint
      +                          8_t m_dado_RB3 = 1, m_dado_RB4 = 1, m_dado_RB5 = 1;;main.c: 72:     dado = PORTB;
  5307   002CAA  CF81 F075          	movff	3969,read_keyb@dado	;volatile
  5308                           
  5309                           ;main.c: 75:     if (dado & 0b00001000)
  5310   002CAE  A675               	btfss	read_keyb@dado^0,3,c
  5311   002CB0  EF5C  F016         	goto	i2u394_41
  5312   002CB4  EF5E  F016         	goto	i2u394_40
  5313   002CB8                     i2u394_41:
  5314   002CB8  EF62  F016         	goto	i2l4163
  5315   002CBC                     i2u394_40:
  5316   002CBC                     
  5317                           ;main.c: 76:     {;main.c: 77:         dado_RB3 = 1;
  5318   002CBC  0E01               	movlw	1
  5319   002CBE  6E72               	movwf	read_keyb@dado_RB3^0,c
  5320                           
  5321                           ;main.c: 78:     }
  5322   002CC0  EF64  F016         	goto	i2l4165
  5323   002CC4                     i2l4163:
  5324                           
  5325                           ;main.c: 80:     {;main.c: 81:         dado_RB3 = 0;
  5326   002CC4  0E00               	movlw	0
  5327   002CC6  6E72               	movwf	read_keyb@dado_RB3^0,c
  5328   002CC8                     i2l4165:
  5329                           
  5330                           ;main.c: 83:     if (dado & 0b00010000)
  5331   002CC8  A875               	btfss	read_keyb@dado^0,4,c
  5332   002CCA  EF69  F016         	goto	i2u395_41
  5333   002CCE  EF6B  F016         	goto	i2u395_40
  5334   002CD2                     i2u395_41:
  5335   002CD2  EF6F  F016         	goto	i2l4169
  5336   002CD6                     i2u395_40:
  5337   002CD6                     
  5338                           ;main.c: 84:     {;main.c: 85:         dado_RB4 = 1;
  5339   002CD6  0E01               	movlw	1
  5340   002CD8  6E73               	movwf	read_keyb@dado_RB4^0,c
  5341                           
  5342                           ;main.c: 86:     }
  5343   002CDA  EF71  F016         	goto	i2l4171
  5344   002CDE                     i2l4169:
  5345                           
  5346                           ;main.c: 89:     {;main.c: 90:         dado_RB4 = 0;
  5347   002CDE  0E00               	movlw	0
  5348   002CE0  6E73               	movwf	read_keyb@dado_RB4^0,c
  5349   002CE2                     i2l4171:
  5350                           
  5351                           ;main.c: 93:     if (dado & 0b00100000)
  5352   002CE2  AA75               	btfss	read_keyb@dado^0,5,c
  5353   002CE4  EF76  F016         	goto	i2u396_41
  5354   002CE8  EF78  F016         	goto	i2u396_40
  5355   002CEC                     i2u396_41:
  5356   002CEC  EF7C  F016         	goto	i2l4175
  5357   002CF0                     i2u396_40:
  5358   002CF0                     
  5359                           ;main.c: 94:     {;main.c: 95:         dado_RB5 = 1;
  5360   002CF0  0E01               	movlw	1
  5361   002CF2  6E74               	movwf	read_keyb@dado_RB5^0,c
  5362                           
  5363                           ;main.c: 96:     }
  5364   002CF4  EF7E  F016         	goto	i2l4177
  5365   002CF8                     i2l4175:
  5366                           
  5367                           ;main.c: 99:     {;main.c: 100:         dado_RB5=0;
  5368   002CF8  0E00               	movlw	0
  5369   002CFA  6E74               	movwf	read_keyb@dado_RB5^0,c
  5370   002CFC                     i2l4177:
  5371                           
  5372                           ;main.c: 103:     if (dado_RB3< m_dado_RB3)
  5373   002CFC  0100               	movlb	0	; () banked
  5374   002CFE  51F1               	movf	read_keyb@m_dado_RB3& (0+255),w,b
  5375   002D00  5C72               	subwf	read_keyb@dado_RB3^0,w,c
  5376   002D02  B0D8               	btfsc	status,0,c
  5377   002D04  EF86  F016         	goto	i2u397_41
  5378   002D08  EF88  F016         	goto	i2u397_40
  5379   002D0C                     i2u397_41:
  5380   002D0C  EF8A  F016         	goto	i2l4181
  5381   002D10                     i2u397_40:
  5382   002D10                     
  5383                           ; BSR set to: 0
  5384                           ;main.c: 104:     {;main.c: 105:         f_int0();
  5385   002D10  EC7C  F019         	call	_f_int0	;wreg free
  5386   002D14                     i2l4181:
  5387                           
  5388                           ;main.c: 108:     if (dado_RB4 < m_dado_RB4)
  5389   002D14  0100               	movlb	0	; () banked
  5390   002D16  51F0               	movf	read_keyb@m_dado_RB4& (0+255),w,b
  5391   002D18  5C73               	subwf	read_keyb@dado_RB4^0,w,c
  5392   002D1A  B0D8               	btfsc	status,0,c
  5393   002D1C  EF92  F016         	goto	i2u398_41
  5394   002D20  EF94  F016         	goto	i2u398_40
  5395   002D24                     i2u398_41:
  5396   002D24  EF96  F016         	goto	i2l4185
  5397   002D28                     i2u398_40:
  5398   002D28                     
  5399                           ; BSR set to: 0
  5400                           ;main.c: 109:     {;main.c: 110:         f_int1();
  5401   002D28  ECA3  F015         	call	_f_int1	;wreg free
  5402   002D2C                     i2l4185:
  5403                           
  5404                           ;main.c: 113:     if (dado_RB5 < m_dado_RB5)
  5405   002D2C  0100               	movlb	0	; () banked
  5406   002D2E  51EF               	movf	read_keyb@m_dado_RB5& (0+255),w,b
  5407   002D30  5C74               	subwf	read_keyb@dado_RB5^0,w,c
  5408   002D32  B0D8               	btfsc	status,0,c
  5409   002D34  EF9E  F016         	goto	i2u399_41
  5410   002D38  EFA0  F016         	goto	i2u399_40
  5411   002D3C                     i2u399_41:
  5412   002D3C  EFA2  F016         	goto	i2l4189
  5413   002D40                     i2u399_40:
  5414   002D40                     
  5415                           ; BSR set to: 0
  5416                           ;main.c: 114:     {;main.c: 115:         f_int2();
  5417   002D40  EC9E  F00F         	call	_f_int2	;wreg free
  5418   002D44                     i2l4189:
  5419                           
  5420                           ;main.c: 119:     m_dado_RB3 = dado_RB3;
  5421   002D44  C072  F0F1         	movff	read_keyb@dado_RB3,read_keyb@m_dado_RB3
  5422   002D48                     
  5423                           ;main.c: 120:     m_dado_RB4 = dado_RB4;
  5424   002D48  C073  F0F0         	movff	read_keyb@dado_RB4,read_keyb@m_dado_RB4
  5425   002D4C                     
  5426                           ;main.c: 121:     m_dado_RB5 = dado_RB5;
  5427   002D4C  C074  F0EF         	movff	read_keyb@dado_RB5,read_keyb@m_dado_RB5
  5428   002D50  0012               	return		;funcret
  5429   002D52                     __end_of_read_keyb:
  5430                           	callstack 0
  5431                           
  5432 ;; *************** function _f_int2 *****************
  5433 ;; Defined at:
  5434 ;;		line 220 in file "main.c"
  5435 ;; Parameters:    Size  Location     Type
  5436 ;;		None
  5437 ;; Auto vars:     Size  Location     Type
  5438 ;;		None
  5439 ;; Return value:  Size  Location     Type
  5440 ;;                  1    wreg      void 
  5441 ;; Registers used:
  5442 ;;		wreg, fsr1l, fsr1h, fsr2l, fsr2h, status,2, status,0, tblptrl, tblptrh, tblptru, prodl, prodh, cstack
  5443 ;; Tracked objects:
  5444 ;;		On entry : 0/0
  5445 ;;		On exit  : 0/0
  5446 ;;		Unchanged: 0/0
  5447 ;; Data sizes:     COMRAM   BANK0   BANK1   BANK2   BANK3   BANK4   BANK5
  5448 ;;      Params:         0       0       0       0       0       0       0
  5449 ;;      Locals:         0       0       0       0       0       0       0
  5450 ;;      Temps:          6       0       0       0       0       0       0
  5451 ;;      Totals:         6       0       0       0       0       0       0
  5452 ;;Total ram usage:        6 bytes
  5453 ;; Hardware stack levels used: 1
  5454 ;; Hardware stack levels required when called: 8
  5455 ;; This function calls:
  5456 ;;		___wmul
  5457 ;;		_f_pwm
  5458 ;;		_lcd_str
  5459 ;;		_sprintf
  5460 ;;		i2___fldiv
  5461 ;;		i2___flmul
  5462 ;;		i2___fltol
  5463 ;;		i2___xxtofl
  5464 ;;		i2_lcd_cmd
  5465 ;; This function is called by:
  5466 ;;		_read_keyb
  5467 ;; This function uses a non-reentrant model
  5468 ;;
  5469                           
  5470                           	psect	text25
  5471   001F3C                     __ptext25:
  5472                           	callstack 0
  5473   001F3C                     _f_int2:
  5474                           	callstack 15
  5475   001F3C                     
  5476                           ;main.c: 222:     static uint16_t duty_normalized = 0;;main.c: 223:     lcd_cmd(0x01);
  5477   001F3C  0E01               	movlw	1
  5478   001F3E  ECE3  F019         	call	i2_lcd_cmd
  5479                           
  5480                           ;main.c: 224:     lcd_cmd(0x80);
  5481   001F42  0E80               	movlw	128
  5482   001F44  ECE3  F019         	call	i2_lcd_cmd
  5483   001F48                     
  5484                           ;main.c: 225:     if(duty_LCD1_TECLADO == ' ' && duty_LCD2_TECLADO == ' ' && duty_LCD3_T
      +                          ECLADO == ' ' && duty_LCD4_TECLADO == ' ')
  5485   001F48  0E20               	movlw	32
  5486   001F4A  187A               	xorwf	_duty_LCD1_TECLADO^0,w,c
  5487   001F4C  A4D8               	btfss	status,2,c
  5488   001F4E  EFAB  F00F         	goto	i2u309_41
  5489   001F52  EFAD  F00F         	goto	i2u309_40
  5490   001F56                     i2u309_41:
  5491   001F56  EFCB  F00F         	goto	i2l3539
  5492   001F5A                     i2u309_40:
  5493   001F5A  0E20               	movlw	32
  5494   001F5C  0100               	movlb	0	; () banked
  5495   001F5E  19F4               	xorwf	_duty_LCD2_TECLADO& (0+255),w,b
  5496   001F60  A4D8               	btfss	status,2,c
  5497   001F62  EFB5  F00F         	goto	i2u310_41
  5498   001F66  EFB7  F00F         	goto	i2u310_40
  5499   001F6A                     i2u310_41:
  5500   001F6A  EFCB  F00F         	goto	i2l3539
  5501   001F6E                     i2u310_40:
  5502   001F6E                     
  5503                           ; BSR set to: 0
  5504   001F6E  0E20               	movlw	32
  5505   001F70  19F3               	xorwf	_duty_LCD3_TECLADO& (0+255),w,b
  5506   001F72  A4D8               	btfss	status,2,c
  5507   001F74  EFBE  F00F         	goto	i2u311_41
  5508   001F78  EFC0  F00F         	goto	i2u311_40
  5509   001F7C                     i2u311_41:
  5510   001F7C  EFCB  F00F         	goto	i2l3539
  5511   001F80                     i2u311_40:
  5512   001F80                     
  5513                           ; BSR set to: 0
  5514   001F80  0E20               	movlw	32
  5515   001F82  19F2               	xorwf	_duty_LCD4_TECLADO& (0+255),w,b
  5516   001F84  A4D8               	btfss	status,2,c
  5517   001F86  EFC7  F00F         	goto	i2u312_41
  5518   001F8A  EFC9  F00F         	goto	i2u312_40
  5519   001F8E                     i2u312_41:
  5520   001F8E  EFCB  F00F         	goto	i2l3539
  5521   001F92                     i2u312_40:
  5522   001F92  EF69  F010         	goto	i2l471
  5523   001F96                     i2l3539:
  5524                           
  5525                           ;main.c: 229:     duty_normalized = duty_teclado[0]*1000 + duty_teclado[1]*100 + duty_te
      +                          clado[2]*10 + duty_teclado[3];
  5526   001F96  C0CA  F001         	movff	_duty_teclado,___wmul@multiplier
  5527   001F9A  C0CB  F002         	movff	_duty_teclado+1,___wmul@multiplier+1
  5528   001F9E  0E03               	movlw	3
  5529   001FA0  6E04               	movwf	(___wmul@multiplicand+1)^0,c
  5530   001FA2  0EE8               	movlw	232
  5531   001FA4  6E03               	movwf	___wmul@multiplicand^0,c
  5532   001FA6  ECD0  F019         	call	___wmul	;wreg free
  5533   001FAA  C001  F06C         	movff	?___wmul,??_f_int2
  5534   001FAE  C002  F06D         	movff	?___wmul+1,??_f_int2+1
  5535   001FB2  C0CC  F001         	movff	_duty_teclado+2,___wmul@multiplier
  5536   001FB6  C0CD  F002         	movff	_duty_teclado+3,___wmul@multiplier+1
  5537   001FBA  0E00               	movlw	0
  5538   001FBC  6E04               	movwf	(___wmul@multiplicand+1)^0,c
  5539   001FBE  0E64               	movlw	100
  5540   001FC0  6E03               	movwf	___wmul@multiplicand^0,c
  5541   001FC2  ECD0  F019         	call	___wmul	;wreg free
  5542   001FC6  5001               	movf	?___wmul^0,w,c
  5543   001FC8  246C               	addwf	??_f_int2^0,w,c
  5544   001FCA  6E6E               	movwf	(??_f_int2+2)^0,c
  5545   001FCC  5002               	movf	(?___wmul+1)^0,w,c
  5546   001FCE  206D               	addwfc	(??_f_int2+1)^0,w,c
  5547   001FD0  6E6F               	movwf	(??_f_int2+3)^0,c
  5548   001FD2  C0CE  F001         	movff	_duty_teclado+4,___wmul@multiplier
  5549   001FD6  C0CF  F002         	movff	_duty_teclado+5,___wmul@multiplier+1
  5550   001FDA  0E00               	movlw	0
  5551   001FDC  6E04               	movwf	(___wmul@multiplicand+1)^0,c
  5552   001FDE  0E0A               	movlw	10
  5553   001FE0  6E03               	movwf	___wmul@multiplicand^0,c
  5554   001FE2  ECD0  F019         	call	___wmul	;wreg free
  5555   001FE6  5001               	movf	?___wmul^0,w,c
  5556   001FE8  246E               	addwf	(??_f_int2+2)^0,w,c
  5557   001FEA  6E70               	movwf	(??_f_int2+4)^0,c
  5558   001FEC  5002               	movf	(?___wmul+1)^0,w,c
  5559   001FEE  206F               	addwfc	(??_f_int2+3)^0,w,c
  5560   001FF0  6E71               	movwf	(??_f_int2+5)^0,c
  5561   001FF2  0100               	movlb	0	; () banked
  5562   001FF4  51D0               	movf	(_duty_teclado+6)& (0+255),w,b
  5563   001FF6  2470               	addwf	(??_f_int2+4)^0,w,c
  5564   001FF8  0101               	movlb	1	; () banked
  5565   001FFA  6F3D               	movwf	f_int2@duty_normalized& (0+255),b
  5566   001FFC  0100               	movlb	0	; () banked
  5567   001FFE  51D1               	movf	(_duty_teclado+7)& (0+255),w,b
  5568   002000  2071               	addwfc	(??_f_int2+5)^0,w,c
  5569   002002  0101               	movlb	1	; () banked
  5570   002004  6F3E               	movwf	(f_int2@duty_normalized+1)& (0+255),b
  5571   002006                     
  5572                           ; BSR set to: 1
  5573                           ;main.c: 230:     pwm_ventoinha = duty_normalized;
  5574   002006  C13D  F0D8         	movff	f_int2@duty_normalized,_pwm_ventoinha
  5575   00200A  C13E  F0D9         	movff	f_int2@duty_normalized+1,_pwm_ventoinha+1
  5576   00200E                     
  5577                           ; BSR set to: 1
  5578                           ;main.c: 231:     if(pwm_ventoinha < 1024)
  5579   00200E  0E04               	movlw	4
  5580   002010  0100               	movlb	0	; () banked
  5581   002012  5DD9               	subwf	(_pwm_ventoinha+1)& (0+255),w,b
  5582   002014  B0D8               	btfsc	status,0,c
  5583   002016  EF0F  F010         	goto	i2u313_41
  5584   00201A  EF11  F010         	goto	i2u313_40
  5585   00201E                     i2u313_41:
  5586   00201E  EF17  F010         	goto	i2l3547
  5587   002022                     i2u313_40:
  5588   002022                     
  5589                           ; BSR set to: 0
  5590                           ;main.c: 232:         f_pwm(pwm_ventoinha);
  5591   002022  C0D8  F001         	movff	_pwm_ventoinha,f_pwm@duty
  5592   002026  C0D9  F002         	movff	_pwm_ventoinha+1,f_pwm@duty+1
  5593   00202A  EC94  F019         	call	_f_pwm	;wreg free
  5594   00202E                     i2l3547:
  5595                           
  5596                           ;main.c: 233:     porcentagem = (pwm_ventoinha * 100.0) / 1023.0;
  5597   00202E  0E00               	movlw	0
  5598   002030  6E2C               	movwf	i2___fldiv@a^0,c
  5599   002032  0EC0               	movlw	192
  5600   002034  6E2D               	movwf	(i2___fldiv@a+1)^0,c
  5601   002036  0E7F               	movlw	127
  5602   002038  6E2E               	movwf	(i2___fldiv@a+2)^0,c
  5603   00203A  0E44               	movlw	68
  5604   00203C  6E2F               	movwf	(i2___fldiv@a+3)^0,c
  5605   00203E  0E00               	movlw	0
  5606   002040  6E13               	movwf	i2___flmul@a^0,c
  5607   002042  0E00               	movlw	0
  5608   002044  6E14               	movwf	(i2___flmul@a+1)^0,c
  5609   002046  0EC8               	movlw	200
  5610   002048  6E15               	movwf	(i2___flmul@a+2)^0,c
  5611   00204A  0E42               	movlw	66
  5612   00204C  6E16               	movwf	(i2___flmul@a+3)^0,c
  5613   00204E  C0D8  F001         	movff	_pwm_ventoinha,i2___xxtofl@val
  5614   002052  C0D9  F002         	movff	_pwm_ventoinha+1,i2___xxtofl@val+1
  5615   002056  6A03               	clrf	(i2___xxtofl@val+2)^0,c
  5616   002058  6A04               	clrf	(i2___xxtofl@val+3)^0,c
  5617   00205A  0E00               	movlw	0
  5618   00205C  ECF7  F00D         	call	i2___xxtofl
  5619   002060  C001  F00F         	movff	?i2___xxtofl,i2___flmul@b
  5620   002064  C002  F010         	movff	?i2___xxtofl+1,i2___flmul@b+1
  5621   002068  C003  F011         	movff	?i2___xxtofl+2,i2___flmul@b+2
  5622   00206C  C004  F012         	movff	?i2___xxtofl+3,i2___flmul@b+3
  5623   002070  EC26  F005         	call	i2___flmul	;wreg free
  5624   002074  C00F  F028         	movff	?i2___flmul,i2___fldiv@b
  5625   002078  C010  F029         	movff	?i2___flmul+1,i2___fldiv@b+1
  5626   00207C  C011  F02A         	movff	?i2___flmul+2,i2___fldiv@b+2
  5627   002080  C012  F02B         	movff	?i2___flmul+3,i2___fldiv@b+3
  5628   002084  EC09  F009         	call	i2___fldiv	;wreg free
  5629   002088  C028  F041         	movff	?i2___fldiv,i2___fltol@f1
  5630   00208C  C029  F042         	movff	?i2___fldiv+1,i2___fltol@f1+1
  5631   002090  C02A  F043         	movff	?i2___fldiv+2,i2___fltol@f1+2
  5632   002094  C02B  F044         	movff	?i2___fldiv+3,i2___fltol@f1+3
  5633   002098  ECC1  F013         	call	i2___fltol	;wreg free
  5634   00209C  C041  F0D6         	movff	?i2___fltol,_porcentagem
  5635   0020A0  C042  F0D7         	movff	?i2___fltol+1,_porcentagem+1
  5636   0020A4                     
  5637                           ;main.c: 234:     lcd_cmd(0xC0);
  5638   0020A4  0EC0               	movlw	192
  5639   0020A6  ECE3  F019         	call	i2_lcd_cmd
  5640   0020AA                     
  5641                           ;main.c: 235:     sprintf(buffer, "    %d%%", porcentagem);
  5642   0020AA  0E65               	movlw	low _buffer
  5643   0020AC  6E59               	movwf	sprintf@s^0,c
  5644   0020AE  0E01               	movlw	high _buffer
  5645   0020B0  6E5A               	movwf	(sprintf@s+1)^0,c
  5646   0020B2  0E01               	movlw	low STR_4
  5647   0020B4  6E5B               	movwf	sprintf@fmt^0,c
  5648   0020B6  0E06               	movlw	high STR_4
  5649   0020B8  6E5C               	movwf	(sprintf@fmt+1)^0,c
  5650   0020BA  C0D6  F05D         	movff	_porcentagem,?_sprintf+4
  5651   0020BE  C0D7  F05E         	movff	_porcentagem+1,?_sprintf+5
  5652   0020C2  ECB5  F018         	call	_sprintf	;wreg free
  5653   0020C6                     
  5654                           ;main.c: 236:     lcd_str(buffer);
  5655   0020C6  0E65               	movlw	low _buffer
  5656   0020C8  6E03               	movwf	lcd_str@str^0,c
  5657   0020CA  0E01               	movlw	high _buffer
  5658   0020CC  6E04               	movwf	(lcd_str@str+1)^0,c
  5659   0020CE  ECAD  F017         	call	_lcd_str	;wreg free
  5660   0020D2                     i2l471:
  5661   0020D2  0012               	return		;funcret
  5662   0020D4                     __end_of_f_int2:
  5663                           	callstack 0
  5664                           
  5665 ;; *************** function ___wmul *****************
  5666 ;; Defined at:
  5667 ;;		line 15 in file "C:\Program Files\Microchip\xc8\v2.40\pic\sources\c99\common\Umul16.c"
  5668 ;; Parameters:    Size  Location     Type
  5669 ;;  multiplier      2    0[COMRAM] unsigned int 
  5670 ;;  multiplicand    2    2[COMRAM] unsigned int 
  5671 ;; Auto vars:     Size  Location     Type
  5672 ;;  product         2    4[COMRAM] unsigned int 
  5673 ;; Return value:  Size  Location     Type
  5674 ;;                  2    0[COMRAM] unsigned int 
  5675 ;; Registers used:
  5676 ;;		wreg, status,2, status,0, prodl, prodh
  5677 ;; Tracked objects:
  5678 ;;		On entry : 0/0
  5679 ;;		On exit  : 0/0
  5680 ;;		Unchanged: 0/0
  5681 ;; Data sizes:     COMRAM   BANK0   BANK1   BANK2   BANK3   BANK4   BANK5
  5682 ;;      Params:         4       0       0       0       0       0       0
  5683 ;;      Locals:         2       0       0       0       0       0       0
  5684 ;;      Temps:          0       0       0       0       0       0       0
  5685 ;;      Totals:         6       0       0       0       0       0       0
  5686 ;;Total ram usage:        6 bytes
  5687 ;; Hardware stack levels used: 1
  5688 ;; This function calls:
  5689 ;;		Nothing
  5690 ;; This function is called by:
  5691 ;;		_f_int2
  5692 ;; This function uses a non-reentrant model
  5693 ;;
  5694                           
  5695                           	psect	text26
  5696   0033A0                     __ptext26:
  5697                           	callstack 0
  5698   0033A0                     ___wmul:
  5699                           	callstack 22
  5700   0033A0  5001               	movf	___wmul@multiplier^0,w,c
  5701   0033A2  0203               	mulwf	___wmul@multiplicand^0,c
  5702   0033A4  CFF3 F005          	movff	prodl,___wmul@product
  5703   0033A8  CFF4 F006          	movff	prodh,___wmul@product+1
  5704   0033AC  5001               	movf	___wmul@multiplier^0,w,c
  5705   0033AE  0204               	mulwf	(___wmul@multiplicand+1)^0,c
  5706   0033B0  50F3               	movf	243,w,c
  5707   0033B2  2606               	addwf	(___wmul@product+1)^0,f,c
  5708   0033B4  5002               	movf	(___wmul@multiplier+1)^0,w,c
  5709   0033B6  0203               	mulwf	___wmul@multiplicand^0,c
  5710   0033B8  50F3               	movf	243,w,c
  5711   0033BA  2606               	addwf	(___wmul@product+1)^0,f,c
  5712   0033BC  C005  F001         	movff	___wmul@product,?___wmul
  5713   0033C0  C006  F002         	movff	___wmul@product+1,?___wmul+1
  5714   0033C4  0012               	return		;funcret
  5715   0033C6                     __end_of___wmul:
  5716                           	callstack 0
  5717                           
  5718 ;; *************** function _f_int1 *****************
  5719 ;; Defined at:
  5720 ;;		line 211 in file "main.c"
  5721 ;; Parameters:    Size  Location     Type
  5722 ;;		None
  5723 ;; Auto vars:     Size  Location     Type
  5724 ;;		None
  5725 ;; Return value:  Size  Location     Type
  5726 ;;                  1    wreg      void 
  5727 ;; Registers used:
  5728 ;;		wreg, fsr1l, fsr1h, fsr2l, fsr2h, status,2, status,0, tblptrl, tblptrh, tblptru, prodl, prodh, cstack
  5729 ;; Tracked objects:
  5730 ;;		On entry : 0/0
  5731 ;;		On exit  : 0/0
  5732 ;;		Unchanged: 0/0
  5733 ;; Data sizes:     COMRAM   BANK0   BANK1   BANK2   BANK3   BANK4   BANK5
  5734 ;;      Params:         0       0       0       0       0       0       0
  5735 ;;      Locals:         0       0       0       0       0       0       0
  5736 ;;      Temps:          0       0       0       0       0       0       0
  5737 ;;      Totals:         0       0       0       0       0       0       0
  5738 ;;Total ram usage:        0 bytes
  5739 ;; Hardware stack levels used: 1
  5740 ;; Hardware stack levels required when called: 8
  5741 ;; This function calls:
  5742 ;;		_f_pwm
  5743 ;;		_lcd_str
  5744 ;;		_sprintf
  5745 ;;		i2___fldiv
  5746 ;;		i2___flmul
  5747 ;;		i2___fltol
  5748 ;;		i2___xxtofl
  5749 ;;		i2_lcd_cmd
  5750 ;; This function is called by:
  5751 ;;		_read_keyb
  5752 ;; This function uses a non-reentrant model
  5753 ;;
  5754                           
  5755                           	psect	text27
  5756   002B46                     __ptext27:
  5757                           	callstack 0
  5758   002B46                     _f_int1:
  5759                           	callstack 15
  5760   002B46                     
  5761                           ;main.c: 213:     porcentagem = (pwm_aux * 100.0) / 1023.0;
  5762   002B46  0E00               	movlw	0
  5763   002B48  6E2C               	movwf	i2___fldiv@a^0,c
  5764   002B4A  0EC0               	movlw	192
  5765   002B4C  6E2D               	movwf	(i2___fldiv@a+1)^0,c
  5766   002B4E  0E7F               	movlw	127
  5767   002B50  6E2E               	movwf	(i2___fldiv@a+2)^0,c
  5768   002B52  0E44               	movlw	68
  5769   002B54  6E2F               	movwf	(i2___fldiv@a+3)^0,c
  5770   002B56  0E00               	movlw	0
  5771   002B58  6E13               	movwf	i2___flmul@a^0,c
  5772   002B5A  0E00               	movlw	0
  5773   002B5C  6E14               	movwf	(i2___flmul@a+1)^0,c
  5774   002B5E  0EC8               	movlw	200
  5775   002B60  6E15               	movwf	(i2___flmul@a+2)^0,c
  5776   002B62  0E42               	movlw	66
  5777   002B64  6E16               	movwf	(i2___flmul@a+3)^0,c
  5778   002B66  C0D4  F001         	movff	_pwm_aux,i2___xxtofl@val
  5779   002B6A  C0D5  F002         	movff	_pwm_aux+1,i2___xxtofl@val+1
  5780   002B6E  6A03               	clrf	(i2___xxtofl@val+2)^0,c
  5781   002B70  6A04               	clrf	(i2___xxtofl@val+3)^0,c
  5782   002B72  0E00               	movlw	0
  5783   002B74  ECF7  F00D         	call	i2___xxtofl
  5784   002B78  C001  F00F         	movff	?i2___xxtofl,i2___flmul@b
  5785   002B7C  C002  F010         	movff	?i2___xxtofl+1,i2___flmul@b+1
  5786   002B80  C003  F011         	movff	?i2___xxtofl+2,i2___flmul@b+2
  5787   002B84  C004  F012         	movff	?i2___xxtofl+3,i2___flmul@b+3
  5788   002B88  EC26  F005         	call	i2___flmul	;wreg free
  5789   002B8C  C00F  F028         	movff	?i2___flmul,i2___fldiv@b
  5790   002B90  C010  F029         	movff	?i2___flmul+1,i2___fldiv@b+1
  5791   002B94  C011  F02A         	movff	?i2___flmul+2,i2___fldiv@b+2
  5792   002B98  C012  F02B         	movff	?i2___flmul+3,i2___fldiv@b+3
  5793   002B9C  EC09  F009         	call	i2___fldiv	;wreg free
  5794   002BA0  C028  F041         	movff	?i2___fldiv,i2___fltol@f1
  5795   002BA4  C029  F042         	movff	?i2___fldiv+1,i2___fltol@f1+1
  5796   002BA8  C02A  F043         	movff	?i2___fldiv+2,i2___fltol@f1+2
  5797   002BAC  C02B  F044         	movff	?i2___fldiv+3,i2___fltol@f1+3
  5798   002BB0  ECC1  F013         	call	i2___fltol	;wreg free
  5799   002BB4  C041  F0D6         	movff	?i2___fltol,_porcentagem
  5800   002BB8  C042  F0D7         	movff	?i2___fltol+1,_porcentagem+1
  5801   002BBC                     
  5802                           ;main.c: 214:     f_pwm(pwm_aux);
  5803   002BBC  C0D4  F001         	movff	_pwm_aux,f_pwm@duty
  5804   002BC0  C0D5  F002         	movff	_pwm_aux+1,f_pwm@duty+1
  5805   002BC4  EC94  F019         	call	_f_pwm	;wreg free
  5806   002BC8                     
  5807                           ;main.c: 215:     lcd_cmd(0xC0);
  5808   002BC8  0EC0               	movlw	192
  5809   002BCA  ECE3  F019         	call	i2_lcd_cmd
  5810   002BCE                     
  5811                           ;main.c: 216:     sprintf(buffer, "    %d%%", porcentagem);
  5812   002BCE  0E65               	movlw	low _buffer
  5813   002BD0  6E59               	movwf	sprintf@s^0,c
  5814   002BD2  0E01               	movlw	high _buffer
  5815   002BD4  6E5A               	movwf	(sprintf@s+1)^0,c
  5816   002BD6  0E01               	movlw	low STR_4
  5817   002BD8  6E5B               	movwf	sprintf@fmt^0,c
  5818   002BDA  0E06               	movlw	high STR_4
  5819   002BDC  6E5C               	movwf	(sprintf@fmt+1)^0,c
  5820   002BDE  C0D6  F05D         	movff	_porcentagem,?_sprintf+4
  5821   002BE2  C0D7  F05E         	movff	_porcentagem+1,?_sprintf+5
  5822   002BE6  ECB5  F018         	call	_sprintf	;wreg free
  5823   002BEA                     
  5824                           ;main.c: 217:     lcd_str(buffer);
  5825   002BEA  0E65               	movlw	low _buffer
  5826   002BEC  6E03               	movwf	lcd_str@str^0,c
  5827   002BEE  0E01               	movlw	high _buffer
  5828   002BF0  6E04               	movwf	(lcd_str@str+1)^0,c
  5829   002BF2  ECAD  F017         	call	_lcd_str	;wreg free
  5830   002BF6  0012               	return		;funcret
  5831   002BF8                     __end_of_f_int1:
  5832                           	callstack 0
  5833                           
  5834 ;; *************** function i2___xxtofl *****************
  5835 ;; Defined at:
  5836 ;;		line 10 in file "C:\Program Files\Microchip\xc8\v2.40\pic\sources\c99\common\xxtofl.c"
  5837 ;; Parameters:    Size  Location     Type
  5838 ;;  sign            1    wreg     unsigned char 
  5839 ;;  val             4    0[COMRAM] long 
  5840 ;; Auto vars:     Size  Location     Type
  5841 ;;  sign            1    8[COMRAM] unsigned char 
  5842 ;;  arg             4   10[COMRAM] unsigned long 
  5843 ;;  exp             1    9[COMRAM] unsigned char 
  5844 ;; Return value:  Size  Location     Type
  5845 ;;                  4    0[COMRAM] unsigned char 
  5846 ;; Registers used:
  5847 ;;		wreg, status,2, status,0
  5848 ;; Tracked objects:
  5849 ;;		On entry : 0/0
  5850 ;;		On exit  : 0/0
  5851 ;;		Unchanged: 0/0
  5852 ;; Data sizes:     COMRAM   BANK0   BANK1   BANK2   BANK3   BANK4   BANK5
  5853 ;;      Params:         4       0       0       0       0       0       0
  5854 ;;      Locals:         6       0       0       0       0       0       0
  5855 ;;      Temps:          4       0       0       0       0       0       0
  5856 ;;      Totals:        14       0       0       0       0       0       0
  5857 ;;Total ram usage:       14 bytes
  5858 ;; Hardware stack levels used: 1
  5859 ;; This function calls:
  5860 ;;		Nothing
  5861 ;; This function is called by:
  5862 ;;		_f_int1
  5863 ;;		_f_int2
  5864 ;; This function uses a non-reentrant model
  5865 ;;
  5866                           
  5867                           	psect	text28
  5868   001BEE                     __ptext28:
  5869                           	callstack 0
  5870   001BEE                     i2___xxtofl:
  5871                           	callstack 22
  5872                           
  5873                           ;incstack = 0
  5874                           ;i2___xxtofl@sign stored from wreg
  5875   001BEE  6E09               	movwf	i2___xxtofl@sign^0,c
  5876   001BF0  5009               	movf	i2___xxtofl@sign^0,w,c
  5877   001BF2  B4D8               	btfsc	status,2,c
  5878   001BF4  EFFE  F00D         	goto	i2u299_41
  5879   001BF8  EF00  F00E         	goto	i2u299_40
  5880   001BFC                     i2u299_41:
  5881   001BFC  EF22  F00E         	goto	i2l1167
  5882   001C00                     i2u299_40:
  5883   001C00  BE04               	btfsc	(i2___xxtofl@val+3)^0,7,c
  5884   001C02  EF07  F00E         	goto	i2u300_40
  5885   001C06  EF05  F00E         	goto	i2u300_41
  5886   001C0A                     i2u300_41:
  5887   001C0A  EF22  F00E         	goto	i2l1167
  5888   001C0E                     i2u300_40:
  5889   001C0E  C001  F005         	movff	i2___xxtofl@val,??i2___xxtofl
  5890   001C12  C002  F006         	movff	i2___xxtofl@val+1,??i2___xxtofl+1
  5891   001C16  C003  F007         	movff	i2___xxtofl@val+2,??i2___xxtofl+2
  5892   001C1A  C004  F008         	movff	i2___xxtofl@val+3,??i2___xxtofl+3
  5893   001C1E  1E05               	comf	??i2___xxtofl^0,f,c
  5894   001C20  1E06               	comf	(??i2___xxtofl+1)^0,f,c
  5895   001C22  1E07               	comf	(??i2___xxtofl+2)^0,f,c
  5896   001C24  1E08               	comf	(??i2___xxtofl+3)^0,f,c
  5897   001C26  2A05               	incf	??i2___xxtofl^0,f,c
  5898   001C28  0E00               	movlw	0
  5899   001C2A  2206               	addwfc	(??i2___xxtofl+1)^0,f,c
  5900   001C2C  2207               	addwfc	(??i2___xxtofl+2)^0,f,c
  5901   001C2E  2208               	addwfc	(??i2___xxtofl+3)^0,f,c
  5902   001C30  C005  F00B         	movff	??i2___xxtofl,i2___xxtofl@arg
  5903   001C34  C006  F00C         	movff	??i2___xxtofl+1,i2___xxtofl@arg+1
  5904   001C38  C007  F00D         	movff	??i2___xxtofl+2,i2___xxtofl@arg+2
  5905   001C3C  C008  F00E         	movff	??i2___xxtofl+3,i2___xxtofl@arg+3
  5906   001C40  EF2A  F00E         	goto	i2l3451
  5907   001C44                     i2l1167:
  5908   001C44  C001  F00B         	movff	i2___xxtofl@val,i2___xxtofl@arg
  5909   001C48  C002  F00C         	movff	i2___xxtofl@val+1,i2___xxtofl@arg+1
  5910   001C4C  C003  F00D         	movff	i2___xxtofl@val+2,i2___xxtofl@arg+2
  5911   001C50  C004  F00E         	movff	i2___xxtofl@val+3,i2___xxtofl@arg+3
  5912   001C54                     i2l3451:
  5913   001C54  5001               	movf	i2___xxtofl@val^0,w,c
  5914   001C56  1002               	iorwf	(i2___xxtofl@val+1)^0,w,c
  5915   001C58  1003               	iorwf	(i2___xxtofl@val+2)^0,w,c
  5916   001C5A  1004               	iorwf	(i2___xxtofl@val+3)^0,w,c
  5917   001C5C  A4D8               	btfss	status,2,c
  5918   001C5E  EF33  F00E         	goto	i2u301_41
  5919   001C62  EF35  F00E         	goto	i2u301_40
  5920   001C66                     i2u301_41:
  5921   001C66  EF3F  F00E         	goto	i2l3457
  5922   001C6A                     i2u301_40:
  5923   001C6A  0E00               	movlw	0
  5924   001C6C  6E01               	movwf	?i2___xxtofl^0,c
  5925   001C6E  0E00               	movlw	0
  5926   001C70  6E02               	movwf	(?i2___xxtofl+1)^0,c
  5927   001C72  0E00               	movlw	0
  5928   001C74  6E03               	movwf	(?i2___xxtofl+2)^0,c
  5929   001C76  0E00               	movlw	0
  5930   001C78  6E04               	movwf	(?i2___xxtofl+3)^0,c
  5931   001C7A  EFD0  F00E         	goto	i2l1170
  5932   001C7E                     i2l3457:
  5933   001C7E  0E96               	movlw	150
  5934   001C80  6E0A               	movwf	i2___xxtofl@exp^0,c
  5935   001C82  EF49  F00E         	goto	i2l3461
  5936   001C86                     i2l3459:
  5937   001C86  2A0A               	incf	i2___xxtofl@exp^0,f,c
  5938   001C88  90D8               	bcf	status,0,c
  5939   001C8A  320E               	rrcf	(i2___xxtofl@arg+3)^0,f,c
  5940   001C8C  320D               	rrcf	(i2___xxtofl@arg+2)^0,f,c
  5941   001C8E  320C               	rrcf	(i2___xxtofl@arg+1)^0,f,c
  5942   001C90  320B               	rrcf	i2___xxtofl@arg^0,f,c
  5943   001C92                     i2l3461:
  5944   001C92  0E00               	movlw	0
  5945   001C94  140B               	andwf	i2___xxtofl@arg^0,w,c
  5946   001C96  6E05               	movwf	??i2___xxtofl^0,c
  5947   001C98  0E00               	movlw	0
  5948   001C9A  140C               	andwf	(i2___xxtofl@arg+1)^0,w,c
  5949   001C9C  6E06               	movwf	(??i2___xxtofl+1)^0,c
  5950   001C9E  0E00               	movlw	0
  5951   001CA0  140D               	andwf	(i2___xxtofl@arg+2)^0,w,c
  5952   001CA2  6E07               	movwf	(??i2___xxtofl+2)^0,c
  5953   001CA4  0EFE               	movlw	254
  5954   001CA6  140E               	andwf	(i2___xxtofl@arg+3)^0,w,c
  5955   001CA8  6E08               	movwf	(??i2___xxtofl+3)^0,c
  5956   001CAA  5005               	movf	??i2___xxtofl^0,w,c
  5957   001CAC  1006               	iorwf	(??i2___xxtofl+1)^0,w,c
  5958   001CAE  1007               	iorwf	(??i2___xxtofl+2)^0,w,c
  5959   001CB0  1008               	iorwf	(??i2___xxtofl+3)^0,w,c
  5960   001CB2  A4D8               	btfss	status,2,c
  5961   001CB4  EF5E  F00E         	goto	i2u302_41
  5962   001CB8  EF60  F00E         	goto	i2u302_40
  5963   001CBC                     i2u302_41:
  5964   001CBC  EF43  F00E         	goto	i2l3459
  5965   001CC0                     i2u302_40:
  5966   001CC0  EF6E  F00E         	goto	i2l1174
  5967   001CC4                     i2l3463:
  5968   001CC4  2A0A               	incf	i2___xxtofl@exp^0,f,c
  5969   001CC6  0E01               	movlw	1
  5970   001CC8  260B               	addwf	i2___xxtofl@arg^0,f,c
  5971   001CCA  0E00               	movlw	0
  5972   001CCC  220C               	addwfc	(i2___xxtofl@arg+1)^0,f,c
  5973   001CCE  220D               	addwfc	(i2___xxtofl@arg+2)^0,f,c
  5974   001CD0  220E               	addwfc	(i2___xxtofl@arg+3)^0,f,c
  5975   001CD2  90D8               	bcf	status,0,c
  5976   001CD4  320E               	rrcf	(i2___xxtofl@arg+3)^0,f,c
  5977   001CD6  320D               	rrcf	(i2___xxtofl@arg+2)^0,f,c
  5978   001CD8  320C               	rrcf	(i2___xxtofl@arg+1)^0,f,c
  5979   001CDA  320B               	rrcf	i2___xxtofl@arg^0,f,c
  5980   001CDC                     i2l1174:
  5981   001CDC  0E00               	movlw	0
  5982   001CDE  140B               	andwf	i2___xxtofl@arg^0,w,c
  5983   001CE0  6E05               	movwf	??i2___xxtofl^0,c
  5984   001CE2  0E00               	movlw	0
  5985   001CE4  140C               	andwf	(i2___xxtofl@arg+1)^0,w,c
  5986   001CE6  6E06               	movwf	(??i2___xxtofl+1)^0,c
  5987   001CE8  0E00               	movlw	0
  5988   001CEA  140D               	andwf	(i2___xxtofl@arg+2)^0,w,c
  5989   001CEC  6E07               	movwf	(??i2___xxtofl+2)^0,c
  5990   001CEE  0EFF               	movlw	255
  5991   001CF0  140E               	andwf	(i2___xxtofl@arg+3)^0,w,c
  5992   001CF2  6E08               	movwf	(??i2___xxtofl+3)^0,c
  5993   001CF4  5005               	movf	??i2___xxtofl^0,w,c
  5994   001CF6  1006               	iorwf	(??i2___xxtofl+1)^0,w,c
  5995   001CF8  1007               	iorwf	(??i2___xxtofl+2)^0,w,c
  5996   001CFA  1008               	iorwf	(??i2___xxtofl+3)^0,w,c
  5997   001CFC  A4D8               	btfss	status,2,c
  5998   001CFE  EF83  F00E         	goto	i2u303_41
  5999   001D02  EF85  F00E         	goto	i2u303_40
  6000   001D06                     i2u303_41:
  6001   001D06  EF62  F00E         	goto	i2l3463
  6002   001D0A                     i2u303_40:
  6003   001D0A  EF8D  F00E         	goto	i2l3471
  6004   001D0E                     i2l3469:
  6005   001D0E  060A               	decf	i2___xxtofl@exp^0,f,c
  6006   001D10  90D8               	bcf	status,0,c
  6007   001D12  360B               	rlcf	i2___xxtofl@arg^0,f,c
  6008   001D14  360C               	rlcf	(i2___xxtofl@arg+1)^0,f,c
  6009   001D16  360D               	rlcf	(i2___xxtofl@arg+2)^0,f,c
  6010   001D18  360E               	rlcf	(i2___xxtofl@arg+3)^0,f,c
  6011   001D1A                     i2l3471:
  6012   001D1A  BE0D               	btfsc	(i2___xxtofl@arg+2)^0,7,c
  6013   001D1C  EF92  F00E         	goto	i2u304_41
  6014   001D20  EF94  F00E         	goto	i2u304_40
  6015   001D24                     i2u304_41:
  6016   001D24  EF9C  F00E         	goto	i2l1181
  6017   001D28                     i2u304_40:
  6018   001D28  0E02               	movlw	2
  6019   001D2A  600A               	cpfslt	i2___xxtofl@exp^0,c
  6020   001D2C  EF9A  F00E         	goto	i2u305_41
  6021   001D30  EF9C  F00E         	goto	i2u305_40
  6022   001D34                     i2u305_41:
  6023   001D34  EF87  F00E         	goto	i2l3469
  6024   001D38                     i2u305_40:
  6025   001D38                     i2l1181:
  6026   001D38  B00A               	btfsc	i2___xxtofl@exp^0,0,c
  6027   001D3A  EFA1  F00E         	goto	i2u306_41
  6028   001D3E  EFA3  F00E         	goto	i2u306_40
  6029   001D42                     i2u306_41:
  6030   001D42  EFA4  F00E         	goto	i2l3477
  6031   001D46                     i2u306_40:
  6032   001D46  9E0D               	bcf	(i2___xxtofl@arg+2)^0,7,c
  6033   001D48                     i2l3477:
  6034   001D48  90D8               	bcf	status,0,c
  6035   001D4A  320A               	rrcf	i2___xxtofl@exp^0,f,c
  6036   001D4C  C00A  F005         	movff	i2___xxtofl@exp,??i2___xxtofl
  6037   001D50  6A06               	clrf	(??i2___xxtofl+1)^0,c
  6038   001D52  6A07               	clrf	(??i2___xxtofl+2)^0,c
  6039   001D54  6A08               	clrf	(??i2___xxtofl+3)^0,c
  6040   001D56  C005  F008         	movff	??i2___xxtofl,??i2___xxtofl+3
  6041   001D5A  6A07               	clrf	(??i2___xxtofl+2)^0,c
  6042   001D5C  6A06               	clrf	(??i2___xxtofl+1)^0,c
  6043   001D5E  6A05               	clrf	??i2___xxtofl^0,c
  6044   001D60  5005               	movf	??i2___xxtofl^0,w,c
  6045   001D62  120B               	iorwf	i2___xxtofl@arg^0,f,c
  6046   001D64  5006               	movf	(??i2___xxtofl+1)^0,w,c
  6047   001D66  120C               	iorwf	(i2___xxtofl@arg+1)^0,f,c
  6048   001D68  5007               	movf	(??i2___xxtofl+2)^0,w,c
  6049   001D6A  120D               	iorwf	(i2___xxtofl@arg+2)^0,f,c
  6050   001D6C  5008               	movf	(??i2___xxtofl+3)^0,w,c
  6051   001D6E  120E               	iorwf	(i2___xxtofl@arg+3)^0,f,c
  6052   001D70  5009               	movf	i2___xxtofl@sign^0,w,c
  6053   001D72  B4D8               	btfsc	status,2,c
  6054   001D74  EFBE  F00E         	goto	i2u307_41
  6055   001D78  EFC0  F00E         	goto	i2u307_40
  6056   001D7C                     i2u307_41:
  6057   001D7C  EFC8  F00E         	goto	i2l3487
  6058   001D80                     i2u307_40:
  6059   001D80  BE04               	btfsc	(i2___xxtofl@val+3)^0,7,c
  6060   001D82  EFC7  F00E         	goto	i2u308_40
  6061   001D86  EFC5  F00E         	goto	i2u308_41
  6062   001D8A                     i2u308_41:
  6063   001D8A  EFC8  F00E         	goto	i2l3487
  6064   001D8E                     i2u308_40:
  6065   001D8E  8E0E               	bsf	(i2___xxtofl@arg+3)^0,7,c
  6066   001D90                     i2l3487:
  6067   001D90  C00B  F001         	movff	i2___xxtofl@arg,?i2___xxtofl
  6068   001D94  C00C  F002         	movff	i2___xxtofl@arg+1,?i2___xxtofl+1
  6069   001D98  C00D  F003         	movff	i2___xxtofl@arg+2,?i2___xxtofl+2
  6070   001D9C  C00E  F004         	movff	i2___xxtofl@arg+3,?i2___xxtofl+3
  6071   001DA0                     i2l1170:
  6072   001DA0  0012               	return		;funcret
  6073   001DA2                     __end_ofi2___xxtofl:
  6074                           	callstack 0
  6075                           
  6076 ;; *************** function i2___fltol *****************
  6077 ;; Defined at:
  6078 ;;		line 43 in file "C:\Program Files\Microchip\xc8\v2.40\pic\sources\c99\common\fltol.c"
  6079 ;; Parameters:    Size  Location     Type
  6080 ;;  f1              4   64[COMRAM] unsigned char 
  6081 ;; Auto vars:     Size  Location     Type
  6082 ;;  exp1            1   73[COMRAM] unsigned char 
  6083 ;;  sign1           1   72[COMRAM] unsigned char 
  6084 ;; Return value:  Size  Location     Type
  6085 ;;                  4   64[COMRAM] long 
  6086 ;; Registers used:
  6087 ;;		wreg, status,2, status,0
  6088 ;; Tracked objects:
  6089 ;;		On entry : 0/0
  6090 ;;		On exit  : 0/0
  6091 ;;		Unchanged: 0/0
  6092 ;; Data sizes:     COMRAM   BANK0   BANK1   BANK2   BANK3   BANK4   BANK5
  6093 ;;      Params:         4       0       0       0       0       0       0
  6094 ;;      Locals:         2       0       0       0       0       0       0
  6095 ;;      Temps:          4       0       0       0       0       0       0
  6096 ;;      Totals:        10       0       0       0       0       0       0
  6097 ;;Total ram usage:       10 bytes
  6098 ;; Hardware stack levels used: 1
  6099 ;; This function calls:
  6100 ;;		Nothing
  6101 ;; This function is called by:
  6102 ;;		_f_int1
  6103 ;;		_f_int2
  6104 ;; This function uses a non-reentrant model
  6105 ;;
  6106                           
  6107                           	psect	text29
  6108   002782                     __ptext29:
  6109                           	callstack 0
  6110   002782                     i2___fltol:
  6111                           	callstack 22
  6112   002782  3443               	rlcf	(i2___fltol@f1+2)^0,w,c
  6113   002784  3444               	rlcf	(i2___fltol@f1+3)^0,w,c
  6114   002786  6E4A               	movwf	i2___fltol@exp1^0,c
  6115   002788  504A               	movf	i2___fltol@exp1^0,w,c
  6116   00278A  A4D8               	btfss	status,2,c
  6117   00278C  EFCA  F013         	goto	i2u250_41
  6118   002790  EFCC  F013         	goto	i2u250_40
  6119   002794                     i2u250_41:
  6120   002794  EFD6  F013         	goto	i2l3139
  6121   002798                     i2u250_40:
  6122   002798                     i2l3135:
  6123   002798  0E00               	movlw	0
  6124   00279A  6E41               	movwf	?i2___fltol^0,c
  6125   00279C  0E00               	movlw	0
  6126   00279E  6E42               	movwf	(?i2___fltol+1)^0,c
  6127   0027A0  0E00               	movlw	0
  6128   0027A2  6E43               	movwf	(?i2___fltol+2)^0,c
  6129   0027A4  0E00               	movlw	0
  6130   0027A6  6E44               	movwf	(?i2___fltol+3)^0,c
  6131   0027A8  EF43  F014         	goto	i2l809
  6132   0027AC                     i2l3139:
  6133   0027AC  C041  F045         	movff	i2___fltol@f1,??i2___fltol
  6134   0027B0  C042  F046         	movff	i2___fltol@f1+1,??i2___fltol+1
  6135   0027B4  C043  F047         	movff	i2___fltol@f1+2,??i2___fltol+2
  6136   0027B8  C044  F048         	movff	i2___fltol@f1+3,??i2___fltol+3
  6137   0027BC  0E20               	movlw	32
  6138   0027BE  EFE6  F013         	goto	i2u251_40
  6139   0027C2                     i2u251_45:
  6140   0027C2  90D8               	bcf	status,0,c
  6141   0027C4  3248               	rrcf	(??i2___fltol+3)^0,f,c
  6142   0027C6  3247               	rrcf	(??i2___fltol+2)^0,f,c
  6143   0027C8  3246               	rrcf	(??i2___fltol+1)^0,f,c
  6144   0027CA  3245               	rrcf	??i2___fltol^0,f,c
  6145   0027CC                     i2u251_40:
  6146   0027CC  2EE8               	decfsz	wreg,f,c
  6147   0027CE  EFE1  F013         	goto	i2u251_45
  6148   0027D2  5045               	movf	??i2___fltol^0,w,c
  6149   0027D4  6E49               	movwf	i2___fltol@sign1^0,c
  6150   0027D6  8E43               	bsf	(i2___fltol@f1+2)^0,7,c
  6151   0027D8  0EFF               	movlw	255
  6152   0027DA  1641               	andwf	i2___fltol@f1^0,f,c
  6153   0027DC  0EFF               	movlw	255
  6154   0027DE  1642               	andwf	(i2___fltol@f1+1)^0,f,c
  6155   0027E0  0EFF               	movlw	255
  6156   0027E2  1643               	andwf	(i2___fltol@f1+2)^0,f,c
  6157   0027E4  0E00               	movlw	0
  6158   0027E6  1644               	andwf	(i2___fltol@f1+3)^0,f,c
  6159   0027E8  0E96               	movlw	150
  6160   0027EA  5E4A               	subwf	i2___fltol@exp1^0,f,c
  6161   0027EC  BE4A               	btfsc	i2___fltol@exp1^0,7,c
  6162   0027EE  EFFD  F013         	goto	i2u252_40
  6163   0027F2  EFFB  F013         	goto	i2u252_41
  6164   0027F6                     i2u252_41:
  6165   0027F6  EF13  F014         	goto	i2l3159
  6166   0027FA                     i2u252_40:
  6167   0027FA  504A               	movf	i2___fltol@exp1^0,w,c
  6168   0027FC  0A80               	xorlw	128
  6169   0027FE  0F97               	addlw	151
  6170   002800  B0D8               	btfsc	status,0,c
  6171   002802  EF05  F014         	goto	i2u253_41
  6172   002806  EF07  F014         	goto	i2u253_40
  6173   00280A                     i2u253_41:
  6174   00280A  EF09  F014         	goto	i2l3155
  6175   00280E                     i2u253_40:
  6176   00280E  EFCC  F013         	goto	i2l3135
  6177   002812                     i2l3155:
  6178   002812  90D8               	bcf	status,0,c
  6179   002814  3244               	rrcf	(i2___fltol@f1+3)^0,f,c
  6180   002816  3243               	rrcf	(i2___fltol@f1+2)^0,f,c
  6181   002818  3242               	rrcf	(i2___fltol@f1+1)^0,f,c
  6182   00281A  3241               	rrcf	i2___fltol@f1^0,f,c
  6183   00281C  3E4A               	incfsz	i2___fltol@exp1^0,f,c
  6184   00281E  EF09  F014         	goto	i2l3155
  6185   002822  EF2B  F014         	goto	i2l3169
  6186   002826                     i2l3159:
  6187   002826  0E1F               	movlw	31
  6188   002828  644A               	cpfsgt	i2___fltol@exp1^0,c
  6189   00282A  EF19  F014         	goto	i2u254_41
  6190   00282E  EF1B  F014         	goto	i2u254_40
  6191   002832                     i2u254_41:
  6192   002832  EF23  F014         	goto	i2l3167
  6193   002836                     i2u254_40:
  6194   002836  EFCC  F013         	goto	i2l3135
  6195   00283A                     i2l3165:
  6196   00283A  90D8               	bcf	status,0,c
  6197   00283C  3641               	rlcf	i2___fltol@f1^0,f,c
  6198   00283E  3642               	rlcf	(i2___fltol@f1+1)^0,f,c
  6199   002840  3643               	rlcf	(i2___fltol@f1+2)^0,f,c
  6200   002842  3644               	rlcf	(i2___fltol@f1+3)^0,f,c
  6201   002844  064A               	decf	i2___fltol@exp1^0,f,c
  6202   002846                     i2l3167:
  6203   002846  504A               	movf	i2___fltol@exp1^0,w,c
  6204   002848  A4D8               	btfss	status,2,c
  6205   00284A  EF29  F014         	goto	i2u255_41
  6206   00284E  EF2B  F014         	goto	i2u255_40
  6207   002852                     i2u255_41:
  6208   002852  EF1D  F014         	goto	i2l3165
  6209   002856                     i2u255_40:
  6210   002856                     i2l3169:
  6211   002856  5049               	movf	i2___fltol@sign1^0,w,c
  6212   002858  B4D8               	btfsc	status,2,c
  6213   00285A  EF31  F014         	goto	i2u256_41
  6214   00285E  EF33  F014         	goto	i2u256_40
  6215   002862                     i2u256_41:
  6216   002862  EF3B  F014         	goto	i2l3173
  6217   002866                     i2u256_40:
  6218   002866  1E44               	comf	(i2___fltol@f1+3)^0,f,c
  6219   002868  1E43               	comf	(i2___fltol@f1+2)^0,f,c
  6220   00286A  1E42               	comf	(i2___fltol@f1+1)^0,f,c
  6221   00286C  6C41               	negf	i2___fltol@f1^0,c
  6222   00286E  0E00               	movlw	0
  6223   002870  2242               	addwfc	(i2___fltol@f1+1)^0,f,c
  6224   002872  2243               	addwfc	(i2___fltol@f1+2)^0,f,c
  6225   002874  2244               	addwfc	(i2___fltol@f1+3)^0,f,c
  6226   002876                     i2l3173:
  6227   002876  C041  F041         	movff	i2___fltol@f1,?i2___fltol
  6228   00287A  C042  F042         	movff	i2___fltol@f1+1,?i2___fltol+1
  6229   00287E  C043  F043         	movff	i2___fltol@f1+2,?i2___fltol+2
  6230   002882  C044  F044         	movff	i2___fltol@f1+3,?i2___fltol+3
  6231   002886                     i2l809:
  6232   002886  0012               	return		;funcret
  6233   002888                     __end_ofi2___fltol:
  6234                           	callstack 0
  6235                           
  6236 ;; *************** function i2___flmul *****************
  6237 ;; Defined at:
  6238 ;;		line 8 in file "C:\Program Files\Microchip\xc8\v2.40\pic\sources\c99\common\sprcmul.c"
  6239 ;; Parameters:    Size  Location     Type
  6240 ;;  b               4   14[COMRAM] long 
  6241 ;;  a               4   18[COMRAM] long 
  6242 ;; Auto vars:     Size  Location     Type
  6243 ;;  prod            4   33[COMRAM] struct .
  6244 ;;  grs             4   27[COMRAM] unsigned long 
  6245 ;;  temp            2   37[COMRAM] struct .
  6246 ;;  bexp            1   32[COMRAM] unsigned char 
  6247 ;;  aexp            1   31[COMRAM] unsigned char 
  6248 ;;  sign            1   26[COMRAM] unsigned char 
  6249 ;; Return value:  Size  Location     Type
  6250 ;;                  4   14[COMRAM] unsigned char 
  6251 ;; Registers used:
  6252 ;;		wreg, status,2, status,0, prodl, prodh
  6253 ;; Tracked objects:
  6254 ;;		On entry : 0/0
  6255 ;;		On exit  : 0/0
  6256 ;;		Unchanged: 0/0
  6257 ;; Data sizes:     COMRAM   BANK0   BANK1   BANK2   BANK3   BANK4   BANK5
  6258 ;;      Params:         8       0       0       0       0       0       0
  6259 ;;      Locals:        13       0       0       0       0       0       0
  6260 ;;      Temps:          4       0       0       0       0       0       0
  6261 ;;      Totals:        25       0       0       0       0       0       0
  6262 ;;Total ram usage:       25 bytes
  6263 ;; Hardware stack levels used: 1
  6264 ;; This function calls:
  6265 ;;		Nothing
  6266 ;; This function is called by:
  6267 ;;		_f_int1
  6268 ;;		_f_int2
  6269 ;; This function uses a non-reentrant model
  6270 ;;
  6271                           
  6272                           	psect	text30
  6273   000A4C                     __ptext30:
  6274                           	callstack 0
  6275   000A4C                     i2___flmul:
  6276                           	callstack 22
  6277   000A4C  5012               	movf	(i2___flmul@b+3)^0,w,c
  6278   000A4E  0B80               	andlw	128
  6279   000A50  6E1B               	movwf	i2___flmul@sign^0,c
  6280   000A52  5012               	movf	(i2___flmul@b+3)^0,w,c
  6281   000A54  2412               	addwf	(i2___flmul@b+3)^0,w,c
  6282   000A56  6E21               	movwf	i2___flmul@bexp^0,c
  6283   000A58  AE11               	btfss	(i2___flmul@b+2)^0,7,c
  6284   000A5A  EF31  F005         	goto	i2u280_41
  6285   000A5E  EF33  F005         	goto	i2u280_40
  6286   000A62                     i2u280_41:
  6287   000A62  EF34  F005         	goto	i2l3321
  6288   000A66                     i2u280_40:
  6289   000A66  8021               	bsf	i2___flmul@bexp^0,0,c
  6290   000A68                     i2l3321:
  6291   000A68  5021               	movf	i2___flmul@bexp^0,w,c
  6292   000A6A  B4D8               	btfsc	status,2,c
  6293   000A6C  EF3A  F005         	goto	i2u281_41
  6294   000A70  EF3C  F005         	goto	i2u281_40
  6295   000A74                     i2u281_41:
  6296   000A74  EF4F  F005         	goto	i2l3329
  6297   000A78                     i2u281_40:
  6298   000A78  2821               	incf	i2___flmul@bexp^0,w,c
  6299   000A7A  A4D8               	btfss	status,2,c
  6300   000A7C  EF42  F005         	goto	i2u282_41
  6301   000A80  EF44  F005         	goto	i2u282_40
  6302   000A84                     i2u282_41:
  6303   000A84  EF4C  F005         	goto	i2l3327
  6304   000A88                     i2u282_40:
  6305   000A88  0E00               	movlw	0
  6306   000A8A  6E0F               	movwf	i2___flmul@b^0,c
  6307   000A8C  0E00               	movlw	0
  6308   000A8E  6E10               	movwf	(i2___flmul@b+1)^0,c
  6309   000A90  0E00               	movlw	0
  6310   000A92  6E11               	movwf	(i2___flmul@b+2)^0,c
  6311   000A94  0E00               	movlw	0
  6312   000A96  6E12               	movwf	(i2___flmul@b+3)^0,c
  6313   000A98                     i2l3327:
  6314   000A98  8E11               	bsf	(i2___flmul@b+2)^0,7,c
  6315   000A9A  EF57  F005         	goto	i2l3331
  6316   000A9E                     i2l3329:
  6317   000A9E  0E00               	movlw	0
  6318   000AA0  6E0F               	movwf	i2___flmul@b^0,c
  6319   000AA2  0E00               	movlw	0
  6320   000AA4  6E10               	movwf	(i2___flmul@b+1)^0,c
  6321   000AA6  0E00               	movlw	0
  6322   000AA8  6E11               	movwf	(i2___flmul@b+2)^0,c
  6323   000AAA  0E00               	movlw	0
  6324   000AAC  6E12               	movwf	(i2___flmul@b+3)^0,c
  6325   000AAE                     i2l3331:
  6326   000AAE  5016               	movf	(i2___flmul@a+3)^0,w,c
  6327   000AB0  0B80               	andlw	128
  6328   000AB2  1A1B               	xorwf	i2___flmul@sign^0,f,c
  6329   000AB4  5016               	movf	(i2___flmul@a+3)^0,w,c
  6330   000AB6  2416               	addwf	(i2___flmul@a+3)^0,w,c
  6331   000AB8  6E20               	movwf	i2___flmul@aexp^0,c
  6332   000ABA  AE15               	btfss	(i2___flmul@a+2)^0,7,c
  6333   000ABC  EF62  F005         	goto	i2u283_41
  6334   000AC0  EF64  F005         	goto	i2u283_40
  6335   000AC4                     i2u283_41:
  6336   000AC4  EF65  F005         	goto	i2l3339
  6337   000AC8                     i2u283_40:
  6338   000AC8  8020               	bsf	i2___flmul@aexp^0,0,c
  6339   000ACA                     i2l3339:
  6340   000ACA  5020               	movf	i2___flmul@aexp^0,w,c
  6341   000ACC  B4D8               	btfsc	status,2,c
  6342   000ACE  EF6B  F005         	goto	i2u284_41
  6343   000AD2  EF6D  F005         	goto	i2u284_40
  6344   000AD6                     i2u284_41:
  6345   000AD6  EF80  F005         	goto	i2l3347
  6346   000ADA                     i2u284_40:
  6347   000ADA  2820               	incf	i2___flmul@aexp^0,w,c
  6348   000ADC  A4D8               	btfss	status,2,c
  6349   000ADE  EF73  F005         	goto	i2u285_41
  6350   000AE2  EF75  F005         	goto	i2u285_40
  6351   000AE6                     i2u285_41:
  6352   000AE6  EF7D  F005         	goto	i2l3345
  6353   000AEA                     i2u285_40:
  6354   000AEA  0E00               	movlw	0
  6355   000AEC  6E13               	movwf	i2___flmul@a^0,c
  6356   000AEE  0E00               	movlw	0
  6357   000AF0  6E14               	movwf	(i2___flmul@a+1)^0,c
  6358   000AF2  0E00               	movlw	0
  6359   000AF4  6E15               	movwf	(i2___flmul@a+2)^0,c
  6360   000AF6  0E00               	movlw	0
  6361   000AF8  6E16               	movwf	(i2___flmul@a+3)^0,c
  6362   000AFA                     i2l3345:
  6363   000AFA  8E15               	bsf	(i2___flmul@a+2)^0,7,c
  6364   000AFC  EF88  F005         	goto	i2l1126
  6365   000B00                     i2l3347:
  6366   000B00  0E00               	movlw	0
  6367   000B02  6E13               	movwf	i2___flmul@a^0,c
  6368   000B04  0E00               	movlw	0
  6369   000B06  6E14               	movwf	(i2___flmul@a+1)^0,c
  6370   000B08  0E00               	movlw	0
  6371   000B0A  6E15               	movwf	(i2___flmul@a+2)^0,c
  6372   000B0C  0E00               	movlw	0
  6373   000B0E  6E16               	movwf	(i2___flmul@a+3)^0,c
  6374   000B10                     i2l1126:
  6375   000B10  5020               	movf	i2___flmul@aexp^0,w,c
  6376   000B12  B4D8               	btfsc	status,2,c
  6377   000B14  EF8E  F005         	goto	i2u286_41
  6378   000B18  EF90  F005         	goto	i2u286_40
  6379   000B1C                     i2u286_41:
  6380   000B1C  EF98  F005         	goto	i2l3351
  6381   000B20                     i2u286_40:
  6382   000B20  5021               	movf	i2___flmul@bexp^0,w,c
  6383   000B22  A4D8               	btfss	status,2,c
  6384   000B24  EF96  F005         	goto	i2u287_41
  6385   000B28  EF98  F005         	goto	i2u287_40
  6386   000B2C                     i2u287_41:
  6387   000B2C  EFA2  F005         	goto	i2l3355
  6388   000B30                     i2u287_40:
  6389   000B30                     i2l3351:
  6390   000B30  0E00               	movlw	0
  6391   000B32  6E0F               	movwf	?i2___flmul^0,c
  6392   000B34  0E00               	movlw	0
  6393   000B36  6E10               	movwf	(?i2___flmul+1)^0,c
  6394   000B38  0E00               	movlw	0
  6395   000B3A  6E11               	movwf	(?i2___flmul+2)^0,c
  6396   000B3C  0E00               	movlw	0
  6397   000B3E  6E12               	movwf	(?i2___flmul+3)^0,c
  6398   000B40  EF3A  F007         	goto	i2l1130
  6399   000B44                     i2l3355:
  6400   000B44  5015               	movf	(i2___flmul@a+2)^0,w,c
  6401   000B46  020F               	mulwf	i2___flmul@b^0,c
  6402   000B48  CFF3 F026          	movff	prodl,i2___flmul@temp
  6403   000B4C  CFF4 F027          	movff	prodh,i2___flmul@temp+1
  6404   000B50  5026               	movf	i2___flmul@temp^0,w,c
  6405   000B52  6E1C               	movwf	i2___flmul@grs^0,c
  6406   000B54  6A1D               	clrf	(i2___flmul@grs+1)^0,c
  6407   000B56  6A1E               	clrf	(i2___flmul@grs+2)^0,c
  6408   000B58  6A1F               	clrf	(i2___flmul@grs+3)^0,c
  6409   000B5A  5027               	movf	(i2___flmul@temp+1)^0,w,c
  6410   000B5C  6E22               	movwf	i2___flmul@prod^0,c
  6411   000B5E  6A23               	clrf	(i2___flmul@prod+1)^0,c
  6412   000B60  6A24               	clrf	(i2___flmul@prod+2)^0,c
  6413   000B62  6A25               	clrf	(i2___flmul@prod+3)^0,c
  6414   000B64  5014               	movf	(i2___flmul@a+1)^0,w,c
  6415   000B66  0210               	mulwf	(i2___flmul@b+1)^0,c
  6416   000B68  CFF3 F026          	movff	prodl,i2___flmul@temp
  6417   000B6C  CFF4 F027          	movff	prodh,i2___flmul@temp+1
  6418   000B70  5026               	movf	i2___flmul@temp^0,w,c
  6419   000B72  261C               	addwf	i2___flmul@grs^0,f,c
  6420   000B74  0E00               	movlw	0
  6421   000B76  221D               	addwfc	(i2___flmul@grs+1)^0,f,c
  6422   000B78  221E               	addwfc	(i2___flmul@grs+2)^0,f,c
  6423   000B7A  221F               	addwfc	(i2___flmul@grs+3)^0,f,c
  6424   000B7C  5027               	movf	(i2___flmul@temp+1)^0,w,c
  6425   000B7E  2622               	addwf	i2___flmul@prod^0,f,c
  6426   000B80  0E00               	movlw	0
  6427   000B82  2223               	addwfc	(i2___flmul@prod+1)^0,f,c
  6428   000B84  2224               	addwfc	(i2___flmul@prod+2)^0,f,c
  6429   000B86  2225               	addwfc	(i2___flmul@prod+3)^0,f,c
  6430   000B88  5013               	movf	i2___flmul@a^0,w,c
  6431   000B8A  0211               	mulwf	(i2___flmul@b+2)^0,c
  6432   000B8C  CFF3 F026          	movff	prodl,i2___flmul@temp
  6433   000B90  CFF4 F027          	movff	prodh,i2___flmul@temp+1
  6434   000B94  5026               	movf	i2___flmul@temp^0,w,c
  6435   000B96  261C               	addwf	i2___flmul@grs^0,f,c
  6436   000B98  0E00               	movlw	0
  6437   000B9A  221D               	addwfc	(i2___flmul@grs+1)^0,f,c
  6438   000B9C  221E               	addwfc	(i2___flmul@grs+2)^0,f,c
  6439   000B9E  221F               	addwfc	(i2___flmul@grs+3)^0,f,c
  6440   000BA0  5027               	movf	(i2___flmul@temp+1)^0,w,c
  6441   000BA2  2622               	addwf	i2___flmul@prod^0,f,c
  6442   000BA4  0E00               	movlw	0
  6443   000BA6  2223               	addwfc	(i2___flmul@prod+1)^0,f,c
  6444   000BA8  2224               	addwfc	(i2___flmul@prod+2)^0,f,c
  6445   000BAA  2225               	addwfc	(i2___flmul@prod+3)^0,f,c
  6446   000BAC  C01E  F01F         	movff	i2___flmul@grs+2,i2___flmul@grs+3
  6447   000BB0  C01D  F01E         	movff	i2___flmul@grs+1,i2___flmul@grs+2
  6448   000BB4  C01C  F01D         	movff	i2___flmul@grs,i2___flmul@grs+1
  6449   000BB8  6A1C               	clrf	i2___flmul@grs^0,c
  6450   000BBA  5013               	movf	i2___flmul@a^0,w,c
  6451   000BBC  0210               	mulwf	(i2___flmul@b+1)^0,c
  6452   000BBE  CFF3 F026          	movff	prodl,i2___flmul@temp
  6453   000BC2  CFF4 F027          	movff	prodh,i2___flmul@temp+1
  6454   000BC6  5026               	movf	i2___flmul@temp^0,w,c
  6455   000BC8  261C               	addwf	i2___flmul@grs^0,f,c
  6456   000BCA  5027               	movf	(i2___flmul@temp+1)^0,w,c
  6457   000BCC  221D               	addwfc	(i2___flmul@grs+1)^0,f,c
  6458   000BCE  0E00               	movlw	0
  6459   000BD0  221E               	addwfc	(i2___flmul@grs+2)^0,f,c
  6460   000BD2  0E00               	movlw	0
  6461   000BD4  221F               	addwfc	(i2___flmul@grs+3)^0,f,c
  6462   000BD6  5014               	movf	(i2___flmul@a+1)^0,w,c
  6463   000BD8  020F               	mulwf	i2___flmul@b^0,c
  6464   000BDA  CFF3 F026          	movff	prodl,i2___flmul@temp
  6465   000BDE  CFF4 F027          	movff	prodh,i2___flmul@temp+1
  6466   000BE2  5026               	movf	i2___flmul@temp^0,w,c
  6467   000BE4  261C               	addwf	i2___flmul@grs^0,f,c
  6468   000BE6  5027               	movf	(i2___flmul@temp+1)^0,w,c
  6469   000BE8  221D               	addwfc	(i2___flmul@grs+1)^0,f,c
  6470   000BEA  0E00               	movlw	0
  6471   000BEC  221E               	addwfc	(i2___flmul@grs+2)^0,f,c
  6472   000BEE  0E00               	movlw	0
  6473   000BF0  221F               	addwfc	(i2___flmul@grs+3)^0,f,c
  6474   000BF2  C01E  F01F         	movff	i2___flmul@grs+2,i2___flmul@grs+3
  6475   000BF6  C01D  F01E         	movff	i2___flmul@grs+1,i2___flmul@grs+2
  6476   000BFA  C01C  F01D         	movff	i2___flmul@grs,i2___flmul@grs+1
  6477   000BFE  6A1C               	clrf	i2___flmul@grs^0,c
  6478   000C00  5013               	movf	i2___flmul@a^0,w,c
  6479   000C02  020F               	mulwf	i2___flmul@b^0,c
  6480   000C04  CFF3 F026          	movff	prodl,i2___flmul@temp
  6481   000C08  CFF4 F027          	movff	prodh,i2___flmul@temp+1
  6482   000C0C  5026               	movf	i2___flmul@temp^0,w,c
  6483   000C0E  261C               	addwf	i2___flmul@grs^0,f,c
  6484   000C10  5027               	movf	(i2___flmul@temp+1)^0,w,c
  6485   000C12  221D               	addwfc	(i2___flmul@grs+1)^0,f,c
  6486   000C14  0E00               	movlw	0
  6487   000C16  221E               	addwfc	(i2___flmul@grs+2)^0,f,c
  6488   000C18  0E00               	movlw	0
  6489   000C1A  221F               	addwfc	(i2___flmul@grs+3)^0,f,c
  6490   000C1C  5015               	movf	(i2___flmul@a+2)^0,w,c
  6491   000C1E  0210               	mulwf	(i2___flmul@b+1)^0,c
  6492   000C20  CFF3 F026          	movff	prodl,i2___flmul@temp
  6493   000C24  CFF4 F027          	movff	prodh,i2___flmul@temp+1
  6494   000C28  5026               	movf	i2___flmul@temp^0,w,c
  6495   000C2A  2622               	addwf	i2___flmul@prod^0,f,c
  6496   000C2C  5027               	movf	(i2___flmul@temp+1)^0,w,c
  6497   000C2E  2223               	addwfc	(i2___flmul@prod+1)^0,f,c
  6498   000C30  0E00               	movlw	0
  6499   000C32  2224               	addwfc	(i2___flmul@prod+2)^0,f,c
  6500   000C34  0E00               	movlw	0
  6501   000C36  2225               	addwfc	(i2___flmul@prod+3)^0,f,c
  6502   000C38  5014               	movf	(i2___flmul@a+1)^0,w,c
  6503   000C3A  0211               	mulwf	(i2___flmul@b+2)^0,c
  6504   000C3C  CFF3 F026          	movff	prodl,i2___flmul@temp
  6505   000C40  CFF4 F027          	movff	prodh,i2___flmul@temp+1
  6506   000C44  5026               	movf	i2___flmul@temp^0,w,c
  6507   000C46  2622               	addwf	i2___flmul@prod^0,f,c
  6508   000C48  5027               	movf	(i2___flmul@temp+1)^0,w,c
  6509   000C4A  2223               	addwfc	(i2___flmul@prod+1)^0,f,c
  6510   000C4C  0E00               	movlw	0
  6511   000C4E  2224               	addwfc	(i2___flmul@prod+2)^0,f,c
  6512   000C50  0E00               	movlw	0
  6513   000C52  2225               	addwfc	(i2___flmul@prod+3)^0,f,c
  6514   000C54  5015               	movf	(i2___flmul@a+2)^0,w,c
  6515   000C56  0211               	mulwf	(i2___flmul@b+2)^0,c
  6516   000C58  CFF3 F026          	movff	prodl,i2___flmul@temp
  6517   000C5C  CFF4 F027          	movff	prodh,i2___flmul@temp+1
  6518   000C60  5026               	movf	i2___flmul@temp^0,w,c
  6519   000C62  6E17               	movwf	??i2___flmul^0,c
  6520   000C64  5027               	movf	(i2___flmul@temp+1)^0,w,c
  6521   000C66  6E18               	movwf	(??i2___flmul+1)^0,c
  6522   000C68  6A19               	clrf	(??i2___flmul+2)^0,c
  6523   000C6A  6A1A               	clrf	(??i2___flmul+3)^0,c
  6524   000C6C  C019  F01A         	movff	??i2___flmul+2,??i2___flmul+3
  6525   000C70  C018  F019         	movff	??i2___flmul+1,??i2___flmul+2
  6526   000C74  C017  F018         	movff	??i2___flmul,??i2___flmul+1
  6527   000C78  6A17               	clrf	??i2___flmul^0,c
  6528   000C7A  5017               	movf	??i2___flmul^0,w,c
  6529   000C7C  2622               	addwf	i2___flmul@prod^0,f,c
  6530   000C7E  5018               	movf	(??i2___flmul+1)^0,w,c
  6531   000C80  2223               	addwfc	(i2___flmul@prod+1)^0,f,c
  6532   000C82  5019               	movf	(??i2___flmul+2)^0,w,c
  6533   000C84  2224               	addwfc	(i2___flmul@prod+2)^0,f,c
  6534   000C86  501A               	movf	(??i2___flmul+3)^0,w,c
  6535   000C88  2225               	addwfc	(i2___flmul@prod+3)^0,f,c
  6536   000C8A  C01C  F017         	movff	i2___flmul@grs,??i2___flmul
  6537   000C8E  C01D  F018         	movff	i2___flmul@grs+1,??i2___flmul+1
  6538   000C92  C01E  F019         	movff	i2___flmul@grs+2,??i2___flmul+2
  6539   000C96  C01F  F01A         	movff	i2___flmul@grs+3,??i2___flmul+3
  6540   000C9A  0E19               	movlw	25
  6541   000C9C  EF55  F006         	goto	i2u288_40
  6542   000CA0                     i2u288_45:
  6543   000CA0  90D8               	bcf	status,0,c
  6544   000CA2  321A               	rrcf	(??i2___flmul+3)^0,f,c
  6545   000CA4  3219               	rrcf	(??i2___flmul+2)^0,f,c
  6546   000CA6  3218               	rrcf	(??i2___flmul+1)^0,f,c
  6547   000CA8  3217               	rrcf	??i2___flmul^0,f,c
  6548   000CAA                     i2u288_40:
  6549   000CAA  2EE8               	decfsz	wreg,f,c
  6550   000CAC  EF50  F006         	goto	i2u288_45
  6551   000CB0  5017               	movf	??i2___flmul^0,w,c
  6552   000CB2  2622               	addwf	i2___flmul@prod^0,f,c
  6553   000CB4  5018               	movf	(??i2___flmul+1)^0,w,c
  6554   000CB6  2223               	addwfc	(i2___flmul@prod+1)^0,f,c
  6555   000CB8  5019               	movf	(??i2___flmul+2)^0,w,c
  6556   000CBA  2224               	addwfc	(i2___flmul@prod+2)^0,f,c
  6557   000CBC  501A               	movf	(??i2___flmul+3)^0,w,c
  6558   000CBE  2225               	addwfc	(i2___flmul@prod+3)^0,f,c
  6559   000CC0  C01E  F01F         	movff	i2___flmul@grs+2,i2___flmul@grs+3
  6560   000CC4  C01D  F01E         	movff	i2___flmul@grs+1,i2___flmul@grs+2
  6561   000CC8  C01C  F01D         	movff	i2___flmul@grs,i2___flmul@grs+1
  6562   000CCC  6A1C               	clrf	i2___flmul@grs^0,c
  6563   000CCE  5020               	movf	i2___flmul@aexp^0,w,c
  6564   000CD0  C021  F017         	movff	i2___flmul@bexp,??i2___flmul
  6565   000CD4  6A18               	clrf	(??i2___flmul+1)^0,c
  6566   000CD6  2617               	addwf	??i2___flmul^0,f,c
  6567   000CD8  0E00               	movlw	0
  6568   000CDA  2218               	addwfc	(??i2___flmul+1)^0,f,c
  6569   000CDC  0E82               	movlw	130
  6570   000CDE  2417               	addwf	??i2___flmul^0,w,c
  6571   000CE0  6E26               	movwf	i2___flmul@temp^0,c
  6572   000CE2  0EFF               	movlw	255
  6573   000CE4  2018               	addwfc	(??i2___flmul+1)^0,w,c
  6574   000CE6  6E27               	movwf	(i2___flmul@temp+1)^0,c
  6575   000CE8  EF8B  F006         	goto	i2l3403
  6576   000CEC                     i2l3397:
  6577   000CEC  90D8               	bcf	status,0,c
  6578   000CEE  3622               	rlcf	i2___flmul@prod^0,f,c
  6579   000CF0  3623               	rlcf	(i2___flmul@prod+1)^0,f,c
  6580   000CF2  3624               	rlcf	(i2___flmul@prod+2)^0,f,c
  6581   000CF4  3625               	rlcf	(i2___flmul@prod+3)^0,f,c
  6582   000CF6  AE1F               	btfss	(i2___flmul@grs+3)^0,7,c
  6583   000CF8  EF80  F006         	goto	i2u289_41
  6584   000CFC  EF82  F006         	goto	i2u289_40
  6585   000D00                     i2u289_41:
  6586   000D00  EF83  F006         	goto	i2l1133
  6587   000D04                     i2u289_40:
  6588   000D04  8022               	bsf	i2___flmul@prod^0,0,c
  6589   000D06                     i2l1133:
  6590   000D06  90D8               	bcf	status,0,c
  6591   000D08  361C               	rlcf	i2___flmul@grs^0,f,c
  6592   000D0A  361D               	rlcf	(i2___flmul@grs+1)^0,f,c
  6593   000D0C  361E               	rlcf	(i2___flmul@grs+2)^0,f,c
  6594   000D0E  361F               	rlcf	(i2___flmul@grs+3)^0,f,c
  6595   000D10  0626               	decf	i2___flmul@temp^0,f,c
  6596   000D12  A0D8               	btfss	status,0,c
  6597   000D14  0627               	decf	(i2___flmul@temp+1)^0,f,c
  6598   000D16                     i2l3403:
  6599   000D16  AE24               	btfss	(i2___flmul@prod+2)^0,7,c
  6600   000D18  EF90  F006         	goto	i2u290_41
  6601   000D1C  EF92  F006         	goto	i2u290_40
  6602   000D20                     i2u290_41:
  6603   000D20  EF76  F006         	goto	i2l3397
  6604   000D24                     i2u290_40:
  6605   000D24  0E00               	movlw	0
  6606   000D26  6E20               	movwf	i2___flmul@aexp^0,c
  6607   000D28  AE1F               	btfss	(i2___flmul@grs+3)^0,7,c
  6608   000D2A  EF99  F006         	goto	i2u291_41
  6609   000D2E  EF9B  F006         	goto	i2u291_40
  6610   000D32                     i2u291_41:
  6611   000D32  EFBF  F006         	goto	i2l1135
  6612   000D36                     i2u291_40:
  6613   000D36  0EFF               	movlw	255
  6614   000D38  141C               	andwf	i2___flmul@grs^0,w,c
  6615   000D3A  6E17               	movwf	??i2___flmul^0,c
  6616   000D3C  0EFF               	movlw	255
  6617   000D3E  141D               	andwf	(i2___flmul@grs+1)^0,w,c
  6618   000D40  6E18               	movwf	(??i2___flmul+1)^0,c
  6619   000D42  0EFF               	movlw	255
  6620   000D44  141E               	andwf	(i2___flmul@grs+2)^0,w,c
  6621   000D46  6E19               	movwf	(??i2___flmul+2)^0,c
  6622   000D48  0E7F               	movlw	127
  6623   000D4A  141F               	andwf	(i2___flmul@grs+3)^0,w,c
  6624   000D4C  6E1A               	movwf	(??i2___flmul+3)^0,c
  6625   000D4E  5017               	movf	??i2___flmul^0,w,c
  6626   000D50  1018               	iorwf	(??i2___flmul+1)^0,w,c
  6627   000D52  1019               	iorwf	(??i2___flmul+2)^0,w,c
  6628   000D54  101A               	iorwf	(??i2___flmul+3)^0,w,c
  6629   000D56  B4D8               	btfsc	status,2,c
  6630   000D58  EFB0  F006         	goto	i2u292_41
  6631   000D5C  EFB2  F006         	goto	i2u292_40
  6632   000D60                     i2u292_41:
  6633   000D60  EFB6  F006         	goto	i2l1136
  6634   000D64                     i2u292_40:
  6635   000D64                     i2l3411:
  6636   000D64  0E01               	movlw	1
  6637   000D66  6E20               	movwf	i2___flmul@aexp^0,c
  6638   000D68  EFBF  F006         	goto	i2l1135
  6639   000D6C                     i2l1136:
  6640   000D6C  A022               	btfss	i2___flmul@prod^0,0,c
  6641   000D6E  EFBB  F006         	goto	i2u293_41
  6642   000D72  EFBD  F006         	goto	i2u293_40
  6643   000D76                     i2u293_41:
  6644   000D76  EFBF  F006         	goto	i2l1135
  6645   000D7A                     i2u293_40:
  6646   000D7A  EFB2  F006         	goto	i2l3411
  6647   000D7E                     i2l1135:
  6648   000D7E  5020               	movf	i2___flmul@aexp^0,w,c
  6649   000D80  B4D8               	btfsc	status,2,c
  6650   000D82  EFC5  F006         	goto	i2u294_41
  6651   000D86  EFC7  F006         	goto	i2u294_40
  6652   000D8A                     i2u294_41:
  6653   000D8A  EFEB  F006         	goto	i2l3423
  6654   000D8E                     i2u294_40:
  6655   000D8E  0E01               	movlw	1
  6656   000D90  2622               	addwf	i2___flmul@prod^0,f,c
  6657   000D92  0E00               	movlw	0
  6658   000D94  2223               	addwfc	(i2___flmul@prod+1)^0,f,c
  6659   000D96  2224               	addwfc	(i2___flmul@prod+2)^0,f,c
  6660   000D98  2225               	addwfc	(i2___flmul@prod+3)^0,f,c
  6661   000D9A  A025               	btfss	(i2___flmul@prod+3)^0,0,c
  6662   000D9C  EFD2  F006         	goto	i2u295_41
  6663   000DA0  EFD4  F006         	goto	i2u295_40
  6664   000DA4                     i2u295_41:
  6665   000DA4  EFEB  F006         	goto	i2l3423
  6666   000DA8                     i2u295_40:
  6667   000DA8  C022  F017         	movff	i2___flmul@prod,??i2___flmul
  6668   000DAC  C023  F018         	movff	i2___flmul@prod+1,??i2___flmul+1
  6669   000DB0  C024  F019         	movff	i2___flmul@prod+2,??i2___flmul+2
  6670   000DB4  C025  F01A         	movff	i2___flmul@prod+3,??i2___flmul+3
  6671   000DB8  341A               	rlcf	(??i2___flmul+3)^0,w,c
  6672   000DBA  321A               	rrcf	(??i2___flmul+3)^0,f,c
  6673   000DBC  3219               	rrcf	(??i2___flmul+2)^0,f,c
  6674   000DBE  3218               	rrcf	(??i2___flmul+1)^0,f,c
  6675   000DC0  3217               	rrcf	??i2___flmul^0,f,c
  6676   000DC2  C017  F022         	movff	??i2___flmul,i2___flmul@prod
  6677   000DC6  C018  F023         	movff	??i2___flmul+1,i2___flmul@prod+1
  6678   000DCA  C019  F024         	movff	??i2___flmul+2,i2___flmul@prod+2
  6679   000DCE  C01A  F025         	movff	??i2___flmul+3,i2___flmul@prod+3
  6680   000DD2  4A26               	infsnz	i2___flmul@temp^0,f,c
  6681   000DD4  2A27               	incf	(i2___flmul@temp+1)^0,f,c
  6682   000DD6                     i2l3423:
  6683   000DD6  BE27               	btfsc	(i2___flmul@temp+1)^0,7,c
  6684   000DD8  EFF6  F006         	goto	i2u296_41
  6685   000DDC  5027               	movf	(i2___flmul@temp+1)^0,w,c
  6686   000DDE  E108               	bnz	i2u296_40
  6687   000DE0  2826               	incf	i2___flmul@temp^0,w,c
  6688   000DE2  A0D8               	btfss	status,0,c
  6689   000DE4  EFF6  F006         	goto	i2u296_41
  6690   000DE8  EFF8  F006         	goto	i2u296_40
  6691   000DEC                     i2u296_41:
  6692   000DEC  EF02  F007         	goto	i2l3427
  6693   000DF0                     i2u296_40:
  6694   000DF0  0E00               	movlw	0
  6695   000DF2  6E22               	movwf	i2___flmul@prod^0,c
  6696   000DF4  0E00               	movlw	0
  6697   000DF6  6E23               	movwf	(i2___flmul@prod+1)^0,c
  6698   000DF8  0E80               	movlw	128
  6699   000DFA  6E24               	movwf	(i2___flmul@prod+2)^0,c
  6700   000DFC  0E7F               	movlw	127
  6701   000DFE  6E25               	movwf	(i2___flmul@prod+3)^0,c
  6702   000E00  EF30  F007         	goto	i2l3439
  6703   000E04                     i2l3427:
  6704   000E04  BE27               	btfsc	(i2___flmul@temp+1)^0,7,c
  6705   000E06  EF0F  F007         	goto	i2u297_40
  6706   000E0A  5027               	movf	(i2___flmul@temp+1)^0,w,c
  6707   000E0C  E106               	bnz	i2u297_41
  6708   000E0E  0426               	decf	i2___flmul@temp^0,w,c
  6709   000E10  B0D8               	btfsc	status,0,c
  6710   000E12  EF0D  F007         	goto	i2u297_41
  6711   000E16  EF0F  F007         	goto	i2u297_40
  6712   000E1A                     i2u297_41:
  6713   000E1A  EF1B  F007         	goto	i2l1143
  6714   000E1E                     i2u297_40:
  6715   000E1E  0E00               	movlw	0
  6716   000E20  6E22               	movwf	i2___flmul@prod^0,c
  6717   000E22  0E00               	movlw	0
  6718   000E24  6E23               	movwf	(i2___flmul@prod+1)^0,c
  6719   000E26  0E00               	movlw	0
  6720   000E28  6E24               	movwf	(i2___flmul@prod+2)^0,c
  6721   000E2A  0E00               	movlw	0
  6722   000E2C  6E25               	movwf	(i2___flmul@prod+3)^0,c
  6723   000E2E  0E00               	movlw	0
  6724   000E30  6E1B               	movwf	i2___flmul@sign^0,c
  6725   000E32  EF30  F007         	goto	i2l3439
  6726   000E36                     i2l1143:
  6727   000E36  C026  F021         	movff	i2___flmul@temp,i2___flmul@bexp
  6728   000E3A  0EFF               	movlw	255
  6729   000E3C  1622               	andwf	i2___flmul@prod^0,f,c
  6730   000E3E  0EFF               	movlw	255
  6731   000E40  1623               	andwf	(i2___flmul@prod+1)^0,f,c
  6732   000E42  0E7F               	movlw	127
  6733   000E44  1624               	andwf	(i2___flmul@prod+2)^0,f,c
  6734   000E46  0E00               	movlw	0
  6735   000E48  1625               	andwf	(i2___flmul@prod+3)^0,f,c
  6736   000E4A  A021               	btfss	i2___flmul@bexp^0,0,c
  6737   000E4C  EF2A  F007         	goto	i2u298_41
  6738   000E50  EF2C  F007         	goto	i2u298_40
  6739   000E54                     i2u298_41:
  6740   000E54  EF2D  F007         	goto	i2l3437
  6741   000E58                     i2u298_40:
  6742   000E58  8E24               	bsf	(i2___flmul@prod+2)^0,7,c
  6743   000E5A                     i2l3437:
  6744   000E5A  90D8               	bcf	status,0,c
  6745   000E5C  3021               	rrcf	i2___flmul@bexp^0,w,c
  6746   000E5E  6E25               	movwf	(i2___flmul@prod+3)^0,c
  6747   000E60                     i2l3439:
  6748   000E60  501B               	movf	i2___flmul@sign^0,w,c
  6749   000E62  1225               	iorwf	(i2___flmul@prod+3)^0,f,c
  6750   000E64  C022  F00F         	movff	i2___flmul@prod,?i2___flmul
  6751   000E68  C023  F010         	movff	i2___flmul@prod+1,?i2___flmul+1
  6752   000E6C  C024  F011         	movff	i2___flmul@prod+2,?i2___flmul+2
  6753   000E70  C025  F012         	movff	i2___flmul@prod+3,?i2___flmul+3
  6754   000E74                     i2l1130:
  6755   000E74  0012               	return		;funcret
  6756   000E76                     __end_ofi2___flmul:
  6757                           	callstack 0
  6758                           
  6759 ;; *************** function i2___fldiv *****************
  6760 ;; Defined at:
  6761 ;;		line 11 in file "C:\Program Files\Microchip\xc8\v2.40\pic\sources\c99\common\sprcdiv.c"
  6762 ;; Parameters:    Size  Location     Type
  6763 ;;  b               4   39[COMRAM] unsigned char 
  6764 ;;  a               4   43[COMRAM] unsigned char 
  6765 ;; Auto vars:     Size  Location     Type
  6766 ;;  grs             4   58[COMRAM] unsigned long 
  6767 ;;  rem             4   51[COMRAM] unsigned long 
  6768 ;;  new_exp         2   56[COMRAM] short 
  6769 ;;  aexp            1   63[COMRAM] unsigned char 
  6770 ;;  bexp            1   62[COMRAM] unsigned char 
  6771 ;;  sign            1   55[COMRAM] unsigned char 
  6772 ;; Return value:  Size  Location     Type
  6773 ;;                  4   39[COMRAM] unsigned char 
  6774 ;; Registers used:
  6775 ;;		wreg, status,2, status,0
  6776 ;; Tracked objects:
  6777 ;;		On entry : 0/0
  6778 ;;		On exit  : 0/0
  6779 ;;		Unchanged: 0/0
  6780 ;; Data sizes:     COMRAM   BANK0   BANK1   BANK2   BANK3   BANK4   BANK5
  6781 ;;      Params:         8       0       0       0       0       0       0
  6782 ;;      Locals:        13       0       0       0       0       0       0
  6783 ;;      Temps:          4       0       0       0       0       0       0
  6784 ;;      Totals:        25       0       0       0       0       0       0
  6785 ;;Total ram usage:       25 bytes
  6786 ;; Hardware stack levels used: 1
  6787 ;; This function calls:
  6788 ;;		Nothing
  6789 ;; This function is called by:
  6790 ;;		_f_int1
  6791 ;;		_f_int2
  6792 ;; This function uses a non-reentrant model
  6793 ;;
  6794                           
  6795                           	psect	text31
  6796   001212                     __ptext31:
  6797                           	callstack 0
  6798   001212                     i2___fldiv:
  6799                           	callstack 22
  6800   001212  502B               	movf	(i2___fldiv@b+3)^0,w,c
  6801   001214  0B80               	andlw	128
  6802   001216  6E38               	movwf	i2___fldiv@sign^0,c
  6803   001218  502B               	movf	(i2___fldiv@b+3)^0,w,c
  6804   00121A  242B               	addwf	(i2___fldiv@b+3)^0,w,c
  6805   00121C  6E3F               	movwf	i2___fldiv@bexp^0,c
  6806   00121E  AE2A               	btfss	(i2___fldiv@b+2)^0,7,c
  6807   001220  EF14  F009         	goto	i2u257_41
  6808   001224  EF16  F009         	goto	i2u257_40
  6809   001228                     i2u257_41:
  6810   001228  EF17  F009         	goto	i2l3183
  6811   00122C                     i2u257_40:
  6812   00122C  803F               	bsf	i2___fldiv@bexp^0,0,c
  6813   00122E                     i2l3183:
  6814   00122E  503F               	movf	i2___fldiv@bexp^0,w,c
  6815   001230  B4D8               	btfsc	status,2,c
  6816   001232  EF1D  F009         	goto	i2u258_41
  6817   001236  EF1F  F009         	goto	i2u258_40
  6818   00123A                     i2u258_41:
  6819   00123A  EF34  F009         	goto	i2l3193
  6820   00123E                     i2u258_40:
  6821   00123E  283F               	incf	i2___fldiv@bexp^0,w,c
  6822   001240  A4D8               	btfss	status,2,c
  6823   001242  EF25  F009         	goto	i2u259_41
  6824   001246  EF27  F009         	goto	i2u259_40
  6825   00124A                     i2u259_41:
  6826   00124A  EF2F  F009         	goto	i2l3189
  6827   00124E                     i2u259_40:
  6828   00124E  0E00               	movlw	0
  6829   001250  6E28               	movwf	i2___fldiv@b^0,c
  6830   001252  0E00               	movlw	0
  6831   001254  6E29               	movwf	(i2___fldiv@b+1)^0,c
  6832   001256  0E00               	movlw	0
  6833   001258  6E2A               	movwf	(i2___fldiv@b+2)^0,c
  6834   00125A  0E00               	movlw	0
  6835   00125C  6E2B               	movwf	(i2___fldiv@b+3)^0,c
  6836   00125E                     i2l3189:
  6837   00125E  8E2A               	bsf	(i2___fldiv@b+2)^0,7,c
  6838   001260  0E00               	movlw	0
  6839   001262  6E2B               	movwf	(i2___fldiv@b+3)^0,c
  6840   001264  EF3C  F009         	goto	i2l3195
  6841   001268                     i2l3193:
  6842   001268  0E00               	movlw	0
  6843   00126A  6E28               	movwf	i2___fldiv@b^0,c
  6844   00126C  0E00               	movlw	0
  6845   00126E  6E29               	movwf	(i2___fldiv@b+1)^0,c
  6846   001270  0E00               	movlw	0
  6847   001272  6E2A               	movwf	(i2___fldiv@b+2)^0,c
  6848   001274  0E00               	movlw	0
  6849   001276  6E2B               	movwf	(i2___fldiv@b+3)^0,c
  6850   001278                     i2l3195:
  6851   001278  502F               	movf	(i2___fldiv@a+3)^0,w,c
  6852   00127A  0B80               	andlw	128
  6853   00127C  1A38               	xorwf	i2___fldiv@sign^0,f,c
  6854   00127E  502F               	movf	(i2___fldiv@a+3)^0,w,c
  6855   001280  242F               	addwf	(i2___fldiv@a+3)^0,w,c
  6856   001282  6E40               	movwf	i2___fldiv@aexp^0,c
  6857   001284  AE2E               	btfss	(i2___fldiv@a+2)^0,7,c
  6858   001286  EF47  F009         	goto	i2u260_41
  6859   00128A  EF49  F009         	goto	i2u260_40
  6860   00128E                     i2u260_41:
  6861   00128E  EF4A  F009         	goto	i2l3203
  6862   001292                     i2u260_40:
  6863   001292  8040               	bsf	i2___fldiv@aexp^0,0,c
  6864   001294                     i2l3203:
  6865   001294  5040               	movf	i2___fldiv@aexp^0,w,c
  6866   001296  B4D8               	btfsc	status,2,c
  6867   001298  EF50  F009         	goto	i2u261_41
  6868   00129C  EF52  F009         	goto	i2u261_40
  6869   0012A0                     i2u261_41:
  6870   0012A0  EF67  F009         	goto	i2l3213
  6871   0012A4                     i2u261_40:
  6872   0012A4  2840               	incf	i2___fldiv@aexp^0,w,c
  6873   0012A6  A4D8               	btfss	status,2,c
  6874   0012A8  EF58  F009         	goto	i2u262_41
  6875   0012AC  EF5A  F009         	goto	i2u262_40
  6876   0012B0                     i2u262_41:
  6877   0012B0  EF62  F009         	goto	i2l3209
  6878   0012B4                     i2u262_40:
  6879   0012B4  0E00               	movlw	0
  6880   0012B6  6E2C               	movwf	i2___fldiv@a^0,c
  6881   0012B8  0E00               	movlw	0
  6882   0012BA  6E2D               	movwf	(i2___fldiv@a+1)^0,c
  6883   0012BC  0E00               	movlw	0
  6884   0012BE  6E2E               	movwf	(i2___fldiv@a+2)^0,c
  6885   0012C0  0E00               	movlw	0
  6886   0012C2  6E2F               	movwf	(i2___fldiv@a+3)^0,c
  6887   0012C4                     i2l3209:
  6888   0012C4  8E2E               	bsf	(i2___fldiv@a+2)^0,7,c
  6889   0012C6  0E00               	movlw	0
  6890   0012C8  6E2F               	movwf	(i2___fldiv@a+3)^0,c
  6891   0012CA  EF6F  F009         	goto	i2l3215
  6892   0012CE                     i2l3213:
  6893   0012CE  0E00               	movlw	0
  6894   0012D0  6E2C               	movwf	i2___fldiv@a^0,c
  6895   0012D2  0E00               	movlw	0
  6896   0012D4  6E2D               	movwf	(i2___fldiv@a+1)^0,c
  6897   0012D6  0E00               	movlw	0
  6898   0012D8  6E2E               	movwf	(i2___fldiv@a+2)^0,c
  6899   0012DA  0E00               	movlw	0
  6900   0012DC  6E2F               	movwf	(i2___fldiv@a+3)^0,c
  6901   0012DE                     i2l3215:
  6902   0012DE  502C               	movf	i2___fldiv@a^0,w,c
  6903   0012E0  102D               	iorwf	(i2___fldiv@a+1)^0,w,c
  6904   0012E2  102E               	iorwf	(i2___fldiv@a+2)^0,w,c
  6905   0012E4  102F               	iorwf	(i2___fldiv@a+3)^0,w,c
  6906   0012E6  A4D8               	btfss	status,2,c
  6907   0012E8  EF78  F009         	goto	i2u263_41
  6908   0012EC  EF7A  F009         	goto	i2u263_40
  6909   0012F0                     i2u263_41:
  6910   0012F0  EF92  F009         	goto	i2l3227
  6911   0012F4                     i2u263_40:
  6912   0012F4  0E00               	movlw	0
  6913   0012F6  6E28               	movwf	i2___fldiv@b^0,c
  6914   0012F8  0E00               	movlw	0
  6915   0012FA  6E29               	movwf	(i2___fldiv@b+1)^0,c
  6916   0012FC  0E00               	movlw	0
  6917   0012FE  6E2A               	movwf	(i2___fldiv@b+2)^0,c
  6918   001300  0E00               	movlw	0
  6919   001302  6E2B               	movwf	(i2___fldiv@b+3)^0,c
  6920   001304  0E80               	movlw	128
  6921   001306  122A               	iorwf	(i2___fldiv@b+2)^0,f,c
  6922   001308  0E7F               	movlw	127
  6923   00130A  122B               	iorwf	(i2___fldiv@b+3)^0,f,c
  6924   00130C                     i2l3221:
  6925   00130C  5038               	movf	i2___fldiv@sign^0,w,c
  6926   00130E  122B               	iorwf	(i2___fldiv@b+3)^0,f,c
  6927   001310  C028  F028         	movff	i2___fldiv@b,?i2___fldiv
  6928   001314  C029  F029         	movff	i2___fldiv@b+1,?i2___fldiv+1
  6929   001318  C02A  F02A         	movff	i2___fldiv@b+2,?i2___fldiv+2
  6930   00131C  C02B  F02B         	movff	i2___fldiv@b+3,?i2___fldiv+3
  6931   001320  EFD5  F00A         	goto	i2l1094
  6932   001324                     i2l3227:
  6933   001324  503F               	movf	i2___fldiv@bexp^0,w,c
  6934   001326  A4D8               	btfss	status,2,c
  6935   001328  EF98  F009         	goto	i2u264_41
  6936   00132C  EF9A  F009         	goto	i2u264_40
  6937   001330                     i2u264_41:
  6938   001330  EFA4  F009         	goto	i2l3235
  6939   001334                     i2u264_40:
  6940   001334  0E00               	movlw	0
  6941   001336  6E28               	movwf	?i2___fldiv^0,c
  6942   001338  0E00               	movlw	0
  6943   00133A  6E29               	movwf	(?i2___fldiv+1)^0,c
  6944   00133C  0E00               	movlw	0
  6945   00133E  6E2A               	movwf	(?i2___fldiv+2)^0,c
  6946   001340  0E00               	movlw	0
  6947   001342  6E2B               	movwf	(?i2___fldiv+3)^0,c
  6948   001344  EFD5  F00A         	goto	i2l1094
  6949   001348                     i2l3235:
  6950   001348  5040               	movf	i2___fldiv@aexp^0,w,c
  6951   00134A  C03F  F030         	movff	i2___fldiv@bexp,??i2___fldiv
  6952   00134E  6A31               	clrf	(??i2___fldiv+1)^0,c
  6953   001350  5E30               	subwf	??i2___fldiv^0,f,c
  6954   001352  0E00               	movlw	0
  6955   001354  5A31               	subwfb	(??i2___fldiv+1)^0,f,c
  6956   001356  0E7F               	movlw	127
  6957   001358  2430               	addwf	??i2___fldiv^0,w,c
  6958   00135A  6E39               	movwf	i2___fldiv@new_exp^0,c
  6959   00135C  0E00               	movlw	0
  6960   00135E  2031               	addwfc	(??i2___fldiv+1)^0,w,c
  6961   001360  6E3A               	movwf	(i2___fldiv@new_exp+1)^0,c
  6962   001362  C028  F034         	movff	i2___fldiv@b,i2___fldiv@rem
  6963   001366  C029  F035         	movff	i2___fldiv@b+1,i2___fldiv@rem+1
  6964   00136A  C02A  F036         	movff	i2___fldiv@b+2,i2___fldiv@rem+2
  6965   00136E  C02B  F037         	movff	i2___fldiv@b+3,i2___fldiv@rem+3
  6966   001372  0E00               	movlw	0
  6967   001374  6E28               	movwf	i2___fldiv@b^0,c
  6968   001376  0E00               	movlw	0
  6969   001378  6E29               	movwf	(i2___fldiv@b+1)^0,c
  6970   00137A  0E00               	movlw	0
  6971   00137C  6E2A               	movwf	(i2___fldiv@b+2)^0,c
  6972   00137E  0E00               	movlw	0
  6973   001380  6E2B               	movwf	(i2___fldiv@b+3)^0,c
  6974   001382  0E00               	movlw	0
  6975   001384  6E3B               	movwf	i2___fldiv@grs^0,c
  6976   001386  0E00               	movlw	0
  6977   001388  6E3C               	movwf	(i2___fldiv@grs+1)^0,c
  6978   00138A  0E00               	movlw	0
  6979   00138C  6E3D               	movwf	(i2___fldiv@grs+2)^0,c
  6980   00138E  0E00               	movlw	0
  6981   001390  6E3E               	movwf	(i2___fldiv@grs+3)^0,c
  6982   001392  0E00               	movlw	0
  6983   001394  6E40               	movwf	i2___fldiv@aexp^0,c
  6984   001396  EF05  F00A         	goto	i2l1096
  6985   00139A                     i2l3245:
  6986   00139A  5040               	movf	i2___fldiv@aexp^0,w,c
  6987   00139C  B4D8               	btfsc	status,2,c
  6988   00139E  EFD3  F009         	goto	i2u265_41
  6989   0013A2  EFD5  F009         	goto	i2u265_40
  6990   0013A6                     i2u265_41:
  6991   0013A6  EFEC  F009         	goto	i2l3253
  6992   0013AA                     i2u265_40:
  6993   0013AA  90D8               	bcf	status,0,c
  6994   0013AC  3634               	rlcf	i2___fldiv@rem^0,f,c
  6995   0013AE  3635               	rlcf	(i2___fldiv@rem+1)^0,f,c
  6996   0013B0  3636               	rlcf	(i2___fldiv@rem+2)^0,f,c
  6997   0013B2  3637               	rlcf	(i2___fldiv@rem+3)^0,f,c
  6998   0013B4  90D8               	bcf	status,0,c
  6999   0013B6  3628               	rlcf	i2___fldiv@b^0,f,c
  7000   0013B8  3629               	rlcf	(i2___fldiv@b+1)^0,f,c
  7001   0013BA  362A               	rlcf	(i2___fldiv@b+2)^0,f,c
  7002   0013BC  362B               	rlcf	(i2___fldiv@b+3)^0,f,c
  7003   0013BE  AE3E               	btfss	(i2___fldiv@grs+3)^0,7,c
  7004   0013C0  EFE4  F009         	goto	i2u266_41
  7005   0013C4  EFE6  F009         	goto	i2u266_40
  7006   0013C8                     i2u266_41:
  7007   0013C8  EFE7  F009         	goto	i2l1099
  7008   0013CC                     i2u266_40:
  7009   0013CC  8028               	bsf	i2___fldiv@b^0,0,c
  7010   0013CE                     i2l1099:
  7011   0013CE  90D8               	bcf	status,0,c
  7012   0013D0  363B               	rlcf	i2___fldiv@grs^0,f,c
  7013   0013D2  363C               	rlcf	(i2___fldiv@grs+1)^0,f,c
  7014   0013D4  363D               	rlcf	(i2___fldiv@grs+2)^0,f,c
  7015   0013D6  363E               	rlcf	(i2___fldiv@grs+3)^0,f,c
  7016   0013D8                     i2l3253:
  7017   0013D8  502C               	movf	i2___fldiv@a^0,w,c
  7018   0013DA  5C34               	subwf	i2___fldiv@rem^0,w,c
  7019   0013DC  502D               	movf	(i2___fldiv@a+1)^0,w,c
  7020   0013DE  5835               	subwfb	(i2___fldiv@rem+1)^0,w,c
  7021   0013E0  502E               	movf	(i2___fldiv@a+2)^0,w,c
  7022   0013E2  5836               	subwfb	(i2___fldiv@rem+2)^0,w,c
  7023   0013E4  502F               	movf	(i2___fldiv@a+3)^0,w,c
  7024   0013E6  5837               	subwfb	(i2___fldiv@rem+3)^0,w,c
  7025   0013E8  A0D8               	btfss	status,0,c
  7026   0013EA  EFF9  F009         	goto	i2u267_41
  7027   0013EE  EFFB  F009         	goto	i2u267_40
  7028   0013F2                     i2u267_41:
  7029   0013F2  EF04  F00A         	goto	i2l3259
  7030   0013F6                     i2u267_40:
  7031   0013F6  8C3E               	bsf	(i2___fldiv@grs+3)^0,6,c
  7032   0013F8  502C               	movf	i2___fldiv@a^0,w,c
  7033   0013FA  5E34               	subwf	i2___fldiv@rem^0,f,c
  7034   0013FC  502D               	movf	(i2___fldiv@a+1)^0,w,c
  7035   0013FE  5A35               	subwfb	(i2___fldiv@rem+1)^0,f,c
  7036   001400  502E               	movf	(i2___fldiv@a+2)^0,w,c
  7037   001402  5A36               	subwfb	(i2___fldiv@rem+2)^0,f,c
  7038   001404  502F               	movf	(i2___fldiv@a+3)^0,w,c
  7039   001406  5A37               	subwfb	(i2___fldiv@rem+3)^0,f,c
  7040   001408                     i2l3259:
  7041   001408  2A40               	incf	i2___fldiv@aexp^0,f,c
  7042   00140A                     i2l1096:
  7043   00140A  0E19               	movlw	25
  7044   00140C  6440               	cpfsgt	i2___fldiv@aexp^0,c
  7045   00140E  EF0B  F00A         	goto	i2u268_41
  7046   001412  EF0D  F00A         	goto	i2u268_40
  7047   001416                     i2u268_41:
  7048   001416  EFCD  F009         	goto	i2l3245
  7049   00141A                     i2u268_40:
  7050   00141A  5034               	movf	i2___fldiv@rem^0,w,c
  7051   00141C  1035               	iorwf	(i2___fldiv@rem+1)^0,w,c
  7052   00141E  1036               	iorwf	(i2___fldiv@rem+2)^0,w,c
  7053   001420  1037               	iorwf	(i2___fldiv@rem+3)^0,w,c
  7054   001422  B4D8               	btfsc	status,2,c
  7055   001424  EF16  F00A         	goto	i2u269_41
  7056   001428  EF18  F00A         	goto	i2u269_40
  7057   00142C                     i2u269_41:
  7058   00142C  EF30  F00A         	goto	i2l3271
  7059   001430                     i2u269_40:
  7060   001430  803B               	bsf	i2___fldiv@grs^0,0,c
  7061   001432  EF30  F00A         	goto	i2l3271
  7062   001436                     i2l3265:
  7063   001436  90D8               	bcf	status,0,c
  7064   001438  3628               	rlcf	i2___fldiv@b^0,f,c
  7065   00143A  3629               	rlcf	(i2___fldiv@b+1)^0,f,c
  7066   00143C  362A               	rlcf	(i2___fldiv@b+2)^0,f,c
  7067   00143E  362B               	rlcf	(i2___fldiv@b+3)^0,f,c
  7068   001440  AE3E               	btfss	(i2___fldiv@grs+3)^0,7,c
  7069   001442  EF25  F00A         	goto	i2u270_41
  7070   001446  EF27  F00A         	goto	i2u270_40
  7071   00144A                     i2u270_41:
  7072   00144A  EF28  F00A         	goto	i2l1105
  7073   00144E                     i2u270_40:
  7074   00144E  8028               	bsf	i2___fldiv@b^0,0,c
  7075   001450                     i2l1105:
  7076   001450  90D8               	bcf	status,0,c
  7077   001452  363B               	rlcf	i2___fldiv@grs^0,f,c
  7078   001454  363C               	rlcf	(i2___fldiv@grs+1)^0,f,c
  7079   001456  363D               	rlcf	(i2___fldiv@grs+2)^0,f,c
  7080   001458  363E               	rlcf	(i2___fldiv@grs+3)^0,f,c
  7081   00145A  0639               	decf	i2___fldiv@new_exp^0,f,c
  7082   00145C  A0D8               	btfss	status,0,c
  7083   00145E  063A               	decf	(i2___fldiv@new_exp+1)^0,f,c
  7084   001460                     i2l3271:
  7085   001460  AE2A               	btfss	(i2___fldiv@b+2)^0,7,c
  7086   001462  EF35  F00A         	goto	i2u271_41
  7087   001466  EF37  F00A         	goto	i2u271_40
  7088   00146A                     i2u271_41:
  7089   00146A  EF1B  F00A         	goto	i2l3265
  7090   00146E                     i2u271_40:
  7091   00146E  0E00               	movlw	0
  7092   001470  6E40               	movwf	i2___fldiv@aexp^0,c
  7093   001472  AE3E               	btfss	(i2___fldiv@grs+3)^0,7,c
  7094   001474  EF3E  F00A         	goto	i2u272_41
  7095   001478  EF40  F00A         	goto	i2u272_40
  7096   00147C                     i2u272_41:
  7097   00147C  EF64  F00A         	goto	i2l1107
  7098   001480                     i2u272_40:
  7099   001480  0EFF               	movlw	255
  7100   001482  143B               	andwf	i2___fldiv@grs^0,w,c
  7101   001484  6E30               	movwf	??i2___fldiv^0,c
  7102   001486  0EFF               	movlw	255
  7103   001488  143C               	andwf	(i2___fldiv@grs+1)^0,w,c
  7104   00148A  6E31               	movwf	(??i2___fldiv+1)^0,c
  7105   00148C  0EFF               	movlw	255
  7106   00148E  143D               	andwf	(i2___fldiv@grs+2)^0,w,c
  7107   001490  6E32               	movwf	(??i2___fldiv+2)^0,c
  7108   001492  0E7F               	movlw	127
  7109   001494  143E               	andwf	(i2___fldiv@grs+3)^0,w,c
  7110   001496  6E33               	movwf	(??i2___fldiv+3)^0,c
  7111   001498  5030               	movf	??i2___fldiv^0,w,c
  7112   00149A  1031               	iorwf	(??i2___fldiv+1)^0,w,c
  7113   00149C  1032               	iorwf	(??i2___fldiv+2)^0,w,c
  7114   00149E  1033               	iorwf	(??i2___fldiv+3)^0,w,c
  7115   0014A0  B4D8               	btfsc	status,2,c
  7116   0014A2  EF55  F00A         	goto	i2u273_41
  7117   0014A6  EF57  F00A         	goto	i2u273_40
  7118   0014AA                     i2u273_41:
  7119   0014AA  EF5B  F00A         	goto	i2l1108
  7120   0014AE                     i2u273_40:
  7121   0014AE                     i2l3279:
  7122   0014AE  0E01               	movlw	1
  7123   0014B0  6E40               	movwf	i2___fldiv@aexp^0,c
  7124   0014B2  EF64  F00A         	goto	i2l1107
  7125   0014B6                     i2l1108:
  7126   0014B6  A028               	btfss	i2___fldiv@b^0,0,c
  7127   0014B8  EF60  F00A         	goto	i2u274_41
  7128   0014BC  EF62  F00A         	goto	i2u274_40
  7129   0014C0                     i2u274_41:
  7130   0014C0  EF64  F00A         	goto	i2l1107
  7131   0014C4                     i2u274_40:
  7132   0014C4  EF57  F00A         	goto	i2l3279
  7133   0014C8                     i2l1107:
  7134   0014C8  5040               	movf	i2___fldiv@aexp^0,w,c
  7135   0014CA  B4D8               	btfsc	status,2,c
  7136   0014CC  EF6A  F00A         	goto	i2u275_41
  7137   0014D0  EF6C  F00A         	goto	i2u275_40
  7138   0014D4                     i2u275_41:
  7139   0014D4  EF90  F00A         	goto	i2l3291
  7140   0014D8                     i2u275_40:
  7141   0014D8  0E01               	movlw	1
  7142   0014DA  2628               	addwf	i2___fldiv@b^0,f,c
  7143   0014DC  0E00               	movlw	0
  7144   0014DE  2229               	addwfc	(i2___fldiv@b+1)^0,f,c
  7145   0014E0  222A               	addwfc	(i2___fldiv@b+2)^0,f,c
  7146   0014E2  222B               	addwfc	(i2___fldiv@b+3)^0,f,c
  7147   0014E4  A02B               	btfss	(i2___fldiv@b+3)^0,0,c
  7148   0014E6  EF77  F00A         	goto	i2u276_41
  7149   0014EA  EF79  F00A         	goto	i2u276_40
  7150   0014EE                     i2u276_41:
  7151   0014EE  EF90  F00A         	goto	i2l3291
  7152   0014F2                     i2u276_40:
  7153   0014F2  C028  F030         	movff	i2___fldiv@b,??i2___fldiv
  7154   0014F6  C029  F031         	movff	i2___fldiv@b+1,??i2___fldiv+1
  7155   0014FA  C02A  F032         	movff	i2___fldiv@b+2,??i2___fldiv+2
  7156   0014FE  C02B  F033         	movff	i2___fldiv@b+3,??i2___fldiv+3
  7157   001502  3433               	rlcf	(??i2___fldiv+3)^0,w,c
  7158   001504  3233               	rrcf	(??i2___fldiv+3)^0,f,c
  7159   001506  3232               	rrcf	(??i2___fldiv+2)^0,f,c
  7160   001508  3231               	rrcf	(??i2___fldiv+1)^0,f,c
  7161   00150A  3230               	rrcf	??i2___fldiv^0,f,c
  7162   00150C  C030  F028         	movff	??i2___fldiv,i2___fldiv@b
  7163   001510  C031  F029         	movff	??i2___fldiv+1,i2___fldiv@b+1
  7164   001514  C032  F02A         	movff	??i2___fldiv+2,i2___fldiv@b+2
  7165   001518  C033  F02B         	movff	??i2___fldiv+3,i2___fldiv@b+3
  7166   00151C  4A39               	infsnz	i2___fldiv@new_exp^0,f,c
  7167   00151E  2A3A               	incf	(i2___fldiv@new_exp+1)^0,f,c
  7168   001520                     i2l3291:
  7169   001520  BE3A               	btfsc	(i2___fldiv@new_exp+1)^0,7,c
  7170   001522  EF9B  F00A         	goto	i2u277_41
  7171   001526  503A               	movf	(i2___fldiv@new_exp+1)^0,w,c
  7172   001528  E108               	bnz	i2u277_40
  7173   00152A  2839               	incf	i2___fldiv@new_exp^0,w,c
  7174   00152C  A0D8               	btfss	status,0,c
  7175   00152E  EF9B  F00A         	goto	i2u277_41
  7176   001532  EF9D  F00A         	goto	i2u277_40
  7177   001536                     i2u277_41:
  7178   001536  EFA8  F00A         	goto	i2l3295
  7179   00153A                     i2u277_40:
  7180   00153A  0E00               	movlw	0
  7181   00153C  6E3A               	movwf	(i2___fldiv@new_exp+1)^0,c
  7182   00153E  6839               	setf	i2___fldiv@new_exp^0,c
  7183   001540  0E00               	movlw	0
  7184   001542  6E28               	movwf	i2___fldiv@b^0,c
  7185   001544  0E00               	movlw	0
  7186   001546  6E29               	movwf	(i2___fldiv@b+1)^0,c
  7187   001548  0E00               	movlw	0
  7188   00154A  6E2A               	movwf	(i2___fldiv@b+2)^0,c
  7189   00154C  0E00               	movlw	0
  7190   00154E  6E2B               	movwf	(i2___fldiv@b+3)^0,c
  7191   001550                     i2l3295:
  7192   001550  BE3A               	btfsc	(i2___fldiv@new_exp+1)^0,7,c
  7193   001552  EFB5  F00A         	goto	i2u278_40
  7194   001556  503A               	movf	(i2___fldiv@new_exp+1)^0,w,c
  7195   001558  E106               	bnz	i2u278_41
  7196   00155A  0439               	decf	i2___fldiv@new_exp^0,w,c
  7197   00155C  B0D8               	btfsc	status,0,c
  7198   00155E  EFB3  F00A         	goto	i2u278_41
  7199   001562  EFB5  F00A         	goto	i2u278_40
  7200   001566                     i2u278_41:
  7201   001566  EFC3  F00A         	goto	i2l3299
  7202   00156A                     i2u278_40:
  7203   00156A  0E00               	movlw	0
  7204   00156C  6E3A               	movwf	(i2___fldiv@new_exp+1)^0,c
  7205   00156E  0E00               	movlw	0
  7206   001570  6E39               	movwf	i2___fldiv@new_exp^0,c
  7207   001572  0E00               	movlw	0
  7208   001574  6E28               	movwf	i2___fldiv@b^0,c
  7209   001576  0E00               	movlw	0
  7210   001578  6E29               	movwf	(i2___fldiv@b+1)^0,c
  7211   00157A  0E00               	movlw	0
  7212   00157C  6E2A               	movwf	(i2___fldiv@b+2)^0,c
  7213   00157E  0E00               	movlw	0
  7214   001580  6E2B               	movwf	(i2___fldiv@b+3)^0,c
  7215   001582  0E00               	movlw	0
  7216   001584  6E38               	movwf	i2___fldiv@sign^0,c
  7217   001586                     i2l3299:
  7218   001586  C039  F03F         	movff	i2___fldiv@new_exp,i2___fldiv@bexp
  7219   00158A  A03F               	btfss	i2___fldiv@bexp^0,0,c
  7220   00158C  EFCA  F00A         	goto	i2u279_41
  7221   001590  EFCC  F00A         	goto	i2u279_40
  7222   001594                     i2u279_41:
  7223   001594  EFCF  F00A         	goto	i2l3305
  7224   001598                     i2u279_40:
  7225   001598  8E2A               	bsf	(i2___fldiv@b+2)^0,7,c
  7226   00159A  EFD0  F00A         	goto	i2l3307
  7227   00159E                     i2l3305:
  7228   00159E  9E2A               	bcf	(i2___fldiv@b+2)^0,7,c
  7229   0015A0                     i2l3307:
  7230   0015A0  90D8               	bcf	status,0,c
  7231   0015A2  303F               	rrcf	i2___fldiv@bexp^0,w,c
  7232   0015A4  6E2B               	movwf	(i2___fldiv@b+3)^0,c
  7233   0015A6  EF86  F009         	goto	i2l3221
  7234   0015AA                     i2l1094:
  7235   0015AA  0012               	return		;funcret
  7236   0015AC                     __end_ofi2___fldiv:
  7237                           	callstack 0
  7238                           
  7239 ;; *************** function _sprintf *****************
  7240 ;; Defined at:
  7241 ;;		line 9 in file "C:\Program Files\Microchip\xc8\v2.40\pic\sources\c99\common\nf_sprintf.c"
  7242 ;; Parameters:    Size  Location     Type
  7243 ;;  s               2   88[COMRAM] PTR unsigned char 
  7244 ;;		 -> buffer(10), 
  7245 ;;  fmt             2   90[COMRAM] PTR const unsigned char 
  7246 ;;		 -> STR_5(9), STR_4(9), 
  7247 ;; Auto vars:     Size  Location     Type
  7248 ;;  f              11   96[COMRAM] struct _IO_FILE
  7249 ;;  ap              2   94[COMRAM] PTR void [1]
  7250 ;;		 -> ?_sprintf(2), 
  7251 ;;  ret             2    0        int 
  7252 ;; Return value:  Size  Location     Type
  7253 ;;                  2   88[COMRAM] int 
  7254 ;; Registers used:
  7255 ;;		wreg, fsr1l, fsr1h, fsr2l, fsr2h, status,2, status,0, tblptrl, tblptrh, tblptru, cstack
  7256 ;; Tracked objects:
  7257 ;;		On entry : 0/0
  7258 ;;		On exit  : 0/0
  7259 ;;		Unchanged: 0/0
  7260 ;; Data sizes:     COMRAM   BANK0   BANK1   BANK2   BANK3   BANK4   BANK5
  7261 ;;      Params:         6       0       0       0       0       0       0
  7262 ;;      Locals:        13       0       0       0       0       0       0
  7263 ;;      Temps:          0       0       0       0       0       0       0
  7264 ;;      Totals:        19       0       0       0       0       0       0
  7265 ;;Total ram usage:       19 bytes
  7266 ;; Hardware stack levels used: 1
  7267 ;; Hardware stack levels required when called: 7
  7268 ;; This function calls:
  7269 ;;		_vfprintf
  7270 ;; This function is called by:
  7271 ;;		_f_int1
  7272 ;;		_f_int2
  7273 ;; This function uses a non-reentrant model
  7274 ;;
  7275                           
  7276                           	psect	text32
  7277   00316A                     __ptext32:
  7278                           	callstack 0
  7279   00316A                     _sprintf:
  7280                           	callstack 15
  7281   00316A  0E5D               	movlw	low (?_sprintf+4)
  7282   00316C  6E5F               	movwf	sprintf@ap^0,c
  7283   00316E  0E00               	movlw	high (?_sprintf+4)
  7284   003170  6E60               	movwf	(sprintf@ap+1)^0,c
  7285   003172  C059  F061         	movff	sprintf@s,sprintf@f
  7286   003176  C05A  F062         	movff	sprintf@s+1,sprintf@f+1
  7287   00317A  0E00               	movlw	0
  7288   00317C  6E65               	movwf	(sprintf@f+4)^0,c
  7289   00317E  0E00               	movlw	0
  7290   003180  6E64               	movwf	(sprintf@f+3)^0,c
  7291   003182  0E00               	movlw	0
  7292   003184  6E6B               	movwf	(sprintf@f+10)^0,c
  7293   003186  0E00               	movlw	0
  7294   003188  6E6A               	movwf	(sprintf@f+9)^0,c
  7295   00318A  0E61               	movlw	low sprintf@f
  7296   00318C  6E51               	movwf	vfprintf@fp^0,c
  7297   00318E  0E00               	movlw	high sprintf@f
  7298   003190  6E52               	movwf	(vfprintf@fp+1)^0,c
  7299   003192  C05B  F053         	movff	sprintf@fmt,vfprintf@fmt
  7300   003196  C05C  F054         	movff	sprintf@fmt+1,vfprintf@fmt+1
  7301   00319A  0E5F               	movlw	low sprintf@ap
  7302   00319C  6E55               	movwf	vfprintf@ap^0,c
  7303   00319E  0E00               	movlw	high sprintf@ap
  7304   0031A0  6E56               	movwf	(vfprintf@ap+1)^0,c
  7305   0031A2  ECDC  F018         	call	_vfprintf	;wreg free
  7306   0031A6  5064               	movf	(sprintf@f+3)^0,w,c
  7307   0031A8  2459               	addwf	sprintf@s^0,w,c
  7308   0031AA  6ED9               	movwf	fsr2l,c
  7309   0031AC  5065               	movf	(sprintf@f+4)^0,w,c
  7310   0031AE  205A               	addwfc	(sprintf@s+1)^0,w,c
  7311   0031B0  6EDA               	movwf	fsr2h,c
  7312   0031B2  0E00               	movlw	0
  7313   0031B4  6EDF               	movwf	indf2,c
  7314   0031B6  0012               	return		;funcret
  7315   0031B8                     __end_of_sprintf:
  7316                           	callstack 0
  7317                           
  7318 ;; *************** function _vfprintf *****************
  7319 ;; Defined at:
  7320 ;;		line 1520 in file "C:\Program Files\Microchip\xc8\v2.40\pic\sources\c99\common\doprnt.c"
  7321 ;; Parameters:    Size  Location     Type
  7322 ;;  fp              2   80[COMRAM] PTR struct _IO_FILE
  7323 ;;		 -> sprintf@f(11), 
  7324 ;;  fmt             2   82[COMRAM] PTR const unsigned char 
  7325 ;;		 -> STR_5(9), STR_4(9), 
  7326 ;;  ap              2   84[COMRAM] PTR PTR void 
  7327 ;;		 -> sprintf@ap(2), 
  7328 ;; Auto vars:     Size  Location     Type
  7329 ;;  cfmt            2   86[COMRAM] PTR unsigned char 
  7330 ;;		 -> STR_5(9), STR_4(9), 
  7331 ;; Return value:  Size  Location     Type
  7332 ;;                  2   80[COMRAM] int 
  7333 ;; Registers used:
  7334 ;;		wreg, fsr1l, fsr1h, fsr2l, fsr2h, status,2, status,0, tblptrl, tblptrh, tblptru, cstack
  7335 ;; Tracked objects:
  7336 ;;		On entry : 0/0
  7337 ;;		On exit  : 0/0
  7338 ;;		Unchanged: 0/0
  7339 ;; Data sizes:     COMRAM   BANK0   BANK1   BANK2   BANK3   BANK4   BANK5
  7340 ;;      Params:         6       0       0       0       0       0       0
  7341 ;;      Locals:         2       0       0       0       0       0       0
  7342 ;;      Temps:          0       0       0       0       0       0       0
  7343 ;;      Totals:         8       0       0       0       0       0       0
  7344 ;;Total ram usage:        8 bytes
  7345 ;; Hardware stack levels used: 1
  7346 ;; Hardware stack levels required when called: 6
  7347 ;; This function calls:
  7348 ;;		_vfpfcnvrt
  7349 ;; This function is called by:
  7350 ;;		_sprintf
  7351 ;; This function uses a non-reentrant model
  7352 ;;
  7353                           
  7354                           	psect	text33
  7355   0031B8                     __ptext33:
  7356                           	callstack 0
  7357   0031B8                     _vfprintf:
  7358                           	callstack 15
  7359   0031B8                     
  7360                           ;C:\Program Files\Microchip\xc8\v2.40\pic\sources\c99\common\doprnt.c: 1520: int vfprint
      +                          f(FILE *fp, const char *fmt, va_list ap);C:\Program Files\Microchip\xc8\v2.40\pic\source
      +                          s\c99\common\doprnt.c: 1521: {;C:\Program Files\Microchip\xc8\v2.40\pic\sources\c99\comm
      +                          on\doprnt.c: 1523:     char *cfmt;;C:\Program Files\Microchip\xc8\v2.40\pic\sources\c99\
      +                          common\doprnt.c: 1525:     cfmt = (char *)fmt;
  7361   0031B8  C053  F057         	movff	vfprintf@fmt,vfprintf@cfmt
  7362   0031BC  C054  F058         	movff	vfprintf@fmt+1,vfprintf@cfmt+1
  7363                           
  7364                           ;C:\Program Files\Microchip\xc8\v2.40\pic\sources\c99\common\doprnt.c: 1529:     while (
      +                          *cfmt) {
  7365   0031C0  EFF0  F018         	goto	i2l3083
  7366   0031C4                     i2l3081:
  7367                           
  7368                           ;C:\Program Files\Microchip\xc8\v2.40\pic\sources\c99\common\doprnt.c: 1533:    vfpfcnvr
      +                          t(fp, &cfmt, ap);
  7369   0031C4  C051  F03F         	movff	vfprintf@fp,vfpfcnvrt@fp
  7370   0031C8  C052  F040         	movff	vfprintf@fp+1,vfpfcnvrt@fp+1
  7371   0031CC  0E57               	movlw	low vfprintf@cfmt
  7372   0031CE  6E41               	movwf	vfpfcnvrt@fmt^0,c
  7373   0031D0  0E00               	movlw	high vfprintf@cfmt
  7374   0031D2  6E42               	movwf	(vfpfcnvrt@fmt+1)^0,c
  7375   0031D4  C055  F043         	movff	vfprintf@ap,vfpfcnvrt@ap
  7376   0031D8  C056  F044         	movff	vfprintf@ap+1,vfpfcnvrt@ap+1
  7377   0031DC  ECD1  F00E         	call	_vfpfcnvrt	;wreg free
  7378   0031E0                     i2l3083:
  7379                           
  7380                           ;C:\Program Files\Microchip\xc8\v2.40\pic\sources\c99\common\doprnt.c: 1529:     while (
      +                          *cfmt) {
  7381   0031E0  C057  FFF6         	movff	vfprintf@cfmt,tblptrl
  7382   0031E4  C058  FFF7         	movff	vfprintf@cfmt+1,tblptrh
  7383   0031E8                     	if	0	;tblptru may be non-zero
  7384   0031E8                     	endif
  7385   0031E8                     	if	0	;tblptru may be non-zero
  7386   0031E8                     	endif
  7387   0031E8  0008               	tblrd		*
  7388   0031EA  50F5               	movf	tablat,w,c
  7389   0031EC  0900               	iorlw	0
  7390   0031EE  A4D8               	btfss	status,2,c
  7391   0031F0  EFFC  F018         	goto	i2u246_41
  7392   0031F4  EFFE  F018         	goto	i2u246_40
  7393   0031F8                     i2u246_41:
  7394   0031F8  EFE2  F018         	goto	i2l3081
  7395   0031FC                     i2u246_40:
  7396   0031FC                     
  7397                           ;C:\Program Files\Microchip\xc8\v2.40\pic\sources\c99\common\doprnt.c: 1538:  return 0;
  7398   0031FC  0E00               	movlw	0
  7399   0031FE  6E52               	movwf	(?_vfprintf+1)^0,c
  7400   003200  0E00               	movlw	0
  7401   003202  6E51               	movwf	?_vfprintf^0,c
  7402   003204  0012               	return		;funcret
  7403   003206                     __end_of_vfprintf:
  7404                           	callstack 0
  7405                           
  7406 ;; *************** function _vfpfcnvrt *****************
  7407 ;; Defined at:
  7408 ;;		line 1007 in file "C:\Program Files\Microchip\xc8\v2.40\pic\sources\c99\common\doprnt.c"
  7409 ;; Parameters:    Size  Location     Type
  7410 ;;  fp              2   62[COMRAM] PTR struct _IO_FILE
  7411 ;;		 -> sprintf@f(11), 
  7412 ;;  fmt             2   64[COMRAM] PTR PTR unsigned char 
  7413 ;;		 -> vfprintf@cfmt(2), 
  7414 ;;  ap              2   66[COMRAM] PTR PTR void 
  7415 ;;		 -> sprintf@ap(2), 
  7416 ;; Auto vars:     Size  Location     Type
  7417 ;;  convarg         8   70[COMRAM] struct .
  7418 ;;  cp              2   78[COMRAM] PTR unsigned char 
  7419 ;;		 -> STR_5(9), STR_4(9), 
  7420 ;;  i               2    0        int 
  7421 ;;  done            2    0        int 
  7422 ;;  c               1    0        unsigned char 
  7423 ;; Return value:  Size  Location     Type
  7424 ;;                  1    wreg      void 
  7425 ;; Registers used:
  7426 ;;		wreg, fsr1l, fsr1h, fsr2l, fsr2h, status,2, status,0, tblptrl, tblptrh, tblptru, cstack
  7427 ;; Tracked objects:
  7428 ;;		On entry : 0/0
  7429 ;;		On exit  : 0/0
  7430 ;;		Unchanged: 0/0
  7431 ;; Data sizes:     COMRAM   BANK0   BANK1   BANK2   BANK3   BANK4   BANK5
  7432 ;;      Params:         6       0       0       0       0       0       0
  7433 ;;      Locals:        10       0       0       0       0       0       0
  7434 ;;      Temps:          2       0       0       0       0       0       0
  7435 ;;      Totals:        18       0       0       0       0       0       0
  7436 ;;Total ram usage:       18 bytes
  7437 ;; Hardware stack levels used: 1
  7438 ;; Hardware stack levels required when called: 5
  7439 ;; This function calls:
  7440 ;;		_dtoa
  7441 ;;		_fputc
  7442 ;; This function is called by:
  7443 ;;		_vfprintf
  7444 ;; This function uses a non-reentrant model
  7445 ;;
  7446                           
  7447                           	psect	text34
  7448   001DA2                     __ptext34:
  7449                           	callstack 0
  7450   001DA2                     _vfpfcnvrt:
  7451                           	callstack 15
  7452   001DA2                     
  7453                           ;C:\Program Files\Microchip\xc8\v2.40\pic\sources\c99\common\doprnt.c: 1007: vfpfcnvrt(F
      +                          ILE *fp, char *fmt[], va_list ap);C:\Program Files\Microchip\xc8\v2.40\pic\sources\c99\c
      +                          ommon\doprnt.c: 1008: {;C:\Program Files\Microchip\xc8\v2.40\pic\sources\c99\common\dopr
      +                          nt.c: 1009:     char c, *cp;;C:\Program Files\Microchip\xc8\v2.40\pic\sources\c99\common
      +                          \doprnt.c: 1010:     int done, i;;C:\Program Files\Microchip\xc8\v2.40\pic\sources\c99\c
      +                          ommon\doprnt.c: 1016:  } convarg;;C:\Program Files\Microchip\xc8\v2.40\pic\sources\c99\c
      +                          ommon\doprnt.c: 1019:     if ((*fmt)[0] == '%') {
  7454   001DA2  C041  FFD9         	movff	vfpfcnvrt@fmt,fsr2l
  7455   001DA6  C042  FFDA         	movff	vfpfcnvrt@fmt+1,fsr2h
  7456   001DAA  CFDE FFF6          	movff	postinc2,tblptrl
  7457   001DAE  CFDD FFF7          	movff	postdec2,tblptrh
  7458   001DB2                     	if	0	;tblptru may be non-zero
  7459   001DB2                     	endif
  7460   001DB2                     	if	0	;tblptru may be non-zero
  7461   001DB2                     	endif
  7462   001DB2  0008               	tblrd		*
  7463   001DB4  50F5               	movf	tablat,w,c
  7464   001DB6  0A25               	xorlw	37
  7465   001DB8  A4D8               	btfss	status,2,c
  7466   001DBA  EFE1  F00E         	goto	i2u242_41
  7467   001DBE  EFE3  F00E         	goto	i2u242_40
  7468   001DC2                     i2u242_41:
  7469   001DC2  EF89  F00F         	goto	i2l3057
  7470   001DC6                     i2u242_40:
  7471   001DC6                     
  7472                           ;C:\Program Files\Microchip\xc8\v2.40\pic\sources\c99\common\doprnt.c: 1020:         ++*
      +                          fmt;
  7473   001DC6  C041  FFD9         	movff	vfpfcnvrt@fmt,fsr2l
  7474   001DCA  C042  FFDA         	movff	vfpfcnvrt@fmt+1,fsr2h
  7475   001DCE  2ADE               	incf	postinc2,f,c
  7476   001DD0  0E00               	movlw	0
  7477   001DD2  22DD               	addwfc	postdec2,f,c
  7478   001DD4                     
  7479                           ;C:\Program Files\Microchip\xc8\v2.40\pic\sources\c99\common\doprnt.c: 1022:         fla
      +                          gs = width = 0;
  7480   001DD4  0E00               	movlw	0
  7481   001DD6  0101               	movlb	1	; () banked
  7482   001DD8  6F3C               	movwf	(_width+1)& (0+255),b
  7483   001DDA  0E00               	movlw	0
  7484   001DDC  6F3B               	movwf	_width& (0+255),b
  7485   001DDE  C13B  F0DC         	movff	_width,_flags
  7486   001DE2                     
  7487                           ; BSR set to: 1
  7488                           ;C:\Program Files\Microchip\xc8\v2.40\pic\sources\c99\common\doprnt.c: 1023:         pre
      +                          c = -1;
  7489   001DE2  0100               	movlb	0	; () banked
  7490   001DE4  69D2               	setf	_prec& (0+255),b
  7491   001DE6  69D3               	setf	(_prec+1)& (0+255),b
  7492   001DE8                     
  7493                           ; BSR set to: 0
  7494                           ;C:\Program Files\Microchip\xc8\v2.40\pic\sources\c99\common\doprnt.c: 1117:   cp = *fmt
      +                          ;
  7495   001DE8  C041  FFD9         	movff	vfpfcnvrt@fmt,fsr2l
  7496   001DEC  C042  FFDA         	movff	vfpfcnvrt@fmt+1,fsr2h
  7497   001DF0  CFDE F04F          	movff	postinc2,vfpfcnvrt@cp
  7498   001DF4  CFDD F050          	movff	postdec2,vfpfcnvrt@cp+1
  7499   001DF8                     
  7500                           ; BSR set to: 0
  7501                           ;C:\Program Files\Microchip\xc8\v2.40\pic\sources\c99\common\doprnt.c: 1187:   if (*cp =
      +                          = 'd' || *cp == 'i') {
  7502   001DF8  C04F  FFF6         	movff	vfpfcnvrt@cp,tblptrl
  7503   001DFC  C050  FFF7         	movff	vfpfcnvrt@cp+1,tblptrh
  7504   001E00                     	if	0	;tblptru may be non-zero
  7505   001E00                     	endif
  7506   001E00                     	if	0	;tblptru may be non-zero
  7507   001E00                     	endif
  7508   001E00  0008               	tblrd		*
  7509   001E02  50F5               	movf	tablat,w,c
  7510   001E04  0A64               	xorlw	100
  7511   001E06  B4D8               	btfsc	status,2,c
  7512   001E08  EF08  F00F         	goto	i2u243_41
  7513   001E0C  EF0A  F00F         	goto	i2u243_40
  7514   001E10                     i2u243_41:
  7515   001E10  EF18  F00F         	goto	i2l3039
  7516   001E14                     i2u243_40:
  7517   001E14                     
  7518                           ; BSR set to: 0
  7519   001E14  C04F  FFF6         	movff	vfpfcnvrt@cp,tblptrl
  7520   001E18  C050  FFF7         	movff	vfpfcnvrt@cp+1,tblptrh
  7521   001E1C                     	if	0	;tblptru may be non-zero
  7522   001E1C                     	endif
  7523   001E1C                     	if	0	;tblptru may be non-zero
  7524   001E1C                     	endif
  7525   001E1C  0008               	tblrd		*
  7526   001E1E  50F5               	movf	tablat,w,c
  7527   001E20  0A69               	xorlw	105
  7528   001E22  A4D8               	btfss	status,2,c
  7529   001E24  EF16  F00F         	goto	i2u244_41
  7530   001E28  EF18  F00F         	goto	i2u244_40
  7531   001E2C                     i2u244_41:
  7532   001E2C  EF5B  F00F         	goto	i2l3045
  7533   001E30                     i2u244_40:
  7534   001E30                     i2l3039:
  7535                           
  7536                           ; BSR set to: 0
  7537                           ;C:\Program Files\Microchip\xc8\v2.40\pic\sources\c99\common\doprnt.c: 1230:    convarg.
      +                          ll = (long long)(int)(*(int *)__va_arg(*(int **)ap, (int)0));
  7538   001E30  C043  FFD9         	movff	vfpfcnvrt@ap,fsr2l
  7539   001E34  C044  FFDA         	movff	vfpfcnvrt@ap+1,fsr2h
  7540   001E38  CFDF F045          	movff	indf2,??_vfpfcnvrt
  7541   001E3C  0E02               	movlw	2
  7542   001E3E  26DE               	addwf	postinc2,f,c
  7543   001E40  CFDF F046          	movff	indf2,??_vfpfcnvrt+1
  7544   001E44  0E00               	movlw	0
  7545   001E46  22DD               	addwfc	postdec2,f,c
  7546   001E48  C045  FFD9         	movff	??_vfpfcnvrt,fsr2l
  7547   001E4C  C046  FFDA         	movff	??_vfpfcnvrt+1,fsr2h
  7548   001E50  CFDE F047          	movff	postinc2,vfpfcnvrt@convarg
  7549   001E54  CFDD F048          	movff	postdec2,vfpfcnvrt@convarg+1
  7550   001E58  0E00               	movlw	0
  7551   001E5A  BE48               	btfsc	(vfpfcnvrt@convarg+1)^0,7,c
  7552   001E5C  0EFF               	movlw	-1
  7553   001E5E  6E49               	movwf	(vfpfcnvrt@convarg+2)^0,c
  7554   001E60  6E4A               	movwf	(vfpfcnvrt@convarg+3)^0,c
  7555   001E62  6E4B               	movwf	(vfpfcnvrt@convarg+4)^0,c
  7556   001E64  6E4C               	movwf	(vfpfcnvrt@convarg+5)^0,c
  7557   001E66  6E4D               	movwf	(vfpfcnvrt@convarg+6)^0,c
  7558   001E68  6E4E               	movwf	(vfpfcnvrt@convarg+7)^0,c
  7559                           
  7560                           ;C:\Program Files\Microchip\xc8\v2.40\pic\sources\c99\common\doprnt.c: 1232:    *fmt = c
      +                          p+1;
  7561   001E6A  0E01               	movlw	1
  7562   001E6C  244F               	addwf	vfpfcnvrt@cp^0,w,c
  7563   001E6E  6E45               	movwf	??_vfpfcnvrt^0,c
  7564   001E70  0E00               	movlw	0
  7565   001E72  2050               	addwfc	(vfpfcnvrt@cp+1)^0,w,c
  7566   001E74  6E46               	movwf	(??_vfpfcnvrt+1)^0,c
  7567   001E76  C041  FFD9         	movff	vfpfcnvrt@fmt,fsr2l
  7568   001E7A  C042  FFDA         	movff	vfpfcnvrt@fmt+1,fsr2h
  7569   001E7E  C045  FFDE         	movff	??_vfpfcnvrt,postinc2
  7570   001E82  C046  FFDD         	movff	??_vfpfcnvrt+1,postdec2
  7571   001E86                     
  7572                           ; BSR set to: 0
  7573                           ;C:\Program Files\Microchip\xc8\v2.40\pic\sources\c99\common\doprnt.c: 1233:    return (
      +                          void) dtoa(fp, convarg.ll);;	Return value of _vfpfcnvrt is never used
  7574   001E86  C03F  F01C         	movff	vfpfcnvrt@fp,dtoa@fp
  7575   001E8A  C040  F01D         	movff	vfpfcnvrt@fp+1,dtoa@fp+1
  7576   001E8E  C047  F01E         	movff	vfpfcnvrt@convarg,dtoa@d
  7577   001E92  C048  F01F         	movff	vfpfcnvrt@convarg+1,dtoa@d+1
  7578   001E96  C049  F020         	movff	vfpfcnvrt@convarg+2,dtoa@d+2
  7579   001E9A  C04A  F021         	movff	vfpfcnvrt@convarg+3,dtoa@d+3
  7580   001E9E  C04B  F022         	movff	vfpfcnvrt@convarg+4,dtoa@d+4
  7581   001EA2  C04C  F023         	movff	vfpfcnvrt@convarg+5,dtoa@d+5
  7582   001EA6  C04D  F024         	movff	vfpfcnvrt@convarg+6,dtoa@d+6
  7583   001EAA  C04E  F025         	movff	vfpfcnvrt@convarg+7,dtoa@d+7
  7584   001EAE  ECD6  F00A         	call	_dtoa	;wreg free
  7585   001EB2  EF9D  F00F         	goto	i2l1242
  7586   001EB6                     i2l3045:
  7587                           
  7588                           ; BSR set to: 0
  7589                           ;C:\Program Files\Microchip\xc8\v2.40\pic\sources\c99\common\doprnt.c: 1501:         if 
      +                          ((*fmt)[0] == '%') {
  7590   001EB6  C041  FFD9         	movff	vfpfcnvrt@fmt,fsr2l
  7591   001EBA  C042  FFDA         	movff	vfpfcnvrt@fmt+1,fsr2h
  7592   001EBE  CFDE FFF6          	movff	postinc2,tblptrl
  7593   001EC2  CFDD FFF7          	movff	postdec2,tblptrh
  7594   001EC6                     	if	0	;tblptru may be non-zero
  7595   001EC6                     	endif
  7596   001EC6                     	if	0	;tblptru may be non-zero
  7597   001EC6                     	endif
  7598   001EC6  0008               	tblrd		*
  7599   001EC8  50F5               	movf	tablat,w,c
  7600   001ECA  0A25               	xorlw	37
  7601   001ECC  A4D8               	btfss	status,2,c
  7602   001ECE  EF6B  F00F         	goto	i2u245_41
  7603   001ED2  EF6D  F00F         	goto	i2u245_40
  7604   001ED6                     i2u245_41:
  7605   001ED6  EF80  F00F         	goto	i2l3053
  7606   001EDA                     i2u245_40:
  7607   001EDA                     
  7608                           ; BSR set to: 0
  7609                           ;C:\Program Files\Microchip\xc8\v2.40\pic\sources\c99\common\doprnt.c: 1502:            
      +                           ++*fmt;
  7610   001EDA  C041  FFD9         	movff	vfpfcnvrt@fmt,fsr2l
  7611   001EDE  C042  FFDA         	movff	vfpfcnvrt@fmt+1,fsr2h
  7612   001EE2  2ADE               	incf	postinc2,f,c
  7613   001EE4  0E00               	movlw	0
  7614   001EE6  22DD               	addwfc	postdec2,f,c
  7615   001EE8                     
  7616                           ; BSR set to: 0
  7617                           ;C:\Program Files\Microchip\xc8\v2.40\pic\sources\c99\common\doprnt.c: 1503:            
      +                           fputc((int)'%', fp);
  7618   001EE8  0E00               	movlw	0
  7619   001EEA  6E02               	movwf	(fputc@c+1)^0,c
  7620   001EEC  0E25               	movlw	37
  7621   001EEE  6E01               	movwf	fputc@c^0,c
  7622   001EF0  C03F  F003         	movff	vfpfcnvrt@fp,fputc@fp
  7623   001EF4  C040  F004         	movff	vfpfcnvrt@fp+1,fputc@fp+1
  7624   001EF8  EC3E  F015         	call	_fputc	;wreg free
  7625   001EFC  EF9D  F00F         	goto	i2l1242
  7626   001F00                     i2l3053:
  7627                           
  7628                           ;C:\Program Files\Microchip\xc8\v2.40\pic\sources\c99\common\doprnt.c: 1509:         ++*
      +                          fmt;
  7629   001F00  C041  FFD9         	movff	vfpfcnvrt@fmt,fsr2l
  7630   001F04  C042  FFDA         	movff	vfpfcnvrt@fmt+1,fsr2h
  7631   001F08  2ADE               	incf	postinc2,f,c
  7632   001F0A  0E00               	movlw	0
  7633   001F0C  22DD               	addwfc	postdec2,f,c
  7634   001F0E  EF9D  F00F         	goto	i2l1242
  7635   001F12                     i2l3057:
  7636                           
  7637                           ;C:\Program Files\Microchip\xc8\v2.40\pic\sources\c99\common\doprnt.c: 1514:     fputc((
      +                          int)(*fmt)[0], fp);
  7638   001F12  C041  FFD9         	movff	vfpfcnvrt@fmt,fsr2l
  7639   001F16  C042  FFDA         	movff	vfpfcnvrt@fmt+1,fsr2h
  7640   001F1A  CFDE FFF6          	movff	postinc2,tblptrl
  7641   001F1E  CFDD FFF7          	movff	postdec2,tblptrh
  7642   001F22                     	if	0	;tblptru may be non-zero
  7643   001F22                     	endif
  7644   001F22                     	if	0	;tblptru may be non-zero
  7645   001F22                     	endif
  7646   001F22  0008               	tblrd		*
  7647   001F24  50F5               	movf	tablat,w,c
  7648   001F26  6E01               	movwf	fputc@c^0,c
  7649   001F28  6A02               	clrf	(fputc@c+1)^0,c
  7650   001F2A  C03F  F003         	movff	vfpfcnvrt@fp,fputc@fp
  7651   001F2E  C040  F004         	movff	vfpfcnvrt@fp+1,fputc@fp+1
  7652   001F32  EC3E  F015         	call	_fputc	;wreg free
  7653   001F36  EF80  F00F         	goto	i2l3053
  7654   001F3A                     i2l1242:
  7655   001F3A  0012               	return		;funcret
  7656   001F3C                     __end_of_vfpfcnvrt:
  7657                           	callstack 0
  7658                           
  7659 ;; *************** function _dtoa *****************
  7660 ;; Defined at:
  7661 ;;		line 443 in file "C:\Program Files\Microchip\xc8\v2.40\pic\sources\c99\common\doprnt.c"
  7662 ;; Parameters:    Size  Location     Type
  7663 ;;  fp              2   27[COMRAM] PTR struct _IO_FILE
  7664 ;;		 -> sprintf@f(11), 
  7665 ;;  d               8   29[COMRAM] long long 
  7666 ;; Auto vars:     Size  Location     Type
  7667 ;;  n               8   51[COMRAM] long long 
  7668 ;;  i               2   59[COMRAM] int 
  7669 ;;  w               2   49[COMRAM] int 
  7670 ;;  p               2   47[COMRAM] int 
  7671 ;;  s               1   61[COMRAM] unsigned char 
  7672 ;; Return value:  Size  Location     Type
  7673 ;;                  1    wreg      void 
  7674 ;; Registers used:
  7675 ;;		wreg, fsr1l, fsr1h, fsr2l, fsr2h, status,2, status,0, cstack
  7676 ;; Tracked objects:
  7677 ;;		On entry : 0/0
  7678 ;;		On exit  : 0/0
  7679 ;;		Unchanged: 0/0
  7680 ;; Data sizes:     COMRAM   BANK0   BANK1   BANK2   BANK3   BANK4   BANK5
  7681 ;;      Params:        10       0       0       0       0       0       0
  7682 ;;      Locals:        17       0       0       0       0       0       0
  7683 ;;      Temps:          8       0       0       0       0       0       0
  7684 ;;      Totals:        35       0       0       0       0       0       0
  7685 ;;Total ram usage:       35 bytes
  7686 ;; Hardware stack levels used: 1
  7687 ;; Hardware stack levels required when called: 4
  7688 ;; This function calls:
  7689 ;;		___aodiv
  7690 ;;		___aomod
  7691 ;;		_abs
  7692 ;;		_pad
  7693 ;; This function is called by:
  7694 ;;		_vfpfcnvrt
  7695 ;; This function uses a non-reentrant model
  7696 ;;
  7697                           
  7698                           	psect	text35
  7699   0015AC                     __ptext35:
  7700                           	callstack 0
  7701   0015AC                     _dtoa:
  7702                           	callstack 15
  7703   0015AC                     
  7704                           ;C:\Program Files\Microchip\xc8\v2.40\pic\sources\c99\common\doprnt.c: 443: static void 
      +                          dtoa(FILE *fp, long long d);C:\Program Files\Microchip\xc8\v2.40\pic\sources\c99\common\
      +                          doprnt.c: 444: {;C:\Program Files\Microchip\xc8\v2.40\pic\sources\c99\common\doprnt.c: 4
      +                          45:  char s;;C:\Program Files\Microchip\xc8\v2.40\pic\sources\c99\common\doprnt.c: 446: 
      +                              int i, p, w;;C:\Program Files\Microchip\xc8\v2.40\pic\sources\c99\common\doprnt.c: 4
      +                          47:     long long n;;C:\Program Files\Microchip\xc8\v2.40\pic\sources\c99\common\doprnt.
      +                          c: 450:     n = d;
  7705   0015AC  C01E  F034         	movff	dtoa@d,dtoa@n
  7706   0015B0  C01F  F035         	movff	dtoa@d+1,dtoa@n+1
  7707   0015B4  C020  F036         	movff	dtoa@d+2,dtoa@n+2
  7708   0015B8  C021  F037         	movff	dtoa@d+3,dtoa@n+3
  7709   0015BC  C022  F038         	movff	dtoa@d+4,dtoa@n+4
  7710   0015C0  C023  F039         	movff	dtoa@d+5,dtoa@n+5
  7711   0015C4  C024  F03A         	movff	dtoa@d+6,dtoa@n+6
  7712   0015C8  C025  F03B         	movff	dtoa@d+7,dtoa@n+7
  7713   0015CC                     
  7714                           ;C:\Program Files\Microchip\xc8\v2.40\pic\sources\c99\common\doprnt.c: 451:     s = n < 
      +                          0 ? 1 : 0;
  7715   0015CC  BE3B               	btfsc	(dtoa@n+7)^0,7,c
  7716   0015CE  EFEB  F00A         	goto	i2u232_41
  7717   0015D2  EFEE  F00A         	goto	i2u232_40
  7718   0015D6                     i2u232_41:
  7719   0015D6  0E01               	movlw	1
  7720   0015D8  EFEF  F00A         	goto	i2u233_40
  7721   0015DC                     i2u232_40:
  7722   0015DC  0E00               	movlw	0
  7723   0015DE                     i2u233_40:
  7724   0015DE  6E3E               	movwf	dtoa@s^0,c
  7725   0015E0                     
  7726                           ;C:\Program Files\Microchip\xc8\v2.40\pic\sources\c99\common\doprnt.c: 452:     if (s) {
  7727   0015E0  503E               	movf	dtoa@s^0,w,c
  7728   0015E2  B4D8               	btfsc	status,2,c
  7729   0015E4  EFF6  F00A         	goto	i2u234_41
  7730   0015E8  EFF8  F00A         	goto	i2u234_40
  7731   0015EC                     i2u234_41:
  7732   0015EC  EF08  F00B         	goto	i2l2981
  7733   0015F0                     i2u234_40:
  7734   0015F0                     
  7735                           ;C:\Program Files\Microchip\xc8\v2.40\pic\sources\c99\common\doprnt.c: 453:         n = 
      +                          -n;
  7736   0015F0  1E3B               	comf	(dtoa@n+7)^0,f,c
  7737   0015F2  1E3A               	comf	(dtoa@n+6)^0,f,c
  7738   0015F4  1E39               	comf	(dtoa@n+5)^0,f,c
  7739   0015F6  1E38               	comf	(dtoa@n+4)^0,f,c
  7740   0015F8  1E37               	comf	(dtoa@n+3)^0,f,c
  7741   0015FA  1E36               	comf	(dtoa@n+2)^0,f,c
  7742   0015FC  1E35               	comf	(dtoa@n+1)^0,f,c
  7743   0015FE  6C34               	negf	dtoa@n^0,c
  7744   001600  0E00               	movlw	0
  7745   001602  2235               	addwfc	(dtoa@n+1)^0,f,c
  7746   001604  2236               	addwfc	(dtoa@n+2)^0,f,c
  7747   001606  2237               	addwfc	(dtoa@n+3)^0,f,c
  7748   001608  2238               	addwfc	(dtoa@n+4)^0,f,c
  7749   00160A  2239               	addwfc	(dtoa@n+5)^0,f,c
  7750   00160C  223A               	addwfc	(dtoa@n+6)^0,f,c
  7751   00160E  223B               	addwfc	(dtoa@n+7)^0,f,c
  7752   001610                     i2l2981:
  7753                           
  7754                           ;C:\Program Files\Microchip\xc8\v2.40\pic\sources\c99\common\doprnt.c: 462:     p = (0 <
      +                           prec) ? prec : 1;
  7755   001610  0100               	movlb	0	; () banked
  7756   001612  BFD3               	btfsc	(_prec+1)& (0+255),7,b
  7757   001614  EF16  F00B         	goto	i2u235_40
  7758   001618  51D3               	movf	(_prec+1)& (0+255),w,b
  7759   00161A  E106               	bnz	i2u235_41
  7760   00161C  05D2               	decf	_prec& (0+255),w,b
  7761   00161E  B0D8               	btfsc	status,0,c
  7762   001620  EF14  F00B         	goto	i2u235_41
  7763   001624  EF16  F00B         	goto	i2u235_40
  7764   001628                     i2u235_41:
  7765   001628  EF1C  F00B         	goto	i2l1221
  7766   00162C                     i2u235_40:
  7767   00162C                     
  7768                           ; BSR set to: 0
  7769   00162C  0E00               	movlw	0
  7770   00162E  6E31               	movwf	(dtoa@p+1)^0,c
  7771   001630  0E01               	movlw	1
  7772   001632  6E30               	movwf	dtoa@p^0,c
  7773   001634  EF20  F00B         	goto	i2l1223
  7774   001638                     i2l1221:
  7775                           
  7776                           ; BSR set to: 0
  7777   001638  C0D2  F030         	movff	_prec,dtoa@p
  7778   00163C  C0D3  F031         	movff	_prec+1,dtoa@p+1
  7779   001640                     i2l1223:
  7780                           
  7781                           ; BSR set to: 0
  7782                           ;C:\Program Files\Microchip\xc8\v2.40\pic\sources\c99\common\doprnt.c: 463:     w = widt
      +                          h;
  7783   001640  C13B  F032         	movff	_width,dtoa@w
  7784   001644  C13C  F033         	movff	_width+1,dtoa@w+1
  7785   001648                     
  7786                           ; BSR set to: 0
  7787                           ;C:\Program Files\Microchip\xc8\v2.40\pic\sources\c99\common\doprnt.c: 464:     if (s
  7788   001648  503E               	movf	dtoa@s^0,w,c
  7789   00164A  B4D8               	btfsc	status,2,c
  7790   00164C  EF2A  F00B         	goto	i2u236_41
  7791   001650  EF2C  F00B         	goto	i2u236_40
  7792   001654                     i2u236_41:
  7793   001654  EF43  F00B         	goto	i2l1224
  7794   001658                     i2u236_40:
  7795   001658                     
  7796                           ; BSR set to: 0
  7797                           ;C:\Program Files\Microchip\xc8\v2.40\pic\sources\c99\common\doprnt.c: 468:     ) {;C:\P
      +                          rogram Files\Microchip\xc8\v2.40\pic\sources\c99\common\doprnt.c: 469:         --w;
  7798   001658  0632               	decf	dtoa@w^0,f,c
  7799   00165A  A0D8               	btfss	status,0,c
  7800   00165C  0633               	decf	(dtoa@w+1)^0,f,c
  7801   00165E                     
  7802                           ; BSR set to: 0
  7803                           ;C:\Program Files\Microchip\xc8\v2.40\pic\sources\c99\common\doprnt.c: 470:   s = s ? '-
      +                          ' : '+';
  7804   00165E  503E               	movf	dtoa@s^0,w,c
  7805   001660  A4D8               	btfss	status,2,c
  7806   001662  EF35  F00B         	goto	i2u237_41
  7807   001666  EF37  F00B         	goto	i2u237_40
  7808   00166A                     i2u237_41:
  7809   00166A  EF3D  F00B         	goto	i2l2993
  7810   00166E                     i2u237_40:
  7811   00166E                     
  7812                           ; BSR set to: 0
  7813   00166E  0E00               	movlw	0
  7814   001670  6E2F               	movwf	(_dtoa$949+1)^0,c
  7815   001672  0E2B               	movlw	43
  7816   001674  6E2E               	movwf	_dtoa$949^0,c
  7817   001676  EF41  F00B         	goto	i2l2995
  7818   00167A                     i2l2993:
  7819                           
  7820                           ; BSR set to: 0
  7821   00167A  0E00               	movlw	0
  7822   00167C  6E2F               	movwf	(_dtoa$949+1)^0,c
  7823   00167E  0E2D               	movlw	45
  7824   001680  6E2E               	movwf	_dtoa$949^0,c
  7825   001682                     i2l2995:
  7826                           
  7827                           ; BSR set to: 0
  7828   001682  C02E  F03E         	movff	_dtoa$949,dtoa@s
  7829   001686                     i2l1224:
  7830                           
  7831                           ; BSR set to: 0
  7832                           ;C:\Program Files\Microchip\xc8\v2.40\pic\sources\c99\common\doprnt.c: 480:     i = size
      +                          of(dbuf) - 1;
  7833   001686  0E00               	movlw	0
  7834   001688  6E3D               	movwf	(dtoa@i+1)^0,c
  7835   00168A  0E1F               	movlw	31
  7836   00168C  6E3C               	movwf	dtoa@i^0,c
  7837   00168E                     
  7838                           ; BSR set to: 0
  7839                           ;C:\Program Files\Microchip\xc8\v2.40\pic\sources\c99\common\doprnt.c: 481:     dbuf[i] 
      +                          = '\0';
  7840   00168E  0E00               	movlw	0
  7841   001690  0101               	movlb	1	; () banked
  7842   001692  6F64               	movwf	(_dbuf+31)& (0+255),b
  7843                           
  7844                           ;C:\Program Files\Microchip\xc8\v2.40\pic\sources\c99\common\doprnt.c: 482:     while (!
      +                          (i < 1) && (n || (0 < p)
  7845   001694  EFC8  F00B         	goto	i2l3009
  7846   001698                     i2l2999:
  7847                           
  7848                           ;C:\Program Files\Microchip\xc8\v2.40\pic\sources\c99\common\doprnt.c: 486:     )) {;C:\
      +                          Program Files\Microchip\xc8\v2.40\pic\sources\c99\common\doprnt.c: 487:         --i;
  7849   001698  063C               	decf	dtoa@i^0,f,c
  7850   00169A  A0D8               	btfss	status,0,c
  7851   00169C  063D               	decf	(dtoa@i+1)^0,f,c
  7852   00169E                     
  7853                           ;C:\Program Files\Microchip\xc8\v2.40\pic\sources\c99\common\doprnt.c: 488:         dbuf
      +                          [i] = (char)((int)'0' + abs(n % 10));
  7854   00169E  0E45               	movlw	low _dbuf
  7855   0016A0  243C               	addwf	dtoa@i^0,w,c
  7856   0016A2  6ED9               	movwf	fsr2l,c
  7857   0016A4  0E01               	movlw	high _dbuf
  7858   0016A6  203D               	addwfc	(dtoa@i+1)^0,w,c
  7859   0016A8  6EDA               	movwf	fsr2h,c
  7860   0016AA  C034  F001         	movff	dtoa@n,___aomod@dividend
  7861   0016AE  C035  F002         	movff	dtoa@n+1,___aomod@dividend+1
  7862   0016B2  C036  F003         	movff	dtoa@n+2,___aomod@dividend+2
  7863   0016B6  C037  F004         	movff	dtoa@n+3,___aomod@dividend+3
  7864   0016BA  C038  F005         	movff	dtoa@n+4,___aomod@dividend+4
  7865   0016BE  C039  F006         	movff	dtoa@n+5,___aomod@dividend+5
  7866   0016C2  C03A  F007         	movff	dtoa@n+6,___aomod@dividend+6
  7867   0016C6  C03B  F008         	movff	dtoa@n+7,___aomod@dividend+7
  7868   0016CA  0E0A               	movlw	10
  7869   0016CC  6E09               	movwf	___aomod@divisor^0,c
  7870   0016CE  0E00               	movlw	0
  7871   0016D0  6E0A               	movwf	(___aomod@divisor+1)^0,c
  7872   0016D2  0E00               	movlw	0
  7873   0016D4  6E0B               	movwf	(___aomod@divisor+2)^0,c
  7874   0016D6  0E00               	movlw	0
  7875   0016D8  6E0C               	movwf	(___aomod@divisor+3)^0,c
  7876   0016DA  0E00               	movlw	0
  7877   0016DC  6E0D               	movwf	(___aomod@divisor+4)^0,c
  7878   0016DE  0E00               	movlw	0
  7879   0016E0  6E0E               	movwf	(___aomod@divisor+5)^0,c
  7880   0016E2  0E00               	movlw	0
  7881   0016E4  6E0F               	movwf	(___aomod@divisor+6)^0,c
  7882   0016E6  0E00               	movlw	0
  7883   0016E8  6E10               	movwf	(___aomod@divisor+7)^0,c
  7884   0016EA  ECF2  F011         	call	___aomod	;wreg free
  7885   0016EE  C001  F026         	movff	?___aomod,??_dtoa
  7886   0016F2  C002  F027         	movff	?___aomod+1,??_dtoa+1
  7887   0016F6  C003  F028         	movff	?___aomod+2,??_dtoa+2
  7888   0016FA  C004  F029         	movff	?___aomod+3,??_dtoa+3
  7889   0016FE  C005  F02A         	movff	?___aomod+4,??_dtoa+4
  7890   001702  C006  F02B         	movff	?___aomod+5,??_dtoa+5
  7891   001706  C007  F02C         	movff	?___aomod+6,??_dtoa+6
  7892   00170A  C008  F02D         	movff	?___aomod+7,??_dtoa+7
  7893   00170E  C026  F013         	movff	??_dtoa,abs@a
  7894   001712  C027  F014         	movff	??_dtoa+1,abs@a+1
  7895   001716  EC25  F019         	call	_abs	;wreg free
  7896   00171A  5013               	movf	?_abs^0,w,c
  7897   00171C  0F30               	addlw	48
  7898   00171E  6EDF               	movwf	indf2,c
  7899   001720                     
  7900                           ;C:\Program Files\Microchip\xc8\v2.40\pic\sources\c99\common\doprnt.c: 489:         --p;
  7901   001720  0630               	decf	dtoa@p^0,f,c
  7902   001722  A0D8               	btfss	status,0,c
  7903   001724  0631               	decf	(dtoa@p+1)^0,f,c
  7904   001726                     
  7905                           ;C:\Program Files\Microchip\xc8\v2.40\pic\sources\c99\common\doprnt.c: 490:         --w;
  7906   001726  0632               	decf	dtoa@w^0,f,c
  7907   001728  A0D8               	btfss	status,0,c
  7908   00172A  0633               	decf	(dtoa@w+1)^0,f,c
  7909   00172C                     
  7910                           ;C:\Program Files\Microchip\xc8\v2.40\pic\sources\c99\common\doprnt.c: 491:         n = 
      +                          n / 10;
  7911   00172C  C034  F001         	movff	dtoa@n,___aodiv@dividend
  7912   001730  C035  F002         	movff	dtoa@n+1,___aodiv@dividend+1
  7913   001734  C036  F003         	movff	dtoa@n+2,___aodiv@dividend+2
  7914   001738  C037  F004         	movff	dtoa@n+3,___aodiv@dividend+3
  7915   00173C  C038  F005         	movff	dtoa@n+4,___aodiv@dividend+4
  7916   001740  C039  F006         	movff	dtoa@n+5,___aodiv@dividend+5
  7917   001744  C03A  F007         	movff	dtoa@n+6,___aodiv@dividend+6
  7918   001748  C03B  F008         	movff	dtoa@n+7,___aodiv@dividend+7
  7919   00174C  0E0A               	movlw	10
  7920   00174E  6E09               	movwf	___aodiv@divisor^0,c
  7921   001750  0E00               	movlw	0
  7922   001752  6E0A               	movwf	(___aodiv@divisor+1)^0,c
  7923   001754  0E00               	movlw	0
  7924   001756  6E0B               	movwf	(___aodiv@divisor+2)^0,c
  7925   001758  0E00               	movlw	0
  7926   00175A  6E0C               	movwf	(___aodiv@divisor+3)^0,c
  7927   00175C  0E00               	movlw	0
  7928   00175E  6E0D               	movwf	(___aodiv@divisor+4)^0,c
  7929   001760  0E00               	movlw	0
  7930   001762  6E0E               	movwf	(___aodiv@divisor+5)^0,c
  7931   001764  0E00               	movlw	0
  7932   001766  6E0F               	movwf	(___aodiv@divisor+6)^0,c
  7933   001768  0E00               	movlw	0
  7934   00176A  6E10               	movwf	(___aodiv@divisor+7)^0,c
  7935   00176C  EC2E  F011         	call	___aodiv	;wreg free
  7936   001770  C001  F034         	movff	?___aodiv,dtoa@n
  7937   001774  C002  F035         	movff	?___aodiv+1,dtoa@n+1
  7938   001778  C003  F036         	movff	?___aodiv+2,dtoa@n+2
  7939   00177C  C004  F037         	movff	?___aodiv+3,dtoa@n+3
  7940   001780  C005  F038         	movff	?___aodiv+4,dtoa@n+4
  7941   001784  C006  F039         	movff	?___aodiv+5,dtoa@n+5
  7942   001788  C007  F03A         	movff	?___aodiv+6,dtoa@n+6
  7943   00178C  C008  F03B         	movff	?___aodiv+7,dtoa@n+7
  7944   001790                     i2l3009:
  7945                           
  7946                           ;C:\Program Files\Microchip\xc8\v2.40\pic\sources\c99\common\doprnt.c: 482:     while (!
      +                          (i < 1) && (n || (0 < p)
  7947   001790  BE3D               	btfsc	(dtoa@i+1)^0,7,c
  7948   001792  EFD3  F00B         	goto	i2u238_41
  7949   001796  503D               	movf	(dtoa@i+1)^0,w,c
  7950   001798  E108               	bnz	i2u238_40
  7951   00179A  043C               	decf	dtoa@i^0,w,c
  7952   00179C  A0D8               	btfss	status,0,c
  7953   00179E  EFD3  F00B         	goto	i2u238_41
  7954   0017A2  EFD5  F00B         	goto	i2u238_40
  7955   0017A6                     i2u238_41:
  7956   0017A6  EFF1  F00B         	goto	i2l3015
  7957   0017AA                     i2u238_40:
  7958   0017AA  5034               	movf	dtoa@n^0,w,c
  7959   0017AC  1035               	iorwf	(dtoa@n+1)^0,w,c
  7960   0017AE  1036               	iorwf	(dtoa@n+2)^0,w,c
  7961   0017B0  1037               	iorwf	(dtoa@n+3)^0,w,c
  7962   0017B2  1038               	iorwf	(dtoa@n+4)^0,w,c
  7963   0017B4  1039               	iorwf	(dtoa@n+5)^0,w,c
  7964   0017B6  103A               	iorwf	(dtoa@n+6)^0,w,c
  7965   0017B8  103B               	iorwf	(dtoa@n+7)^0,w,c
  7966   0017BA  A4D8               	btfss	status,2,c
  7967   0017BC  EFE2  F00B         	goto	i2u239_41
  7968   0017C0  EFE4  F00B         	goto	i2u239_40
  7969   0017C4                     i2u239_41:
  7970   0017C4  EF4C  F00B         	goto	i2l2999
  7971   0017C8                     i2u239_40:
  7972   0017C8  BE31               	btfsc	(dtoa@p+1)^0,7,c
  7973   0017CA  EFF1  F00B         	goto	i2u240_40
  7974   0017CE  5031               	movf	(dtoa@p+1)^0,w,c
  7975   0017D0  E106               	bnz	i2u240_41
  7976   0017D2  0430               	decf	dtoa@p^0,w,c
  7977   0017D4  B0D8               	btfsc	status,0,c
  7978   0017D6  EFEF  F00B         	goto	i2u240_41
  7979   0017DA  EFF1  F00B         	goto	i2u240_40
  7980   0017DE                     i2u240_41:
  7981   0017DE  EF4C  F00B         	goto	i2l2999
  7982   0017E2                     i2u240_40:
  7983   0017E2                     i2l3015:
  7984                           
  7985                           ;C:\Program Files\Microchip\xc8\v2.40\pic\sources\c99\common\doprnt.c: 495:     if (s !=
      +                           0) {
  7986   0017E2  503E               	movf	dtoa@s^0,w,c
  7987   0017E4  B4D8               	btfsc	status,2,c
  7988   0017E6  EFF7  F00B         	goto	i2u241_41
  7989   0017EA  EFF9  F00B         	goto	i2u241_40
  7990   0017EE                     i2u241_41:
  7991   0017EE  EF04  F00C         	goto	i2l3021
  7992   0017F2                     i2u241_40:
  7993   0017F2                     
  7994                           ;C:\Program Files\Microchip\xc8\v2.40\pic\sources\c99\common\doprnt.c: 496:         --i;
  7995   0017F2  063C               	decf	dtoa@i^0,f,c
  7996   0017F4  A0D8               	btfss	status,0,c
  7997   0017F6  063D               	decf	(dtoa@i+1)^0,f,c
  7998   0017F8                     
  7999                           ;C:\Program Files\Microchip\xc8\v2.40\pic\sources\c99\common\doprnt.c: 497:         dbuf
      +                          [i] = s;
  8000   0017F8  0E45               	movlw	low _dbuf
  8001   0017FA  243C               	addwf	dtoa@i^0,w,c
  8002   0017FC  6ED9               	movwf	fsr2l,c
  8003   0017FE  0E01               	movlw	high _dbuf
  8004   001800  203D               	addwfc	(dtoa@i+1)^0,w,c
  8005   001802  6EDA               	movwf	fsr2h,c
  8006   001804  C03E  FFDF         	movff	dtoa@s,indf2
  8007   001808                     i2l3021:
  8008                           
  8009                           ;C:\Program Files\Microchip\xc8\v2.40\pic\sources\c99\common\doprnt.c: 501:     return (
      +                          void) pad(fp, &dbuf[i], w);
  8010   001808  C01C  F011         	movff	dtoa@fp,pad@fp
  8011   00180C  C01D  F012         	movff	dtoa@fp+1,pad@fp+1
  8012   001810  0E45               	movlw	low _dbuf
  8013   001812  243C               	addwf	dtoa@i^0,w,c
  8014   001814  6E13               	movwf	pad@buf^0,c
  8015   001816  0E01               	movlw	high _dbuf
  8016   001818  203D               	addwfc	(dtoa@i+1)^0,w,c
  8017   00181A  6E14               	movwf	(pad@buf+1)^0,c
  8018   00181C  C032  F015         	movff	dtoa@w,pad@p
  8019   001820  C033  F016         	movff	dtoa@w+1,pad@p+1
  8020   001824  EC70  F017         	call	_pad	;wreg free
  8021   001828  0012               	return		;funcret
  8022   00182A                     __end_of_dtoa:
  8023                           	callstack 0
  8024                           
  8025 ;; *************** function _pad *****************
  8026 ;; Defined at:
  8027 ;;		line 133 in file "C:\Program Files\Microchip\xc8\v2.40\pic\sources\c99\common\doprnt.c"
  8028 ;; Parameters:    Size  Location     Type
  8029 ;;  fp              2   16[COMRAM] PTR struct _IO_FILE
  8030 ;;		 -> sprintf@f(11), 
  8031 ;;  buf             2   18[COMRAM] PTR unsigned char 
  8032 ;;		 -> dbuf(32), 
  8033 ;;  p               2   20[COMRAM] int 
  8034 ;; Auto vars:     Size  Location     Type
  8035 ;;  w               2   25[COMRAM] int 
  8036 ;;  i               2   23[COMRAM] int 
  8037 ;; Return value:  Size  Location     Type
  8038 ;;                  1    wreg      void 
  8039 ;; Registers used:
  8040 ;;		wreg, fsr1l, fsr1h, fsr2l, fsr2h, status,2, status,0, cstack
  8041 ;; Tracked objects:
  8042 ;;		On entry : 0/0
  8043 ;;		On exit  : 0/0
  8044 ;;		Unchanged: 0/0
  8045 ;; Data sizes:     COMRAM   BANK0   BANK1   BANK2   BANK3   BANK4   BANK5
  8046 ;;      Params:         6       0       0       0       0       0       0
  8047 ;;      Locals:         4       0       0       0       0       0       0
  8048 ;;      Temps:          1       0       0       0       0       0       0
  8049 ;;      Totals:        11       0       0       0       0       0       0
  8050 ;;Total ram usage:       11 bytes
  8051 ;; Hardware stack levels used: 1
  8052 ;; Hardware stack levels required when called: 3
  8053 ;; This function calls:
  8054 ;;		_fputc
  8055 ;;		_fputs
  8056 ;; This function is called by:
  8057 ;;		_dtoa
  8058 ;; This function uses a non-reentrant model
  8059 ;;
  8060                           
  8061                           	psect	text36
  8062   002EE0                     __ptext36:
  8063                           	callstack 0
  8064   002EE0                     _pad:
  8065                           	callstack 15
  8066   002EE0                     
  8067                           ;C:\Program Files\Microchip\xc8\v2.40\pic\sources\c99\common\doprnt.c: 133: static void 
      +                          pad(FILE *fp, char *buf, int p);C:\Program Files\Microchip\xc8\v2.40\pic\sources\c99\com
      +                          mon\doprnt.c: 134: {;C:\Program Files\Microchip\xc8\v2.40\pic\sources\c99\common\doprnt.
      +                          c: 135:     int i, w;;C:\Program Files\Microchip\xc8\v2.40\pic\sources\c99\common\doprnt
      +                          .c: 145:     w = (p < 0) ? 0 : p;
  8068   002EE0  BE16               	btfsc	(pad@p+1)^0,7,c
  8069   002EE2  EF75  F017         	goto	i2u229_41
  8070   002EE6  EF77  F017         	goto	i2u229_40
  8071   002EEA                     i2u229_41:
  8072   002EEA  EF7D  F017         	goto	i2l2959
  8073   002EEE                     i2u229_40:
  8074   002EEE  C015  F01A         	movff	pad@p,pad@w
  8075   002EF2  C016  F01B         	movff	pad@p+1,pad@w+1
  8076   002EF6  EF81  F017         	goto	i2l1212
  8077   002EFA                     i2l2959:
  8078   002EFA  0E00               	movlw	0
  8079   002EFC  6E1B               	movwf	(pad@w+1)^0,c
  8080   002EFE  0E00               	movlw	0
  8081   002F00  6E1A               	movwf	pad@w^0,c
  8082   002F02                     i2l1212:
  8083                           
  8084                           ;C:\Program Files\Microchip\xc8\v2.40\pic\sources\c99\common\doprnt.c: 146:     i = 0;
  8085   002F02  0E00               	movlw	0
  8086   002F04  6E19               	movwf	(pad@i+1)^0,c
  8087   002F06  0E00               	movlw	0
  8088   002F08  6E18               	movwf	pad@i^0,c
  8089                           
  8090                           ;C:\Program Files\Microchip\xc8\v2.40\pic\sources\c99\common\doprnt.c: 147:     while (i
      +                           < w) {
  8091   002F0A  EF93  F017         	goto	i2l2965
  8092   002F0E                     i2l2961:
  8093                           
  8094                           ;C:\Program Files\Microchip\xc8\v2.40\pic\sources\c99\common\doprnt.c: 148:         fput
      +                          c(' ', fp);
  8095   002F0E  0E00               	movlw	0
  8096   002F10  6E02               	movwf	(fputc@c+1)^0,c
  8097   002F12  0E20               	movlw	32
  8098   002F14  6E01               	movwf	fputc@c^0,c
  8099   002F16  C011  F003         	movff	pad@fp,fputc@fp
  8100   002F1A  C012  F004         	movff	pad@fp+1,fputc@fp+1
  8101   002F1E  EC3E  F015         	call	_fputc	;wreg free
  8102   002F22                     
  8103                           ;C:\Program Files\Microchip\xc8\v2.40\pic\sources\c99\common\doprnt.c: 149:         ++i;
  8104   002F22  4A18               	infsnz	pad@i^0,f,c
  8105   002F24  2A19               	incf	(pad@i+1)^0,f,c
  8106   002F26                     i2l2965:
  8107                           
  8108                           ;C:\Program Files\Microchip\xc8\v2.40\pic\sources\c99\common\doprnt.c: 147:     while (i
      +                           < w) {
  8109   002F26  501A               	movf	pad@w^0,w,c
  8110   002F28  5C18               	subwf	pad@i^0,w,c
  8111   002F2A  5019               	movf	(pad@i+1)^0,w,c
  8112   002F2C  0A80               	xorlw	128
  8113   002F2E  6E17               	movwf	??_pad^0,c
  8114   002F30  501B               	movf	(pad@w+1)^0,w,c
  8115   002F32  0A80               	xorlw	128
  8116   002F34  5817               	subwfb	??_pad^0,w,c
  8117   002F36  A0D8               	btfss	status,0,c
  8118   002F38  EFA0  F017         	goto	i2u230_41
  8119   002F3C  EFA2  F017         	goto	i2u230_40
  8120   002F40                     i2u230_41:
  8121   002F40  EF87  F017         	goto	i2l2961
  8122   002F44                     i2u230_40:
  8123   002F44                     
  8124                           ;C:\Program Files\Microchip\xc8\v2.40\pic\sources\c99\common\doprnt.c: 156:         fput
      +                          s((const char *)buf, fp);
  8125   002F44  C013  F00A         	movff	pad@buf,fputs@s
  8126   002F48  C014  F00B         	movff	pad@buf+1,fputs@s+1
  8127   002F4C  C011  F00C         	movff	pad@fp,fputs@fp
  8128   002F50  C012  F00D         	movff	pad@fp+1,fputs@fp+1
  8129   002F54  EC03  F019         	call	_fputs	;wreg free
  8130   002F58  0012               	return		;funcret
  8131   002F5A                     __end_of_pad:
  8132                           	callstack 0
  8133                           
  8134 ;; *************** function _fputs *****************
  8135 ;; Defined at:
  8136 ;;		line 8 in file "C:\Program Files\Microchip\xc8\v2.40\pic\sources\c99\common\nf_fputs.c"
  8137 ;; Parameters:    Size  Location     Type
  8138 ;;  s               2    9[COMRAM] PTR const unsigned char 
  8139 ;;		 -> dbuf(32), 
  8140 ;;  fp              2   11[COMRAM] PTR struct _IO_FILE
  8141 ;;		 -> sprintf@f(11), 
  8142 ;; Auto vars:     Size  Location     Type
  8143 ;;  i               2   14[COMRAM] int 
  8144 ;;  c               1   13[COMRAM] unsigned char 
  8145 ;; Return value:  Size  Location     Type
  8146 ;;                  2    9[COMRAM] int 
  8147 ;; Registers used:
  8148 ;;		wreg, fsr1l, fsr1h, fsr2l, fsr2h, status,2, status,0, cstack
  8149 ;; Tracked objects:
  8150 ;;		On entry : 0/0
  8151 ;;		On exit  : 0/0
  8152 ;;		Unchanged: 0/0
  8153 ;; Data sizes:     COMRAM   BANK0   BANK1   BANK2   BANK3   BANK4   BANK5
  8154 ;;      Params:         4       0       0       0       0       0       0
  8155 ;;      Locals:         3       0       0       0       0       0       0
  8156 ;;      Temps:          0       0       0       0       0       0       0
  8157 ;;      Totals:         7       0       0       0       0       0       0
  8158 ;;Total ram usage:        7 bytes
  8159 ;; Hardware stack levels used: 1
  8160 ;; Hardware stack levels required when called: 2
  8161 ;; This function calls:
  8162 ;;		_fputc
  8163 ;; This function is called by:
  8164 ;;		_pad
  8165 ;; This function uses a non-reentrant model
  8166 ;;
  8167                           
  8168                           	psect	text37
  8169   003206                     __ptext37:
  8170                           	callstack 0
  8171   003206                     _fputs:
  8172                           	callstack 15
  8173   003206  0E00               	movlw	0
  8174   003208  6E10               	movwf	(fputs@i+1)^0,c
  8175   00320A  0E00               	movlw	0
  8176   00320C  6E0F               	movwf	fputs@i^0,c
  8177   00320E  EF14  F019         	goto	i2l2873
  8178   003212                     i2l2869:
  8179   003212  C00E  F001         	movff	fputs@c,fputc@c
  8180   003216  6A02               	clrf	(fputc@c+1)^0,c
  8181   003218  C00C  F003         	movff	fputs@fp,fputc@fp
  8182   00321C  C00D  F004         	movff	fputs@fp+1,fputc@fp+1
  8183   003220  EC3E  F015         	call	_fputc	;wreg free
  8184   003224  4A0F               	infsnz	fputs@i^0,f,c
  8185   003226  2A10               	incf	(fputs@i+1)^0,f,c
  8186   003228                     i2l2873:
  8187   003228  500F               	movf	fputs@i^0,w,c
  8188   00322A  240A               	addwf	fputs@s^0,w,c
  8189   00322C  6ED9               	movwf	fsr2l,c
  8190   00322E  5010               	movf	(fputs@i+1)^0,w,c
  8191   003230  200B               	addwfc	(fputs@s+1)^0,w,c
  8192   003232  6EDA               	movwf	fsr2h,c
  8193   003234  50DF               	movf	indf2,w,c
  8194   003236  6E0E               	movwf	fputs@c^0,c
  8195   003238  500E               	movf	fputs@c^0,w,c
  8196   00323A  A4D8               	btfss	status,2,c
  8197   00323C  EF22  F019         	goto	i2u215_41
  8198   003240  EF24  F019         	goto	i2u215_40
  8199   003244                     i2u215_41:
  8200   003244  EF09  F019         	goto	i2l2869
  8201   003248                     i2u215_40:
  8202   003248  0012               	return		;funcret
  8203   00324A                     __end_of_fputs:
  8204                           	callstack 0
  8205                           
  8206 ;; *************** function _fputc *****************
  8207 ;; Defined at:
  8208 ;;		line 8 in file "C:\Program Files\Microchip\xc8\v2.40\pic\sources\c99\common\nf_fputc.c"
  8209 ;; Parameters:    Size  Location     Type
  8210 ;;  c               2    0[COMRAM] int 
  8211 ;;  fp              2    2[COMRAM] PTR struct _IO_FILE
  8212 ;;		 -> sprintf@f(11), 
  8213 ;; Auto vars:     Size  Location     Type
  8214 ;;		None
  8215 ;; Return value:  Size  Location     Type
  8216 ;;                  2    0[COMRAM] int 
  8217 ;; Registers used:
  8218 ;;		wreg, fsr1l, fsr1h, fsr2l, fsr2h, status,2, status,0, cstack
  8219 ;; Tracked objects:
  8220 ;;		On entry : 0/0
  8221 ;;		On exit  : 0/0
  8222 ;;		Unchanged: 0/0
  8223 ;; Data sizes:     COMRAM   BANK0   BANK1   BANK2   BANK3   BANK4   BANK5
  8224 ;;      Params:         4       0       0       0       0       0       0
  8225 ;;      Locals:         0       0       0       0       0       0       0
  8226 ;;      Temps:          5       0       0       0       0       0       0
  8227 ;;      Totals:         9       0       0       0       0       0       0
  8228 ;;Total ram usage:        9 bytes
  8229 ;; Hardware stack levels used: 1
  8230 ;; Hardware stack levels required when called: 1
  8231 ;; This function calls:
  8232 ;;		_putch
  8233 ;; This function is called by:
  8234 ;;		_pad
  8235 ;;		_vfpfcnvrt
  8236 ;;		_fputs
  8237 ;; This function uses a non-reentrant model
  8238 ;;
  8239                           
  8240                           	psect	text38
  8241   002A7C                     __ptext38:
  8242                           	callstack 0
  8243   002A7C                     _fputc:
  8244                           	callstack 18
  8245   002A7C  5003               	movf	fputc@fp^0,w,c
  8246   002A7E  1004               	iorwf	(fputc@fp+1)^0,w,c
  8247   002A80  B4D8               	btfsc	status,2,c
  8248   002A82  EF45  F015         	goto	i2u211_41
  8249   002A86  EF47  F015         	goto	i2u211_40
  8250   002A8A                     i2u211_41:
  8251   002A8A  EF50  F015         	goto	i2l2857
  8252   002A8E                     i2u211_40:
  8253   002A8E  5003               	movf	fputc@fp^0,w,c
  8254   002A90  1004               	iorwf	(fputc@fp+1)^0,w,c
  8255   002A92  A4D8               	btfss	status,2,c
  8256   002A94  EF4E  F015         	goto	i2u212_41
  8257   002A98  EF50  F015         	goto	i2u212_40
  8258   002A9C                     i2u212_41:
  8259   002A9C  EF55  F015         	goto	i2l2859
  8260   002AA0                     i2u212_40:
  8261   002AA0                     i2l2857:
  8262   002AA0  5001               	movf	fputc@c^0,w,c
  8263   002AA2  EC46  F01A         	call	_putch
  8264   002AA6  EFA2  F015         	goto	i2l1268
  8265   002AAA                     i2l2859:
  8266   002AAA  EE20 F009          	lfsr	2,9
  8267   002AAE  5003               	movf	fputc@fp^0,w,c
  8268   002AB0  26D9               	addwf	fsr2l,f,c
  8269   002AB2  5004               	movf	(fputc@fp+1)^0,w,c
  8270   002AB4  22DA               	addwfc	fsr2h,f,c
  8271   002AB6  50DE               	movf	postinc2,w,c
  8272   002AB8  10DE               	iorwf	postinc2,w,c
  8273   002ABA  B4D8               	btfsc	status,2,c
  8274   002ABC  EF62  F015         	goto	i2u213_41
  8275   002AC0  EF64  F015         	goto	i2u213_40
  8276   002AC4                     i2u213_41:
  8277   002AC4  EF7F  F015         	goto	i2l2863
  8278   002AC8                     i2u213_40:
  8279   002AC8  EE20 F009          	lfsr	2,9
  8280   002ACC  5003               	movf	fputc@fp^0,w,c
  8281   002ACE  26D9               	addwf	fsr2l,f,c
  8282   002AD0  5004               	movf	(fputc@fp+1)^0,w,c
  8283   002AD2  22DA               	addwfc	fsr2h,f,c
  8284   002AD4  EE10 F003          	lfsr	1,3
  8285   002AD8  5003               	movf	fputc@fp^0,w,c
  8286   002ADA  26E1               	addwf	fsr1l,f,c
  8287   002ADC  5004               	movf	(fputc@fp+1)^0,w,c
  8288   002ADE  22E2               	addwfc	fsr1h,f,c
  8289   002AE0  50DE               	movf	postinc2,w,c
  8290   002AE2  5CE6               	subwf	postinc1,w,c
  8291   002AE4  50E6               	movf	postinc1,w,c
  8292   002AE6  0A80               	xorlw	128
  8293   002AE8  6E09               	movwf	(??_fputc+4)^0,c
  8294   002AEA  50DE               	movf	postinc2,w,c
  8295   002AEC  0A80               	xorlw	128
  8296   002AEE  5809               	subwfb	(??_fputc+4)^0,w,c
  8297   002AF0  B0D8               	btfsc	status,0,c
  8298   002AF2  EF7D  F015         	goto	i2u214_41
  8299   002AF6  EF7F  F015         	goto	i2u214_40
  8300   002AFA                     i2u214_41:
  8301   002AFA  EFA2  F015         	goto	i2l1268
  8302   002AFE                     i2u214_40:
  8303   002AFE                     i2l2863:
  8304   002AFE  EE20 F003          	lfsr	2,3
  8305   002B02  5003               	movf	fputc@fp^0,w,c
  8306   002B04  26D9               	addwf	fsr2l,f,c
  8307   002B06  5004               	movf	(fputc@fp+1)^0,w,c
  8308   002B08  22DA               	addwfc	fsr2h,f,c
  8309   002B0A  CFDE F005          	movff	postinc2,??_fputc
  8310   002B0E  CFDD F006          	movff	postdec2,??_fputc+1
  8311   002B12  C003  FFD9         	movff	fputc@fp,fsr2l
  8312   002B16  C004  FFDA         	movff	fputc@fp+1,fsr2h
  8313   002B1A  CFDE F007          	movff	postinc2,??_fputc+2
  8314   002B1E  CFDD F008          	movff	postdec2,??_fputc+3
  8315   002B22  5005               	movf	??_fputc^0,w,c
  8316   002B24  2407               	addwf	(??_fputc+2)^0,w,c
  8317   002B26  6ED9               	movwf	fsr2l,c
  8318   002B28  5006               	movf	(??_fputc+1)^0,w,c
  8319   002B2A  2008               	addwfc	(??_fputc+3)^0,w,c
  8320   002B2C  6EDA               	movwf	fsr2h,c
  8321   002B2E  C001  FFDF         	movff	fputc@c,indf2
  8322   002B32  EE20 F003          	lfsr	2,3
  8323   002B36  5003               	movf	fputc@fp^0,w,c
  8324   002B38  26D9               	addwf	fsr2l,f,c
  8325   002B3A  5004               	movf	(fputc@fp+1)^0,w,c
  8326   002B3C  22DA               	addwfc	fsr2h,f,c
  8327   002B3E  2ADE               	incf	postinc2,f,c
  8328   002B40  0E00               	movlw	0
  8329   002B42  22DD               	addwfc	postdec2,f,c
  8330   002B44                     i2l1268:
  8331   002B44  0012               	return		;funcret
  8332   002B46                     __end_of_fputc:
  8333                           	callstack 0
  8334                           
  8335 ;; *************** function _putch *****************
  8336 ;; Defined at:
  8337 ;;		line 7 in file "C:\Program Files\Microchip\xc8\v2.40\pic\sources\c99\common\putch.c"
  8338 ;; Parameters:    Size  Location     Type
  8339 ;;  c               1    wreg     unsigned char 
  8340 ;; Auto vars:     Size  Location     Type
  8341 ;;  c               1    0[COMRAM] unsigned char 
  8342 ;; Return value:  Size  Location     Type
  8343 ;;                  1    wreg      void 
  8344 ;; Registers used:
  8345 ;;		wreg
  8346 ;; Tracked objects:
  8347 ;;		On entry : 0/0
  8348 ;;		On exit  : 0/0
  8349 ;;		Unchanged: 0/0
  8350 ;; Data sizes:     COMRAM   BANK0   BANK1   BANK2   BANK3   BANK4   BANK5
  8351 ;;      Params:         0       0       0       0       0       0       0
  8352 ;;      Locals:         0       0       0       0       0       0       0
  8353 ;;      Temps:          0       0       0       0       0       0       0
  8354 ;;      Totals:         0       0       0       0       0       0       0
  8355 ;;Total ram usage:        0 bytes
  8356 ;; Hardware stack levels used: 1
  8357 ;; This function calls:
  8358 ;;		Nothing
  8359 ;; This function is called by:
  8360 ;;		_fputc
  8361 ;; This function uses a non-reentrant model
  8362 ;;
  8363                           
  8364                           	psect	text39
  8365   00348C                     __ptext39:
  8366                           	callstack 0
  8367   00348C                     _putch:
  8368                           	callstack 18
  8369   00348C  0012               	return		;funcret
  8370   00348E                     __end_of_putch:
  8371                           	callstack 0
  8372                           
  8373 ;; *************** function _abs *****************
  8374 ;; Defined at:
  8375 ;;		line 1 in file "C:\Program Files\Microchip\xc8\v2.40\pic\sources\c99\common\abs.c"
  8376 ;; Parameters:    Size  Location     Type
  8377 ;;  a               2   18[COMRAM] int 
  8378 ;; Auto vars:     Size  Location     Type
  8379 ;;		None
  8380 ;; Return value:  Size  Location     Type
  8381 ;;                  2   18[COMRAM] int 
  8382 ;; Registers used:
  8383 ;;		wreg, status,2, status,0
  8384 ;; Tracked objects:
  8385 ;;		On entry : 0/0
  8386 ;;		On exit  : 0/0
  8387 ;;		Unchanged: 0/0
  8388 ;; Data sizes:     COMRAM   BANK0   BANK1   BANK2   BANK3   BANK4   BANK5
  8389 ;;      Params:         2       0       0       0       0       0       0
  8390 ;;      Locals:         0       0       0       0       0       0       0
  8391 ;;      Temps:          2       0       0       0       0       0       0
  8392 ;;      Totals:         4       0       0       0       0       0       0
  8393 ;;Total ram usage:        4 bytes
  8394 ;; Hardware stack levels used: 1
  8395 ;; This function calls:
  8396 ;;		Nothing
  8397 ;; This function is called by:
  8398 ;;		_dtoa
  8399 ;; This function uses a non-reentrant model
  8400 ;;
  8401                           
  8402                           	psect	text40
  8403   00324A                     __ptext40:
  8404                           	callstack 0
  8405   00324A                     _abs:
  8406                           	callstack 18
  8407   00324A  BE14               	btfsc	(abs@a+1)^0,7,c
  8408   00324C  EF32  F019         	goto	i2u231_40
  8409   003250  5014               	movf	(abs@a+1)^0,w,c
  8410   003252  E106               	bnz	i2u231_41
  8411   003254  0413               	decf	abs@a^0,w,c
  8412   003256  B0D8               	btfsc	status,0,c
  8413   003258  EF30  F019         	goto	i2u231_41
  8414   00325C  EF32  F019         	goto	i2u231_40
  8415   003260                     i2u231_41:
  8416   003260  EF40  F019         	goto	i2l1253
  8417   003264                     i2u231_40:
  8418   003264  C013  F015         	movff	abs@a,??_abs
  8419   003268  C014  F016         	movff	abs@a+1,??_abs+1
  8420   00326C  1E15               	comf	??_abs^0,f,c
  8421   00326E  1E16               	comf	(??_abs+1)^0,f,c
  8422   003270  4A15               	infsnz	??_abs^0,f,c
  8423   003272  2A16               	incf	(??_abs+1)^0,f,c
  8424   003274  C015  F013         	movff	??_abs,?_abs
  8425   003278  C016  F014         	movff	??_abs+1,?_abs+1
  8426   00327C  EF44  F019         	goto	i2l1256
  8427   003280                     i2l1253:
  8428   003280  C013  F013         	movff	abs@a,?_abs
  8429   003284  C014  F014         	movff	abs@a+1,?_abs+1
  8430   003288                     i2l1256:
  8431   003288  0012               	return		;funcret
  8432   00328A                     __end_of_abs:
  8433                           	callstack 0
  8434                           
  8435 ;; *************** function ___aomod *****************
  8436 ;; Defined at:
  8437 ;;		line 9 in file "C:\Program Files\Microchip\xc8\v2.40\pic\sources\c99\common\aomod.c"
  8438 ;; Parameters:    Size  Location     Type
  8439 ;;  dividend        8    0[COMRAM] long long 
  8440 ;;  divisor         8    8[COMRAM] long long 
  8441 ;; Auto vars:     Size  Location     Type
  8442 ;;  sign            1   17[COMRAM] unsigned char 
  8443 ;;  counter         1   16[COMRAM] unsigned char 
  8444 ;; Return value:  Size  Location     Type
  8445 ;;                  8    0[COMRAM] long long 
  8446 ;; Registers used:
  8447 ;;		wreg, status,2, status,0
  8448 ;; Tracked objects:
  8449 ;;		On entry : 0/0
  8450 ;;		On exit  : 0/0
  8451 ;;		Unchanged: 0/0
  8452 ;; Data sizes:     COMRAM   BANK0   BANK1   BANK2   BANK3   BANK4   BANK5
  8453 ;;      Params:        16       0       0       0       0       0       0
  8454 ;;      Locals:         2       0       0       0       0       0       0
  8455 ;;      Temps:          0       0       0       0       0       0       0
  8456 ;;      Totals:        18       0       0       0       0       0       0
  8457 ;;Total ram usage:       18 bytes
  8458 ;; Hardware stack levels used: 1
  8459 ;; This function calls:
  8460 ;;		Nothing
  8461 ;; This function is called by:
  8462 ;;		_dtoa
  8463 ;; This function uses a non-reentrant model
  8464 ;;
  8465                           
  8466                           	psect	text41
  8467   0023E4                     __ptext41:
  8468                           	callstack 0
  8469   0023E4                     ___aomod:
  8470                           	callstack 18
  8471   0023E4  0E00               	movlw	0
  8472   0023E6  6E12               	movwf	___aomod@sign^0,c
  8473   0023E8  BE08               	btfsc	(___aomod@dividend+7)^0,7,c
  8474   0023EA  EFFB  F011         	goto	i2u223_40
  8475   0023EE  EFF9  F011         	goto	i2u223_41
  8476   0023F2                     i2u223_41:
  8477   0023F2  EF0D  F012         	goto	i2l2927
  8478   0023F6                     i2u223_40:
  8479   0023F6  1E08               	comf	(___aomod@dividend+7)^0,f,c
  8480   0023F8  1E07               	comf	(___aomod@dividend+6)^0,f,c
  8481   0023FA  1E06               	comf	(___aomod@dividend+5)^0,f,c
  8482   0023FC  1E05               	comf	(___aomod@dividend+4)^0,f,c
  8483   0023FE  1E04               	comf	(___aomod@dividend+3)^0,f,c
  8484   002400  1E03               	comf	(___aomod@dividend+2)^0,f,c
  8485   002402  1E02               	comf	(___aomod@dividend+1)^0,f,c
  8486   002404  6C01               	negf	___aomod@dividend^0,c
  8487   002406  0E00               	movlw	0
  8488   002408  2202               	addwfc	(___aomod@dividend+1)^0,f,c
  8489   00240A  2203               	addwfc	(___aomod@dividend+2)^0,f,c
  8490   00240C  2204               	addwfc	(___aomod@dividend+3)^0,f,c
  8491   00240E  2205               	addwfc	(___aomod@dividend+4)^0,f,c
  8492   002410  2206               	addwfc	(___aomod@dividend+5)^0,f,c
  8493   002412  2207               	addwfc	(___aomod@dividend+6)^0,f,c
  8494   002414  2208               	addwfc	(___aomod@dividend+7)^0,f,c
  8495   002416  0E01               	movlw	1
  8496   002418  6E12               	movwf	___aomod@sign^0,c
  8497   00241A                     i2l2927:
  8498   00241A  BE10               	btfsc	(___aomod@divisor+7)^0,7,c
  8499   00241C  EF14  F012         	goto	i2u224_40
  8500   002420  EF12  F012         	goto	i2u224_41
  8501   002424                     i2u224_41:
  8502   002424  EF24  F012         	goto	i2l2931
  8503   002428                     i2u224_40:
  8504   002428  1E10               	comf	(___aomod@divisor+7)^0,f,c
  8505   00242A  1E0F               	comf	(___aomod@divisor+6)^0,f,c
  8506   00242C  1E0E               	comf	(___aomod@divisor+5)^0,f,c
  8507   00242E  1E0D               	comf	(___aomod@divisor+4)^0,f,c
  8508   002430  1E0C               	comf	(___aomod@divisor+3)^0,f,c
  8509   002432  1E0B               	comf	(___aomod@divisor+2)^0,f,c
  8510   002434  1E0A               	comf	(___aomod@divisor+1)^0,f,c
  8511   002436  6C09               	negf	___aomod@divisor^0,c
  8512   002438  0E00               	movlw	0
  8513   00243A  220A               	addwfc	(___aomod@divisor+1)^0,f,c
  8514   00243C  220B               	addwfc	(___aomod@divisor+2)^0,f,c
  8515   00243E  220C               	addwfc	(___aomod@divisor+3)^0,f,c
  8516   002440  220D               	addwfc	(___aomod@divisor+4)^0,f,c
  8517   002442  220E               	addwfc	(___aomod@divisor+5)^0,f,c
  8518   002444  220F               	addwfc	(___aomod@divisor+6)^0,f,c
  8519   002446  2210               	addwfc	(___aomod@divisor+7)^0,f,c
  8520   002448                     i2l2931:
  8521   002448  5009               	movf	___aomod@divisor^0,w,c
  8522   00244A  100A               	iorwf	(___aomod@divisor+1)^0,w,c
  8523   00244C  100B               	iorwf	(___aomod@divisor+2)^0,w,c
  8524   00244E  100C               	iorwf	(___aomod@divisor+3)^0,w,c
  8525   002450  100D               	iorwf	(___aomod@divisor+4)^0,w,c
  8526   002452  100E               	iorwf	(___aomod@divisor+5)^0,w,c
  8527   002454  100F               	iorwf	(___aomod@divisor+6)^0,w,c
  8528   002456  1010               	iorwf	(___aomod@divisor+7)^0,w,c
  8529   002458  B4D8               	btfsc	status,2,c
  8530   00245A  EF31  F012         	goto	i2u225_41
  8531   00245E  EF33  F012         	goto	i2u225_40
  8532   002462                     i2u225_41:
  8533   002462  EF7B  F012         	goto	i2l2947
  8534   002466                     i2u225_40:
  8535   002466  0E01               	movlw	1
  8536   002468  6E11               	movwf	___aomod@counter^0,c
  8537   00246A  EF41  F012         	goto	i2l2937
  8538   00246E                     i2l2935:
  8539   00246E  90D8               	bcf	status,0,c
  8540   002470  3609               	rlcf	___aomod@divisor^0,f,c
  8541   002472  360A               	rlcf	(___aomod@divisor+1)^0,f,c
  8542   002474  360B               	rlcf	(___aomod@divisor+2)^0,f,c
  8543   002476  360C               	rlcf	(___aomod@divisor+3)^0,f,c
  8544   002478  360D               	rlcf	(___aomod@divisor+4)^0,f,c
  8545   00247A  360E               	rlcf	(___aomod@divisor+5)^0,f,c
  8546   00247C  360F               	rlcf	(___aomod@divisor+6)^0,f,c
  8547   00247E  3610               	rlcf	(___aomod@divisor+7)^0,f,c
  8548   002480  2A11               	incf	___aomod@counter^0,f,c
  8549   002482                     i2l2937:
  8550   002482  AE10               	btfss	(___aomod@divisor+7)^0,7,c
  8551   002484  EF46  F012         	goto	i2u226_41
  8552   002488  EF48  F012         	goto	i2u226_40
  8553   00248C                     i2u226_41:
  8554   00248C  EF37  F012         	goto	i2l2935
  8555   002490                     i2u226_40:
  8556   002490                     i2l2939:
  8557   002490  5009               	movf	___aomod@divisor^0,w,c
  8558   002492  5C01               	subwf	___aomod@dividend^0,w,c
  8559   002494  500A               	movf	(___aomod@divisor+1)^0,w,c
  8560   002496  5802               	subwfb	(___aomod@dividend+1)^0,w,c
  8561   002498  500B               	movf	(___aomod@divisor+2)^0,w,c
  8562   00249A  5803               	subwfb	(___aomod@dividend+2)^0,w,c
  8563   00249C  500C               	movf	(___aomod@divisor+3)^0,w,c
  8564   00249E  5804               	subwfb	(___aomod@dividend+3)^0,w,c
  8565   0024A0  500D               	movf	(___aomod@divisor+4)^0,w,c
  8566   0024A2  5805               	subwfb	(___aomod@dividend+4)^0,w,c
  8567   0024A4  500E               	movf	(___aomod@divisor+5)^0,w,c
  8568   0024A6  5806               	subwfb	(___aomod@dividend+5)^0,w,c
  8569   0024A8  500F               	movf	(___aomod@divisor+6)^0,w,c
  8570   0024AA  5807               	subwfb	(___aomod@dividend+6)^0,w,c
  8571   0024AC  5010               	movf	(___aomod@divisor+7)^0,w,c
  8572   0024AE  5808               	subwfb	(___aomod@dividend+7)^0,w,c
  8573   0024B0  A0D8               	btfss	status,0,c
  8574   0024B2  EF5D  F012         	goto	i2u227_41
  8575   0024B6  EF5F  F012         	goto	i2u227_40
  8576   0024BA                     i2u227_41:
  8577   0024BA  EF6F  F012         	goto	i2l2943
  8578   0024BE                     i2u227_40:
  8579   0024BE  5009               	movf	___aomod@divisor^0,w,c
  8580   0024C0  5E01               	subwf	___aomod@dividend^0,f,c
  8581   0024C2  500A               	movf	(___aomod@divisor+1)^0,w,c
  8582   0024C4  5A02               	subwfb	(___aomod@dividend+1)^0,f,c
  8583   0024C6  500B               	movf	(___aomod@divisor+2)^0,w,c
  8584   0024C8  5A03               	subwfb	(___aomod@dividend+2)^0,f,c
  8585   0024CA  500C               	movf	(___aomod@divisor+3)^0,w,c
  8586   0024CC  5A04               	subwfb	(___aomod@dividend+3)^0,f,c
  8587   0024CE  500D               	movf	(___aomod@divisor+4)^0,w,c
  8588   0024D0  5A05               	subwfb	(___aomod@dividend+4)^0,f,c
  8589   0024D2  500E               	movf	(___aomod@divisor+5)^0,w,c
  8590   0024D4  5A06               	subwfb	(___aomod@dividend+5)^0,f,c
  8591   0024D6  500F               	movf	(___aomod@divisor+6)^0,w,c
  8592   0024D8  5A07               	subwfb	(___aomod@dividend+6)^0,f,c
  8593   0024DA  5010               	movf	(___aomod@divisor+7)^0,w,c
  8594   0024DC  5A08               	subwfb	(___aomod@dividend+7)^0,f,c
  8595   0024DE                     i2l2943:
  8596   0024DE  90D8               	bcf	status,0,c
  8597   0024E0  3210               	rrcf	(___aomod@divisor+7)^0,f,c
  8598   0024E2  320F               	rrcf	(___aomod@divisor+6)^0,f,c
  8599   0024E4  320E               	rrcf	(___aomod@divisor+5)^0,f,c
  8600   0024E6  320D               	rrcf	(___aomod@divisor+4)^0,f,c
  8601   0024E8  320C               	rrcf	(___aomod@divisor+3)^0,f,c
  8602   0024EA  320B               	rrcf	(___aomod@divisor+2)^0,f,c
  8603   0024EC  320A               	rrcf	(___aomod@divisor+1)^0,f,c
  8604   0024EE  3209               	rrcf	___aomod@divisor^0,f,c
  8605   0024F0  2E11               	decfsz	___aomod@counter^0,f,c
  8606   0024F2  EF48  F012         	goto	i2l2939
  8607   0024F6                     i2l2947:
  8608   0024F6  5012               	movf	___aomod@sign^0,w,c
  8609   0024F8  B4D8               	btfsc	status,2,c
  8610   0024FA  EF81  F012         	goto	i2u228_41
  8611   0024FE  EF83  F012         	goto	i2u228_40
  8612   002502                     i2u228_41:
  8613   002502  EF93  F012         	goto	i2l2951
  8614   002506                     i2u228_40:
  8615   002506  1E08               	comf	(___aomod@dividend+7)^0,f,c
  8616   002508  1E07               	comf	(___aomod@dividend+6)^0,f,c
  8617   00250A  1E06               	comf	(___aomod@dividend+5)^0,f,c
  8618   00250C  1E05               	comf	(___aomod@dividend+4)^0,f,c
  8619   00250E  1E04               	comf	(___aomod@dividend+3)^0,f,c
  8620   002510  1E03               	comf	(___aomod@dividend+2)^0,f,c
  8621   002512  1E02               	comf	(___aomod@dividend+1)^0,f,c
  8622   002514  6C01               	negf	___aomod@dividend^0,c
  8623   002516  0E00               	movlw	0
  8624   002518  2202               	addwfc	(___aomod@dividend+1)^0,f,c
  8625   00251A  2203               	addwfc	(___aomod@dividend+2)^0,f,c
  8626   00251C  2204               	addwfc	(___aomod@dividend+3)^0,f,c
  8627   00251E  2205               	addwfc	(___aomod@dividend+4)^0,f,c
  8628   002520  2206               	addwfc	(___aomod@dividend+5)^0,f,c
  8629   002522  2207               	addwfc	(___aomod@dividend+6)^0,f,c
  8630   002524  2208               	addwfc	(___aomod@dividend+7)^0,f,c
  8631   002526                     i2l2951:
  8632   002526  C001  F001         	movff	___aomod@dividend,?___aomod
  8633   00252A  C002  F002         	movff	___aomod@dividend+1,?___aomod+1
  8634   00252E  C003  F003         	movff	___aomod@dividend+2,?___aomod+2
  8635   002532  C004  F004         	movff	___aomod@dividend+3,?___aomod+3
  8636   002536  C005  F005         	movff	___aomod@dividend+4,?___aomod+4
  8637   00253A  C006  F006         	movff	___aomod@dividend+5,?___aomod+5
  8638   00253E  C007  F007         	movff	___aomod@dividend+6,?___aomod+6
  8639   002542  C008  F008         	movff	___aomod@dividend+7,?___aomod+7
  8640   002546  0012               	return		;funcret
  8641   002548                     __end_of___aomod:
  8642                           	callstack 0
  8643                           
  8644 ;; *************** function ___aodiv *****************
  8645 ;; Defined at:
  8646 ;;		line 9 in file "C:\Program Files\Microchip\xc8\v2.40\pic\sources\c99\common\aodiv.c"
  8647 ;; Parameters:    Size  Location     Type
  8648 ;;  dividend        8    0[COMRAM] long long 
  8649 ;;  divisor         8    8[COMRAM] long long 
  8650 ;; Auto vars:     Size  Location     Type
  8651 ;;  quotient        8   18[COMRAM] long long 
  8652 ;;  sign            1   17[COMRAM] unsigned char 
  8653 ;;  counter         1   16[COMRAM] unsigned char 
  8654 ;; Return value:  Size  Location     Type
  8655 ;;                  8    0[COMRAM] long long 
  8656 ;; Registers used:
  8657 ;;		wreg, fsr2l, fsr2h, status,2, status,0
  8658 ;; Tracked objects:
  8659 ;;		On entry : 0/0
  8660 ;;		On exit  : 0/0
  8661 ;;		Unchanged: 0/0
  8662 ;; Data sizes:     COMRAM   BANK0   BANK1   BANK2   BANK3   BANK4   BANK5
  8663 ;;      Params:        16       0       0       0       0       0       0
  8664 ;;      Locals:        10       0       0       0       0       0       0
  8665 ;;      Temps:          0       0       0       0       0       0       0
  8666 ;;      Totals:        26       0       0       0       0       0       0
  8667 ;;Total ram usage:       26 bytes
  8668 ;; Hardware stack levels used: 1
  8669 ;; This function calls:
  8670 ;;		Nothing
  8671 ;; This function is called by:
  8672 ;;		_dtoa
  8673 ;; This function uses a non-reentrant model
  8674 ;;
  8675                           
  8676                           	psect	text42
  8677   00225C                     __ptext42:
  8678                           	callstack 0
  8679   00225C                     ___aodiv:
  8680                           	callstack 18
  8681   00225C  0E00               	movlw	0
  8682   00225E  6E12               	movwf	___aodiv@sign^0,c
  8683   002260  BE10               	btfsc	(___aodiv@divisor+7)^0,7,c
  8684   002262  EF37  F011         	goto	i2u216_40
  8685   002266  EF35  F011         	goto	i2u216_41
  8686   00226A                     i2u216_41:
  8687   00226A  EF49  F011         	goto	i2l2883
  8688   00226E                     i2u216_40:
  8689   00226E  1E10               	comf	(___aodiv@divisor+7)^0,f,c
  8690   002270  1E0F               	comf	(___aodiv@divisor+6)^0,f,c
  8691   002272  1E0E               	comf	(___aodiv@divisor+5)^0,f,c
  8692   002274  1E0D               	comf	(___aodiv@divisor+4)^0,f,c
  8693   002276  1E0C               	comf	(___aodiv@divisor+3)^0,f,c
  8694   002278  1E0B               	comf	(___aodiv@divisor+2)^0,f,c
  8695   00227A  1E0A               	comf	(___aodiv@divisor+1)^0,f,c
  8696   00227C  6C09               	negf	___aodiv@divisor^0,c
  8697   00227E  0E00               	movlw	0
  8698   002280  220A               	addwfc	(___aodiv@divisor+1)^0,f,c
  8699   002282  220B               	addwfc	(___aodiv@divisor+2)^0,f,c
  8700   002284  220C               	addwfc	(___aodiv@divisor+3)^0,f,c
  8701   002286  220D               	addwfc	(___aodiv@divisor+4)^0,f,c
  8702   002288  220E               	addwfc	(___aodiv@divisor+5)^0,f,c
  8703   00228A  220F               	addwfc	(___aodiv@divisor+6)^0,f,c
  8704   00228C  2210               	addwfc	(___aodiv@divisor+7)^0,f,c
  8705   00228E  0E01               	movlw	1
  8706   002290  6E12               	movwf	___aodiv@sign^0,c
  8707   002292                     i2l2883:
  8708   002292  BE08               	btfsc	(___aodiv@dividend+7)^0,7,c
  8709   002294  EF50  F011         	goto	i2u217_40
  8710   002298  EF4E  F011         	goto	i2u217_41
  8711   00229C                     i2u217_41:
  8712   00229C  EF62  F011         	goto	i2l2889
  8713   0022A0                     i2u217_40:
  8714   0022A0  1E08               	comf	(___aodiv@dividend+7)^0,f,c
  8715   0022A2  1E07               	comf	(___aodiv@dividend+6)^0,f,c
  8716   0022A4  1E06               	comf	(___aodiv@dividend+5)^0,f,c
  8717   0022A6  1E05               	comf	(___aodiv@dividend+4)^0,f,c
  8718   0022A8  1E04               	comf	(___aodiv@dividend+3)^0,f,c
  8719   0022AA  1E03               	comf	(___aodiv@dividend+2)^0,f,c
  8720   0022AC  1E02               	comf	(___aodiv@dividend+1)^0,f,c
  8721   0022AE  6C01               	negf	___aodiv@dividend^0,c
  8722   0022B0  0E00               	movlw	0
  8723   0022B2  2202               	addwfc	(___aodiv@dividend+1)^0,f,c
  8724   0022B4  2203               	addwfc	(___aodiv@dividend+2)^0,f,c
  8725   0022B6  2204               	addwfc	(___aodiv@dividend+3)^0,f,c
  8726   0022B8  2205               	addwfc	(___aodiv@dividend+4)^0,f,c
  8727   0022BA  2206               	addwfc	(___aodiv@dividend+5)^0,f,c
  8728   0022BC  2207               	addwfc	(___aodiv@dividend+6)^0,f,c
  8729   0022BE  2208               	addwfc	(___aodiv@dividend+7)^0,f,c
  8730   0022C0  0E01               	movlw	1
  8731   0022C2  1A12               	xorwf	___aodiv@sign^0,f,c
  8732   0022C4                     i2l2889:
  8733   0022C4  EE20  F013         	lfsr	2,___aodiv@quotient
  8734   0022C8  0E07               	movlw	7
  8735   0022CA                     i2u218_41:
  8736   0022CA  6ADE               	clrf	postinc2,c
  8737   0022CC  06E8               	decf	wreg,f,c
  8738   0022CE  E2FD               	bc	i2u218_41
  8739   0022D0  5009               	movf	___aodiv@divisor^0,w,c
  8740   0022D2  100A               	iorwf	(___aodiv@divisor+1)^0,w,c
  8741   0022D4  100B               	iorwf	(___aodiv@divisor+2)^0,w,c
  8742   0022D6  100C               	iorwf	(___aodiv@divisor+3)^0,w,c
  8743   0022D8  100D               	iorwf	(___aodiv@divisor+4)^0,w,c
  8744   0022DA  100E               	iorwf	(___aodiv@divisor+5)^0,w,c
  8745   0022DC  100F               	iorwf	(___aodiv@divisor+6)^0,w,c
  8746   0022DE  1010               	iorwf	(___aodiv@divisor+7)^0,w,c
  8747   0022E0  B4D8               	btfsc	status,2,c
  8748   0022E2  EF75  F011         	goto	i2u219_41
  8749   0022E6  EF77  F011         	goto	i2u219_40
  8750   0022EA                     i2u219_41:
  8751   0022EA  EFC9  F011         	goto	i2l2911
  8752   0022EE                     i2u219_40:
  8753   0022EE  0E01               	movlw	1
  8754   0022F0  6E11               	movwf	___aodiv@counter^0,c
  8755   0022F2  EF85  F011         	goto	i2l2897
  8756   0022F6                     i2l2895:
  8757   0022F6  90D8               	bcf	status,0,c
  8758   0022F8  3609               	rlcf	___aodiv@divisor^0,f,c
  8759   0022FA  360A               	rlcf	(___aodiv@divisor+1)^0,f,c
  8760   0022FC  360B               	rlcf	(___aodiv@divisor+2)^0,f,c
  8761   0022FE  360C               	rlcf	(___aodiv@divisor+3)^0,f,c
  8762   002300  360D               	rlcf	(___aodiv@divisor+4)^0,f,c
  8763   002302  360E               	rlcf	(___aodiv@divisor+5)^0,f,c
  8764   002304  360F               	rlcf	(___aodiv@divisor+6)^0,f,c
  8765   002306  3610               	rlcf	(___aodiv@divisor+7)^0,f,c
  8766   002308  2A11               	incf	___aodiv@counter^0,f,c
  8767   00230A                     i2l2897:
  8768   00230A  AE10               	btfss	(___aodiv@divisor+7)^0,7,c
  8769   00230C  EF8A  F011         	goto	i2u220_41
  8770   002310  EF8C  F011         	goto	i2u220_40
  8771   002314                     i2u220_41:
  8772   002314  EF7B  F011         	goto	i2l2895
  8773   002318                     i2u220_40:
  8774   002318                     i2l2899:
  8775   002318  90D8               	bcf	status,0,c
  8776   00231A  3613               	rlcf	___aodiv@quotient^0,f,c
  8777   00231C  3614               	rlcf	(___aodiv@quotient+1)^0,f,c
  8778   00231E  3615               	rlcf	(___aodiv@quotient+2)^0,f,c
  8779   002320  3616               	rlcf	(___aodiv@quotient+3)^0,f,c
  8780   002322  3617               	rlcf	(___aodiv@quotient+4)^0,f,c
  8781   002324  3618               	rlcf	(___aodiv@quotient+5)^0,f,c
  8782   002326  3619               	rlcf	(___aodiv@quotient+6)^0,f,c
  8783   002328  361A               	rlcf	(___aodiv@quotient+7)^0,f,c
  8784   00232A  5009               	movf	___aodiv@divisor^0,w,c
  8785   00232C  5C01               	subwf	___aodiv@dividend^0,w,c
  8786   00232E  500A               	movf	(___aodiv@divisor+1)^0,w,c
  8787   002330  5802               	subwfb	(___aodiv@dividend+1)^0,w,c
  8788   002332  500B               	movf	(___aodiv@divisor+2)^0,w,c
  8789   002334  5803               	subwfb	(___aodiv@dividend+2)^0,w,c
  8790   002336  500C               	movf	(___aodiv@divisor+3)^0,w,c
  8791   002338  5804               	subwfb	(___aodiv@dividend+3)^0,w,c
  8792   00233A  500D               	movf	(___aodiv@divisor+4)^0,w,c
  8793   00233C  5805               	subwfb	(___aodiv@dividend+4)^0,w,c
  8794   00233E  500E               	movf	(___aodiv@divisor+5)^0,w,c
  8795   002340  5806               	subwfb	(___aodiv@dividend+5)^0,w,c
  8796   002342  500F               	movf	(___aodiv@divisor+6)^0,w,c
  8797   002344  5807               	subwfb	(___aodiv@dividend+6)^0,w,c
  8798   002346  5010               	movf	(___aodiv@divisor+7)^0,w,c
  8799   002348  5808               	subwfb	(___aodiv@dividend+7)^0,w,c
  8800   00234A  A0D8               	btfss	status,0,c
  8801   00234C  EFAA  F011         	goto	i2u221_41
  8802   002350  EFAC  F011         	goto	i2u221_40
  8803   002354                     i2u221_41:
  8804   002354  EFBD  F011         	goto	i2l2907
  8805   002358                     i2u221_40:
  8806   002358  5009               	movf	___aodiv@divisor^0,w,c
  8807   00235A  5E01               	subwf	___aodiv@dividend^0,f,c
  8808   00235C  500A               	movf	(___aodiv@divisor+1)^0,w,c
  8809   00235E  5A02               	subwfb	(___aodiv@dividend+1)^0,f,c
  8810   002360  500B               	movf	(___aodiv@divisor+2)^0,w,c
  8811   002362  5A03               	subwfb	(___aodiv@dividend+2)^0,f,c
  8812   002364  500C               	movf	(___aodiv@divisor+3)^0,w,c
  8813   002366  5A04               	subwfb	(___aodiv@dividend+3)^0,f,c
  8814   002368  500D               	movf	(___aodiv@divisor+4)^0,w,c
  8815   00236A  5A05               	subwfb	(___aodiv@dividend+4)^0,f,c
  8816   00236C  500E               	movf	(___aodiv@divisor+5)^0,w,c
  8817   00236E  5A06               	subwfb	(___aodiv@dividend+5)^0,f,c
  8818   002370  500F               	movf	(___aodiv@divisor+6)^0,w,c
  8819   002372  5A07               	subwfb	(___aodiv@dividend+6)^0,f,c
  8820   002374  5010               	movf	(___aodiv@divisor+7)^0,w,c
  8821   002376  5A08               	subwfb	(___aodiv@dividend+7)^0,f,c
  8822   002378  8013               	bsf	___aodiv@quotient^0,0,c
  8823   00237A                     i2l2907:
  8824   00237A  90D8               	bcf	status,0,c
  8825   00237C  3210               	rrcf	(___aodiv@divisor+7)^0,f,c
  8826   00237E  320F               	rrcf	(___aodiv@divisor+6)^0,f,c
  8827   002380  320E               	rrcf	(___aodiv@divisor+5)^0,f,c
  8828   002382  320D               	rrcf	(___aodiv@divisor+4)^0,f,c
  8829   002384  320C               	rrcf	(___aodiv@divisor+3)^0,f,c
  8830   002386  320B               	rrcf	(___aodiv@divisor+2)^0,f,c
  8831   002388  320A               	rrcf	(___aodiv@divisor+1)^0,f,c
  8832   00238A  3209               	rrcf	___aodiv@divisor^0,f,c
  8833   00238C  2E11               	decfsz	___aodiv@counter^0,f,c
  8834   00238E  EF8C  F011         	goto	i2l2899
  8835   002392                     i2l2911:
  8836   002392  5012               	movf	___aodiv@sign^0,w,c
  8837   002394  B4D8               	btfsc	status,2,c
  8838   002396  EFCF  F011         	goto	i2u222_41
  8839   00239A  EFD1  F011         	goto	i2u222_40
  8840   00239E                     i2u222_41:
  8841   00239E  EFE1  F011         	goto	i2l2915
  8842   0023A2                     i2u222_40:
  8843   0023A2  1E1A               	comf	(___aodiv@quotient+7)^0,f,c
  8844   0023A4  1E19               	comf	(___aodiv@quotient+6)^0,f,c
  8845   0023A6  1E18               	comf	(___aodiv@quotient+5)^0,f,c
  8846   0023A8  1E17               	comf	(___aodiv@quotient+4)^0,f,c
  8847   0023AA  1E16               	comf	(___aodiv@quotient+3)^0,f,c
  8848   0023AC  1E15               	comf	(___aodiv@quotient+2)^0,f,c
  8849   0023AE  1E14               	comf	(___aodiv@quotient+1)^0,f,c
  8850   0023B0  6C13               	negf	___aodiv@quotient^0,c
  8851   0023B2  0E00               	movlw	0
  8852   0023B4  2214               	addwfc	(___aodiv@quotient+1)^0,f,c
  8853   0023B6  2215               	addwfc	(___aodiv@quotient+2)^0,f,c
  8854   0023B8  2216               	addwfc	(___aodiv@quotient+3)^0,f,c
  8855   0023BA  2217               	addwfc	(___aodiv@quotient+4)^0,f,c
  8856   0023BC  2218               	addwfc	(___aodiv@quotient+5)^0,f,c
  8857   0023BE  2219               	addwfc	(___aodiv@quotient+6)^0,f,c
  8858   0023C0  221A               	addwfc	(___aodiv@quotient+7)^0,f,c
  8859   0023C2                     i2l2915:
  8860   0023C2  C013  F001         	movff	___aodiv@quotient,?___aodiv
  8861   0023C6  C014  F002         	movff	___aodiv@quotient+1,?___aodiv+1
  8862   0023CA  C015  F003         	movff	___aodiv@quotient+2,?___aodiv+2
  8863   0023CE  C016  F004         	movff	___aodiv@quotient+3,?___aodiv+3
  8864   0023D2  C017  F005         	movff	___aodiv@quotient+4,?___aodiv+4
  8865   0023D6  C018  F006         	movff	___aodiv@quotient+5,?___aodiv+5
  8866   0023DA  C019  F007         	movff	___aodiv@quotient+6,?___aodiv+6
  8867   0023DE  C01A  F008         	movff	___aodiv@quotient+7,?___aodiv+7
  8868   0023E2  0012               	return		;funcret
  8869   0023E4                     __end_of___aodiv:
  8870                           	callstack 0
  8871                           
  8872 ;; *************** function _f_int0 *****************
  8873 ;; Defined at:
  8874 ;;		line 202 in file "main.c"
  8875 ;; Parameters:    Size  Location     Type
  8876 ;;		None
  8877 ;; Auto vars:     Size  Location     Type
  8878 ;;		None
  8879 ;; Return value:  Size  Location     Type
  8880 ;;                  1    wreg      void 
  8881 ;; Registers used:
  8882 ;;		wreg, fsr1l, fsr1h, status,2, status,0, tblptrl, tblptrh, tblptru, cstack
  8883 ;; Tracked objects:
  8884 ;;		On entry : 0/0
  8885 ;;		On exit  : 0/0
  8886 ;;		Unchanged: 0/0
  8887 ;; Data sizes:     COMRAM   BANK0   BANK1   BANK2   BANK3   BANK4   BANK5
  8888 ;;      Params:         0       0       0       0       0       0       0
  8889 ;;      Locals:         0       0       0       0       0       0       0
  8890 ;;      Temps:          0       0       0       0       0       0       0
  8891 ;;      Totals:         0       0       0       0       0       0       0
  8892 ;;Total ram usage:        0 bytes
  8893 ;; Hardware stack levels used: 1
  8894 ;; Hardware stack levels required when called: 3
  8895 ;; This function calls:
  8896 ;;		_f_pwm
  8897 ;;		_lcd_str
  8898 ;;		i2_lcd_cmd
  8899 ;; This function is called by:
  8900 ;;		_read_keyb
  8901 ;; This function uses a non-reentrant model
  8902 ;;
  8903                           
  8904                           	psect	text43
  8905   0032F8                     __ptext43:
  8906                           	callstack 0
  8907   0032F8                     _f_int0:
  8908                           	callstack 20
  8909   0032F8                     
  8910                           ;main.c: 204:     pwm_ventoinha = 0;
  8911   0032F8  0E00               	movlw	0
  8912   0032FA  0100               	movlb	0	; () banked
  8913   0032FC  6FD9               	movwf	(_pwm_ventoinha+1)& (0+255),b
  8914   0032FE  0E00               	movlw	0
  8915   003300  6FD8               	movwf	_pwm_ventoinha& (0+255),b
  8916   003302                     
  8917                           ; BSR set to: 0
  8918                           ;main.c: 205:     lcd_cmd(0x01);
  8919   003302  0E01               	movlw	1
  8920   003304  ECE3  F019         	call	i2_lcd_cmd
  8921   003308                     
  8922                           ;main.c: 206:     f_pwm(pwm_ventoinha);
  8923   003308  C0D8  F001         	movff	_pwm_ventoinha,f_pwm@duty
  8924   00330C  C0D9  F002         	movff	_pwm_ventoinha+1,f_pwm@duty+1
  8925   003310  EC94  F019         	call	_f_pwm	;wreg free
  8926   003314                     
  8927                           ;main.c: 207:     lcd_cmd(0xC0);
  8928   003314  0EC0               	movlw	192
  8929   003316  ECE3  F019         	call	i2_lcd_cmd
  8930   00331A                     
  8931                           ;main.c: 208:     lcd_str("    0%");
  8932   00331A  0E12               	movlw	low STR_3
  8933   00331C  6E03               	movwf	lcd_str@str^0,c
  8934   00331E  0E06               	movlw	high STR_3
  8935   003320  6E04               	movwf	(lcd_str@str+1)^0,c
  8936   003322  ECAD  F017         	call	_lcd_str	;wreg free
  8937   003326  0012               	return		;funcret
  8938   003328                     __end_of_f_int0:
  8939                           	callstack 0
  8940                           
  8941 ;; *************** function i2_lcd_cmd *****************
  8942 ;; Defined at:
  8943 ;;		line 34 in file "lcd.c"
  8944 ;; Parameters:    Size  Location     Type
  8945 ;;  val             1    wreg     unsigned char 
  8946 ;; Auto vars:     Size  Location     Type
  8947 ;;  val             1    1[COMRAM] unsigned char 
  8948 ;; Return value:  Size  Location     Type
  8949 ;;                  1    wreg      void 
  8950 ;; Registers used:
  8951 ;;		wreg, status,2, cstack
  8952 ;; Tracked objects:
  8953 ;;		On entry : 0/0
  8954 ;;		On exit  : 0/0
  8955 ;;		Unchanged: 0/0
  8956 ;; Data sizes:     COMRAM   BANK0   BANK1   BANK2   BANK3   BANK4   BANK5
  8957 ;;      Params:         0       0       0       0       0       0       0
  8958 ;;      Locals:         1       0       0       0       0       0       0
  8959 ;;      Temps:          0       0       0       0       0       0       0
  8960 ;;      Totals:         1       0       0       0       0       0       0
  8961 ;;Total ram usage:        1 bytes
  8962 ;; Hardware stack levels used: 1
  8963 ;; Hardware stack levels required when called: 1
  8964 ;; This function calls:
  8965 ;;		i2_lcd_wr
  8966 ;; This function is called by:
  8967 ;;		_f_timers
  8968 ;;		_show_to_LCD
  8969 ;;		_f_int0
  8970 ;;		_f_int1
  8971 ;;		_f_int2
  8972 ;; This function uses a non-reentrant model
  8973 ;;
  8974                           
  8975                           	psect	text44
  8976   0033C6                     __ptext44:
  8977                           	callstack 0
  8978   0033C6                     i2_lcd_cmd:
  8979                           	callstack 23
  8980                           
  8981                           ;incstack = 0
  8982                           ;i2lcd_cmd@val stored from wreg
  8983   0033C6  6E02               	movwf	i2lcd_cmd@val^0,c
  8984   0033C8                     
  8985                           ;lcd.c: 34: void lcd_cmd(unsigned char val);lcd.c: 35: {;lcd.c: 36:  PORTEbits.RE1=1;
  8986   0033C8  8284               	bsf	132,1,c	;volatile
  8987   0033CA                     
  8988                           ;lcd.c: 37:     lcd_wr(val);
  8989   0033CA  5002               	movf	i2lcd_cmd@val^0,w,c
  8990   0033CC  EC3B  F01A         	call	i2_lcd_wr
  8991   0033D0                     
  8992                           ;lcd.c: 38:     PORTEbits.RE2=0;
  8993   0033D0  9484               	bcf	132,2,c	;volatile
  8994   0033D2                     
  8995                           ;lcd.c: 39:     _delay((unsigned long)((40)*(4000000/4000000.0)));
  8996   0033D2  0E0D               	movlw	13
  8997   0033D4                     i2u433_47:
  8998   0033D4  2EE8               	decfsz	wreg,f,c
  8999   0033D6  D7FE               	bra	i2u433_47
  9000   0033D8  F000               	nop	
  9001   0033DA                     
  9002                           ;lcd.c: 40:     PORTEbits.RE1=0;
  9003   0033DA  9284               	bcf	132,1,c	;volatile
  9004   0033DC                     
  9005                           ;lcd.c: 41:     _delay((unsigned long)((40)*(4000000/4000000.0)));
  9006   0033DC  0E0D               	movlw	13
  9007   0033DE                     i2u434_47:
  9008   0033DE  2EE8               	decfsz	wreg,f,c
  9009   0033E0  D7FE               	bra	i2u434_47
  9010   0033E2  F000               	nop	
  9011   0033E4                     
  9012                           ;lcd.c: 42:  PORTEbits.RE1=1;
  9013   0033E4  8284               	bsf	132,1,c	;volatile
  9014   0033E6  0012               	return		;funcret
  9015   0033E8                     __end_ofi2_lcd_cmd:
  9016                           	callstack 0
  9017                           
  9018 ;; *************** function _lcd_str *****************
  9019 ;; Defined at:
  9020 ;;		line 76 in file "lcd.c"
  9021 ;; Parameters:    Size  Location     Type
  9022 ;;  str             2    2[COMRAM] PTR const unsigned char 
  9023 ;;		 -> buffer(10), STR_3(7), STR_2(5), STR_1(8), 
  9024 ;; Auto vars:     Size  Location     Type
  9025 ;;  i               1    6[COMRAM] unsigned char 
  9026 ;; Return value:  Size  Location     Type
  9027 ;;                  1    wreg      void 
  9028 ;; Registers used:
  9029 ;;		wreg, fsr1l, fsr1h, status,2, status,0, tblptrl, tblptrh, tblptru, cstack
  9030 ;; Tracked objects:
  9031 ;;		On entry : 0/0
  9032 ;;		On exit  : 0/0
  9033 ;;		Unchanged: 0/0
  9034 ;; Data sizes:     COMRAM   BANK0   BANK1   BANK2   BANK3   BANK4   BANK5
  9035 ;;      Params:         2       0       0       0       0       0       0
  9036 ;;      Locals:         1       0       0       0       0       0       0
  9037 ;;      Temps:          2       0       0       0       0       0       0
  9038 ;;      Totals:         5       0       0       0       0       0       0
  9039 ;;Total ram usage:        5 bytes
  9040 ;; Hardware stack levels used: 1
  9041 ;; Hardware stack levels required when called: 2
  9042 ;; This function calls:
  9043 ;;		_lcd_dat
  9044 ;; This function is called by:
  9045 ;;		_f_timers
  9046 ;;		_show_to_LCD
  9047 ;;		_f_int0
  9048 ;;		_f_int1
  9049 ;;		_f_int2
  9050 ;; This function uses a non-reentrant model
  9051 ;;
  9052                           
  9053                           	psect	text45
  9054   002F5A                     __ptext45:
  9055                           	callstack 0
  9056   002F5A                     _lcd_str:
  9057                           	callstack 20
  9058   002F5A                     
  9059                           ;lcd.c: 76: void lcd_str(const char* str);lcd.c: 77: {;lcd.c: 78:  unsigned char i=0;
  9060   002F5A  0E00               	movlw	0
  9061   002F5C  6E07               	movwf	lcd_str@i^0,c
  9062                           
  9063                           ;lcd.c: 80:  while(str[i] != 0 )
  9064   002F5E  EFCA  F017         	goto	i2l3095
  9065   002F62                     i2l3091:
  9066                           
  9067                           ;lcd.c: 81:  {;lcd.c: 82:    lcd_dat(str[i]);
  9068   002F62  5007               	movf	lcd_str@i^0,w,c
  9069   002F64  2403               	addwf	lcd_str@str^0,w,c
  9070   002F66  6E05               	movwf	??_lcd_str^0,c
  9071   002F68  0E00               	movlw	0
  9072   002F6A  2004               	addwfc	(lcd_str@str+1)^0,w,c
  9073   002F6C  6E06               	movwf	(??_lcd_str+1)^0,c
  9074   002F6E  C005  FFF6         	movff	??_lcd_str,tblptrl
  9075   002F72  C006  FFF7         	movff	??_lcd_str+1,tblptrh
  9076   002F76  6AF8               	clrf	tblptru,c
  9077   002F78  0E05               	movlw	(high __ramtop+-1)
  9078   002F7A  64F7               	cpfsgt	tblptrh,c
  9079   002F7C  D003               	bra	i2u247_47
  9080   002F7E  0008               	tblrd		*
  9081   002F80  50F5               	movf	tablat,w,c
  9082   002F82  D005               	bra	i2u247_40
  9083   002F84                     i2u247_47:
  9084   002F84  CFF6 FFE1          	movff	tblptrl,fsr1l
  9085   002F88  CFF7 FFE2          	movff	tblptrh,fsr1h
  9086   002F8C  50E7               	movf	indf1,w,c
  9087   002F8E                     i2u247_40:
  9088   002F8E  ECF4  F019         	call	_lcd_dat
  9089   002F92                     
  9090                           ;lcd.c: 83:    i++;
  9091   002F92  2A07               	incf	lcd_str@i^0,f,c
  9092   002F94                     i2l3095:
  9093                           
  9094                           ;lcd.c: 80:  while(str[i] != 0 )
  9095   002F94  5007               	movf	lcd_str@i^0,w,c
  9096   002F96  2403               	addwf	lcd_str@str^0,w,c
  9097   002F98  6E05               	movwf	??_lcd_str^0,c
  9098   002F9A  0E00               	movlw	0
  9099   002F9C  2004               	addwfc	(lcd_str@str+1)^0,w,c
  9100   002F9E  6E06               	movwf	(??_lcd_str+1)^0,c
  9101   002FA0  C005  FFF6         	movff	??_lcd_str,tblptrl
  9102   002FA4  C006  FFF7         	movff	??_lcd_str+1,tblptrh
  9103   002FA8  6AF8               	clrf	tblptru,c
  9104   002FAA  0E05               	movlw	(high __ramtop+-1)
  9105   002FAC  64F7               	cpfsgt	tblptrh,c
  9106   002FAE  D003               	bra	i2u248_47
  9107   002FB0  0008               	tblrd		*
  9108   002FB2  50F5               	movf	tablat,w,c
  9109   002FB4  D005               	bra	i2u248_40
  9110   002FB6                     i2u248_47:
  9111   002FB6  CFF6 FFE1          	movff	tblptrl,fsr1l
  9112   002FBA  CFF7 FFE2          	movff	tblptrh,fsr1h
  9113   002FBE  50E7               	movf	indf1,w,c
  9114   002FC0                     i2u248_40:
  9115   002FC0  0900               	iorlw	0
  9116   002FC2  A4D8               	btfss	status,2,c
  9117   002FC4  EFE6  F017         	goto	i2u249_41
  9118   002FC8  EFE8  F017         	goto	i2u249_40
  9119   002FCC                     i2u249_41:
  9120   002FCC  EFB1  F017         	goto	i2l3091
  9121   002FD0                     i2u249_40:
  9122   002FD0  0012               	return		;funcret
  9123   002FD2                     __end_of_lcd_str:
  9124                           	callstack 0
  9125                           
  9126 ;; *************** function _lcd_dat *****************
  9127 ;; Defined at:
  9128 ;;		line 45 in file "lcd.c"
  9129 ;; Parameters:    Size  Location     Type
  9130 ;;  val             1    wreg     unsigned char 
  9131 ;; Auto vars:     Size  Location     Type
  9132 ;;  val             1    1[COMRAM] unsigned char 
  9133 ;; Return value:  Size  Location     Type
  9134 ;;                  1    wreg      void 
  9135 ;; Registers used:
  9136 ;;		wreg, status,2, cstack
  9137 ;; Tracked objects:
  9138 ;;		On entry : 0/0
  9139 ;;		On exit  : 0/0
  9140 ;;		Unchanged: 0/0
  9141 ;; Data sizes:     COMRAM   BANK0   BANK1   BANK2   BANK3   BANK4   BANK5
  9142 ;;      Params:         0       0       0       0       0       0       0
  9143 ;;      Locals:         1       0       0       0       0       0       0
  9144 ;;      Temps:          0       0       0       0       0       0       0
  9145 ;;      Totals:         1       0       0       0       0       0       0
  9146 ;;Total ram usage:        1 bytes
  9147 ;; Hardware stack levels used: 1
  9148 ;; Hardware stack levels required when called: 1
  9149 ;; This function calls:
  9150 ;;		i2_lcd_wr
  9151 ;; This function is called by:
  9152 ;;		_f_timers
  9153 ;;		_lcd_str
  9154 ;;		_show_to_LCD
  9155 ;; This function uses a non-reentrant model
  9156 ;;
  9157                           
  9158                           	psect	text46
  9159   0033E8                     __ptext46:
  9160                           	callstack 0
  9161   0033E8                     _lcd_dat:
  9162                           	callstack 20
  9163                           
  9164                           ;incstack = 0
  9165                           ;lcd_dat@val stored from wreg
  9166   0033E8  6E02               	movwf	lcd_dat@val^0,c
  9167   0033EA                     
  9168                           ;lcd.c: 45: void lcd_dat(unsigned char val);lcd.c: 46: {;lcd.c: 47:  PORTEbits.RE1=1;
  9169   0033EA  8284               	bsf	132,1,c	;volatile
  9170   0033EC                     
  9171                           ;lcd.c: 48:     lcd_wr(val);
  9172   0033EC  5002               	movf	lcd_dat@val^0,w,c
  9173   0033EE  EC3B  F01A         	call	i2_lcd_wr
  9174   0033F2                     
  9175                           ;lcd.c: 49:     PORTEbits.RE2=1;
  9176   0033F2  8484               	bsf	132,2,c	;volatile
  9177   0033F4                     
  9178                           ;lcd.c: 50:     _delay((unsigned long)((40)*(4000000/4000000.0)));
  9179   0033F4  0E0D               	movlw	13
  9180   0033F6                     i2u435_47:
  9181   0033F6  2EE8               	decfsz	wreg,f,c
  9182   0033F8  D7FE               	bra	i2u435_47
  9183   0033FA  F000               	nop	
  9184   0033FC                     
  9185                           ;lcd.c: 51:     PORTEbits.RE1=0;
  9186   0033FC  9284               	bcf	132,1,c	;volatile
  9187   0033FE                     
  9188                           ;lcd.c: 52:     _delay((unsigned long)((40)*(4000000/4000000.0)));
  9189   0033FE  0E0D               	movlw	13
  9190   003400                     i2u436_47:
  9191   003400  2EE8               	decfsz	wreg,f,c
  9192   003402  D7FE               	bra	i2u436_47
  9193   003404  F000               	nop	
  9194   003406                     
  9195                           ;lcd.c: 53:  PORTEbits.RE1=1;
  9196   003406  8284               	bsf	132,1,c	;volatile
  9197   003408  0012               	return		;funcret
  9198   00340A                     __end_of_lcd_dat:
  9199                           	callstack 0
  9200                           
  9201 ;; *************** function i2_lcd_wr *****************
  9202 ;; Defined at:
  9203 ;;		line 29 in file "lcd.c"
  9204 ;; Parameters:    Size  Location     Type
  9205 ;;  val             1    wreg     unsigned char 
  9206 ;; Auto vars:     Size  Location     Type
  9207 ;;  val             1    0[COMRAM] unsigned char 
  9208 ;; Return value:  Size  Location     Type
  9209 ;;                  1    wreg      void 
  9210 ;; Registers used:
  9211 ;;		wreg
  9212 ;; Tracked objects:
  9213 ;;		On entry : 0/0
  9214 ;;		On exit  : 0/0
  9215 ;;		Unchanged: 0/0
  9216 ;; Data sizes:     COMRAM   BANK0   BANK1   BANK2   BANK3   BANK4   BANK5
  9217 ;;      Params:         0       0       0       0       0       0       0
  9218 ;;      Locals:         1       0       0       0       0       0       0
  9219 ;;      Temps:          0       0       0       0       0       0       0
  9220 ;;      Totals:         1       0       0       0       0       0       0
  9221 ;;Total ram usage:        1 bytes
  9222 ;; Hardware stack levels used: 1
  9223 ;; This function calls:
  9224 ;;		Nothing
  9225 ;; This function is called by:
  9226 ;;		_lcd_dat
  9227 ;;		i2_lcd_cmd
  9228 ;; This function uses a non-reentrant model
  9229 ;;
  9230                           
  9231                           	psect	text47
  9232   003476                     __ptext47:
  9233                           	callstack 0
  9234   003476                     i2_lcd_wr:
  9235                           	callstack 23
  9236                           
  9237                           ;incstack = 0
  9238                           ;i2lcd_wr@val stored from wreg
  9239   003476  6E01               	movwf	i2lcd_wr@val^0,c
  9240   003478                     
  9241                           ;lcd.c: 29: void lcd_wr(unsigned char val);lcd.c: 30: {;lcd.c: 31:   PORTD=val;
  9242   003478  C001  FF83         	movff	i2lcd_wr@val,3971	;volatile
  9243   00347C  0012               	return		;funcret
  9244   00347E                     __end_ofi2_lcd_wr:
  9245                           	callstack 0
  9246                           
  9247 ;; *************** function _f_pwm *****************
  9248 ;; Defined at:
  9249 ;;		line 44 in file "main.c"
  9250 ;; Parameters:    Size  Location     Type
  9251 ;;  duty            2    0[COMRAM] unsigned short 
  9252 ;; Auto vars:     Size  Location     Type
  9253 ;;		None
  9254 ;; Return value:  Size  Location     Type
  9255 ;;                  1    wreg      void 
  9256 ;; Registers used:
  9257 ;;		wreg, status,2, status,0
  9258 ;; Tracked objects:
  9259 ;;		On entry : 0/0
  9260 ;;		On exit  : 0/0
  9261 ;;		Unchanged: 0/0
  9262 ;; Data sizes:     COMRAM   BANK0   BANK1   BANK2   BANK3   BANK4   BANK5
  9263 ;;      Params:         2       0       0       0       0       0       0
  9264 ;;      Locals:         0       0       0       0       0       0       0
  9265 ;;      Temps:          2       0       0       0       0       0       0
  9266 ;;      Totals:         4       0       0       0       0       0       0
  9267 ;;Total ram usage:        4 bytes
  9268 ;; Hardware stack levels used: 1
  9269 ;; This function calls:
  9270 ;;		Nothing
  9271 ;; This function is called by:
  9272 ;;		_f_int0
  9273 ;;		_f_int1
  9274 ;;		_f_int2
  9275 ;; This function uses a non-reentrant model
  9276 ;;
  9277                           
  9278                           	psect	text48
  9279   003328                     __ptext48:
  9280                           	callstack 0
  9281   003328                     _f_pwm:
  9282                           	callstack 22
  9283   003328                     
  9284                           ;main.c: 44: void f_pwm(uint16_t duty);main.c: 45: {;main.c: 46:     CCP1CON &= 0b110011
      +                          11;
  9285   003328  0ECF               	movlw	207
  9286   00332A  16BD               	andwf	189,f,c	;volatile
  9287                           
  9288                           ;main.c: 47:     CCP1CON |= ((duty & 0b11) << 4);
  9289   00332C  C001  F003         	movff	f_pwm@duty,??_f_pwm	;volatile
  9290   003330  0E03               	movlw	3
  9291   003332  1603               	andwf	??_f_pwm^0,f,c
  9292   003334  3803               	swapf	??_f_pwm^0,w,c
  9293   003336  0BF0               	andlw	240
  9294   003338  12BD               	iorwf	189,f,c	;volatile
  9295                           
  9296                           ;main.c: 48:     CCPR1L = duty >> 2;
  9297   00333A  C001  F003         	movff	f_pwm@duty,??_f_pwm
  9298   00333E  C002  F004         	movff	f_pwm@duty+1,??_f_pwm+1
  9299   003342  90D8               	bcf	status,0,c
  9300   003344  3204               	rrcf	(??_f_pwm+1)^0,f,c
  9301   003346  3203               	rrcf	??_f_pwm^0,f,c
  9302   003348  90D8               	bcf	status,0,c
  9303   00334A  3204               	rrcf	(??_f_pwm+1)^0,f,c
  9304   00334C  3203               	rrcf	??_f_pwm^0,f,c
  9305   00334E  5003               	movf	??_f_pwm^0,w,c
  9306   003350  6EBE               	movwf	190,c	;volatile
  9307   003352  0012               	return		;funcret
  9308   003354                     __end_of_f_pwm:
  9309                           	callstack 0
  9310                           
  9311 ;; *************** function _mux_display *****************
  9312 ;; Defined at:
  9313 ;;		line 14 in file "Display.c"
  9314 ;; Parameters:    Size  Location     Type
  9315 ;;		None
  9316 ;; Auto vars:     Size  Location     Type
  9317 ;;		None
  9318 ;; Return value:  Size  Location     Type
  9319 ;;                  1    wreg      void 
  9320 ;; Registers used:
  9321 ;;		wreg, fsr2l, fsr2h, status,2, status,0
  9322 ;; Tracked objects:
  9323 ;;		On entry : 0/0
  9324 ;;		On exit  : 0/0
  9325 ;;		Unchanged: 0/0
  9326 ;; Data sizes:     COMRAM   BANK0   BANK1   BANK2   BANK3   BANK4   BANK5
  9327 ;;      Params:         0       0       0       0       0       0       0
  9328 ;;      Locals:         0       0       0       0       0       0       0
  9329 ;;      Temps:          2       0       0       0       0       0       0
  9330 ;;      Totals:         2       0       0       0       0       0       0
  9331 ;;Total ram usage:        2 bytes
  9332 ;; Hardware stack levels used: 1
  9333 ;; This function calls:
  9334 ;;		Nothing
  9335 ;; This function is called by:
  9336 ;;		_f_timers
  9337 ;; This function uses a non-reentrant model
  9338 ;;
  9339                           
  9340                           	psect	text49
  9341   002BF8                     __ptext49:
  9342                           	callstack 0
  9343   002BF8                     _mux_display:
  9344                           	callstack 24
  9345   002BF8                     
  9346                           ;Display.c: 15:     static uint8_t estado = 0;;Display.c: 19:     switch (estado)
  9347   002BF8  EF36  F016         	goto	i2l4065
  9348   002BFC                     i2l79:
  9349                           
  9350                           ; BSR set to: 0
  9351                           ;Display.c: 22:             LATA2 = 1;
  9352   002BFC  8489               	bsf	3977,2,c	;volatile
  9353                           
  9354                           ;Display.c: 23:             LATA5 = 0;
  9355   002BFE  9A89               	bcf	3977,5,c	;volatile
  9356   002C00                     
  9357                           ; BSR set to: 0
  9358                           ;Display.c: 24:             LATD = conv7seg[display1];
  9359   002C00  0E22               	movlw	low _conv7seg
  9360   002C02  25ED               	addwf	_display1& (0+255),w,b
  9361   002C04  6ED9               	movwf	fsr2l,c
  9362   002C06  6ADA               	clrf	fsr2h,c
  9363   002C08  0E01               	movlw	high _conv7seg
  9364   002C0A  22DA               	addwfc	fsr2h,f,c
  9365   002C0C  50DF               	movf	indf2,w,c
  9366   002C0E  6E8C               	movwf	140,c	;volatile
  9367   002C10                     
  9368                           ; BSR set to: 0
  9369                           ;Display.c: 25:             estado = 1;
  9370   002C10  0E01               	movlw	1
  9371   002C12  6FE7               	movwf	mux_display@estado& (0+255),b
  9372                           
  9373                           ;Display.c: 26:             break;
  9374   002C14  EF54  F016         	goto	i2l84
  9375   002C18                     i2l81:
  9376                           
  9377                           ; BSR set to: 0
  9378                           ;Display.c: 29:             LATA2 = 0;
  9379   002C18  9489               	bcf	3977,2,c	;volatile
  9380                           
  9381                           ;Display.c: 30:             LATA3 = 1;
  9382   002C1A  8689               	bsf	3977,3,c	;volatile
  9383   002C1C                     
  9384                           ; BSR set to: 0
  9385                           ;Display.c: 31:             LATD = conv7seg[display2];
  9386   002C1C  0E22               	movlw	low _conv7seg
  9387   002C1E  25EC               	addwf	_display2& (0+255),w,b
  9388   002C20  6ED9               	movwf	fsr2l,c
  9389   002C22  6ADA               	clrf	fsr2h,c
  9390   002C24  0E01               	movlw	high _conv7seg
  9391   002C26  22DA               	addwfc	fsr2h,f,c
  9392   002C28  50DF               	movf	indf2,w,c
  9393   002C2A  6E8C               	movwf	140,c	;volatile
  9394   002C2C                     
  9395                           ; BSR set to: 0
  9396                           ;Display.c: 32:             estado = 2;
  9397   002C2C  0E02               	movlw	2
  9398   002C2E  6FE7               	movwf	mux_display@estado& (0+255),b
  9399                           
  9400                           ;Display.c: 33:             break;
  9401   002C30  EF54  F016         	goto	i2l84
  9402   002C34                     i2l82:
  9403                           
  9404                           ; BSR set to: 0
  9405                           ;Display.c: 36:             LATA3 = 0;
  9406   002C34  9689               	bcf	3977,3,c	;volatile
  9407                           
  9408                           ;Display.c: 37:             LATA4 = 1;
  9409   002C36  8889               	bsf	3977,4,c	;volatile
  9410   002C38                     
  9411                           ; BSR set to: 0
  9412                           ;Display.c: 38:             LATD = conv7seg[display3];
  9413   002C38  0E22               	movlw	low _conv7seg
  9414   002C3A  25EB               	addwf	_display3& (0+255),w,b
  9415   002C3C  6ED9               	movwf	fsr2l,c
  9416   002C3E  6ADA               	clrf	fsr2h,c
  9417   002C40  0E01               	movlw	high _conv7seg
  9418   002C42  22DA               	addwfc	fsr2h,f,c
  9419   002C44  50DF               	movf	indf2,w,c
  9420   002C46  6E8C               	movwf	140,c	;volatile
  9421   002C48                     
  9422                           ; BSR set to: 0
  9423                           ;Display.c: 39:             estado = 3;
  9424   002C48  0E03               	movlw	3
  9425   002C4A  6FE7               	movwf	mux_display@estado& (0+255),b
  9426                           
  9427                           ;Display.c: 40:             break;
  9428   002C4C  EF54  F016         	goto	i2l84
  9429   002C50                     i2l83:
  9430                           
  9431                           ; BSR set to: 0
  9432                           ;Display.c: 43:             LATA4 = 0;
  9433   002C50  9889               	bcf	3977,4,c	;volatile
  9434                           
  9435                           ;Display.c: 44:             LATA5 = 1;
  9436   002C52  8A89               	bsf	3977,5,c	;volatile
  9437   002C54                     
  9438                           ; BSR set to: 0
  9439                           ;Display.c: 45:             LATD = conv7seg[display4];
  9440   002C54  0E22               	movlw	low _conv7seg
  9441   002C56  25EA               	addwf	_display4& (0+255),w,b
  9442   002C58  6ED9               	movwf	fsr2l,c
  9443   002C5A  6ADA               	clrf	fsr2h,c
  9444   002C5C  0E01               	movlw	high _conv7seg
  9445   002C5E  22DA               	addwfc	fsr2h,f,c
  9446   002C60  50DF               	movf	indf2,w,c
  9447   002C62  6E8C               	movwf	140,c	;volatile
  9448   002C64                     
  9449                           ; BSR set to: 0
  9450                           ;Display.c: 46:             estado = 0;
  9451   002C64  0E00               	movlw	0
  9452   002C66  6FE7               	movwf	mux_display@estado& (0+255),b
  9453                           
  9454                           ;Display.c: 47:             break;
  9455   002C68  EF54  F016         	goto	i2l84
  9456   002C6C                     i2l4065:
  9457   002C6C  0100               	movlb	0	; () banked
  9458   002C6E  51E7               	movf	mux_display@estado& (0+255),w,b
  9459   002C70  6E01               	movwf	??_mux_display^0,c
  9460   002C72  6A02               	clrf	(??_mux_display+1)^0,c
  9461                           
  9462                           ; Switch on 2 bytes has been partitioned into a top level switch of size 1, and 1 sub-sw
      +                          itches
  9463                           ; Switch size 1, requested type "simple"
  9464                           ; Number of cases is 1, Range of values is 0 to 0
  9465                           ; switch strategies available:
  9466                           ; Name         Instructions Cycles
  9467                           ; simple_byte            4     3 (average)
  9468                           ;	Chosen strategy is simple_byte
  9469   002C74  5002               	movf	(??_mux_display+1)^0,w,c
  9470   002C76  0A00               	xorlw	0	; case 0
  9471   002C78  B4D8               	btfsc	status,2,c
  9472   002C7A  EF41  F016         	goto	i2l4615
  9473   002C7E  EF54  F016         	goto	i2l84
  9474   002C82                     i2l4615:
  9475                           
  9476                           ; BSR set to: 0
  9477                           ; Switch size 1, requested type "simple"
  9478                           ; Number of cases is 4, Range of values is 0 to 3
  9479                           ; switch strategies available:
  9480                           ; Name         Instructions Cycles
  9481                           ; simple_byte           13     7 (average)
  9482                           ;	Chosen strategy is simple_byte
  9483   002C82  5001               	movf	??_mux_display^0,w,c
  9484   002C84  0A00               	xorlw	0	; case 0
  9485   002C86  B4D8               	btfsc	status,2,c
  9486   002C88  EFFE  F015         	goto	i2l79
  9487   002C8C  0A01               	xorlw	1	; case 1
  9488   002C8E  B4D8               	btfsc	status,2,c
  9489   002C90  EF0C  F016         	goto	i2l81
  9490   002C94  0A03               	xorlw	3	; case 2
  9491   002C96  B4D8               	btfsc	status,2,c
  9492   002C98  EF1A  F016         	goto	i2l82
  9493   002C9C  0A01               	xorlw	1	; case 3
  9494   002C9E  B4D8               	btfsc	status,2,c
  9495   002CA0  EF28  F016         	goto	i2l83
  9496   002CA4  EF54  F016         	goto	i2l84
  9497   002CA8                     i2l84:
  9498                           
  9499                           ; BSR set to: 0
  9500   002CA8  0012               	return		;funcret
  9501   002CAA                     __end_of_mux_display:
  9502                           	callstack 0
  9503                           
  9504 ;; *************** function _Read_AD *****************
  9505 ;; Defined at:
  9506 ;;		line 239 in file "main.c"
  9507 ;; Parameters:    Size  Location     Type
  9508 ;;		None
  9509 ;; Auto vars:     Size  Location     Type
  9510 ;;		None
  9511 ;; Return value:  Size  Location     Type
  9512 ;;                  1    wreg      void 
  9513 ;; Registers used:
  9514 ;;		None
  9515 ;; Tracked objects:
  9516 ;;		On entry : 0/0
  9517 ;;		On exit  : 0/0
  9518 ;;		Unchanged: 0/0
  9519 ;; Data sizes:     COMRAM   BANK0   BANK1   BANK2   BANK3   BANK4   BANK5
  9520 ;;      Params:         0       0       0       0       0       0       0
  9521 ;;      Locals:         0       0       0       0       0       0       0
  9522 ;;      Temps:          0       0       0       0       0       0       0
  9523 ;;      Totals:         0       0       0       0       0       0       0
  9524 ;;Total ram usage:        0 bytes
  9525 ;; Hardware stack levels used: 1
  9526 ;; This function calls:
  9527 ;;		Nothing
  9528 ;; This function is called by:
  9529 ;;		_f_timers
  9530 ;; This function uses a non-reentrant model
  9531 ;;
  9532                           
  9533                           	psect	text50
  9534   003464                     __ptext50:
  9535                           	callstack 0
  9536   003464                     _Read_AD:
  9537                           	callstack 24
  9538   003464                     
  9539                           ;main.c: 242:     pwm_aux = AD_data[0];
  9540   003464  C16F  F0D4         	movff	_AD_data,_pwm_aux
  9541   003468  C170  F0D5         	movff	_AD_data+1,_pwm_aux+1
  9542   00346C  0012               	return		;funcret
  9543   00346E                     __end_of_Read_AD:
  9544                           	callstack 0
  9545                           
  9546 ;; *************** function _ADC_maq *****************
  9547 ;; Defined at:
  9548 ;;		line 47 in file "ADC.c"
  9549 ;; Parameters:    Size  Location     Type
  9550 ;;		None
  9551 ;; Auto vars:     Size  Location     Type
  9552 ;;		None
  9553 ;; Return value:  Size  Location     Type
  9554 ;;                  1    wreg      void 
  9555 ;; Registers used:
  9556 ;;		wreg, status,2, status,0, cstack
  9557 ;; Tracked objects:
  9558 ;;		On entry : 0/0
  9559 ;;		On exit  : 0/0
  9560 ;;		Unchanged: 0/0
  9561 ;; Data sizes:     COMRAM   BANK0   BANK1   BANK2   BANK3   BANK4   BANK5
  9562 ;;      Params:         0       0       0       0       0       0       0
  9563 ;;      Locals:         0       0       0       0       0       0       0
  9564 ;;      Temps:          2       0       0       0       0       0       0
  9565 ;;      Totals:         2       0       0       0       0       0       0
  9566 ;;Total ram usage:        2 bytes
  9567 ;; Hardware stack levels used: 1
  9568 ;; Hardware stack levels required when called: 1
  9569 ;; This function calls:
  9570 ;;		_select_channel
  9571 ;;		i2_start_AD_conversion
  9572 ;; This function is called by:
  9573 ;;		_f_timers
  9574 ;; This function uses a non-reentrant model
  9575 ;;
  9576                           
  9577                           	psect	text51
  9578   002D52                     __ptext51:
  9579                           	callstack 0
  9580   002D52                     _ADC_maq:
  9581                           	callstack 23
  9582   002D52                     
  9583                           ;ADC.c: 49:     static uint8_t estado = 0;;ADC.c: 51:     switch (estado)
  9584   002D52  EFD8  F016         	goto	i2l4037
  9585   002D56                     i2l45:
  9586                           
  9587                           ; BSR set to: 0
  9588                           ;ADC.c: 54:             AD_data[0] = ADRES;
  9589   002D56  CFC3 F16F          	movff	4035,_AD_data	;volatile
  9590   002D5A  CFC4 F170          	movff	4036,_AD_data+1	;volatile
  9591   002D5E                     
  9592                           ; BSR set to: 0
  9593                           ;ADC.c: 55:             select_channel(1);
  9594   002D5E  0E01               	movlw	1
  9595   002D60  EC21  F01A         	call	_select_channel
  9596   002D64                     
  9597                           ;ADC.c: 56:             start_AD_conversion();
  9598   002D64  EC44  F01A         	call	i2_start_AD_conversion	;wreg free
  9599   002D68                     
  9600                           ;ADC.c: 57:             estado = 1;
  9601   002D68  0E01               	movlw	1
  9602   002D6A  0100               	movlb	0	; () banked
  9603   002D6C  6FEE               	movwf	ADC_maq@estado& (0+255),b
  9604                           
  9605                           ;ADC.c: 58:             break;
  9606   002D6E  EFF2  F016         	goto	i2l49
  9607   002D72                     i2l47:
  9608                           
  9609                           ; BSR set to: 0
  9610                           ;ADC.c: 61:             AD_data[1] = ADRES;
  9611   002D72  CFC3 F171          	movff	4035,_AD_data+2	;volatile
  9612   002D76  CFC4 F172          	movff	4036,_AD_data+3	;volatile
  9613   002D7A                     
  9614                           ; BSR set to: 0
  9615                           ;ADC.c: 62:             TRISA |= (1<<2);
  9616   002D7A  8492               	bsf	146,2,c	;volatile
  9617   002D7C                     
  9618                           ; BSR set to: 0
  9619                           ;ADC.c: 63:             ADCON1 = 0b00001100;
  9620   002D7C  0E0C               	movlw	12
  9621   002D7E  6EC1               	movwf	193,c	;volatile
  9622   002D80                     
  9623                           ; BSR set to: 0
  9624                           ;ADC.c: 64:             select_channel(2);
  9625   002D80  0E02               	movlw	2
  9626   002D82  EC21  F01A         	call	_select_channel
  9627   002D86                     
  9628                           ;ADC.c: 65:             start_AD_conversion();
  9629   002D86  EC44  F01A         	call	i2_start_AD_conversion	;wreg free
  9630   002D8A                     
  9631                           ;ADC.c: 66:             estado = 2;
  9632   002D8A  0E02               	movlw	2
  9633   002D8C  0100               	movlb	0	; () banked
  9634   002D8E  6FEE               	movwf	ADC_maq@estado& (0+255),b
  9635                           
  9636                           ;ADC.c: 67:             break;
  9637   002D90  EFF2  F016         	goto	i2l49
  9638   002D94                     i2l48:
  9639                           
  9640                           ; BSR set to: 0
  9641                           ;ADC.c: 70:             AD_data[2] = ADRES;
  9642   002D94  CFC3 F173          	movff	4035,_AD_data+4	;volatile
  9643   002D98  CFC4 F174          	movff	4036,_AD_data+5	;volatile
  9644   002D9C                     
  9645                           ; BSR set to: 0
  9646                           ;ADC.c: 72:             select_channel(0);
  9647   002D9C  0E00               	movlw	0
  9648   002D9E  EC21  F01A         	call	_select_channel
  9649   002DA2                     
  9650                           ;ADC.c: 73:             start_AD_conversion();
  9651   002DA2  EC44  F01A         	call	i2_start_AD_conversion	;wreg free
  9652   002DA6                     
  9653                           ;ADC.c: 74:             estado = 0;
  9654   002DA6  0E00               	movlw	0
  9655   002DA8  0100               	movlb	0	; () banked
  9656   002DAA  6FEE               	movwf	ADC_maq@estado& (0+255),b
  9657                           
  9658                           ;ADC.c: 75:             break;
  9659   002DAC  EFF2  F016         	goto	i2l49
  9660   002DB0                     i2l4037:
  9661   002DB0  0100               	movlb	0	; () banked
  9662   002DB2  51EE               	movf	ADC_maq@estado& (0+255),w,b
  9663   002DB4  6E02               	movwf	??_ADC_maq^0,c
  9664   002DB6  6A03               	clrf	(??_ADC_maq+1)^0,c
  9665                           
  9666                           ; Switch on 2 bytes has been partitioned into a top level switch of size 1, and 1 sub-sw
      +                          itches
  9667                           ; Switch size 1, requested type "simple"
  9668                           ; Number of cases is 1, Range of values is 0 to 0
  9669                           ; switch strategies available:
  9670                           ; Name         Instructions Cycles
  9671                           ; simple_byte            4     3 (average)
  9672                           ;	Chosen strategy is simple_byte
  9673   002DB8  5003               	movf	(??_ADC_maq+1)^0,w,c
  9674   002DBA  0A00               	xorlw	0	; case 0
  9675   002DBC  B4D8               	btfsc	status,2,c
  9676   002DBE  EFE3  F016         	goto	i2l4617
  9677   002DC2  EFF2  F016         	goto	i2l49
  9678   002DC6                     i2l4617:
  9679                           
  9680                           ; BSR set to: 0
  9681                           ; Switch size 1, requested type "simple"
  9682                           ; Number of cases is 3, Range of values is 0 to 2
  9683                           ; switch strategies available:
  9684                           ; Name         Instructions Cycles
  9685                           ; simple_byte           10     6 (average)
  9686                           ;	Chosen strategy is simple_byte
  9687   002DC6  5002               	movf	??_ADC_maq^0,w,c
  9688   002DC8  0A00               	xorlw	0	; case 0
  9689   002DCA  B4D8               	btfsc	status,2,c
  9690   002DCC  EFAB  F016         	goto	i2l45
  9691   002DD0  0A01               	xorlw	1	; case 1
  9692   002DD2  B4D8               	btfsc	status,2,c
  9693   002DD4  EFB9  F016         	goto	i2l47
  9694   002DD8  0A03               	xorlw	3	; case 2
  9695   002DDA  B4D8               	btfsc	status,2,c
  9696   002DDC  EFCA  F016         	goto	i2l48
  9697   002DE0  EFF2  F016         	goto	i2l49
  9698   002DE4                     i2l49:
  9699                           
  9700                           ; BSR set to: 0
  9701   002DE4  0012               	return		;funcret
  9702   002DE6                     __end_of_ADC_maq:
  9703                           	callstack 0
  9704                           
  9705 ;; *************** function i2_start_AD_conversion *****************
  9706 ;; Defined at:
  9707 ;;		line 19 in file "ADC.c"
  9708 ;; Parameters:    Size  Location     Type
  9709 ;;		None
  9710 ;; Auto vars:     Size  Location     Type
  9711 ;;		None
  9712 ;; Return value:  Size  Location     Type
  9713 ;;                  1    wreg      void 
  9714 ;; Registers used:
  9715 ;;		None
  9716 ;; Tracked objects:
  9717 ;;		On entry : 0/0
  9718 ;;		On exit  : 0/0
  9719 ;;		Unchanged: 0/0
  9720 ;; Data sizes:     COMRAM   BANK0   BANK1   BANK2   BANK3   BANK4   BANK5
  9721 ;;      Params:         0       0       0       0       0       0       0
  9722 ;;      Locals:         0       0       0       0       0       0       0
  9723 ;;      Temps:          0       0       0       0       0       0       0
  9724 ;;      Totals:         0       0       0       0       0       0       0
  9725 ;;Total ram usage:        0 bytes
  9726 ;; Hardware stack levels used: 1
  9727 ;; This function calls:
  9728 ;;		Nothing
  9729 ;; This function is called by:
  9730 ;;		_ADC_maq
  9731 ;; This function uses a non-reentrant model
  9732 ;;
  9733                           
  9734                           	psect	text52
  9735   003488                     __ptext52:
  9736                           	callstack 0
  9737   003488                     i2_start_AD_conversion:
  9738                           	callstack 23
  9739   003488                     
  9740                           ;ADC.c: 21:     GO = 1;
  9741   003488  82C2               	bsf	4034,1,c	;volatile
  9742   00348A  0012               	return		;funcret
  9743   00348C                     __end_ofi2_start_AD_conversion:
  9744                           	callstack 0
  9745                           
  9746 ;; *************** function _select_channel *****************
  9747 ;; Defined at:
  9748 ;;		line 39 in file "ADC.c"
  9749 ;; Parameters:    Size  Location     Type
  9750 ;;  channel         1    wreg     unsigned char 
  9751 ;; Auto vars:     Size  Location     Type
  9752 ;;  channel         1    0[COMRAM] unsigned char 
  9753 ;; Return value:  Size  Location     Type
  9754 ;;                  1    wreg      void 
  9755 ;; Registers used:
  9756 ;;		wreg, status,2, status,0
  9757 ;; Tracked objects:
  9758 ;;		On entry : 0/0
  9759 ;;		On exit  : 0/0
  9760 ;;		Unchanged: 0/0
  9761 ;; Data sizes:     COMRAM   BANK0   BANK1   BANK2   BANK3   BANK4   BANK5
  9762 ;;      Params:         0       0       0       0       0       0       0
  9763 ;;      Locals:         1       0       0       0       0       0       0
  9764 ;;      Temps:          0       0       0       0       0       0       0
  9765 ;;      Totals:         1       0       0       0       0       0       0
  9766 ;;Total ram usage:        1 bytes
  9767 ;; Hardware stack levels used: 1
  9768 ;; This function calls:
  9769 ;;		Nothing
  9770 ;; This function is called by:
  9771 ;;		_ADC_maq
  9772 ;; This function uses a non-reentrant model
  9773 ;;
  9774                           
  9775                           	psect	text53
  9776   003442                     __ptext53:
  9777                           	callstack 0
  9778   003442                     _select_channel:
  9779                           	callstack 23
  9780                           
  9781                           ;incstack = 0
  9782                           ;select_channel@channel stored from wreg
  9783   003442  6E01               	movwf	select_channel@channel^0,c
  9784   003444                     
  9785                           ;ADC.c: 39: void select_channel(uint8_t channel);ADC.c: 40: {;ADC.c: 44:     ADCON0 = 0b
      +                          00000001 | (channel << 2);
  9786   003444  4401               	rlncf	select_channel@channel^0,w,c
  9787   003446  46E8               	rlncf	wreg,f,c
  9788   003448  0BFC               	andlw	252
  9789   00344A  0901               	iorlw	1
  9790   00344C  6EC2               	movwf	194,c	;volatile
  9791   00344E  0012               	return		;funcret
  9792   003450                     __end_of_select_channel:
  9793                           	callstack 0
  9794                           
  9795                           	psect	rparam
  9796   000000                     
  9797                           	psect	temp
  9798   00007B                     btemp:
  9799                           	callstack 0
  9800   00007B                     	ds	1
  9801   000000                     int$flags	set	btemp
  9802   000000                     wtemp8	set	btemp+1
  9803   000000                     ttemp5	set	btemp+1
  9804   000000                     ttemp6	set	btemp+4
  9805   000000                     ttemp7	set	btemp+8
  9806                           
  9807                           	psect	idloc
  9808                           
  9809                           ;Config register IDLOC0 @ 0x200000
  9810                           ;	unspecified, using default values
  9811   200000                     	org	2097152
  9812   200000  FF                 	db	255
  9813                           
  9814                           ;Config register IDLOC1 @ 0x200001
  9815                           ;	unspecified, using default values
  9816   200001                     	org	2097153
  9817   200001  FF                 	db	255
  9818                           
  9819                           ;Config register IDLOC2 @ 0x200002
  9820                           ;	unspecified, using default values
  9821   200002                     	org	2097154
  9822   200002  FF                 	db	255
  9823                           
  9824                           ;Config register IDLOC3 @ 0x200003
  9825                           ;	unspecified, using default values
  9826   200003                     	org	2097155
  9827   200003  FF                 	db	255
  9828                           
  9829                           ;Config register IDLOC4 @ 0x200004
  9830                           ;	unspecified, using default values
  9831   200004                     	org	2097156
  9832   200004  FF                 	db	255
  9833                           
  9834                           ;Config register IDLOC5 @ 0x200005
  9835                           ;	unspecified, using default values
  9836   200005                     	org	2097157
  9837   200005  FF                 	db	255
  9838                           
  9839                           ;Config register IDLOC6 @ 0x200006
  9840                           ;	unspecified, using default values
  9841   200006                     	org	2097158
  9842   200006  FF                 	db	255
  9843                           
  9844                           ;Config register IDLOC7 @ 0x200007
  9845                           ;	unspecified, using default values
  9846   200007                     	org	2097159
  9847   200007  FF                 	db	255
  9848                           
  9849                           	psect	config
  9850                           
  9851                           ; Padding undefined space
  9852   300000                     	org	3145728
  9853   300000  FF                 	db	255
  9854                           
  9855                           ;Config register CONFIG1H @ 0x300001
  9856                           ;	Oscillator Selection bits
  9857                           ;	OSC = HS, HS oscillator
  9858                           ;	Fail-Safe Clock Monitor Enable bit
  9859                           ;	FCMEN = OFF, Fail-Safe Clock Monitor disabled
  9860                           ;	Internal/External Oscillator Switchover bit
  9861                           ;	IESO = OFF, Oscillator Switchover mode disabled
  9862   300001                     	org	3145729
  9863   300001  02                 	db	2
  9864                           
  9865                           ;Config register CONFIG2L @ 0x300002
  9866                           ;	Power-up Timer Enable bit
  9867                           ;	PWRT = OFF, PWRT disabled
  9868                           ;	Brown-out Reset Enable bits
  9869                           ;	BOREN = SBORDIS, Brown-out Reset enabled in hardware only (SBOREN is disabled)
  9870                           ;	Brown Out Reset Voltage bits
  9871                           ;	BORV = 3, Minimum setting
  9872   300002                     	org	3145730
  9873   300002  1F                 	db	31
  9874                           
  9875                           ;Config register CONFIG2H @ 0x300003
  9876                           ;	Watchdog Timer Enable bit
  9877                           ;	WDT = OFF, WDT disabled (control is placed on the SWDTEN bit)
  9878                           ;	Watchdog Timer Postscale Select bits
  9879                           ;	WDTPS = 32768, 1:32768
  9880   300003                     	org	3145731
  9881   300003  1E                 	db	30
  9882                           
  9883                           ; Padding undefined space
  9884   300004                     	org	3145732
  9885   300004  FF                 	db	255
  9886                           
  9887                           ;Config register CONFIG3H @ 0x300005
  9888                           ;	CCP2 MUX bit
  9889                           ;	CCP2MX = PORTC, CCP2 input/output is multiplexed with RC1
  9890                           ;	PORTB A/D Enable bit
  9891                           ;	PBADEN = ON, PORTB<4:0> pins are configured as analog input channels on Reset
  9892                           ;	Low-Power Timer1 Oscillator Enable bit
  9893                           ;	LPT1OSC = OFF, Timer1 configured for higher power operation
  9894                           ;	MCLR Pin Enable bit
  9895                           ;	MCLRE = ON, MCLR pin enabled; RE3 input pin disabled
  9896   300005                     	org	3145733
  9897   300005  83                 	db	131
  9898                           
  9899                           ;Config register CONFIG4L @ 0x300006
  9900                           ;	Stack Full/Underflow Reset Enable bit
  9901                           ;	STVREN = ON, Stack full/underflow will cause Reset
  9902                           ;	Single-Supply ICSP Enable bit
  9903                           ;	LVP = OFF, Single-Supply ICSP disabled
  9904                           ;	Extended Instruction Set Enable bit
  9905                           ;	XINST = OFF, Instruction set extension and Indexed Addressing mode disabled (Legacy mo
      +                          de)
  9906                           ;	Background Debugger Enable bit
  9907                           ;	DEBUG = 0x1, unprogrammed default
  9908   300006                     	org	3145734
  9909   300006  81                 	db	129
  9910                           
  9911                           ; Padding undefined space
  9912   300007                     	org	3145735
  9913   300007  FF                 	db	255
  9914                           
  9915                           ;Config register CONFIG5L @ 0x300008
  9916                           ;	Code Protection bit
  9917                           ;	CP0 = OFF, Block 0 (000800-001FFFh) not code-protected
  9918                           ;	Code Protection bit
  9919                           ;	CP1 = OFF, Block 1 (002000-003FFFh) not code-protected
  9920                           ;	Code Protection bit
  9921                           ;	CP2 = OFF, Block 2 (004000-005FFFh) not code-protected
  9922                           ;	Code Protection bit
  9923                           ;	CP3 = OFF, Block 3 (006000-007FFFh) not code-protected
  9924   300008                     	org	3145736
  9925   300008  0F                 	db	15
  9926                           
  9927                           ;Config register CONFIG5H @ 0x300009
  9928                           ;	Boot Block Code Protection bit
  9929                           ;	CPB = OFF, Boot block (000000-0007FFh) not code-protected
  9930                           ;	Data EEPROM Code Protection bit
  9931                           ;	CPD = OFF, Data EEPROM not code-protected
  9932   300009                     	org	3145737
  9933   300009  C0                 	db	192
  9934                           
  9935                           ;Config register CONFIG6L @ 0x30000A
  9936                           ;	Write Protection bit
  9937                           ;	WRT0 = OFF, Block 0 (000800-001FFFh) not write-protected
  9938                           ;	Write Protection bit
  9939                           ;	WRT1 = OFF, Block 1 (002000-003FFFh) not write-protected
  9940                           ;	Write Protection bit
  9941                           ;	WRT2 = OFF, Block 2 (004000-005FFFh) not write-protected
  9942                           ;	Write Protection bit
  9943                           ;	WRT3 = OFF, Block 3 (006000-007FFFh) not write-protected
  9944   30000A                     	org	3145738
  9945   30000A  0F                 	db	15
  9946                           
  9947                           ;Config register CONFIG6H @ 0x30000B
  9948                           ;	Configuration Register Write Protection bit
  9949                           ;	WRTC = OFF, Configuration registers (300000-3000FFh) not write-protected
  9950                           ;	Boot Block Write Protection bit
  9951                           ;	WRTB = OFF, Boot block (000000-0007FFh) not write-protected
  9952                           ;	Data EEPROM Write Protection bit
  9953                           ;	WRTD = OFF, Data EEPROM not write-protected
  9954   30000B                     	org	3145739
  9955   30000B  E0                 	db	224
  9956                           
  9957                           ;Config register CONFIG7L @ 0x30000C
  9958                           ;	Table Read Protection bit
  9959                           ;	EBTR0 = OFF, Block 0 (000800-001FFFh) not protected from table reads executed in other
      +                           blocks
  9960                           ;	Table Read Protection bit
  9961                           ;	EBTR1 = OFF, Block 1 (002000-003FFFh) not protected from table reads executed in other
      +                           blocks
  9962                           ;	Table Read Protection bit
  9963                           ;	EBTR2 = OFF, Block 2 (004000-005FFFh) not protected from table reads executed in other
      +                           blocks
  9964                           ;	Table Read Protection bit
  9965                           ;	EBTR3 = OFF, Block 3 (006000-007FFFh) not protected from table reads executed in other
      +                           blocks
  9966   30000C                     	org	3145740
  9967   30000C  0F                 	db	15
  9968                           
  9969                           ;Config register CONFIG7H @ 0x30000D
  9970                           ;	Boot Block Table Read Protection bit
  9971                           ;	EBTRB = OFF, Boot block (000000-0007FFh) not protected from table reads executed in ot
      +                          her blocks
  9972   30000D                     	org	3145741
  9973   30000D  40                 	db	64
  9974                           tosu	equ	0xFFF
  9975                           tosh	equ	0xFFE
  9976                           tosl	equ	0xFFD
  9977                           stkptr	equ	0xFFC
  9978                           pclatu	equ	0xFFB
  9979                           pclath	equ	0xFFA
  9980                           pcl	equ	0xFF9
  9981                           tblptru	equ	0xFF8
  9982                           tblptrh	equ	0xFF7
  9983                           tblptrl	equ	0xFF6
  9984                           tablat	equ	0xFF5
  9985                           prodh	equ	0xFF4
  9986                           prodl	equ	0xFF3
  9987                           indf0	equ	0xFEF
  9988                           postinc0	equ	0xFEE
  9989                           postdec0	equ	0xFED
  9990                           preinc0	equ	0xFEC
  9991                           plusw0	equ	0xFEB
  9992                           fsr0h	equ	0xFEA
  9993                           fsr0l	equ	0xFE9
  9994                           wreg	equ	0xFE8
  9995                           indf1	equ	0xFE7
  9996                           postinc1	equ	0xFE6
  9997                           postdec1	equ	0xFE5
  9998                           preinc1	equ	0xFE4
  9999                           plusw1	equ	0xFE3
 10000                           fsr1h	equ	0xFE2
 10001                           fsr1l	equ	0xFE1
 10002                           bsr	equ	0xFE0
 10003                           indf2	equ	0xFDF
 10004                           postinc2	equ	0xFDE
 10005                           postdec2	equ	0xFDD
 10006                           preinc2	equ	0xFDC
 10007                           plusw2	equ	0xFDB
 10008                           fsr2h	equ	0xFDA
 10009                           fsr2l	equ	0xFD9
 10010                           status	equ	0xFD8

Data Sizes:
    Strings     29
    Constant    0
    Data        66
    BSS         99
    Persistent  4
    Stack       0

Auto Spaces:
    Space          Size  Autos    Used
    COMRAM          126    117     122
    BANK0           128     74     117
    BANK1           256     10     131
    BANK2           256      0       0
    BANK3           256      0       0
    BANK4           256      0       0
    BANK5           256      0       0

Pointer List with Targets:

    fputs@s	PTR const unsigned char  size(2) Largest target is 32
		 -> dbuf(BANK1[32]), 

    fputs@fp	PTR struct _IO_FILE size(2) Largest target is 11
		 -> sprintf@f(COMRAM[11]), 

    fputc@fp...source	PTR const unsigned char  size(2) Largest target is 0

    fputc@fp...buffer	PTR unsigned char  size(2) Largest target is 0

    fputc@fp	PTR struct _IO_FILE size(2) Largest target is 11
		 -> sprintf@f(COMRAM[11]), 

    vfprintf@ap	PTR PTR void  size(2) Largest target is 2
		 -> sprintf@ap(COMRAM[2]), 

    vfprintf@fp	PTR struct _IO_FILE size(2) Largest target is 11
		 -> sprintf@f(COMRAM[11]), 

    vfprintf@fmt	PTR const unsigned char  size(2) Largest target is 9
		 -> STR_5(CODE[9]), STR_4(CODE[9]), 

    vfprintf@cfmt	PTR unsigned char  size(2) Largest target is 9
		 -> STR_5(CODE[9]), STR_4(CODE[9]), 

    vfpfcnvrt@fp	PTR struct _IO_FILE size(2) Largest target is 11
		 -> sprintf@f(COMRAM[11]), 

    vfpfcnvrt@ap	PTR PTR void  size(2) Largest target is 2
		 -> sprintf@ap(COMRAM[2]), 

    vfpfcnvrt@cp	PTR unsigned char  size(2) Largest target is 9
		 -> STR_5(CODE[9]), STR_4(CODE[9]), 

    vfpfcnvrt@fmt	PTR PTR unsigned char  size(2) Largest target is 2
		 -> vfprintf@cfmt(COMRAM[2]), 

    S921$vp	PTR void  size(2) Largest target is 0

    convarg.vp	PTR void  size(2) Largest target is 0

    dtoa@fp	PTR struct _IO_FILE size(2) Largest target is 11
		 -> sprintf@f(COMRAM[11]), 

    pad@buf	PTR unsigned char  size(2) Largest target is 32
		 -> dbuf(BANK1[32]), 

    pad@fp	PTR struct _IO_FILE size(2) Largest target is 11
		 -> sprintf@f(COMRAM[11]), 

    sprintf@fmt	PTR const unsigned char  size(2) Largest target is 9
		 -> STR_5(CODE[9]), STR_4(CODE[9]), 

    sprintf@s	PTR unsigned char  size(2) Largest target is 10
		 -> buffer(BANK1[10]), 

    sprintf@ap	PTR void [1] size(2) Largest target is 2
		 -> ?_sprintf(COMRAM[2]), 

    S868$source	PTR const unsigned char  size(2) Largest target is 0

    f...source	PTR const unsigned char  size(2) Largest target is 0

    S868$buffer	PTR unsigned char  size(2) Largest target is 0

    f...buffer	PTR unsigned char  size(2) Largest target is 0

    lcd_str@str	PTR const unsigned char  size(2) Largest target is 10
		 -> buffer(BANK1[10]), STR_3(CODE[7]), STR_2(CODE[5]), STR_1(CODE[8]), 


Critical Paths under _main in COMRAM

    None.

Critical Paths under _f_interrupt_high in COMRAM

    _f_timers->_read_keyb
    _read_keyboard->_ler_teclado
    _show_to_LCD->_lcd_str
    _read_keyb->_f_int2
    _f_int2->_sprintf
    _f_int1->_sprintf
    i2___fltol->i2___fldiv
    i2___flmul->i2___xxtofl
    i2___fldiv->i2___flmul
    _sprintf->_vfprintf
    _vfprintf->_vfpfcnvrt
    _vfpfcnvrt->_dtoa
    _dtoa->_pad
    _pad->_fputs
    _fputs->_fputc
    _abs->___aomod
    _f_int0->_lcd_str
    i2_lcd_cmd->i2_lcd_wr
    _lcd_str->_lcd_dat
    _lcd_dat->i2_lcd_wr
    _ADC_maq->_select_channel

Critical Paths under _main in BANK0

    _setup->_lcd_init
    _lcd_init->_lcd_cmd
    _lcd_cmd->_lcd_wr
    _read_temperature->___fldiv
    ___fltol->___fldiv
    ___flmul->___xxtofl
    ___fldiv->___flmul
    ___lwdiv->___lwmod

Critical Paths under _f_interrupt_high in BANK0

    None.

Critical Paths under _main in BANK1

    _read_temperature->___fltol

Critical Paths under _f_interrupt_high in BANK1

    None.

Critical Paths under _main in BANK2

    None.

Critical Paths under _f_interrupt_high in BANK2

    None.

Critical Paths under _main in BANK3

    None.

Critical Paths under _f_interrupt_high in BANK3

    None.

Critical Paths under _main in BANK4

    None.

Critical Paths under _f_interrupt_high in BANK4

    None.

Critical Paths under _main in BANK5

    None.

Critical Paths under _f_interrupt_high in BANK5

    None.

Call Graph Tables:

 ---------------------------------------------------------------------------------
 (Depth) Function   	        Calls       Base Space   Used Autos Params    Refs
 ---------------------------------------------------------------------------------
 (0) _main                                                 0     0      0    6767
                               _loop
                              _setup
 ---------------------------------------------------------------------------------
 (1) _setup                                                0     0      0      44
                            _AD_init
                 _disable_interrupts
                  _enable_interrupts
                     _interrupt_init
                           _lcd_init
                           _setup_io
                _start_AD_conversion
 ---------------------------------------------------------------------------------
 (2) _start_AD_conversion                                  0     0      0       0
 ---------------------------------------------------------------------------------
 (2) _setup_io                                             0     0      0       0
 ---------------------------------------------------------------------------------
 (2) _lcd_init                                             1     1      0      44
                                             12 BANK0      1     1      0
                            _lcd_cmd
 ---------------------------------------------------------------------------------
 (3) _lcd_cmd                                              1     1      0      44
                                             11 BANK0      1     1      0
                             _lcd_wr
 ---------------------------------------------------------------------------------
 (4) _lcd_wr                                               1     1      0      22
                                             10 BANK0      1     1      0
 ---------------------------------------------------------------------------------
 (2) _interrupt_init                                       0     0      0       0
 ---------------------------------------------------------------------------------
 (2) _enable_interrupts                                    0     0      0       0
 ---------------------------------------------------------------------------------
 (2) _disable_interrupts                                   0     0      0       0
 ---------------------------------------------------------------------------------
 (2) _AD_init                                              0     0      0       0
 ---------------------------------------------------------------------------------
 (1) _loop                                                 0     0      0    6723
                            ___lwdiv
                            ___lwmod
                   _read_temperature
 ---------------------------------------------------------------------------------
 (2) _read_temperature                                     0     0      0    4578
                            ___fldiv
                            ___flmul
                            ___fltol
                           ___xxtofl
 ---------------------------------------------------------------------------------
 (3) ___xxtofl                                            14    10      4     498
                                             10 BANK0     14    10      4
 ---------------------------------------------------------------------------------
 (3) ___fltol                                             10     6      4     537
                                              0 BANK1     10     6      4
                            ___fldiv (ARG)
                            ___flmul (ARG)
                           ___xxtofl (ARG)
 ---------------------------------------------------------------------------------
 (3) ___flmul                                             25    17      8    1944
                                             24 BANK0     25    17      8
                           ___xxtofl (ARG)
 ---------------------------------------------------------------------------------
 (3) ___fldiv                                             25    17      8    1599
                                             49 BANK0     25    17      8
                            ___flmul (ARG)
                           ___xxtofl (ARG)
 ---------------------------------------------------------------------------------
 (2) ___lwmod                                              5     1      4    1071
                                             10 BANK0      5     1      4
 ---------------------------------------------------------------------------------
 (2) ___lwdiv                                              7     3      4    1074
                                             15 BANK0      7     3      4
                            ___lwmod (ARG)
 ---------------------------------------------------------------------------------
 Estimated maximum stack depth 4
 ---------------------------------------------------------------------------------
 (Depth) Function   	        Calls       Base Space   Used Autos Params    Refs
 ---------------------------------------------------------------------------------
 (5) _f_interrupt_high                                    10    10      0   24438
                                              0 BANK0     10    10      0
                           _f_timers
 ---------------------------------------------------------------------------------
 (6) _f_timers                                             0     0      0   24438
                            _ADC_maq
                            _Read_AD
                            _lcd_dat
                            _lcd_str
                        _mux_display
                          _read_keyb
                      _read_keyboard
                          i2_lcd_cmd
 ---------------------------------------------------------------------------------
 (7) _read_keyboard                                        4     4      0    1110
                                              8 COMRAM     4     4      0
                        _ler_teclado
                        _show_to_LCD
 ---------------------------------------------------------------------------------
 (8) _show_to_LCD                                          0     0      0     602
                            _lcd_dat
                            _lcd_str
                          i2_lcd_cmd
 ---------------------------------------------------------------------------------
 (8) _ler_teclado                                          8     8      0     440
                                              0 COMRAM     8     8      0
 ---------------------------------------------------------------------------------
 (7) _read_keyb                                            4     4      0   22704
                                            113 COMRAM     4     4      0
                             _f_int0
                             _f_int1
                             _f_int2
 ---------------------------------------------------------------------------------
 (8) _f_int2                                               6     6      0   11142
                                            107 COMRAM     6     6      0
                             ___wmul
                              _f_pwm
                            _lcd_str
                            _sprintf
                          i2___fldiv
                          i2___flmul
                          i2___fltol
                         i2___xxtofl
                          i2_lcd_cmd
 ---------------------------------------------------------------------------------
 (9) ___wmul                                               6     2      4     615
                                              0 COMRAM     6     2      4
 ---------------------------------------------------------------------------------
 (8) _f_int1                                               0     0      0   10527
                              _f_pwm
                            _lcd_str
                            _sprintf
                          i2___fldiv
                          i2___flmul
                          i2___fltol
                         i2___xxtofl
                          i2_lcd_cmd
 ---------------------------------------------------------------------------------
 (9) i2___xxtofl                                          14    10      4     374
                                              0 COMRAM    14    10      4
 ---------------------------------------------------------------------------------
 (9) i2___fltol                                           10     6      4     281
                                             64 COMRAM    10     6      4
                          i2___fldiv (ARG)
                          i2___flmul (ARG)
                         i2___xxtofl (ARG)
 ---------------------------------------------------------------------------------
 (9) i2___flmul                                           25    17      8    1570
                                             14 COMRAM    25    17      8
                         i2___xxtofl (ARG)
 ---------------------------------------------------------------------------------
 (9) i2___fldiv                                           25    17      8    1225
                                             39 COMRAM    25    17      8
                          i2___flmul (ARG)
                         i2___xxtofl (ARG)
 ---------------------------------------------------------------------------------
 (9) _sprintf                                             21    15      6    6247
                                             88 COMRAM    19    13      6
                           _vfprintf
 ---------------------------------------------------------------------------------
 (10) _vfprintf                                            8     2      6    5744
                                             80 COMRAM     8     2      6
                          _vfpfcnvrt
 ---------------------------------------------------------------------------------
 (11) _vfpfcnvrt                                          23    17      6    5391
                                             62 COMRAM    18    12      6
                               _dtoa
                              _fputc
 ---------------------------------------------------------------------------------
 (12) _dtoa                                               35    25     10    3953
                                             27 COMRAM    35    25     10
                            ___aodiv
                            ___aomod
                                _abs
                                _pad
 ---------------------------------------------------------------------------------
 (13) _pad                                                11     5      6    2303
                                             16 COMRAM    11     5      6
                              _fputc
                              _fputs
 ---------------------------------------------------------------------------------
 (14) _fputs                                               7     3      4    1083
                                              9 COMRAM     7     3      4
                              _fputc
 ---------------------------------------------------------------------------------
 (12) _fputc                                               9     5      4     834
                                              0 COMRAM     9     5      4
                              _putch
 ---------------------------------------------------------------------------------
 (13) _putch                                               1     1      0       0
 ---------------------------------------------------------------------------------
 (13) _abs                                                 4     2      2     142
                                             18 COMRAM     4     2      2
                            ___aomod (ARG)
 ---------------------------------------------------------------------------------
 (13) ___aomod                                            18     2     16     448
                                              0 COMRAM    18     2     16
 ---------------------------------------------------------------------------------
 (13) ___aodiv                                            26    10     16     452
                                              0 COMRAM    26    10     16
 ---------------------------------------------------------------------------------
 (8) _f_int0                                               0     0      0     830
                              _f_pwm
                            _lcd_str
                          i2_lcd_cmd
 ---------------------------------------------------------------------------------
 (7) i2_lcd_cmd                                            1     1      0      44
                                              1 COMRAM     1     1      0
                           i2_lcd_wr
 ---------------------------------------------------------------------------------
 (9) _lcd_str                                              5     3      2     514
                                              2 COMRAM     5     3      2
                            _lcd_dat
 ---------------------------------------------------------------------------------
 (10) _lcd_dat                                             1     1      0      44
                                              1 COMRAM     1     1      0
                           i2_lcd_wr
 ---------------------------------------------------------------------------------
 (8) i2_lcd_wr                                             1     1      0      22
                                              0 COMRAM     1     1      0
 ---------------------------------------------------------------------------------
 (9) _f_pwm                                                4     2      2     272
                                              0 COMRAM     4     2      2
 ---------------------------------------------------------------------------------
 (7) _mux_display                                          2     2      0       0
                                              0 COMRAM     2     2      0
 ---------------------------------------------------------------------------------
 (7) _Read_AD                                              0     0      0       0
 ---------------------------------------------------------------------------------
 (7) _ADC_maq                                              2     2      0      22
                                              1 COMRAM     2     2      0
                     _select_channel
              i2_start_AD_conversion
 ---------------------------------------------------------------------------------
 (8) i2_start_AD_conversion                                0     0      0       0
 ---------------------------------------------------------------------------------
 (8) _select_channel                                       1     1      0      22
                                              0 COMRAM     1     1      0
 ---------------------------------------------------------------------------------
 Estimated maximum stack depth 14
 ---------------------------------------------------------------------------------

 Call Graph Graphs:

 _main (ROOT)
   _loop
     ___lwdiv
       ___lwmod (ARG)
     ___lwmod
     _read_temperature
       ___fldiv
         ___flmul (ARG)
           ___xxtofl (ARG)
         ___xxtofl (ARG)
       ___flmul
       ___fltol
         ___fldiv (ARG)
         ___flmul (ARG)
         ___xxtofl (ARG)
       ___xxtofl
   _setup
     _AD_init
     _disable_interrupts
     _enable_interrupts
     _interrupt_init
     _lcd_init
       _lcd_cmd
         _lcd_wr
     _setup_io
     _start_AD_conversion

 _f_interrupt_high (ROOT)
   _f_timers
     _ADC_maq
       _select_channel
       i2_start_AD_conversion
     _Read_AD
     _lcd_dat
       i2_lcd_wr
     _lcd_str
       _lcd_dat
     _mux_display
     _read_keyb
       _f_int0
         _f_pwm
         _lcd_str
         i2_lcd_cmd
           i2_lcd_wr
       _f_int1
         _f_pwm
         _lcd_str
         _sprintf
           _vfprintf
             _vfpfcnvrt
               _dtoa
                 ___aodiv
                 ___aomod
                 _abs
                   ___aomod (ARG)
                 _pad
                   _fputc
                     _putch
                   _fputs
                     _fputc
               _fputc
         i2___fldiv
           i2___flmul (ARG)
             i2___xxtofl (ARG)
           i2___xxtofl (ARG)
         i2___flmul
         i2___fltol
           i2___fldiv (ARG)
           i2___flmul (ARG)
           i2___xxtofl (ARG)
         i2___xxtofl
         i2_lcd_cmd
       _f_int2
         ___wmul
         _f_pwm
         _lcd_str
         _sprintf
         i2___fldiv
         i2___flmul
         i2___fltol
         i2___xxtofl
         i2_lcd_cmd
     _read_keyboard
       _ler_teclado
       _show_to_LCD
         _lcd_dat
         _lcd_str
         i2_lcd_cmd
     i2_lcd_cmd

 Address spaces:
Name               Size   Autos  Total    Cost      Usage
BIGRAM             5FF      0       0      28        0.0%
EEDATA             100      0       0       0        0.0%
BITBANK5           100      0       0      14        0.0%
BANK5              100      0       0      15        0.0%
BITBANK4           100      0       0      12        0.0%
BANK4              100      0       0      13        0.0%
BITBANK3           100      0       0      10        0.0%
BANK3              100      0       0      11        0.0%
BITBANK2           100      0       0       8        0.0%
BANK2              100      0       0       9        0.0%
BITBANK1           100      0       0       6        0.0%
BANK1              100      A      83       7       51.2%
BITBANK0            80      0       0       4        0.0%
BANK0               80     4A      75       5       91.4%
BITCOMRAM           7E      0       0       0        0.0%
COMRAM              7E     75      7A       1       96.8%
BITBIGSFRlhlh       1E      0       0      22        0.0%
BITBIGSFRhhlhl      18      0       0      17        0.0%
BITBIGSFRhhh         D      0       0      16        0.0%
BITBIGSFRlhll        6      0       0      23        0.0%
BITBIGSFRllhh        5      0       0      24        0.0%
BITBIGSFRhl          5      0       0      20        0.0%
BITBIGSFRlllh        4      0       0      25        0.0%
BITBIGSFRhhllh       4      0       0      18        0.0%
BITBIGSFRhhlll       4      0       0      19        0.0%
BITBIGSFRlhh         1      0       0      21        0.0%
BITBIGSFRlllll       1      0       0      26        0.0%
BIGSFR               0      0       0     200        0.0%
BITSFR               0      0       0     200        0.0%
SFR                  0      0       0     200        0.0%
STACK                0      0       0       2        0.0%
NULL                 0      0       0       0        0.0%
ABS                  0      0     172      27        0.0%
DATA                 0      0     172       3        0.0%
CODE                 0      0       0       0        0.0%


Microchip Technology PIC18 Macro Assembler V2.40 build 20220703182018 
Symbol Table                                                                                   Tue Dec 13 20:19:11 2022

                 ___fldiv@aexp 00C9                   ___fldiv@bexp 00C8                              _i 0079  
                 ___fldiv@sign 00C1                             l21 3440                             l24 3486  
                           _GO 007E11            ___wmul@multiplicand 0003               f_timers@counter0 0139  
             f_timers@counter1 0137               f_timers@counter2 0135               f_timers@counter3 0133  
       __end_of_interrupt_init 3424                            l300 3458                            l303 339E  
                          l153 3168                            l156 3378                            l261 3474  
                          l309 30AE                            l264 3462                            l419 2678  
                          l267 3422                            l478 2EDE                            l809 2780  
                          _GIE 007F97                            _RE0 007C20                            _RC5 007C15  
                          _PR2 000FCB                            _abs 324A                            _pad 2EE0  
                  i2___fldiv@a 002C                    i2___fldiv@b 0028               f_timers@old_latd 00E2  
                   i2___xxtofl 1BEE                            prod 000FF3                            wreg 000FE8  
              __end_of_ADC_maq 2DE6                    i2___flmul@a 0013                    i2___flmul@b 000F  
                 ___flmul@aexp 00A9                   ___flmul@bexp 00AA                   ___flmul@sign 00A4  
                 ___flmul@temp 00AF                   ___flmul@prod 00AB                  ADC_maq@estado 00EE  
              __end_of_AD_init 3442                   ___fltol@exp1 017E                           l1010 3046  
                         l1003 303E                           l1020 3114                           l1013 310C  
                         l1105 10B6                           l1130 0A4A                           l1107 112E  
                         ?_abs 0013                           l1108 111C                           l1133 08DC  
                         l1126 06E6                           l1143 0A0C                           l1135 0954  
                         l1136 0942                           l1170 1BEC                           l1181 1B84  
                         l1094 1210                           l1174 1B28                           l1167 1A90  
                         l1096 1070                           l4001 1BDC                           l1099 1034  
                         l4101 30A2                           l4007 3434                           l4103 30A8  
                         l4201 2FDC                           l4105 345A                           l4009 3484  
                         l4211 3012                           l4203 2FEE                           l4213 3028  
                         l4205 2FF6                           l4221 30B0                           l3501 3392  
                         l4215 3030                           l4207 2FFE                           l4231 30F8  
                         l4223 30C4                           l3503 3394                           l4217 3032  
                         l4209 300C                           l4233 3100                           l4225 30CC  
                         l4073 346E                           l3097 3454                           l3505 339C  
                         l4081 304C                           l4241 311E                           l4219 3038  
                         l4235 3106                           l4227 30D4                           l4091 3084  
                         l4083 305E                           l4075 3354                           l4251 3130  
                         l4243 3122                           l4229 30E2                           l3701 0F9A  
                         l4501 2770                           l4077 340A                           l4093 308A  
                         l4085 3060                           l4261 314E                           l4253 3132  
                         l4245 3126                           l4237 3116                           l3711 0FE8  
                         l4511 25E2                           l4095 3090                           l4087 3066  
                         l4079 3048                           l4263 3154                           l4255 3134  
                         l4247 3128                           l4239 311A                           l3721 1032  
                         l3713 0FF8                           l3705 0FAE                           l3801 0684  
                         l4505 2E66                           l4513 25FE                           l4097 3096  
                         l4089 307C                           l4265 3158                           l4257 3136  
                         l4249 312C                           l4521 3428                           l3731 1080  
                         l3723 103E                           l3715 1000                           l3707 0FC8  
                         l3651 0E92                           l3811 06B0                           l3803 068A  
                         l4515 262E                           l4507 2548                           l4099 309C  
                         l4267 315C                           l4259 314A                           l3733 1096  
                         l3741 10C6                           l3725 105C                           l3717 1010  
                         l3709 0FD8                           l3661 0EC6                           l3653 0E94  
                         l3901 0A10                           l3821 0706                           l3813 06C0  
                         l3805 0690                           l4461 267A                           l4517 265E  
                         l4509 25DE                           l3493 337E                           ?_pad 0011  
                         l4199 2FD2                           l3743 10D4                           l3735 109C  
                         l3727 105E                           l3719 1024                           l3671 0EF8  
                         l3655 0EA4                           l3663 0ECE                           l3647 0E76  
                         l3911 0A3A                           l3903 0A20                           l3831 0746  
                         l3815 06D0                           l3807 069E                           l4471 26D2  
                         l4463 2692                           l3495 3380                           l4519 3424  
                         l3753 113E                           l3761 1186                           l3745 10D8  
                         l3737 10A6                           l3729 106E                           l3681 0F2C  
                         l3673 0EFA                           l3665 0EDE                           l3657 0EB4  
                         l3649 0E84                           l3905 0A2E                           l3841 0790  
                         l3833 0752                           l3825 071A                           l3817 06D6  
                         l3809 06A0                           l4473 26E2                           l3497 3388  
                         l3771 11F0                           l3763 11A0                           l3755 114A  
                         l3747 10E6                           l3739 10B4                           l3691 0F72  
                         l3675 0F0A                           l3683 0F34                           l3667 0EE4  
                         l3659 0EC4                           l3907 0A30                           l3851 07E2  
                         l3843 079C                           l3835 076A                           l3827 0726  
                         l3819 06F6                           l4483 270C                           l4475 26E6  
                         l4467 26A6                           l3499 338A                           l3773 11FE  
                         l3765 11B6                           l3757 1158                           l3749 1114  
                         l3693 0F76                           l3685 0F44                           l3677 0F1A  
                         l3669 0EEA                           l3909 0A36                           l3861 0860  
                         l3853 07F2                           l3845 07AC                           l3837 0776  
                         l3829 0730                           l4493 2734                           l4485 2716  
                         l4477 26F4                           l4469 26D0                           l3775 1204  
                         l3767 11D0                           l3759 1182                           l3687 0F5A  
                         l3679 0F2A                           l3871 08DA                           l3863 0896  
                         l3855 080E                           l3847 07B8                           l3839 0782  
                         l3791 063E                           l4495 2740                           l4487 2720  
                         l3777 1206                           l3769 11EC                           l3689 0F6A  
                         l3697 0F8A                           l3881 093A                           l3873 08EC  
                         l3865 08A4                           l3857 081A                           l3849 07C8  
                         l3793 064E                           l3785 0620                           l4497 2750  
                         l3961 1A4C                           l3699 0F9A                           l3891 09A8  
                         l3875 08FA                           l3867 08C2                           l3859 0836  
                         l3795 065E                           l3787 062E                           l4499 2760  
                         l3971 1ACA                           l3963 1A5A                           l3885 0964  
                         l3893 09AC                           l3877 08FE                           l3869 08CC  
                         l3797 066E                           l3789 063C                           l3981 1B1E  
                         l3973 1AD2                           l3965 1AA0                           l3895 09C6  
                         l3887 0970                           l3879 090C                           l3799 0674  
                         l3991 1B94                           l3983 1B5A                           l3975 1ADE  
                         l3967 1AB6                           l3959 1A3A                           _ADIE 007CEE  
                         _ADIF 007CF6                           l3897 09DA                           l3889 097E  
                         l3993 1B98                           l3985 1B66                           l3977 1B10  
                         l3899 09F4                           l3995 1BBC                           l3987 1B74  
                         l3979 1B12                           l3997 1BCC                           l3989 1B92  
                         l3999 1BDA                           STR_1 060A                           STR_2 0619  
                         STR_3 0612                           STR_4 0601                           STR_5 0601  
                         _LATA 000F89                           _LATB 000F8A                           _LATC 000F8B  
                         u4000 2FEE                           _LATD 000F8C                           u4001 2FEA  
                         u4010 300C                           u4011 3008                           u4020 3028  
                         u3300 0EA4                           u4021 3024                           u3301 0EA0  
                         u4030 30C4                           u3310 0EB4                           u4031 30C0  
                         u3311 0EB0                           u4040 30E2                           u3400 1080  
                         u3320 0EF8                           u4041 30DE                           u3401 107C  
                         u3321 0EF4                           u4050 30F8                           u3410 1096  
                         u3330 0F0A                           u4210 2692                           u4051 30F4  
                         u3411 1092                           u3331 0F06                           u4211 268E  
                         u3500 11D0                           u3420 10B4                           u3340 0F1A  
                         u4220 26C6                           u3501 11CC                           u3421 10B0  
                         u3341 0F16                           u3510 11FE                           u3430 10D4  
                         u3350 0F5A                           u4230 26F4                           u3511 11FA  
                         u3431 10D0                           u3351 0F56                           u4231 26F0  
                         u3440 10E6                           u3360 0F9A                           u3600 0880  
                         u3520 063C                           u4240 2708                           _IPEN 007E87  
                         u3441 10E2                           u3361 0F96                           u3521 0638  
                         u4241 2704                           u4225 26BC                           u3450 1114  
                         u3370 1010                           u3290 0E92                           u3610 08DA  
                         u3530 064E                           u4250 2730                           u3451 1110  
                         u3371 100C                           u3291 0E8E                           u3611 08D6  
                         u3531 064A                           u4251 272C                           u4307 307E  
                         u3460 112A                           u3380 1032                           u3700 0A2E  
                         u3620 08FA                           u3540 065E                           u4260 2750  
                         u3461 1126                           u3381 102E                           u3701 0A2A  
                         u3621 08F6                           u3605 0876                           u3541 065A  
                         u4261 274C                           u4317 338C                           u3470 113E  
                         u3390 105C                           u3630 090C                           u3550 069E  
                         u4270 2760                           u3471 113A                           u3391 1058  
                         u3631 0908                           u3551 069A                           u4271 275C  
                         u4327 3396                           u3480 1158                           u3640 093A  
                         u3560 06B0                           u3800 1AB6                           u3481 1154  
                         u3641 0936                           u3561 06AC                           u3801 1AB2  
                         u3490 11A0                           u3650 0950                           u3570 06C0  
                         u3810 1B0C                           u3491 119C                           u3651 094C  
                         u3571 06BC                           u3811 1B08                           _PEIE 007F96  
                         u3660 0964                           u3580 06F6                           u3820 1B56  
                         u3661 0960                           u3581 06F2                           u3821 1B52  
                         u3670 097E                           u3590 0706                           u3830 1B74  
                         u3671 097A                           u3591 0702                           u3831 1B70  
                         u4287 3054                           u3680 09C6                           u3840 1B84  
                         u3681 09C2                           u3841 1B80                           u4297 306E  
                         u3690 09F4                           u3850 1B92                           u3691 09F0  
                         u3851 1B8E                           u3860 1BCC                           u3780 1A4C  
                         u3861 1BC8                           u3781 1A48                           u3870 1BDA  
                         u3790 1A5A                           u3871 1BD6                           u3791 1A56  
                         i2l24 348A                           i2l45 2D56                           i2l39 344E  
                         i2l47 2D72                           i2l48 2D94                           i2l49 2DE4  
                         i2l81 2C18                           i2l82 2C34                           i2l83 2C50  
                         i2l84 2CA8                           i2l79 2BFC                           _TMR0 000FD6  
                         abs@a 0013                           _dbuf 0145                           _main 3424  
                         _dtoa 15AC                           _loop 2548                           _prec 00D2  
                         pad@i 0018                           pad@p 0015                           fsr1h 000FE2  
                         fsr2h 000FDA                           indf1 000FE7                           indf2 000FDF  
                         fsr1l 000FE1                           pad@w 001A          i2_start_AD_conversion 3488  
                         fsr2l 000FD9                           btemp 007B          f_int2@duty_normalized 013D  
                         prodh 000FF4                           prodl 000FF3                           start 000E  
                 i2___fltol@f1 0041                ___fldiv@new_exp 00C2                   ___param_bank 000000  
              __end_of_Read_AD 346E                  _pwm_ventoinha 00D8                          ??_abs 0015  
                        ??_pad 0017                   ?_ler_teclado 0001                  ___fltol@sign1 017D  
              __end_of___aodiv 23E4                          ?_main 0001                          ?_dtoa 001C  
              __end_of___aomod 2548                __end_of___fldiv 1212                          _ADRES 000FC3  
                        ?_loop 0001                __end_of___flmul 0A4C                __end_of___fltol 2782  
              ?_interrupt_init 0001                          _T0CON 000FD5                          _T2CON 000FCA  
                        _LATA2 007C4A                          _LATA3 007C4B                          _LATA4 007C4C  
                        _LATA5 007C4D                __end_of___lwdiv 3048                __end_of___lwmod 3116  
                        i2l300 347C                          i2l303 33E6                          i2l306 3408  
                        i2l315 2FD0                          i2l254 29E8                          i2l503 21E4  
                        i2l255 2A06                          i2l408 3352                          i2l512 33C4  
                        i2l504 2206                          i2l440 32F6                          i2l280 28DA  
                        i2l256 2A24                          i2l258 2A50                          i2l451 1A34  
                        i2l437 2D50                          i2l509 225A                          i2l453 18EC  
                        i2l285 296A                          i2l462 3326                          i2l471 20D2  
                        i2l455 1928                          i2l287 2982                          i2l456 1964  
                        i2l465 2BF6                          i2l457 19A0                          i2l626 23E2  
                        i2l475 346C                          i2l491 20F0                          i2l492 2112  
                        i2l639 2546                          i2l809 2886                          i2l497 216A  
                        i2l498 218C                   vfpfcnvrt@fmt 0041                          _PORTB 000F81  
                        _PORTD 000F83                          _TRISA 000F92                          _TRISB 000F93  
                        _TRISC 000F94                          _TRISD 000F95                          _TRISE 000F96  
              __end_of_lcd_dat 340A                __end_of_lcd_cmd 33A0                __end_of_lcd_str 2FD2  
                        _dado1 00E1                          _dado2 00E0                          _dado3 00DF  
                        _dado4 00DE                          _f_pwm 3328                          _flags 00DC  
                        _fputc 2A7C                          _fputs 3206                  i2___fldiv@grs 003B  
                i2___fldiv@rem 0034             _disable_interrupts 346E                          _setup 3116  
                        pad@fp 0011                          _width 013B                          _putch 348C  
                        dtoa@d 001E                          dtoa@i 003C                          dtoa@n 0034  
                        dtoa@p 0030                          dtoa@s 003E                          dtoa@w 0032  
                        tablat 000FF5                          ttemp5 007C                          ttemp6 007F  
                        ttemp7 0083                          status 000FD8                          wtemp8 007C  
              __end_of_sprintf 31B8               __end_ofi2_lcd_wr 347E                  i2___flmul@grs 001C  
     __end_of_read_temperature 2EE0            ?_disable_interrupts 0001               _f_interrupt_high 0008  
              __initialization 2DE6                   __end_of_main 3434                   __end_of_dtoa 182A  
                 __end_of_loop 267A               ler_teclado@i_430 0005               ler_teclado@i_429 0003  
             ler_teclado@saida 0007                      ??_ADC_maq 0002              read_keyb@dado_RB3 0072  
            read_keyb@dado_RB4 0073              read_keyb@dado_RB5 0074                         ??_main 00CA  
                       ??_dtoa 0026                         ??_loop 00CA                  __activetblptr 000002  
         ??_disable_interrupts 008A                      ??_AD_init 008A                    ?i2___xxtofl 0001  
                  i2lcd_wr@val 0001                         ?_f_pwm 0001                         _ADCON0 000FC2  
                       _ADCON1 000FC1                         _ADCON2 000FC0                         ?_fputc 0001  
                       ?_fputs 000A                         _ADRESH 000FC4                         _ADRESL 000FC3  
                       _CCPR1L 000FBE                         ?_setup 0001                         ?_putch 0001  
                       _INT0IE 007F94                         _INT0IF 007F91                         _INT1IE 007F83  
                       _INT1IF 007F80                         _INT2IE 007F84                         _INT2IF 007F81  
                       i2l1105 1450                         i2l1130 0E74                         i2l1107 14C8  
                       i2l1212 2F02                         i2l1108 14B6                         i2l1221 1638  
                       i2l1133 0D06                         i2l1126 0B10                         i2l1223 1640  
                       i2l1143 0E36                         i2l1135 0D7E                         i2l1216 2F58  
                       i2l1224 1686                         i2l1136 0D6C                         i2l3001 169E  
                       i2l1242 1F3A                         i2l1170 1DA0                         i2l1235 1828  
                       i2l3011 17AA                         i2l3003 1720                         i2l1253 3280  
                       i2l3021 1808                         i2l3013 17C8                         i2l3005 1726  
                       i2l3101 316A                         i2l1181 1D38                         i2l1190 31B6  
                       i2l1094 15AA                         i2l1174 1CDC                         i2l3015 17E2  
                       i2l3007 172C                         i2l3031 1DE2                         i2l3103 317A  
                       i2l1167 1C44                         i2l1256 3288                         i2l1096 140A  
                       i2l3121 33CA                         i2l3017 17F2                         i2l3009 1790  
                       i2l3041 1E86                         i2l3033 1DE8                         i2l3025 1DA2  
                       i2l1249 3204                         i2l3105 3182                         i2l3201 1292  
                       i2l3113 33A0                         i2l4011 2D52                         i2l3131 33E4  
                       i2l3123 33D0                         i2l3019 17F8                         i2l3035 1DF8  
                       i2l3027 1DC6                         i2l3107 318A                         i2l1099 13CE  
                       i2l3211 12C6                         i2l3203 1294                         i2l3115 33BC  
                       i2l1268 2B44                         i2l1276 3248                         i2l4005 3488  
                       i2l4021 2D7C                         i2l4013 2D5E                         i2l3125 33D2  
                       i2l3053 1F00                         i2l3045 1EB6                         i2l3037 1E14  
                       i2l3029 1DD4                         i2l3109 31A6                         i2l3301 158A  
                       i2l3221 130C                         i2l3205 12A4                         i2l3213 12CE  
                       i2l3141 27D6                         i2l3133 2782                         i2l4031 2DA2  
                       i2l4023 2D80                         i2l4015 2D64                         i2l3063 3478  
                       i2l3071 33F4                         i2l3127 33DA                         i2l3119 33C8  
                       i2l1279 348C                         i2l3047 1EDA                         i2l3039 1E30  
                       i2l3303 1598                         i2l3231 1334                         i2l3223 1310  
                       i2l3215 12DE                         i2l3207 12B4                         i2l3143 27D8  
                       i2l3135 2798                         i2l4111 1842                         i2l4033 2DA6  
                       i2l4025 2D86                         i2l4017 2D68                         i2l3073 33FC  
                       i2l3065 33EA                         i2l3129 33DC                         i2l3049 1EE8  
                       i2l3057 1F12                         i2l3081 31C4                         i2l3305 159E  
                       i2l3241 1382                         i2l3217 12F4                         i2l3209 12C4  
                       i2l3401 0D04                         i2l3321 0A68                         i2l3145 27E8  
                       i2l4121 18A6                         i2l4113 1856                         i2l4027 2D8A  
                       i2l4019 2D7A                         i2l4051 2C1C                         i2l3075 33FE  
                       i2l3067 33EC                         i2l3091 2F62                         i2l3083 31E0  
                       i2l3307 15A0                         i2l3251 13CC                         i2l3243 1392  
                       i2l3235 1348                         i2l3219 1304                         i2l3227 1324  
                       i2l3411 0D64                         i2l3403 0D16                         i2l3331 0AAE  
                       i2l3323 0A78                         i2l3315 0A4C                         i2l3171 2866  
                       i2l3155 2812                         i2l3147 27EC                         i2l3139 27AC  
                       i2l4131 18CC                         i2l4115 1868                         i2l4107 182A  
                       i2l4029 2D9C                         i2l4037 2DB0                         i2l4061 2C64  
                       i2l4053 2C2C                         i2l4045 2BF8                         i2l3077 3406  
                       i2l3069 33F2                         i2l3093 2F92                         i2l3085 31FC  
                       i2l3261 141A                         i2l3253 13D8                         i2l3245 139A  
                       i2l3237 1362                         i2l3229 1334                         i2l3181 122C  
                       i2l3421 0DD2                         i2l3405 0D24                         i2l3341 0ADA  
                       i2l3333 0AB4                         i2l3325 0A88                         i2l3317 0A58  
                       i2l3173 2876                         i2l3165 283A                         i2l3157 281C  
                       i2l3149 27FA                         i2l4133 18F0                         i2l4117 187A  
                       i2l4109 1830                         i2l4301 2936                         i2l4055 2C38  
                       i2l4047 2C00                         i2l3095 2F94                         i2l3511 3308  
                       i2l3079 31B8                         i2l3263 1430                         i2l3271 1460  
                       i2l3255 13F6                         i2l3247 13AA                         i2l3239 1372  
                       i2l3191 1260                         i2l3183 122E                         i2l3431 0E3A  
                       i2l3415 0D8E                         i2l3423 0DD6                         i2l3407 0D28  
                       i2l3351 0B30                         i2l3343 0AEA                         i2l3335 0ABA  
                       i2l3327 0A98                         i2l3319 0A66                         i2l3167 2846  
                       i2l3159 2826                         i2l4135 192C                         i2l4127 18AE  
                       i2l4119 18A2                         i2l4143 19DC                         i2l4151 1A30  
                       i2l4311 296C                         i2l4303 293E                         i2l4057 2C48  
                       i2l4049 2C10                         i2l4065 2C6C                         i2l3089 2F5A  
                       i2l3513 3314                         i2l3273 146E                         i2l3265 1436  
                       i2l3257 13F8                         i2l3249 13BE                         i2l3185 123E  
                       i2l3193 1268                         i2l3177 1212                         i2l3441 0E64  
                       i2l3433 0E4A                         i2l3425 0DF0                         i2l3417 0D9A  
                       i2l3409 0D36                         i2l3361 0B70                         i2l3345 0AFA  
                       i2l3337 0AC8                         i2l3329 0A9E                         i2l3169 2856  
                       i2l3521 2BC8                         i2l4161 2CBC                         i2l3601 216C  
                       i2l4137 1968                         i2l4145 1A16                         i2l4129 18C8  
                       i2l4313 2974                         i2l4305 2942                         i2l4059 2C54  
                       i2l3099 3328                         i2l3515 331A                         i2l3507 32F8  
                       i2l3283 14D8                         i2l3291 1520                         i2l3275 1472  
                       i2l3267 1440                         i2l3259 1408                         i2l3195 1278  
                       i2l3187 124E                         i2l3179 121E                         i2l3435 0E58  
                       i2l3427 0E04                         i2l3419 0DA8                         i2l3371 0BBA  
                       i2l3363 0B7C                         i2l3355 0B44                         i2l3347 0B00  
                       i2l3339 0ACA                         i2l3451 1C54                         i2l3523 2BCE  
                       i2l3531 1F5A                         i2l4171 2CE2                         i2l4163 2CC4  
                       i2l3611 21B4                         i2l3603 2170                         i2l4147 1A26  
                       i2l4139 19A4                         i2l4315 2978                         i2l4307 294C  
                       i2l3509 3302                         i2l2901 232A                         i2l3293 153A  
                       i2l3285 14E4                         i2l3277 1480                         i2l3269 144E  
                       i2l3197 127E                         i2l3189 125E                         i2l3437 0E5A  
                       i2l3429 0E1E                         i2l3381 0C0C                         i2l3373 0BC6  
                       i2l3365 0B94                         i2l3357 0B50                         i2l3349 0B20  
                       i2l3461 1C92                         i2l3453 1C6A                         i2l3445 1BF0  
                       i2l3525 2BEA                         i2l3517 2B46                         i2l3541 2006  
                       i2l3533 1F6E                         i2l4181 2D14                         i2l4173 2CF0  
                       i2l4165 2CC8                         i2l3621 21DC                         i2l3613 21C2  
                       i2l3605 219E                         i2l4149 1A2E                         i2l4309 2962  
                       i2l4341 29BC                         i2l2903 2358                         i2l2911 2392  
                       i2l3295 1550                         i2l3287 14F2                         i2l3279 14AE  
                       i2l3199 1284                         i2l3439 0E60                         i2l3391 0C8A  
                       i2l3383 0C1C                         i2l3375 0BD6                         i2l3367 0BA0  
                       i2l3359 0B5A                         i2l3471 1D1A                         i2l3463 1CC4  
                       i2l3447 1C00                         i2l3519 2BBC                         i2l3551 20AA  
                       i2l3543 200E                         i2l3535 1F80                         i2l3527 1F3C  
                       i2l4191 2D48                         i2l4183 2D28                         i2l4175 2CF8  
                       i2l4167 2CD6                         i2l4159 2CAA                         i2l3631 221C  
                       i2l3615 21C6                         i2l3607 21A2                         i2l4271 288A  
                       i2l4351 29E6                         i2l4343 29C4                         i2l2913 23A2  
                       i2l2905 2378                         i2l2921 23E8                         i2l3297 156A  
                       i2l3289 151C                         i2l3393 0CC0                         i2l3385 0C38  
                       i2l3377 0BE2                         i2l3369 0BAC                         i2l3481 1D70  
                       i2l3473 1D28                         i2l3465 1CC6                         i2l3457 1C7E  
                       i2l3449 1C0E                         i2l3553 20C6                         i2l3545 2022  
                       i2l3529 1F48                         i2l4193 2D4C                         i2l4185 2D2C  
                       i2l4177 2CFC                         i2l4169 2CDE                         i2l3641 224E  
                       i2l3633 222A                         i2l3625 21E6                         i2l3617 21D4  
                       i2l3609 21B0                         i2l3561 32DE                         i2l4281 28BC  
                       i2l4273 288E                         i2l4361 2A32                         i2l4353 29F6  
                       i2l4345 29C8                         i2l3491 3444                         i2l4195 3464  
                       i2l2915 23C2                         i2l2907 237A                         i2l2931 2448  
                       i2l2923 23F6                         i2l3299 1586                         i2l3395 0CCE  
                       i2l3387 0C44                         i2l3379 0BF2                         i2l3483 1D80  
                       i2l3475 1D46                         i2l3467 1CD2                         i2l3459 1C86  
                       i2l3547 202E                         i2l3539 1F96                         i2l4187 2D40  
                       i2l4179 2D10                         i2l3643 2252                         i2l3635 222E  
                       i2l3627 21EA                         i2l3619 21D8                         i2l3571 20E4  
                       i2l3563 32E6                         i2l3555 32C6                         i2l4291 2908  
                       i2l4283 28D2                         i2l4275 28A6                         i2l4363 2A40  
                       i2l4355 2A04                         i2l4347 29CA                         i2l4339 29AE  
                       i2l2909 238C                         i2l2941 24BE                         i2l2933 2466  
                       i2l2925 2416                         i2l2861 2AC8                         i2l2853 2A7C  
                       i2l3397 0CEC                         i2l3389 0C60                         i2l3485 1D8E  
                       i2l3477 1D48                         i2l3469 1D0E                         i2l3549 20A4  
                       i2l4189 2D44                         i2l3637 223C                         i2l3629 2218  
                       i2l3581 2124                         i2l3565 32EE                         i2l3557 32CC  
                       i2l4613 19F0                         i2l4293 2912                         i2l4285 28DE  
                       i2l4277 28AE                         i2l4269 2888                         i2l4365 2A4E  
                       i2l4357 2A14                         i2l4349 29D8                         i2l4615 2C82  
                       i2l2951 2526                         i2l2943 24DE                         i2l2935 246E  
                       i2l2927 241A                         i2l2919 23E4                         i2l2863 2AFE  
                       i2l2855 2A8E                         i2l2871 3224                         i2l3399 0CF6  
                       i2l3487 1D90                         i2l3479 1D4C                         i2l3639 2240  
                       i2l3591 214C                         i2l3583 2128                         i2l3567 20D4  
                       i2l3559 32D8                         i2l4295 291C                         i2l4287 28F6  
                       i2l4279 28B2                         i2l4359 2A22                         i2l4617 2DC6  
                       i2l2881 228E                         i2l2945 24F0                         i2l2937 2482  
                       i2l2929 2428                         i2l2857 2AA0                         i2l2873 3228  
                       i2l2961 2F0E                         i2l3593 215A                         i2l3585 2136  
                       i2l3577 20F2                         i2l3569 20E0                         i2l4297 2922  
                       i2l4289 28FC                         i2l2891 22D0                         i2l2883 2292  
                       i2l2875 225C                         i2l2939 2490                         i2l2947 24F6  
                       i2l2971 3264                         i2l2859 2AAA                         i2l2867 3206  
                       i2l2963 2F22                         i2l2955 2EE0                         i2l3595 215E  
                       i2l3587 213A                         i2l3579 20F6                         i2l4299 292C  
                       i2l2893 22EE                         i2l2885 22A0                         i2l2877 2260  
                       i2l2949 2506                         i2l2869 3212                         i2l2965 2F26  
                       i2l2957 2EEE                         i2l2981 1610                         i2l2973 15AC  
                       i2l3597 2162                         i2l3589 2148                         i2l2895 22F6  
                       i2l2887 22C0                         i2l2879 226E                         i2l2967 2F44  
                       i2l2959 2EFA                         i2l2991 166E                         i2l2983 162C  
                       i2l2975 15CC                         _INTCON 000FF2                         i2l2897 230A  
                       i2l2889 22C4                         i2l2969 324A                         i2l2993 167A  
                       i2l2985 1648                         i2l2977 15E0                         i2l2899 2318  
                       i2l2995 1682                         i2l2987 1658                         i2l2979 15F0  
                       i2l2997 168E                         i2l2989 165E                         i2l2999 1698  
       ?i2_start_AD_conversion 0001                         _TMR0IE 007F95                         _TMR0IF 007F92  
             __end_of___xxtofl 1BEE                      ??_Read_AD 0001               __end_of_f_timers 2984  
                 vfprintf@cfmt 0057               __end_of_lcd_init 30B0                      ??___aodiv 0011  
                    ??___aomod 0011                         ___wmul 33A0                      ??___fldiv 00B9  
                       _f_int0 32F8                         _f_int1 2B46                         _f_int2 1F3C  
                    ??___flmul 00A0                      ??___fltol 0179                      ??___lwdiv 0093  
                    ??___lwmod 008E                         _buffer 0165                         _lcd_wr 3450  
                       _linha1 0111                         _linha2 0100                         clear_0 2E3E  
                       clear_1 2E4A                 i2___fldiv@aexp 0040                 i2___fldiv@bexp 003F  
                       isa$std 000001                 i2___fldiv@sign 0038                         pad@buf 0013  
                    ??_lcd_dat 0002                      ??_lcd_cmd 008B                         dtoa@fp 001C  
                    ??_lcd_str 0005                         fputc@c 0001                         fputs@c 000E  
                       fputs@i 000F                   __pdataCOMRAM 007A                         fputs@s 000A  
            __end_ofi2___fldiv 15AC              __end_ofi2___flmul 0E76              __end_ofi2___fltol 2888  
           _estado_sequencia01 00E9             _estado_sequencia02 00E8                   __mediumconst 0000  
                       tblptrh 000FF7                         tblptrl 000FF6               __end_of_setup_io 337A  
                       tblptru 000FF8                         putch@c 0001               __end_of_vfprintf 3206  
                    ??_sprintf 005F              __end_ofi2_lcd_cmd 33E8                 i2___flmul@aexp 0020  
               i2___flmul@bexp 0021                 i2___flmul@sign 001B                 i2___flmul@temp 0026  
                 ?_show_to_LCD 0001                 i2___flmul@prod 0022                   ?_mux_display 0001  
                 ___xxtofl@arg 0094                   ___xxtofl@exp 0093                   ___xxtofl@val 008A  
                   __accesstop 0080        __end_of__initialization 2E58                 i2___fltol@exp1 004A  
               _select_channel 3442            _start_AD_conversion 3484                  ___rparam_used 000001  
                   ___fltol@f1 0175                 __pcstackCOMRAM 0001                   __pidataBANK0 347E  
                 __pidataBANK1 328A                  __end_of_f_pwm 3354                  __end_of_fputc 2B46  
                __end_of_fputs 324A                  __end_of_setup 316A                  __end_of_putch 348E  
         ?_start_AD_conversion 0001                      ?i2_lcd_wr 0001                   i2lcd_cmd@val 0002  
                      ??_f_pwm 0003                        ??_fputc 0005                        ??_fputs 000E  
                      ??_setup 008D                        ??_putch 0001         __end_of_select_channel 3450  
                   __pbssBANK0 00CA                     __pbssBANK1 013B                        ?___wmul 0001  
             ??_interrupt_init 008A                        ?_f_int0 0001                        ?_f_int1 0001  
                      ?_f_int2 0001                        ?_lcd_wr 0001                        _CCP1CON 000FBD  
                _read_keyboard 182A                        _ADC_maq 2D52          ??_start_AD_conversion 008A  
            read_keyboard@dado 0078                        _AD_data 016F                        _AD_init 3434  
                   ??i2_lcd_wr 0001                        _INTCON2 000FF1                        _INTCON3 000FF0  
                    ?___xxtofl 008A       __end_of_f_interrupt_high 2A7C                      ?_f_timers 0001  
                    ?_lcd_init 0001            _memoria_temperatura 013F                ?_select_channel 0001  
                 ler_teclado@i 0001                        _Read_AD 3464              ?_read_temperature 0001  
                      __Hparam 0000            _digito1_temperatura 00E6                        __Lparam 0000  
           ??_read_temperature 00CA                      ?_setup_io 0001                        ___aodiv 225C  
                      ___aomod 23E4                        ___fldiv 0E76                        ___flmul 0620  
                      ___fltol 267A                 ?_read_keyboard 0001                        ___lwdiv 2FD2  
                      ___lwmod 30B0                      ?_vfprintf 0051                   __psmallconst 0600  
                      __pcinit 2DE6                        __ramtop 0600                        __ptext0 3424  
                      __ptext1 3116                        __ptext2 3484                        __ptext3 3354  
                      __ptext4 3048                        __ptext5 337A                        __ptext6 3450  
                      __ptext7 340A                        __ptext8 345A                        __ptext9 346E  
                      _lcd_dat 33E8                        _lcd_cmd 337A                        _lcd_str 2F5A  
                 ??i2___xxtofl 0005                     ??___xxtofl 008E              __end_of_read_keyb 2D52  
                   ??_f_timers 0076                        _pwm_aux 00D4        ??i2_start_AD_conversion 0001  
                      _sprintf 316A                     ??_lcd_init 008C                 __pintcode_body 2984  
         end_of_initialization 2E58                        fputc@fp 0003                  __Lmediumconst 0000  
                      int_func 2984                        fputs@fp 000C                 i2___xxtofl@arg 000B  
               i2___xxtofl@exp 000A                 i2___xxtofl@val 0001            _digito2_temperatura 00E5  
            __end_of_vfpfcnvrt 1F3C             __end_ofi2___xxtofl 1DA2                        postdec1 000FE5  
                      postdec2 000FDD                     ??_setup_io 008A                        postinc0 000FEE  
                      postinc1 000FE6                        postinc2 000FDE               vfpfcnvrt@convarg 0047  
                   ??_vfprintf 0057                      _PORTEbits 000F84                  ___xxtofl@sign 0092  
                   lcd_dat@val 0002                     lcd_cmd@val 008B          read_AD_10bits@leitura 0141  
                  ___fldiv@grs 00C4                    ___fldiv@rem 00BD                i2___fltol@sign1 0049  
                    i2___fldiv 1212                      i2___flmul 0A4C                      i2___fltol 2782  
                  ___flmul@grs 00A5                      i2_lcd_cmd 33C6                     lcd_str@str 0003  
          _digito3_temperatura 00E4                ??_read_keyboard 0009                    vfpfcnvrt@ap 0043  
                  vfpfcnvrt@cp 004F                    vfpfcnvrt@fp 003F                 __end_of___wmul 33C6  
               __end_of_f_int0 3328                 __end_of_f_int1 2BF8                 __end_of_f_int2 20D4  
                __pidataCOMRAM 348E                 __end_of_lcd_wr 345A              _enable_interrupts 345A  
        select_channel@channel 0001             ?_enable_interrupts 0001            start_initialization 2DE6  
                  __end_of_abs 328A                    __end_of_pad 2F5A                     ?i2___fldiv 0028  
                   ?i2___flmul 000F                     ?i2___fltol 0041            ??_enable_interrupts 008A  
                   ?i2_lcd_cmd 0001             ler_teclado@entrada 0008            _digito4_temperatura 00E3  
                  vfprintf@fmt 0053                       ??___wmul 0005                       ??_f_int0 0008  
                     ??_f_int1 006C                       ??_f_int2 006C                  ??_ler_teclado 0001  
                     ??_lcd_wr 008A                    __pdataBANK0 00EF                    __pdataBANK1 0100  
    __end_of_enable_interrupts 3464                       ?_ADC_maq 0001                      ___fldiv@a 00B5  
                    ___fldiv@b 00B1                       ?_AD_init 0001                      ___flmul@a 009C  
                    ___flmul@b 0098                    __pbssCOMRAM 0076               ??_select_channel 0001  
                __pcstackBANK0 0080                  __pcstackBANK1 0175               ___aodiv@dividend 0001  
            ?_f_interrupt_high 0001              _duty_LCD1_TECLADO 007A             ??_f_interrupt_high 0080  
    read_AD_10bits@leitura_low 00DA              _duty_LCD2_TECLADO 00F4              _duty_LCD3_TECLADO 00F3  
            _duty_LCD4_TECLADO 00F2                       ?_Read_AD 0001                      __pnvBANK1 017F  
             ___lwdiv@dividend 008F                      __pintcode 0008    __end_of_start_AD_conversion 3488  
                     ?___aodiv 0001            read_keyb@m_dado_RB3 00F1            read_keyb@m_dado_RB4 00F0  
          read_keyb@m_dado_RB5 00EF                       ?___aomod 0001                       ?___fldiv 00B1  
             ___aodiv@quotient 0013                       ?___flmul 0098                       ?___fltol 0175  
                     ?___lwdiv 008F                       ?___lwmod 008A                   _memoria_dado 00DD  
                     ?_lcd_dat 0001                       ?_lcd_cmd 0001                       ?_lcd_str 0003  
                  __smallconst 0600            __end_of_ler_teclado 225C               ___lwdiv@quotient 0093  
                  ??i2___fldiv 0030                       ?_sprintf 0059                    ??i2___flmul 0017  
                  ??i2___fltol 0045                      _read_keyb 2CAA  __end_ofi2_start_AD_conversion 348C  
                  ??i2_lcd_cmd 0002                 ___wmul@product 0005                   _duty_teclado 00CA  
                     i2u211_40 2A8E                       i2u211_41 2A8A                       i2u220_40 2318  
                     i2u212_40 2AA0                       i2u300_40 1C0E                       i2u220_41 2314  
                     i2u212_41 2A9C                       i2u300_41 1C0A                       i2u221_40 2358  
                     i2u213_40 2AC8                       i2u301_40 1C6A                       i2u221_41 2354  
                     i2u213_41 2AC4                       i2u301_41 1C66                       i2u222_40 23A2  
                     i2u214_40 2AFE                       i2u230_40 2F44                       i2u302_40 1CC0  
                     i2u310_40 1F6E                       i2u222_41 239E                       i2u214_41 2AFA  
                     i2u230_41 2F40                       i2u302_41 1CBC                       i2u310_41 1F6A  
                     i2u223_40 23F6                       i2u231_40 3264                       i2u215_40 3248  
                     i2u303_40 1D0A                       i2u311_40 1F80                       i2u223_41 23F2  
                     i2u231_41 3260                       i2u215_41 3244                       i2u303_41 1D06  
                     i2u311_41 1F7C                       i2u216_40 226E                       i2u224_40 2428  
                     i2u240_40 17E2                       i2u232_40 15DC                       i2u304_40 1D28  
                     i2u312_40 1F92                       i2u320_40 219E                       i2u216_41 226A  
                     i2u224_41 2424                       i2u240_41 17DE                       i2u232_41 15D6  
                     i2u304_41 1D24                       i2u312_41 1F8E                       i2u320_41 219A  
                     i2u217_40 22A0                       i2u225_40 2466                       i2u241_40 17F2  
                     i2u233_40 15DE                       i2u305_40 1D38                       i2u313_40 2022  
                     i2u321_40 21B0                       i2u217_41 229C                       i2u225_41 2462  
                     i2u241_41 17EE                       i2u305_41 1D34                       i2u313_41 201E  
                     i2u321_41 21AC                       i2u226_40 2490                       i2u234_40 15F0  
                     i2u242_40 1DC6                       i2u250_40 2798                       i2u306_40 1D46  
                     i2u322_40 21C2                       i2u314_40 2112                       i2u218_41 22CA  
                     i2u226_41 248C                       i2u234_41 15EC                       i2u242_41 1DC2  
                     i2u250_41 2794                       i2u306_41 1D42                       i2u322_41 21BE  
                     i2u314_41 210E                      f_pwm@duty 0001                       i2u219_40 22EE  
                     i2u227_40 24BE                       i2u235_40 162C                       i2u243_40 1E14  
                     i2u251_40 27CC                       i2u307_40 1D80                       i2u323_40 21D4  
                     i2u315_40 2124                       i2u411_40 29BC                       i2u219_41 22EA  
                     i2u227_41 24BA                       i2u235_41 1628                       i2u243_41 1E10  
                     i2u307_41 1D7C                       i2u323_41 21D0                       i2u315_41 2120  
                     i2u411_41 29B8                       i2u251_45 27C2                       i2u228_40 2506  
                     i2u236_40 1658                       i2u244_40 1E30                       i2u260_40 1292  
                     i2u252_40 27FA                       i2u308_40 1D8E                       i2u324_40 2206  
                     i2u316_40 2136                       i2u420_40 2A4E                       i2u412_40 29D8  
                     i2u228_41 2502                       i2u236_41 1654                       i2u244_41 1E2C  
                     i2u260_41 128E                       i2u252_41 27F6                       i2u308_41 1D8A  
                     i2u324_41 2202                       i2u316_41 2132                       i2u420_41 2A4A  
                     i2u412_41 29D4                       i2u229_40 2EEE                       i2u237_40 166E  
                     i2u245_40 1EDA                       i2u261_40 12A4                       i2u253_40 280E  
                     i2u309_40 1F5A                       i2u325_40 2218                       i2u317_40 2148  
                     i2u413_40 29E6                       i2u229_41 2EEA                       i2u237_41 166A  
                     i2u245_41 1ED6                       i2u261_41 12A0                       i2u253_41 280A  
                     i2u309_41 1F56                       i2u325_41 2214                       i2u317_41 2144  
                     i2u413_41 29E2                       i2u238_40 17AA                       i2u246_40 31FC  
                     i2u270_40 144E                       i2u262_40 12B4                       i2u254_40 2836  
                     i2u326_40 222A                       i2u318_40 215A                       i2u406_40 28A6  
                     i2u414_40 29F6                       i2u238_41 17A6                       i2u246_41 31F8  
                     i2u270_41 144A                       i2u262_41 12B0                       i2u254_41 2832  
                     i2u326_41 2226                       i2u318_41 2156                       i2u406_41 28A2  
                     i2u414_41 29F2                       i2u247_40 2F8E                       i2u239_40 17C8  
                     i2u271_40 146E                       i2u263_40 12F4                       i2u255_40 2856  
                     i2u327_40 223C                       i2u319_40 218C                       i2u407_40 28D2  
                     i2u415_40 2A04                       i2u239_41 17C4                       i2u271_41 146A  
                     i2u263_41 12F0                       i2u255_41 2852                       i2u327_41 2238  
                     i2u319_41 2188                       i2u407_41 28CE                       i2u415_41 2A00  
                     i2u247_47 2F84                       i2u248_40 2FC0                       i2u272_40 1480  
                     i2u264_40 1334                       i2u280_40 0A66                       i2u256_40 2866  
                     i2u328_40 224E                       i2u408_40 28F6                       i2u416_40 2A14  
                     i2u272_41 147C                       i2u264_41 1330                       i2u280_41 0A62  
                     i2u256_41 2862                       i2u328_41 224A                       i2u408_41 28F2  
                     i2u416_41 2A10                       i2u248_47 2FB6                       i2u249_40 2FD0  
                     i2u273_40 14AE                       i2u265_40 13AA                       i2u257_40 122C  
                     i2u281_40 0A78                       i2u409_40 2962                       i2u417_40 2A22  
                     i2u249_41 2FCC                       i2u273_41 14AA                       i2u265_41 13A6  
                     i2u257_41 1228                       i2u281_41 0A74                       i2u409_41 295E  
                     i2u417_41 2A1E                       i2u433_47 33D4                       i2u274_40 14C4  
                     i2u266_40 13CC                       i2u258_40 123E                       i2u290_40 0D24  
                     i2u282_40 0A88                       i2u418_40 2A32                       i2u274_41 14C0  
                     i2u266_41 13C8                       i2u258_41 123A                       i2u290_41 0D20  
                     i2u282_41 0A84                       i2u418_41 2A2E                       i2u434_47 33DE  
                     i2u275_40 14D8                       i2u267_40 13F6                       i2u259_40 124E  
                     i2u291_40 0D36                       i2u283_40 0AC8                       i2u419_40 2A40  
                     i2u275_41 14D4                       i2u267_41 13F2                       i2u259_41 124A  
                     i2u291_41 0D32                       i2u283_41 0AC4                       i2u419_41 2A3C  
                     i2u435_47 33F6                       i2u276_40 14F2                       i2u268_40 141A  
                     i2u292_40 0D64                       i2u284_40 0ADA                       i2u276_41 14EE  
                     i2u268_41 1416                       i2u292_41 0D60                       i2u284_41 0AD6  
                     i2u436_47 3400                       i2u277_40 153A                       i2u269_40 1430  
                     i2u293_40 0D7A                       i2u285_40 0AEA                       i2u277_41 1536  
                     i2u269_41 142C                       i2u293_41 0D76                       i2u285_41 0AE6  
                     i2u278_40 156A                       i2u294_40 0D8E                       i2u286_40 0B20  
                     i2u390_40 1868                       i2u278_41 1566                       i2u294_41 0D8A  
                     i2u286_41 0B1C                       i2u390_41 1864                       i2u279_40 1598  
                     i2u295_40 0DA8                       i2u287_40 0B30                       i2u391_40 187A  
                     i2u279_41 1594                       i2u295_41 0DA4                       i2u287_41 0B2C  
                     i2u391_41 1876                       i2u296_40 0DF0                       i2u288_40 0CAA  
                     i2u392_40 18E8                       i2u296_41 0DEC                       i2u392_41 18E4  
                     i2u288_45 0CA0                       i2u297_40 0E1E                       i2u289_40 0D04  
                     i2u393_40 1A26                       i2u297_41 0E1A                       i2u289_41 0D00  
                     i2u393_41 1A22                       i2u298_40 0E58                       i2u394_40 2CBC  
                     i2u298_41 0E54                       i2u394_41 2CB8                       i2u299_40 1C00  
                     i2u395_40 2CD6                       i2u299_41 1BFC                       i2u395_41 2CD2  
                     i2u396_40 2CF0                       i2u388_40 1842                       i2u396_41 2CEC  
                     i2u388_41 183E                       i2u397_40 2D10                       i2u389_40 1856  
                     i2u397_41 2D0C                       i2u389_41 1852                       i2u398_40 2D28  
                     i2u398_41 2D24                       i2u399_40 2D40                       i2u399_41 2D3C  
            i2___fldiv@new_exp 0039                      _vfpfcnvrt 1DA2              ___wmul@multiplier 0001  
                     i2_lcd_wr 3476                      lcd_wr@val 008A                     ?_read_keyb 0001  
                    copy_data0 2DFA                      copy_data1 2E1A                  ??_show_to_LCD 0008  
                ??_mux_display 0001                       __Hrparam 0000                     vfprintf@ap 0055  
                     __Lrparam 0000                     vfprintf@fp 0051                    _ler_teclado 20D4  
                   ?_vfpfcnvrt 003F     __end_of_disable_interrupts 3476                ___aodiv@divisor 0009  
              ___aodiv@counter 0011                     sprintf@fmt 005B                       ___xxtofl 1A36  
                     _dtoa$949 002E                ___lwdiv@divisor 0091                       _f_timers 2888  
              ___lwdiv@counter 0095                       __ptext10 3434                       __ptext11 2548  
                     __ptext20 2888                       __ptext12 2E66                       __ptext21 182A  
                     __ptext13 1A36                       __ptext30 0A4C                       __ptext22 32C6  
                     __ptext14 267A                       __ptext31 1212                       __ptext23 20D4  
                     __ptext15 0620                       __ptext40 324A                       __ptext32 316A  
                     __ptext24 2CAA                       __ptext16 0E76                       __ptext41 23E4  
                     __ptext33 31B8                       __ptext25 1F3C                       __ptext17 30B0  
                     __ptext50 3464                       __ptext42 225C                       __ptext34 1DA2  
                     __ptext26 33A0                       __ptext18 2FD2                       __ptext51 2D52  
                     __ptext43 32F8                       __ptext35 15AC                       __ptext27 2B46  
                     __ptext52 3488                       __ptext44 33C6                       __ptext36 2EE0  
                     __ptext28 1BEE                       __ptext53 3442                       __ptext45 2F5A  
                     __ptext37 3206                       __ptext29 2782                       __ptext46 33E8  
                     __ptext38 2A7C                       __ptext47 3476                       __ptext39 348C  
                     __ptext48 3328                       __ptext49 2BF8                       _conv7seg 0122  
                     _lcd_init 3048                       _display1 00ED                       _display2 00EC  
                     _display3 00EB                       _display4 00EA              mux_display@estado 00E7  
          __end_of_show_to_LCD 32F8            __end_of_mux_display 2CAA                       isa$xinst 000000  
                _temporizador1 0181                  _temporizador2 017F                       _setup_io 3354  
                     int$flags 007B          __end_of_read_keyboard 1A36                       _vfprintf 31B8  
                     lcd_str@i 0007     read_AD_10bits@leitura_high 0143               ___aomod@dividend 0001  
             _read_temperature 2E66                    ??_read_keyb 0072                       intlevel2 0000  
                    sprintf@ap 005F                i2___xxtofl@sign 0009               ___lwmod@dividend 008A  
               read_keyboard@i 000B                ___aomod@divisor 0009                    ??_vfpfcnvrt 0045  
                read_keyb@dado 0075                ___aomod@counter 0011                    _temperature 0076  
                     sprintf@f 0061                       sprintf@s 0059                ___lwmod@divisor 008C  
               _interrupt_init 340A                ___lwmod@counter 008E                    _porcentagem 00D6  
                  _show_to_LCD 32C6                   ___aodiv@sign 0012                    _mux_display 2BF8  
                 ___aomod@sign 0012  
