

Microchip MPLAB XC8 Assembler V2.40 build 20220703182018 
                                                                                               Wed Jan 04 20:06:57 2023

Microchip MPLAB XC8 C Compiler v2.40 (Free license) build 20220703182018 Og1 
     1                           	processor	18F4520
     2                           	fnconf	rparam,??,?,0
     3                           	pagewidth 120
     4                           	opt	flic
     5                           	psect	idataCOMRAM,global,class=CODE,delta=1,noexec
     6                           	psect	idataBANK0,global,class=CODE,delta=1,noexec
     7                           	psect	idataBANK1,global,class=CODE,delta=1,noexec
     8                           	psect	smallconst,global,reloc=2,class=SMALLCONST,delta=1,noexec
     9                           	psect	cinit,global,reloc=2,class=CODE,delta=1
    10                           	psect	bssCOMRAM,global,class=COMRAM,space=1,delta=1,lowdata,noexec
    11                           	psect	dataCOMRAM,global,class=COMRAM,space=1,delta=1,lowdata,noexec
    12                           	psect	bssBANK0,global,class=BANK0,space=1,delta=1,lowdata,noexec
    13                           	psect	dataBANK0,global,class=BANK0,space=1,delta=1,lowdata,noexec
    14                           	psect	bssBANK1,global,class=BANK1,space=1,delta=1,lowdata,noexec
    15                           	psect	dataBANK1,global,class=BANK1,space=1,delta=1,lowdata,noexec
    16                           	psect	cstackBANK0,global,class=BANK0,space=1,delta=1,lowdata,noexec
    17                           	psect	cstackCOMRAM,global,class=COMRAM,space=1,delta=1,lowdata,noexec
    18                           	psect	text0,global,reloc=2,class=CODE,delta=1
    19                           	psect	text1,global,reloc=2,class=CODE,delta=1
    20                           	psect	text2,global,reloc=2,class=CODE,delta=1
    21                           	psect	text3,global,reloc=2,class=CODE,delta=1
    22                           	psect	text4,global,reloc=2,class=CODE,delta=1
    23                           	psect	text5,global,reloc=2,class=CODE,delta=1
    24                           	psect	text6,global,reloc=2,class=CODE,delta=1
    25                           	psect	text7,global,reloc=2,class=CODE,delta=1
    26                           	psect	text8,global,reloc=2,class=CODE,delta=1
    27                           	psect	text9,global,reloc=2,class=CODE,delta=1
    28                           	psect	text10,global,reloc=2,class=CODE,delta=1
    29                           	psect	text11,global,reloc=2,class=CODE,delta=1
    30                           	psect	text12,global,reloc=2,class=CODE,delta=1
    31                           	psect	text13,global,reloc=2,class=CODE,delta=1,group=2
    32                           	psect	text14,global,reloc=2,class=CODE,delta=1,group=2
    33                           	psect	text15,global,reloc=2,class=CODE,delta=1
    34                           	psect	text16,global,reloc=2,class=CODE,delta=1,group=2
    35                           	psect	text17,global,reloc=2,class=CODE,delta=1,group=2
    36                           	psect	text18,global,reloc=2,class=CODE,delta=1,group=2
    37                           	psect	text19,global,reloc=2,class=CODE,delta=1,group=2
    38                           	psect	text20,global,reloc=2,class=CODE,delta=1,group=2
    39                           	psect	text21,global,reloc=2,class=CODE,delta=1,group=2
    40                           	psect	intcode,global,reloc=2,class=CODE,delta=1
    41                           	psect	intcode_body,global,reloc=2,class=CODE,delta=1
    42                           	psect	text23,global,reloc=2,class=CODE,delta=1
    43                           	psect	text24,global,reloc=2,class=CODE,delta=1
    44                           	psect	text25,global,reloc=2,class=CODE,delta=1
    45                           	psect	text26,global,reloc=2,class=CODE,delta=1,group=3
    46                           	psect	text27,global,reloc=2,class=CODE,delta=1,group=1
    47                           	psect	text28,global,reloc=2,class=CODE,delta=1,group=1
    48                           	psect	text29,global,reloc=2,class=CODE,delta=1,group=1
    49                           	psect	text30,global,reloc=2,class=CODE,delta=1,group=1
    50                           	psect	text31,global,reloc=2,class=CODE,delta=1,group=3
    51                           	psect	text32,global,reloc=2,class=CODE,delta=1,group=3
    52                           	psect	text33,global,reloc=2,class=CODE,delta=1,group=2
    53                           	psect	text34,global,reloc=2,class=CODE,delta=1,group=2
    54                           	psect	text35,global,reloc=2,class=CODE,delta=1,group=1
    55                           	psect	text36,global,reloc=2,class=CODE,delta=1,group=3
    56                           	psect	text37,global,reloc=2,class=CODE,delta=1,group=3
    57                           	psect	text38,global,reloc=2,class=CODE,delta=1,group=3
    58                           	psect	text39,global,reloc=2,class=CODE,delta=1,group=3
    59                           	psect	text40,global,reloc=2,class=CODE,delta=1,group=3
    60                           	psect	text41,global,reloc=2,class=CODE,delta=1,group=2
    61                           	psect	text42,global,reloc=2,class=CODE,delta=1
    62                           	psect	text43,global,reloc=2,class=CODE,delta=1
    63                           	psect	text44,global,reloc=2,class=CODE,delta=1
    64                           	psect	text45,global,reloc=2,class=CODE,delta=1
    65                           	psect	text46,global,reloc=2,class=CODE,delta=1
    66                           	psect	text47,global,reloc=2,class=CODE,delta=1
    67                           	psect	text48,global,reloc=2,class=CODE,delta=1
    68                           	psect	text49,global,reloc=2,class=CODE,delta=1
    69                           	psect	text50,global,reloc=2,class=CODE,delta=1
    70                           	psect	text51,global,reloc=2,class=CODE,delta=1
    71                           	psect	text52,global,reloc=2,class=CODE,delta=1
    72                           	psect	text53,global,reloc=2,class=CODE,delta=1
    73                           	psect	text54,global,reloc=2,class=CODE,delta=1
    74                           	psect	text55,global,reloc=2,class=CODE,delta=1
    75                           	psect	text56,global,reloc=2,class=CODE,delta=1
    76                           	psect	text57,global,reloc=2,class=CODE,delta=1
    77                           	psect	intsave_regs,global,class=BIGRAM,space=1,delta=1,noexec
    78                           	psect	rparam,global,class=COMRAM,space=1,delta=1,noexec
    79                           	psect	temp,global,ovrld,common,class=COMRAM,space=1,delta=1
    80                           	psect	idloc,global,abs,ovrld,class=IDLOC,space=5,delta=1,noexec
    81                           	psect	config,global,abs,ovrld,class=CONFIG,space=4,delta=1,noexec
    82   000000                     
    83                           ; Version 2.40
    84                           ; Generated 17/11/2021 GMT
    85                           ; 
    86                           ; Copyright © 2021, Microchip Technology Inc. and its subsidiaries ("Microchip")
    87                           ; All rights reserved.
    88                           ; 
    89                           ; This software is developed by Microchip Technology Inc. and its subsidiaries ("Microch
      +                          ip").
    90                           ; 
    91                           ; Redistribution and use in source and binary forms, with or without modification, are
    92                           ; permitted provided that the following conditions are met:
    93                           ; 
    94                           ;     1. Redistributions of source code must retain the above copyright notice, this lis
      +                          t of
    95                           ;        conditions and the following disclaimer.
    96                           ; 
    97                           ;     2. Redistributions in binary form must reproduce the above copyright notice, this 
      +                          list
    98                           ;        of conditions and the following disclaimer in the documentation and/or other
    99                           ;        materials provided with the distribution. Publication is not required when
   100                           ;        this file is used in an embedded application.
   101                           ; 
   102                           ;     3. Microchip's name may not be used to endorse or promote products derived from th
      +                          is
   103                           ;        software without specific prior written permission.
   104                           ; 
   105                           ; THIS SOFTWARE IS PROVIDED BY MICROCHIP "AS IS" AND ANY EXPRESS OR IMPLIED WARRANTIES,
   106                           ; INCLUDING, BUT NOT LIMITED TO, THE IMPLIED WARRANTIES OF MERCHANTABILITY AND FITNESS F
      +                          OR
   107                           ; PURPOSE ARE DISCLAIMED.  IN NO EVENT SHALL MICROCHIP BE LIABLE FOR ANY DIRECT, INDIREC
      +                          T,
   108                           ; INCIDENTAL, SPECIAL, EXEMPLARY, OR CONSEQUENTIAL DAMAGES (INCLUDING BUT NOT LIMITED TO
   109                           ; PROCUREMENT OF SUBSTITUTE GOODS OR SERVICES; LOSS OF USE, DATA OR PROFITS; OR BUSINESS
   110                           ; INTERRUPTION) HOWSOEVER CAUSED AND ON ANY THEORY OF LIABILITY, WHETHER IN CONTRACT, ST
      +                          RICT
   111                           ; LIABILITY, OR TORT (INCLUDING NEGLIGENCE OR OTHERWISE) ARISING IN ANY WAY OUT OF THE U
      +                          SE OF
   112                           ; THIS SOFTWARE, EVEN IF ADVISED OF THE POSSIBILITY OF SUCH DAMAGE.
   113                           ; 
   114                           ; 
   115                           ; Code-generator required, PIC18F4520 Definitions
   116                           ; 
   117                           ; SFR Addresses
   118   000000                     
   119                           	psect	idataCOMRAM
   120   002C72                     __pidataCOMRAM:
   121                           	callstack 0
   122                           
   123                           ;initializer for _enable_time_config
   124   002C72  01                 	db	1
   125                           
   126                           	psect	idataBANK0
   127   002C00                     __pidataBANK0:
   128                           	callstack 0
   129                           
   130                           ;initializer for f_timers@counter4
   131   002C00  0001               	dw	1
   132                           
   133                           ;initializer for f_timers@counter3
   134   002C02  0001               	dw	1
   135                           
   136                           ;initializer for f_timers@counter2
   137   002C04  0001               	dw	1
   138                           
   139                           ;initializer for f_timers@counter1
   140   002C06  0001               	dw	1
   141                           
   142                           ;initializer for _temporizacao
   143   002C08  000A               	dw	10
   144                           
   145                           ;initializer for read_keyb@m_dado_RB5
   146   002C0A  01                 	db	1
   147                           
   148                           ;initializer for read_keyb@m_dado_RB4
   149   002C0B  01                 	db	1
   150                           
   151                           ;initializer for read_keyb@m_dado_RB3
   152   002C0C  01                 	db	1
   153                           
   154                           ;initializer for read_keyb@m_dado_RB2
   155   002C0D  01                 	db	1
   156                           
   157                           ;initializer for read_keyb@m_dado_RB1
   158   002C0E  01                 	db	1
   159                           
   160                           ;initializer for read_keyb@m_dado_RB0
   161   002C0F  01                 	db	1
   162                           
   163                           ;initializer for _imprime_linha2
   164   002C10  01                 	db	1
   165                           
   166                           	psect	idataBANK1
   167   002A52                     __pidataBANK1:
   168                           	callstack 0
   169                           
   170                           ;initializer for _linha2
   171   002A52  41                 	db	65
   172   002A53  42                 	db	66
   173   002A54  43                 	db	67
   174   002A55  44                 	db	68
   175   002A56  45                 	db	69
   176   002A57  46                 	db	70
   177   002A58  47                 	db	71
   178   002A59  48                 	db	72
   179   002A5A  49                 	db	73
   180   002A5B  4A                 	db	74
   181   002A5C  00                 	db	0
   182   002A5D  00                 	db	0
   183   002A5E  00                 	db	0
   184   002A5F  00                 	db	0
   185   002A60  00                 	db	0
   186   002A61  00                 	db	0
   187   002A62  00                 	db	0
   188                           
   189                           ;initializer for _linha1
   190   002A63  41                 	db	65
   191   002A64  42                 	db	66
   192   002A65  43                 	db	67
   193   002A66  44                 	db	68
   194   002A67  45                 	db	69
   195   002A68  46                 	db	70
   196   002A69  47                 	db	71
   197   002A6A  48                 	db	72
   198   002A6B  49                 	db	73
   199   002A6C  4A                 	db	74
   200   002A6D  00                 	db	0
   201   002A6E  00                 	db	0
   202   002A6F  00                 	db	0
   203   002A70  00                 	db	0
   204   002A71  00                 	db	0
   205   002A72  00                 	db	0
   206   002A73  00                 	db	0
   207                           
   208                           ;initializer for _conv7seg
   209   002A74  3F                 	db	63
   210   002A75  06                 	db	6
   211   002A76  5B                 	db	91
   212   002A77  4F                 	db	79
   213   002A78  66                 	db	102
   214   002A79  6D                 	db	109
   215   002A7A  7D                 	db	125
   216   002A7B  07                 	db	7
   217   002A7C  7F                 	db	127
   218   002A7D  6F                 	db	111
   219   002A7E  77                 	db	119
   220   002A7F  7C                 	db	124
   221   002A80  39                 	db	57
   222   002A81  5E                 	db	94
   223   002A82  79                 	db	121
   224   002A83  71                 	db	113
   225   002A84  00                 	db	0
   226                           
   227                           ;initializer for f_timers@counter5
   228   002A85  0001               	dw	1
   229   000000                     _INTCON2	set	4081
   230   000000                     _LATC	set	3979
   231   000000                     _LATB	set	3978
   232   000000                     _LATD	set	3980
   233   000000                     _PORTEbits	set	3972
   234   000000                     _INTCON3	set	4080
   235   000000                     _INTCON	set	4082
   236   000000                     _LATA	set	3977
   237   000000                     _GIE	set	32663
   238   000000                     _TMR2IF	set	31985
   239   000000                     _PEIE	set	32662
   240   000000                     _ADIE	set	31982
   241   000000                     _INT2IE	set	32644
   242   000000                     _INT2IF	set	32641
   243   000000                     _INT1IE	set	32643
   244   000000                     _INT0IE	set	32660
   245   000000                     _INT0IF	set	32657
   246   000000                     _TMR0IE	set	32661
   247   000000                     _LATA4	set	31820
   248   000000                     _LATA3	set	31819
   249   000000                     _LATA5	set	31821
   250   000000                     _GO	set	32273
   251   000000                     _PORTB	set	3969
   252   000000                     _ADCON2	set	4032
   253   000000                     _ADCON1	set	4033
   254   000000                     _ADCON0	set	4034
   255   000000                     _RE0	set	31776
   256   000000                     _LATA2	set	31818
   257   000000                     _ADRES	set	4035
   258   000000                     _T2CON	set	4042
   259   000000                     _TRISA	set	3986
   260   000000                     _TMR2IE	set	31977
   261   000000                     _TMR0	set	4054
   262   000000                     _PR2	set	4043
   263   000000                     _IPEN	set	32391
   264   000000                     _TMR0IF	set	32658
   265   000000                     _CCP1CON	set	4029
   266   000000                     _ADIF	set	31990
   267   000000                     _CCPR1L	set	4030
   268   000000                     _TRISE	set	3990
   269   000000                     _TRISD	set	3989
   270   000000                     _TRISC	set	3988
   271   000000                     _TRISB	set	3987
   272   000000                     _INT1IF	set	32640
   273   000000                     _T0CON	set	4053
   274   000000                     _PORTD	set	3971
   275                           
   276                           	psect	smallconst
   277   000600                     __psmallconst:
   278                           	callstack 0
   279   000600  00                 	db	0
   280   000601                     STR_1:
   281   000601  47                 	db	71	;'G'
   282   000602  72                 	db	114	;'r'
   283   000603  75                 	db	117	;'u'
   284   000604  70                 	db	112	;'p'
   285   000605  6F                 	db	111	;'o'
   286   000606  20                 	db	32
   287   000607  49                 	db	73	;'I'
   288   000608  20                 	db	32
   289   000609  6D                 	db	109	;'m'
   290   00060A  6F                 	db	111	;'o'
   291   00060B  64                 	db	100	;'d'
   292   00060C  6F                 	db	111	;'o'
   293   00060D  3A                 	db	58	;':'
   294   00060E  20                 	db	32
   295   00060F  25                 	db	37
   296   000610  63                 	db	99	;'c'
   297   000611  00                 	db	0
   298   000612                     STR_2:
   299   000612  44                 	db	68	;'D'
   300   000613  43                 	db	67	;'C'
   301   000614  3A                 	db	58	;':'
   302   000615  20                 	db	32
   303   000616  25                 	db	37
   304   000617  33                 	db	51	;'3'
   305   000618  2E                 	db	46
   306   000619  33                 	db	51	;'3'
   307   00061A  64                 	db	100	;'d'
   308   00061B  25                 	db	37
   309   00061C  25                 	db	37
   310   00061D  20                 	db	32
   311   00061E  54                 	db	84	;'T'
   312   00061F  3A                 	db	58	;':'
   313   000620  25                 	db	37
   314   000621  64                 	db	100	;'d'
   315   000622  00                 	db	0
   316   000623  00                 	db	0	; dummy byte at the end
   317   000000                     
   318                           ; #config settings
   319                           
   320                           	psect	cinit
   321   00252A                     __pcinit:
   322                           	callstack 0
   323   00252A                     start_initialization:
   324                           	callstack 0
   325   00252A                     __initialization:
   326                           	callstack 0
   327                           
   328                           ; Initialize objects allocated to BANK1 (53 bytes)
   329                           ; load TBLPTR registers with __pidataBANK1
   330   00252A  0E52               	movlw	low __pidataBANK1
   331   00252C  6EF6               	movwf	tblptrl,c
   332   00252E  0E2A               	movlw	high __pidataBANK1
   333   002530  6EF7               	movwf	tblptrh,c
   334   002532  0E00               	movlw	low (__pidataBANK1 shr (0+16))
   335   002534  6EF8               	movwf	tblptru,c
   336   002536  EE01  F000         	lfsr	0,__pdataBANK1
   337   00253A  EE10 F035          	lfsr	1,53
   338   00253E                     copy_data0:
   339   00253E  0009               	tblrd		*+
   340   002540  CFF5 FFEE          	movff	tablat,postinc0
   341   002544  50E5               	movf	postdec1,w,c
   342   002546  50E1               	movf	fsr1l,w,c
   343   002548  E1FA               	bnz	copy_data0
   344                           
   345                           ; Initialize objects allocated to BANK0 (17 bytes)
   346                           ; load TBLPTR registers with __pidataBANK0
   347   00254A  0E00               	movlw	low __pidataBANK0
   348   00254C  6EF6               	movwf	tblptrl,c
   349   00254E  0E2C               	movlw	high __pidataBANK0
   350   002550  6EF7               	movwf	tblptrh,c
   351   002552  0E00               	movlw	low (__pidataBANK0 shr (0+16))
   352   002554  6EF8               	movwf	tblptru,c
   353   002556  EE00  F0EF         	lfsr	0,__pdataBANK0
   354   00255A  EE10 F011          	lfsr	1,17
   355   00255E                     copy_data1:
   356   00255E  0009               	tblrd		*+
   357   002560  CFF5 FFEE          	movff	tablat,postinc0
   358   002564  50E5               	movf	postdec1,w,c
   359   002566  50E1               	movf	fsr1l,w,c
   360   002568  E1FA               	bnz	copy_data1
   361                           
   362                           ; Initialize objects allocated to COMRAM (1 bytes)
   363                           ; load TBLPTR registers with __pidataCOMRAM
   364   00256A  0E72               	movlw	low __pidataCOMRAM
   365   00256C  6EF6               	movwf	tblptrl,c
   366   00256E  0E2C               	movlw	high __pidataCOMRAM
   367   002570  6EF7               	movwf	tblptrh,c
   368   002572  0E00               	movlw	low (__pidataCOMRAM shr (0+16))
   369   002574  6EF8               	movwf	tblptru,c
   370   002576  0009               	tblrd		*+	;fetch initializer
   371   002578  CFF5 F07E          	movff	tablat,__pdataCOMRAM
   372                           
   373                           ; Clear objects allocated to BANK1 (48 bytes)
   374   00257C  EE01  F035         	lfsr	0,__pbssBANK1
   375   002580  0E30               	movlw	48
   376   002582                     clear_0:
   377   002582  6AEE               	clrf	postinc0,c
   378   002584  06E8               	decf	wreg,f,c
   379   002586  E1FD               	bnz	clear_0
   380                           
   381                           ; Clear objects allocated to BANK0 (35 bytes)
   382   002588  EE00  F0CC         	lfsr	0,__pbssBANK0
   383   00258C  0E23               	movlw	35
   384   00258E                     clear_1:
   385   00258E  6AEE               	clrf	postinc0,c
   386   002590  06E8               	decf	wreg,f,c
   387   002592  E1FD               	bnz	clear_1
   388                           
   389                           ; Clear objects allocated to COMRAM (4 bytes)
   390   002594  6A7D               	clrf	(__pbssCOMRAM+3)& (0+255),c
   391   002596  6A7C               	clrf	(__pbssCOMRAM+2)& (0+255),c
   392   002598  6A7B               	clrf	(__pbssCOMRAM+1)& (0+255),c
   393   00259A  6A7A               	clrf	__pbssCOMRAM& (0+255),c
   394   00259C                     end_of_initialization:
   395                           	callstack 0
   396   00259C                     __end_of__initialization:
   397                           	callstack 0
   398   00259C  907F               	bcf	int$flags,0,c	;clear compiler interrupt flag (level 1)
   399   00259E  927F               	bcf	int$flags,1,c	;clear compiler interrupt flag (level 2)
   400   0025A0  0E00               	movlw	low (__Lmediumconst shr (0+16))
   401   0025A2  6EF8               	movwf	tblptru,c
   402   0025A4  0100               	movlb	0
   403   0025A6  EF09  F016         	goto	_main	;jump to C main() function
   404                           
   405                           	psect	bssCOMRAM
   406   00007A                     __pbssCOMRAM:
   407                           	callstack 0
   408   00007A                     _flags:
   409                           	callstack 0
   410   00007A                     	ds	1
   411   00007B                     _mostra_segundo:
   412                           	callstack 0
   413   00007B                     	ds	1
   414   00007C                     _mostra_centesimo_de_segundo:
   415                           	callstack 0
   416   00007C                     	ds	1
   417   00007D                     _segundo:
   418                           	callstack 0
   419   00007D                     	ds	1
   420                           
   421                           	psect	dataCOMRAM
   422   00007E                     __pdataCOMRAM:
   423                           	callstack 0
   424   00007E                     _enable_time_config:
   425                           	callstack 0
   426   00007E                     	ds	1
   427                           
   428                           	psect	bssBANK0
   429   0000CC                     __pbssBANK0:
   430                           	callstack 0
   431   0000CC                     _width:
   432                           	callstack 0
   433   0000CC                     	ds	2
   434   0000CE                     _prec:
   435                           	callstack 0
   436   0000CE                     	ds	2
   437   0000D0                     mostra_segundos_e_centesimos_de_segundos@tempo:
   438                           	callstack 0
   439   0000D0                     	ds	2
   440   0000D2                     _tempo_total:
   441                           	callstack 0
   442   0000D2                     	ds	2
   443   0000D4                     _porcentagem:
   444                           	callstack 0
   445   0000D4                     	ds	2
   446   0000D6                     _Duty_cycle:
   447                           	callstack 0
   448   0000D6                     	ds	2
   449   0000D8                     _temporizador2:
   450                           	callstack 0
   451   0000D8                     	ds	2
   452   0000DA                     _temporizador1:
   453                           	callstack 0
   454   0000DA                     	ds	2
   455   0000DC                     show_display_LCD@modo:
   456                           	callstack 0
   457   0000DC                     	ds	1
   458   0000DD                     show_display_LCD@memoria_modo:
   459                           	callstack 0
   460   0000DD                     	ds	1
   461   0000DE                     show_display_LCD@old_latd:
   462                           	callstack 0
   463   0000DE                     	ds	1
   464   0000DF                     _contagem_iniciada:
   465                           	callstack 0
   466   0000DF                     	ds	1
   467   0000E0                     _Vent_enable:
   468                           	callstack 0
   469   0000E0                     	ds	1
   470   0000E1                     _memoria_centesimo_de_segundo:
   471                           	callstack 0
   472   0000E1                     	ds	1
   473   0000E2                     _memoria_segundo:
   474                           	callstack 0
   475   0000E2                     	ds	1
   476   0000E3                     _start_counter:
   477                           	callstack 0
   478   0000E3                     	ds	1
   479   0000E4                     _centesimo_de_segundo:
   480                           	callstack 0
   481   0000E4                     	ds	1
   482   0000E5                     _aciona_read_AD:
   483                           	callstack 0
   484   0000E5                     	ds	1
   485   0000E6                     _aciona_imprime_tempratura:
   486                           	callstack 0
   487   0000E6                     	ds	1
   488   0000E7                     mux_display@estado:
   489                           	callstack 0
   490   0000E7                     	ds	1
   491   0000E8                     _estado_sequencia02:
   492                           	callstack 0
   493   0000E8                     	ds	1
   494   0000E9                     _estado_sequencia01:
   495                           	callstack 0
   496   0000E9                     	ds	1
   497   0000EA                     _display4:
   498                           	callstack 0
   499   0000EA                     	ds	1
   500   0000EB                     _display3:
   501                           	callstack 0
   502   0000EB                     	ds	1
   503   0000EC                     _display2:
   504                           	callstack 0
   505   0000EC                     	ds	1
   506   0000ED                     _display1:
   507                           	callstack 0
   508   0000ED                     	ds	1
   509   0000EE                     ADC_maq@estado:
   510                           	callstack 0
   511   0000EE                     	ds	1
   512                           
   513                           	psect	dataBANK0
   514   0000EF                     __pdataBANK0:
   515                           	callstack 0
   516   0000EF                     f_timers@counter4:
   517                           	callstack 0
   518   0000EF                     	ds	2
   519   0000F1                     f_timers@counter3:
   520                           	callstack 0
   521   0000F1                     	ds	2
   522   0000F3                     f_timers@counter2:
   523                           	callstack 0
   524   0000F3                     	ds	2
   525   0000F5                     f_timers@counter1:
   526                           	callstack 0
   527   0000F5                     	ds	2
   528   0000F7                     _temporizacao:
   529                           	callstack 0
   530   0000F7                     	ds	2
   531   0000F9                     read_keyb@m_dado_RB5:
   532                           	callstack 0
   533   0000F9                     	ds	1
   534   0000FA                     read_keyb@m_dado_RB4:
   535                           	callstack 0
   536   0000FA                     	ds	1
   537   0000FB                     read_keyb@m_dado_RB3:
   538                           	callstack 0
   539   0000FB                     	ds	1
   540   0000FC                     read_keyb@m_dado_RB2:
   541                           	callstack 0
   542   0000FC                     	ds	1
   543   0000FD                     read_keyb@m_dado_RB1:
   544                           	callstack 0
   545   0000FD                     	ds	1
   546   0000FE                     read_keyb@m_dado_RB0:
   547                           	callstack 0
   548   0000FE                     	ds	1
   549   0000FF                     _imprime_linha2:
   550                           	callstack 0
   551   0000FF                     	ds	1
   552                           
   553                           	psect	bssBANK1
   554   000135                     __pbssBANK1:
   555                           	callstack 0
   556   000135                     _AD_data:
   557                           	callstack 0
   558   000135                     	ds	6
   559   00013B                     _dbuf:
   560                           	callstack 0
   561   00013B                     	ds	32
   562   00015B                     _buffer:
   563                           	callstack 0
   564   00015B                     	ds	10
   565                           
   566                           	psect	dataBANK1
   567   000100                     __pdataBANK1:
   568                           	callstack 0
   569   000100                     _linha2:
   570                           	callstack 0
   571   000100                     	ds	17
   572   000111                     _linha1:
   573                           	callstack 0
   574   000111                     	ds	17
   575   000122                     _conv7seg:
   576                           	callstack 0
   577   000122                     	ds	17
   578   000133                     	ds	2
   579                           
   580                           	psect	cstackBANK0
   581   000080                     __pcstackBANK0:
   582                           	callstack 0
   583   000080                     ?___awdiv:
   584                           	callstack 0
   585   000080                     ?___awmod:
   586                           	callstack 0
   587   000080                     ?___lwdiv:
   588                           	callstack 0
   589   000080                     ?___lwmod:
   590                           	callstack 0
   591   000080                     ?___xxtofl:
   592                           	callstack 0
   593   000080                     lcd_wr@val:
   594                           	callstack 0
   595   000080                     ___awdiv@dividend:
   596                           	callstack 0
   597   000080                     ___awmod@dividend:
   598                           	callstack 0
   599   000080                     ___lwdiv@dividend:
   600                           	callstack 0
   601   000080                     ___lwmod@dividend:
   602                           	callstack 0
   603   000080                     ___xxtofl@val:
   604                           	callstack 0
   605                           
   606                           ; 4 bytes @ 0x0
   607   000080                     	ds	1
   608   000081                     lcd_cmd@val:
   609                           	callstack 0
   610                           
   611                           ; 1 bytes @ 0x1
   612   000081                     	ds	1
   613   000082                     ??_lcd_init:
   614   000082                     ___awdiv@divisor:
   615                           	callstack 0
   616   000082                     ___awmod@divisor:
   617                           	callstack 0
   618   000082                     ___lwdiv@divisor:
   619                           	callstack 0
   620   000082                     ___lwmod@divisor:
   621                           	callstack 0
   622                           
   623                           ; 2 bytes @ 0x2
   624   000082                     	ds	1
   625   000083                     
   626                           ; 1 bytes @ 0x3
   627   000083                     	ds	1
   628   000084                     ??___xxtofl:
   629   000084                     ___awdiv@counter:
   630                           	callstack 0
   631   000084                     ___awmod@counter:
   632                           	callstack 0
   633   000084                     ___lwmod@counter:
   634                           	callstack 0
   635   000084                     ___lwdiv@quotient:
   636                           	callstack 0
   637                           
   638                           ; 2 bytes @ 0x4
   639   000084                     	ds	1
   640   000085                     ___awdiv@sign:
   641                           	callstack 0
   642   000085                     ___awmod@sign:
   643                           	callstack 0
   644                           
   645                           ; 1 bytes @ 0x5
   646   000085                     	ds	1
   647   000086                     ___lwdiv@counter:
   648                           	callstack 0
   649   000086                     ___awdiv@quotient:
   650                           	callstack 0
   651                           
   652                           ; 2 bytes @ 0x6
   653   000086                     	ds	1
   654   000087                     
   655                           ; 1 bytes @ 0x7
   656   000087                     	ds	1
   657   000088                     ___xxtofl@sign:
   658                           	callstack 0
   659                           
   660                           ; 1 bytes @ 0x8
   661   000088                     	ds	1
   662   000089                     ___xxtofl@exp:
   663                           	callstack 0
   664                           
   665                           ; 1 bytes @ 0x9
   666   000089                     	ds	1
   667   00008A                     ___xxtofl@arg:
   668                           	callstack 0
   669                           
   670                           ; 4 bytes @ 0xA
   671   00008A                     	ds	4
   672   00008E                     ?___flmul:
   673                           	callstack 0
   674   00008E                     ___flmul@b:
   675                           	callstack 0
   676                           
   677                           ; 4 bytes @ 0xE
   678   00008E                     	ds	4
   679   000092                     ___flmul@a:
   680                           	callstack 0
   681                           
   682                           ; 4 bytes @ 0x12
   683   000092                     	ds	4
   684   000096                     ??___flmul:
   685                           
   686                           ; 1 bytes @ 0x16
   687   000096                     	ds	4
   688   00009A                     ___flmul@sign:
   689                           	callstack 0
   690                           
   691                           ; 1 bytes @ 0x1A
   692   00009A                     	ds	1
   693   00009B                     ___flmul@grs:
   694                           	callstack 0
   695                           
   696                           ; 4 bytes @ 0x1B
   697   00009B                     	ds	4
   698   00009F                     ___flmul@aexp:
   699                           	callstack 0
   700                           
   701                           ; 1 bytes @ 0x1F
   702   00009F                     	ds	1
   703   0000A0                     ___flmul@bexp:
   704                           	callstack 0
   705                           
   706                           ; 1 bytes @ 0x20
   707   0000A0                     	ds	1
   708   0000A1                     ___flmul@prod:
   709                           	callstack 0
   710                           
   711                           ; 4 bytes @ 0x21
   712   0000A1                     	ds	4
   713   0000A5                     ___flmul@temp:
   714                           	callstack 0
   715                           
   716                           ; 2 bytes @ 0x25
   717   0000A5                     	ds	2
   718   0000A7                     ?___fldiv:
   719                           	callstack 0
   720   0000A7                     ___fldiv@b:
   721                           	callstack 0
   722                           
   723                           ; 4 bytes @ 0x27
   724   0000A7                     	ds	4
   725   0000AB                     ___fldiv@a:
   726                           	callstack 0
   727                           
   728                           ; 4 bytes @ 0x2B
   729   0000AB                     	ds	4
   730   0000AF                     ??___fldiv:
   731                           
   732                           ; 1 bytes @ 0x2F
   733   0000AF                     	ds	4
   734   0000B3                     ___fldiv@rem:
   735                           	callstack 0
   736                           
   737                           ; 4 bytes @ 0x33
   738   0000B3                     	ds	4
   739   0000B7                     ___fldiv@sign:
   740                           	callstack 0
   741                           
   742                           ; 1 bytes @ 0x37
   743   0000B7                     	ds	1
   744   0000B8                     ___fldiv@new_exp:
   745                           	callstack 0
   746                           
   747                           ; 2 bytes @ 0x38
   748   0000B8                     	ds	2
   749   0000BA                     ___fldiv@grs:
   750                           	callstack 0
   751                           
   752                           ; 4 bytes @ 0x3A
   753   0000BA                     	ds	4
   754   0000BE                     ___fldiv@bexp:
   755                           	callstack 0
   756                           
   757                           ; 1 bytes @ 0x3E
   758   0000BE                     	ds	1
   759   0000BF                     ___fldiv@aexp:
   760                           	callstack 0
   761                           
   762                           ; 1 bytes @ 0x3F
   763   0000BF                     	ds	1
   764   0000C0                     ?___fltol:
   765                           	callstack 0
   766   0000C0                     ___fltol@f1:
   767                           	callstack 0
   768                           
   769                           ; 4 bytes @ 0x40
   770   0000C0                     	ds	4
   771   0000C4                     ??___fltol:
   772                           
   773                           ; 1 bytes @ 0x44
   774   0000C4                     	ds	4
   775   0000C8                     ___fltol@sign1:
   776                           	callstack 0
   777                           
   778                           ; 1 bytes @ 0x48
   779   0000C8                     	ds	1
   780   0000C9                     ___fltol@exp1:
   781                           	callstack 0
   782                           
   783                           ; 1 bytes @ 0x49
   784   0000C9                     	ds	1
   785   0000CA                     ??_loop:
   786                           
   787                           ; 1 bytes @ 0x4A
   788   0000CA                     	ds	2
   789   0000CC                     
   790                           ; 1 bytes @ 0x4C
   791                           
   792                           	psect	cstackCOMRAM
   793   000001                     __pcstackCOMRAM:
   794                           	callstack 0
   795   000001                     ??_mux_display:
   796   000001                     ?_isdigit:
   797                           	callstack 0
   798   000001                     ?_isspace:
   799                           	callstack 0
   800   000001                     ?___wmul:
   801                           	callstack 0
   802   000001                     ?___aodiv:
   803                           	callstack 0
   804   000001                     ?___aomod:
   805                           	callstack 0
   806   000001                     select_channel@channel:
   807                           	callstack 0
   808   000001                     i2lcd_wr@val:
   809                           	callstack 0
   810   000001                     f_pwm@duty:
   811                           	callstack 0
   812   000001                     ___wmul@multiplier:
   813                           	callstack 0
   814   000001                     isdigit@c:
   815                           	callstack 0
   816   000001                     isspace@c:
   817                           	callstack 0
   818   000001                     fputc@c:
   819                           	callstack 0
   820   000001                     ___aodiv@dividend:
   821                           	callstack 0
   822   000001                     ___aomod@dividend:
   823                           	callstack 0
   824                           
   825                           ; 8 bytes @ 0x0
   826   000001                     	ds	1
   827   000002                     ??_ADC_maq:
   828   000002                     lcd_dat@val:
   829                           	callstack 0
   830   000002                     i2lcd_cmd@val:
   831                           	callstack 0
   832                           
   833                           ; 1 bytes @ 0x1
   834   000002                     	ds	1
   835   000003                     ??_f_pwm:
   836   000003                     ??_isdigit:
   837   000003                     ??_isspace:
   838   000003                     lcd_str@str:
   839                           	callstack 0
   840   000003                     ___wmul@multiplicand:
   841                           	callstack 0
   842   000003                     fputc@fp:
   843                           	callstack 0
   844                           
   845                           ; 2 bytes @ 0x2
   846   000003                     	ds	2
   847   000005                     ??_fputc:
   848   000005                     read_keyb@dado_RB0:
   849                           	callstack 0
   850   000005                     lcd_str@i:
   851                           	callstack 0
   852   000005                     _isspace$1029:
   853                           	callstack 0
   854   000005                     ___wmul@product:
   855                           	callstack 0
   856                           
   857                           ; 2 bytes @ 0x4
   858   000005                     	ds	1
   859   000006                     read_keyb@dado_RB1:
   860                           	callstack 0
   861                           
   862                           ; 1 bytes @ 0x5
   863   000006                     	ds	1
   864   000007                     ?_atoi:
   865                           	callstack 0
   866   000007                     read_keyb@dado_RB2:
   867                           	callstack 0
   868   000007                     atoi@s:
   869                           	callstack 0
   870                           
   871                           ; 2 bytes @ 0x6
   872   000007                     	ds	1
   873   000008                     read_keyb@dado_RB3:
   874                           	callstack 0
   875                           
   876                           ; 1 bytes @ 0x7
   877   000008                     	ds	1
   878   000009                     ??_atoi:
   879   000009                     read_keyb@dado_RB4:
   880                           	callstack 0
   881   000009                     ___aodiv@divisor:
   882                           	callstack 0
   883   000009                     ___aomod@divisor:
   884                           	callstack 0
   885                           
   886                           ; 8 bytes @ 0x8
   887   000009                     	ds	1
   888   00000A                     read_keyb@dado_RB5:
   889                           	callstack 0
   890   00000A                     ctoa@fp:
   891                           	callstack 0
   892   00000A                     fputs@s:
   893                           	callstack 0
   894                           
   895                           ; 2 bytes @ 0x9
   896   00000A                     	ds	1
   897   00000B                     read_keyb@dado:
   898                           	callstack 0
   899                           
   900                           ; 1 bytes @ 0xA
   901   00000B                     	ds	1
   902   00000C                     ctoa@c:
   903                           	callstack 0
   904   00000C                     atoi@neg:
   905                           	callstack 0
   906   00000C                     fputs@fp:
   907                           	callstack 0
   908                           
   909                           ; 2 bytes @ 0xB
   910   00000C                     	ds	1
   911   00000D                     ??_ctoa:
   912                           
   913                           ; 1 bytes @ 0xC
   914   00000D                     	ds	1
   915   00000E                     fputs@c:
   916                           	callstack 0
   917   00000E                     ctoa@l:
   918                           	callstack 0
   919   00000E                     atoi@n:
   920                           	callstack 0
   921                           
   922                           ; 2 bytes @ 0xD
   923   00000E                     	ds	1
   924   00000F                     fputs@i:
   925                           	callstack 0
   926                           
   927                           ; 2 bytes @ 0xE
   928   00000F                     	ds	1
   929   000010                     ctoa@w:
   930                           	callstack 0
   931                           
   932                           ; 2 bytes @ 0xF
   933   000010                     	ds	1
   934   000011                     ___aodiv@counter:
   935                           	callstack 0
   936   000011                     ___aomod@counter:
   937                           	callstack 0
   938   000011                     pad@fp:
   939                           	callstack 0
   940                           
   941                           ; 2 bytes @ 0x10
   942   000011                     	ds	1
   943   000012                     ___aodiv@sign:
   944                           	callstack 0
   945   000012                     ___aomod@sign:
   946                           	callstack 0
   947                           
   948                           ; 1 bytes @ 0x11
   949   000012                     	ds	1
   950   000013                     ?_abs:
   951                           	callstack 0
   952   000013                     pad@buf:
   953                           	callstack 0
   954   000013                     abs@a:
   955                           	callstack 0
   956   000013                     ___aodiv@quotient:
   957                           	callstack 0
   958                           
   959                           ; 8 bytes @ 0x12
   960   000013                     	ds	2
   961   000015                     ??_abs:
   962   000015                     pad@p:
   963                           	callstack 0
   964                           
   965                           ; 2 bytes @ 0x14
   966   000015                     	ds	2
   967   000017                     ??_pad:
   968                           
   969                           ; 1 bytes @ 0x16
   970   000017                     	ds	1
   971   000018                     pad@i:
   972                           	callstack 0
   973                           
   974                           ; 2 bytes @ 0x17
   975   000018                     	ds	2
   976   00001A                     pad@w:
   977                           	callstack 0
   978                           
   979                           ; 2 bytes @ 0x19
   980   00001A                     	ds	2
   981   00001C                     dtoa@fp:
   982                           	callstack 0
   983                           
   984                           ; 2 bytes @ 0x1B
   985   00001C                     	ds	2
   986   00001E                     dtoa@d:
   987                           	callstack 0
   988                           
   989                           ; 8 bytes @ 0x1D
   990   00001E                     	ds	8
   991   000026                     ??_dtoa:
   992                           
   993                           ; 1 bytes @ 0x25
   994   000026                     	ds	8
   995   00002E                     _dtoa$979:
   996                           	callstack 0
   997                           
   998                           ; 2 bytes @ 0x2D
   999   00002E                     	ds	2
  1000   000030                     dtoa@p:
  1001                           	callstack 0
  1002                           
  1003                           ; 2 bytes @ 0x2F
  1004   000030                     	ds	2
  1005   000032                     dtoa@w:
  1006                           	callstack 0
  1007                           
  1008                           ; 2 bytes @ 0x31
  1009   000032                     	ds	2
  1010   000034                     dtoa@n:
  1011                           	callstack 0
  1012                           
  1013                           ; 8 bytes @ 0x33
  1014   000034                     	ds	8
  1015   00003C                     dtoa@i:
  1016                           	callstack 0
  1017                           
  1018                           ; 2 bytes @ 0x3B
  1019   00003C                     	ds	2
  1020   00003E                     dtoa@s:
  1021                           	callstack 0
  1022                           
  1023                           ; 1 bytes @ 0x3D
  1024   00003E                     	ds	1
  1025   00003F                     vfpfcnvrt@fp:
  1026                           	callstack 0
  1027                           
  1028                           ; 2 bytes @ 0x3E
  1029   00003F                     	ds	2
  1030   000041                     vfpfcnvrt@fmt:
  1031                           	callstack 0
  1032                           
  1033                           ; 2 bytes @ 0x40
  1034   000041                     	ds	2
  1035   000043                     vfpfcnvrt@ap:
  1036                           	callstack 0
  1037                           
  1038                           ; 2 bytes @ 0x42
  1039   000043                     	ds	2
  1040   000045                     ??_vfpfcnvrt:
  1041                           
  1042                           ; 1 bytes @ 0x44
  1043   000045                     	ds	3
  1044   000048                     vfpfcnvrt@convarg:
  1045                           	callstack 0
  1046                           
  1047                           ; 8 bytes @ 0x47
  1048   000048                     	ds	8
  1049   000050                     vfpfcnvrt@c:
  1050                           	callstack 0
  1051                           
  1052                           ; 1 bytes @ 0x4F
  1053   000050                     	ds	1
  1054   000051                     vfpfcnvrt@cp:
  1055                           	callstack 0
  1056                           
  1057                           ; 2 bytes @ 0x50
  1058   000051                     	ds	2
  1059   000053                     ?_vfprintf:
  1060                           	callstack 0
  1061   000053                     vfprintf@fp:
  1062                           	callstack 0
  1063                           
  1064                           ; 2 bytes @ 0x52
  1065   000053                     	ds	2
  1066   000055                     vfprintf@fmt:
  1067                           	callstack 0
  1068                           
  1069                           ; 2 bytes @ 0x54
  1070   000055                     	ds	2
  1071   000057                     vfprintf@ap:
  1072                           	callstack 0
  1073                           
  1074                           ; 2 bytes @ 0x56
  1075   000057                     	ds	2
  1076   000059                     vfprintf@cfmt:
  1077                           	callstack 0
  1078                           
  1079                           ; 2 bytes @ 0x58
  1080   000059                     	ds	2
  1081   00005B                     ?_sprintf:
  1082                           	callstack 0
  1083   00005B                     sprintf@s:
  1084                           	callstack 0
  1085                           
  1086                           ; 2 bytes @ 0x5A
  1087   00005B                     	ds	2
  1088   00005D                     sprintf@fmt:
  1089                           	callstack 0
  1090                           
  1091                           ; 2 bytes @ 0x5C
  1092   00005D                     	ds	6
  1093   000063                     sprintf@ap:
  1094                           	callstack 0
  1095                           
  1096                           ; 2 bytes @ 0x62
  1097   000063                     	ds	2
  1098   000065                     sprintf@f:
  1099                           	callstack 0
  1100                           
  1101                           ; 11 bytes @ 0x64
  1102   000065                     	ds	11
  1103   000070                     ??_f_interrupt_high:
  1104                           
  1105                           ; 1 bytes @ 0x6F
  1106   000070                     	ds	10
  1107                           
  1108 ;;
  1109 ;;Main: autosize = 0, tempsize = 0, incstack = 0, save=0
  1110 ;;
  1111 ;; *************** function _main *****************
  1112 ;; Defined at:
  1113 ;;		line 30 in file "p2gI.c"
  1114 ;; Parameters:    Size  Location     Type
  1115 ;;		None
  1116 ;; Auto vars:     Size  Location     Type
  1117 ;;		None
  1118 ;; Return value:  Size  Location     Type
  1119 ;;                  2  480[None  ] int 
  1120 ;; Registers used:
  1121 ;;		wreg, status,2, status,0, prodl, prodh, cstack
  1122 ;; Tracked objects:
  1123 ;;		On entry : 0/0
  1124 ;;		On exit  : 0/0
  1125 ;;		Unchanged: 0/0
  1126 ;; Data sizes:     COMRAM   BANK0   BANK1   BANK2   BANK3   BANK4   BANK5
  1127 ;;      Params:         0       0       0       0       0       0       0
  1128 ;;      Locals:         0       0       0       0       0       0       0
  1129 ;;      Temps:          0       0       0       0       0       0       0
  1130 ;;      Totals:         0       0       0       0       0       0       0
  1131 ;;Total ram usage:        0 bytes
  1132 ;; Hardware stack levels required when called: 15
  1133 ;; This function calls:
  1134 ;;		_loop
  1135 ;;		_setup
  1136 ;; This function is called by:
  1137 ;;		Startup code after reset
  1138 ;; This function uses a non-reentrant model
  1139 ;;
  1140                           
  1141                           	psect	text0
  1142   002C12                     __ptext0:
  1143                           	callstack 0
  1144   002C12                     _main:
  1145                           	callstack 16
  1146   002C12                     
  1147                           ;p2gI.c: 32:    setup();
  1148   002C12  EC89  F014         	call	_setup	;wreg free
  1149   002C16                     l4079:
  1150   002C16  ECEB  F011         	call	_loop	;wreg free
  1151   002C1A  EF0B  F016         	goto	l4079
  1152   002C1E  EF07  F000         	goto	start
  1153   002C22                     __end_of_main:
  1154                           	callstack 0
  1155                           
  1156 ;; *************** function _setup *****************
  1157 ;; Defined at:
  1158 ;;		line 14 in file "IO.c"
  1159 ;; Parameters:    Size  Location     Type
  1160 ;;		None
  1161 ;; Auto vars:     Size  Location     Type
  1162 ;;		None
  1163 ;; Return value:  Size  Location     Type
  1164 ;;                  1    wreg      void 
  1165 ;; Registers used:
  1166 ;;		wreg, status,2, cstack
  1167 ;; Tracked objects:
  1168 ;;		On entry : 0/0
  1169 ;;		On exit  : 0/0
  1170 ;;		Unchanged: 0/0
  1171 ;; Data sizes:     COMRAM   BANK0   BANK1   BANK2   BANK3   BANK4   BANK5
  1172 ;;      Params:         0       0       0       0       0       0       0
  1173 ;;      Locals:         0       0       0       0       0       0       0
  1174 ;;      Temps:          0       0       0       0       0       0       0
  1175 ;;      Totals:         0       0       0       0       0       0       0
  1176 ;;Total ram usage:        0 bytes
  1177 ;; Hardware stack levels used: 1
  1178 ;; Hardware stack levels required when called: 14
  1179 ;; This function calls:
  1180 ;;		_AD_init
  1181 ;;		_disable_interrupts
  1182 ;;		_enable_interrupts
  1183 ;;		_interrupt_init
  1184 ;;		_lcd_init
  1185 ;;		_setup_io
  1186 ;;		_start_AD_conversion
  1187 ;; This function is called by:
  1188 ;;		_main
  1189 ;; This function uses a non-reentrant model
  1190 ;;
  1191                           
  1192                           	psect	text1
  1193   002912                     __ptext1:
  1194                           	callstack 0
  1195   002912                     _setup:
  1196                           	callstack 16
  1197   002912                     
  1198                           ;IO.c: 16:     disable_interrupts();
  1199   002912  EC29  F016         	call	_disable_interrupts	;wreg free
  1200   002916                     
  1201                           ;IO.c: 17:     setup_io();
  1202   002916  EC8A  F015         	call	_setup_io	;wreg free
  1203   00291A                     
  1204                           ;IO.c: 18:     interrupt_init();
  1205   00291A  ECF3  F015         	call	_interrupt_init	;wreg free
  1206   00291E                     
  1207                           ;IO.c: 19:     T2CON = 0b00000100;
  1208   00291E  0E04               	movlw	4
  1209   002920  6ECA               	movwf	202,c	;volatile
  1210   002922                     
  1211                           ;IO.c: 20:     TMR2IE = 1;
  1212   002922  829D               	bsf	3997,1,c	;volatile
  1213   002924                     
  1214                           ;IO.c: 24:     PR2 = 255;
  1215   002924  68CB               	setf	203,c	;volatile
  1216   002926                     
  1217                           ;IO.c: 25:     CCP1CON = 0b00001100;
  1218   002926  0E0C               	movlw	12
  1219   002928  6EBD               	movwf	189,c	;volatile
  1220   00292A                     
  1221                           ;IO.c: 26:     AD_init();
  1222   00292A  EC11  F016         	call	_AD_init	;wreg free
  1223   00292E                     
  1224                           ;IO.c: 27:     LATA2 = 1, LATA3 = 1, LATA4 = 1, LATA5 = 1;
  1225   00292E  8489               	bsf	3977,2,c	;volatile
  1226   002930  8689               	bsf	3977,3,c	;volatile
  1227   002932  8889               	bsf	3977,4,c	;volatile
  1228   002934  8A89               	bsf	3977,5,c	;volatile
  1229   002936                     
  1230                           ;IO.c: 28:     lcd_init();
  1231   002936  EC7E  F013         	call	_lcd_init	;wreg free
  1232   00293A                     
  1233                           ;IO.c: 29:     display1 = 0;
  1234   00293A  0E00               	movlw	0
  1235   00293C  0100               	movlb	0	; () banked
  1236   00293E  6FED               	movwf	_display1& (0+255),b
  1237   002940                     
  1238                           ; BSR set to: 0
  1239                           ;IO.c: 30:     display2 = 0;
  1240   002940  0E00               	movlw	0
  1241   002942  6FEC               	movwf	_display2& (0+255),b
  1242   002944                     
  1243                           ; BSR set to: 0
  1244                           ;IO.c: 31:     display3 = 0;
  1245   002944  0E00               	movlw	0
  1246   002946  6FEB               	movwf	_display3& (0+255),b
  1247   002948                     
  1248                           ; BSR set to: 0
  1249                           ;IO.c: 32:     display4 = 0;
  1250   002948  0E00               	movlw	0
  1251   00294A  6FEA               	movwf	_display4& (0+255),b
  1252                           
  1253                           ;IO.c: 33:     enable_interrupts();
  1254   00294C  EC24  F016         	call	_enable_interrupts	;wreg free
  1255                           
  1256                           ;IO.c: 34:     start_AD_conversion();
  1257   002950  EC31  F016         	call	_start_AD_conversion	;wreg free
  1258   002954  0012               	return		;funcret
  1259   002956                     __end_of_setup:
  1260                           	callstack 0
  1261                           
  1262 ;; *************** function _start_AD_conversion *****************
  1263 ;; Defined at:
  1264 ;;		line 19 in file "ADC.c"
  1265 ;; Parameters:    Size  Location     Type
  1266 ;;		None
  1267 ;; Auto vars:     Size  Location     Type
  1268 ;;		None
  1269 ;; Return value:  Size  Location     Type
  1270 ;;                  1    wreg      void 
  1271 ;; Registers used:
  1272 ;;		None
  1273 ;; Tracked objects:
  1274 ;;		On entry : 0/0
  1275 ;;		On exit  : 0/0
  1276 ;;		Unchanged: 0/0
  1277 ;; Data sizes:     COMRAM   BANK0   BANK1   BANK2   BANK3   BANK4   BANK5
  1278 ;;      Params:         0       0       0       0       0       0       0
  1279 ;;      Locals:         0       0       0       0       0       0       0
  1280 ;;      Temps:          0       0       0       0       0       0       0
  1281 ;;      Totals:         0       0       0       0       0       0       0
  1282 ;;Total ram usage:        0 bytes
  1283 ;; Hardware stack levels used: 1
  1284 ;; Hardware stack levels required when called: 11
  1285 ;; This function calls:
  1286 ;;		Nothing
  1287 ;; This function is called by:
  1288 ;;		_setup
  1289 ;; This function uses a non-reentrant model
  1290 ;;
  1291                           
  1292                           	psect	text2
  1293   002C62                     __ptext2:
  1294                           	callstack 0
  1295   002C62                     _start_AD_conversion:
  1296                           	callstack 18
  1297   002C62                     
  1298                           ;ADC.c: 21:     GO = 1;
  1299   002C62  82C2               	bsf	4034,1,c	;volatile
  1300   002C64  0012               	return		;funcret
  1301   002C66                     __end_of_start_AD_conversion:
  1302                           	callstack 0
  1303                           
  1304 ;; *************** function _setup_io *****************
  1305 ;; Defined at:
  1306 ;;		line 38 in file "IO.c"
  1307 ;; Parameters:    Size  Location     Type
  1308 ;;		None
  1309 ;; Auto vars:     Size  Location     Type
  1310 ;;		None
  1311 ;; Return value:  Size  Location     Type
  1312 ;;                  1    wreg      void 
  1313 ;; Registers used:
  1314 ;;		wreg, status,2
  1315 ;; Tracked objects:
  1316 ;;		On entry : 0/0
  1317 ;;		On exit  : 0/0
  1318 ;;		Unchanged: 0/0
  1319 ;; Data sizes:     COMRAM   BANK0   BANK1   BANK2   BANK3   BANK4   BANK5
  1320 ;;      Params:         0       0       0       0       0       0       0
  1321 ;;      Locals:         0       0       0       0       0       0       0
  1322 ;;      Temps:          0       0       0       0       0       0       0
  1323 ;;      Totals:         0       0       0       0       0       0       0
  1324 ;;Total ram usage:        0 bytes
  1325 ;; Hardware stack levels used: 1
  1326 ;; Hardware stack levels required when called: 11
  1327 ;; This function calls:
  1328 ;;		Nothing
  1329 ;; This function is called by:
  1330 ;;		_setup
  1331 ;; This function uses a non-reentrant model
  1332 ;;
  1333                           
  1334                           	psect	text3
  1335   002B14                     __ptext3:
  1336                           	callstack 0
  1337   002B14                     _setup_io:
  1338                           	callstack 18
  1339   002B14                     
  1340                           ;IO.c: 40:     TRISA = 0b11000011;
  1341   002B14  0EC3               	movlw	195
  1342   002B16  6E92               	movwf	146,c	;volatile
  1343                           
  1344                           ;IO.c: 41:     TRISB = 0b00111111;
  1345   002B18  0E3F               	movlw	63
  1346   002B1A  6E93               	movwf	147,c	;volatile
  1347                           
  1348                           ;IO.c: 42:     TRISC = 0b11011011;
  1349   002B1C  0EDB               	movlw	219
  1350   002B1E  6E94               	movwf	148,c	;volatile
  1351                           
  1352                           ;IO.c: 43:     TRISD = 0b00000000;
  1353   002B20  0E00               	movlw	0
  1354   002B22  6E95               	movwf	149,c	;volatile
  1355                           
  1356                           ;IO.c: 44:     TRISE = 0b11111000;
  1357   002B24  0EF8               	movlw	248
  1358   002B26  6E96               	movwf	150,c	;volatile
  1359                           
  1360                           ;IO.c: 45:     LATA = 0b00000000;
  1361   002B28  0E00               	movlw	0
  1362   002B2A  6E89               	movwf	137,c	;volatile
  1363                           
  1364                           ;IO.c: 46:     LATB = 0b00000000;
  1365   002B2C  0E00               	movlw	0
  1366   002B2E  6E8A               	movwf	138,c	;volatile
  1367                           
  1368                           ;IO.c: 47:     LATC = 0b00000000;
  1369   002B30  0E00               	movlw	0
  1370   002B32  6E8B               	movwf	139,c	;volatile
  1371                           
  1372                           ;IO.c: 48:     LATD = 0b00000000;
  1373   002B34  0E00               	movlw	0
  1374   002B36  6E8C               	movwf	140,c	;volatile
  1375   002B38  0012               	return		;funcret
  1376   002B3A                     __end_of_setup_io:
  1377                           	callstack 0
  1378                           
  1379 ;; *************** function _lcd_init *****************
  1380 ;; Defined at:
  1381 ;;		line 56 in file "lcd.c"
  1382 ;; Parameters:    Size  Location     Type
  1383 ;;		None
  1384 ;; Auto vars:     Size  Location     Type
  1385 ;;		None
  1386 ;; Return value:  Size  Location     Type
  1387 ;;                  1    wreg      void 
  1388 ;; Registers used:
  1389 ;;		wreg, status,2, cstack
  1390 ;; Tracked objects:
  1391 ;;		On entry : 0/0
  1392 ;;		On exit  : 0/0
  1393 ;;		Unchanged: 0/0
  1394 ;; Data sizes:     COMRAM   BANK0   BANK1   BANK2   BANK3   BANK4   BANK5
  1395 ;;      Params:         0       0       0       0       0       0       0
  1396 ;;      Locals:         0       0       0       0       0       0       0
  1397 ;;      Temps:          0       1       0       0       0       0       0
  1398 ;;      Totals:         0       1       0       0       0       0       0
  1399 ;;Total ram usage:        1 bytes
  1400 ;; Hardware stack levels used: 1
  1401 ;; Hardware stack levels required when called: 13
  1402 ;; This function calls:
  1403 ;;		_lcd_cmd
  1404 ;; This function is called by:
  1405 ;;		_setup
  1406 ;; This function uses a non-reentrant model
  1407 ;;
  1408                           
  1409                           	psect	text4
  1410   0026FC                     __ptext4:
  1411                           	callstack 0
  1412   0026FC                     _lcd_init:
  1413                           	callstack 16
  1414   0026FC                     
  1415                           ;lcd.c: 58:  PORTEbits.RE1=0;
  1416   0026FC  9284               	bcf	132,1,c	;volatile
  1417                           
  1418                           ;lcd.c: 59:  PORTEbits.RE2=0;
  1419   0026FE  9484               	bcf	132,2,c	;volatile
  1420   002700                     
  1421                           ;lcd.c: 60:     _delay((unsigned long)((20)*(4000000/4000.0)));
  1422   002700  0E1A               	movlw	26
  1423   002702  0100               	movlb	0	; () banked
  1424   002704  6F82               	movwf	??_lcd_init& (0+255),b
  1425   002706  0EF8               	movlw	248
  1426   002708                     u3747:
  1427   002708  2EE8               	decfsz	wreg,f,c
  1428   00270A  D7FE               	bra	u3747
  1429   00270C  2F82               	decfsz	??_lcd_init& (0+255),f,b
  1430   00270E  D7FC               	bra	u3747
  1431   002710  F000               	nop	
  1432   002712                     
  1433                           ;lcd.c: 61:  PORTEbits.RE1=1;
  1434   002712  8284               	bsf	132,1,c	;volatile
  1435   002714                     
  1436                           ;lcd.c: 63:  lcd_cmd(0x38);
  1437   002714  0E38               	movlw	56
  1438   002716  EC9D  F015         	call	_lcd_cmd
  1439   00271A                     
  1440                           ;lcd.c: 64:  _delay((unsigned long)((5)*(4000000/4000.0)));
  1441   00271A  0E07               	movlw	7
  1442   00271C  0100               	movlb	0	; () banked
  1443   00271E  6F82               	movwf	??_lcd_init& (0+255),b
  1444   002720  0E7D               	movlw	125
  1445   002722                     u3757:
  1446   002722  2EE8               	decfsz	wreg,f,c
  1447   002724  D7FE               	bra	u3757
  1448   002726  2F82               	decfsz	??_lcd_init& (0+255),f,b
  1449   002728  D7FC               	bra	u3757
  1450                           
  1451                           ;lcd.c: 65:  lcd_cmd(0x38);
  1452   00272A  0E38               	movlw	56
  1453   00272C  EC9D  F015         	call	_lcd_cmd
  1454   002730                     
  1455                           ;lcd.c: 66:     _delay((unsigned long)((1)*(4000000/4000.0)));
  1456   002730  0EC8               	movlw	200
  1457   002732                     u3767:
  1458   002732  D000               	nop2	
  1459   002734  2EE8               	decfsz	wreg,f,c
  1460   002736  D7FD               	bra	u3767
  1461   002738                     
  1462                           ;lcd.c: 67:  lcd_cmd(0x38);
  1463   002738  0E38               	movlw	56
  1464   00273A  EC9D  F015         	call	_lcd_cmd
  1465   00273E                     
  1466                           ;lcd.c: 68:  lcd_cmd(0x08);
  1467   00273E  0E08               	movlw	8
  1468   002740  EC9D  F015         	call	_lcd_cmd
  1469   002744                     
  1470                           ;lcd.c: 69:  lcd_cmd(0x0F);
  1471   002744  0E0F               	movlw	15
  1472   002746  EC9D  F015         	call	_lcd_cmd
  1473   00274A                     
  1474                           ;lcd.c: 70:  lcd_cmd(0x01);
  1475   00274A  0E01               	movlw	1
  1476   00274C  EC9D  F015         	call	_lcd_cmd
  1477   002750                     
  1478                           ;lcd.c: 71:  lcd_cmd(0x38);
  1479   002750  0E38               	movlw	56
  1480   002752  EC9D  F015         	call	_lcd_cmd
  1481   002756                     
  1482                           ;lcd.c: 72:     lcd_cmd(0x80);
  1483   002756  0E80               	movlw	128
  1484   002758  EC9D  F015         	call	_lcd_cmd
  1485   00275C                     
  1486                           ;lcd.c: 73:     lcd_cmd(0x0C);
  1487   00275C  0E0C               	movlw	12
  1488   00275E  EC9D  F015         	call	_lcd_cmd
  1489   002762  0012               	return		;funcret
  1490   002764                     __end_of_lcd_init:
  1491                           	callstack 0
  1492                           
  1493 ;; *************** function _lcd_cmd *****************
  1494 ;; Defined at:
  1495 ;;		line 34 in file "lcd.c"
  1496 ;; Parameters:    Size  Location     Type
  1497 ;;  val             1    wreg     unsigned char 
  1498 ;; Auto vars:     Size  Location     Type
  1499 ;;  val             1    1[BANK0 ] unsigned char 
  1500 ;; Return value:  Size  Location     Type
  1501 ;;                  1    wreg      void 
  1502 ;; Registers used:
  1503 ;;		wreg, status,2, cstack
  1504 ;; Tracked objects:
  1505 ;;		On entry : 0/0
  1506 ;;		On exit  : 0/0
  1507 ;;		Unchanged: 0/0
  1508 ;; Data sizes:     COMRAM   BANK0   BANK1   BANK2   BANK3   BANK4   BANK5
  1509 ;;      Params:         0       0       0       0       0       0       0
  1510 ;;      Locals:         0       1       0       0       0       0       0
  1511 ;;      Temps:          0       0       0       0       0       0       0
  1512 ;;      Totals:         0       1       0       0       0       0       0
  1513 ;;Total ram usage:        1 bytes
  1514 ;; Hardware stack levels used: 1
  1515 ;; Hardware stack levels required when called: 12
  1516 ;; This function calls:
  1517 ;;		_lcd_wr
  1518 ;; This function is called by:
  1519 ;;		_lcd_init
  1520 ;; This function uses a non-reentrant model
  1521 ;;
  1522                           
  1523                           	psect	text5
  1524   002B3A                     __ptext5:
  1525                           	callstack 0
  1526   002B3A                     _lcd_cmd:
  1527                           	callstack 16
  1528                           
  1529                           ;incstack = 0
  1530                           ;lcd_cmd@val stored from wreg
  1531   002B3A  0100               	movlb	0	; () banked
  1532   002B3C  6F81               	movwf	lcd_cmd@val& (0+255),b
  1533   002B3E                     
  1534                           ;lcd.c: 34: void lcd_cmd(unsigned char val);lcd.c: 35: {;lcd.c: 36:  PORTEbits.RE1=1;
  1535   002B3E  8284               	bsf	132,1,c	;volatile
  1536   002B40                     
  1537                           ;lcd.c: 37:     lcd_wr(val);
  1538   002B40  0100               	movlb	0	; () banked
  1539   002B42  5181               	movf	lcd_cmd@val& (0+255),w,b
  1540   002B44  EC1F  F016         	call	_lcd_wr
  1541   002B48                     
  1542                           ;lcd.c: 38:     PORTEbits.RE2=0;
  1543   002B48  9484               	bcf	132,2,c	;volatile
  1544   002B4A                     
  1545                           ;lcd.c: 39:     _delay((unsigned long)((40)*(4000000/4000000.0)));
  1546   002B4A  0E0D               	movlw	13
  1547   002B4C                     u3777:
  1548   002B4C  2EE8               	decfsz	wreg,f,c
  1549   002B4E  D7FE               	bra	u3777
  1550   002B50  F000               	nop	
  1551   002B52                     
  1552                           ;lcd.c: 40:     PORTEbits.RE1=0;
  1553   002B52  9284               	bcf	132,1,c	;volatile
  1554   002B54                     
  1555                           ;lcd.c: 41:     _delay((unsigned long)((40)*(4000000/4000000.0)));
  1556   002B54  0E0D               	movlw	13
  1557   002B56                     u3787:
  1558   002B56  2EE8               	decfsz	wreg,f,c
  1559   002B58  D7FE               	bra	u3787
  1560   002B5A  F000               	nop	
  1561   002B5C                     
  1562                           ;lcd.c: 42:  PORTEbits.RE1=1;
  1563   002B5C  8284               	bsf	132,1,c	;volatile
  1564   002B5E  0012               	return		;funcret
  1565   002B60                     __end_of_lcd_cmd:
  1566                           	callstack 0
  1567                           
  1568 ;; *************** function _lcd_wr *****************
  1569 ;; Defined at:
  1570 ;;		line 29 in file "lcd.c"
  1571 ;; Parameters:    Size  Location     Type
  1572 ;;  val             1    wreg     unsigned char 
  1573 ;; Auto vars:     Size  Location     Type
  1574 ;;  val             1    0[BANK0 ] unsigned char 
  1575 ;; Return value:  Size  Location     Type
  1576 ;;                  1    wreg      void 
  1577 ;; Registers used:
  1578 ;;		wreg
  1579 ;; Tracked objects:
  1580 ;;		On entry : 0/0
  1581 ;;		On exit  : 0/0
  1582 ;;		Unchanged: 0/0
  1583 ;; Data sizes:     COMRAM   BANK0   BANK1   BANK2   BANK3   BANK4   BANK5
  1584 ;;      Params:         0       0       0       0       0       0       0
  1585 ;;      Locals:         0       1       0       0       0       0       0
  1586 ;;      Temps:          0       0       0       0       0       0       0
  1587 ;;      Totals:         0       1       0       0       0       0       0
  1588 ;;Total ram usage:        1 bytes
  1589 ;; Hardware stack levels used: 1
  1590 ;; Hardware stack levels required when called: 11
  1591 ;; This function calls:
  1592 ;;		Nothing
  1593 ;; This function is called by:
  1594 ;;		_lcd_cmd
  1595 ;; This function uses a non-reentrant model
  1596 ;;
  1597                           
  1598                           	psect	text6
  1599   002C3E                     __ptext6:
  1600                           	callstack 0
  1601   002C3E                     _lcd_wr:
  1602                           	callstack 16
  1603                           
  1604                           ;incstack = 0
  1605                           ;lcd_wr@val stored from wreg
  1606   002C3E  0100               	movlb	0	; () banked
  1607   002C40  6F80               	movwf	lcd_wr@val& (0+255),b
  1608   002C42                     
  1609                           ;lcd.c: 29: void lcd_wr(unsigned char val);lcd.c: 30: {;lcd.c: 31:   PORTD=val;
  1610   002C42  C080  FF83         	movff	lcd_wr@val,3971	;volatile
  1611   002C46  0012               	return		;funcret
  1612   002C48                     __end_of_lcd_wr:
  1613                           	callstack 0
  1614                           
  1615 ;; *************** function _interrupt_init *****************
  1616 ;; Defined at:
  1617 ;;		line 100 in file "Interrupt.c"
  1618 ;; Parameters:    Size  Location     Type
  1619 ;;		None
  1620 ;; Auto vars:     Size  Location     Type
  1621 ;;		None
  1622 ;; Return value:  Size  Location     Type
  1623 ;;                  1    wreg      void 
  1624 ;; Registers used:
  1625 ;;		wreg, status,2
  1626 ;; Tracked objects:
  1627 ;;		On entry : 0/0
  1628 ;;		On exit  : 0/0
  1629 ;;		Unchanged: 0/0
  1630 ;; Data sizes:     COMRAM   BANK0   BANK1   BANK2   BANK3   BANK4   BANK5
  1631 ;;      Params:         0       0       0       0       0       0       0
  1632 ;;      Locals:         0       0       0       0       0       0       0
  1633 ;;      Temps:          0       0       0       0       0       0       0
  1634 ;;      Totals:         0       0       0       0       0       0       0
  1635 ;;Total ram usage:        0 bytes
  1636 ;; Hardware stack levels used: 1
  1637 ;; Hardware stack levels required when called: 11
  1638 ;; This function calls:
  1639 ;;		Nothing
  1640 ;; This function is called by:
  1641 ;;		_setup
  1642 ;; This function uses a non-reentrant model
  1643 ;;
  1644                           
  1645                           	psect	text7
  1646   002BE6                     __ptext7:
  1647                           	callstack 0
  1648   002BE6                     _interrupt_init:
  1649                           	callstack 18
  1650   002BE6                     
  1651                           ;Interrupt.c: 102:     INTCON = 0b10010000;
  1652   002BE6  0E90               	movlw	144
  1653   002BE8  6EF2               	movwf	242,c	;volatile
  1654                           
  1655                           ;Interrupt.c: 103:     INTCON2 = 0b00000101;
  1656   002BEA  0E05               	movlw	5
  1657   002BEC  6EF1               	movwf	241,c	;volatile
  1658                           
  1659                           ;Interrupt.c: 104:     INTCON3 = 0b11011000;
  1660   002BEE  0ED8               	movlw	216
  1661   002BF0  6EF0               	movwf	240,c	;volatile
  1662                           
  1663                           ;Interrupt.c: 105:     T0CON = 0b11000001;
  1664   002BF2  0EC1               	movlw	193
  1665   002BF4  6ED5               	movwf	213,c	;volatile
  1666                           
  1667                           ;Interrupt.c: 111:     TMR0 = 0x06;
  1668   002BF6  0E00               	movlw	0
  1669   002BF8  6ED7               	movwf	215,c	;volatile
  1670   002BFA  0E06               	movlw	6
  1671   002BFC  6ED6               	movwf	214,c	;volatile
  1672   002BFE  0012               	return		;funcret
  1673   002C00                     __end_of_interrupt_init:
  1674                           	callstack 0
  1675                           
  1676 ;; *************** function _enable_interrupts *****************
  1677 ;; Defined at:
  1678 ;;		line 93 in file "Interrupt.c"
  1679 ;; Parameters:    Size  Location     Type
  1680 ;;		None
  1681 ;; Auto vars:     Size  Location     Type
  1682 ;;		None
  1683 ;; Return value:  Size  Location     Type
  1684 ;;                  1    wreg      void 
  1685 ;; Registers used:
  1686 ;;		None
  1687 ;; Tracked objects:
  1688 ;;		On entry : 0/0
  1689 ;;		On exit  : 0/0
  1690 ;;		Unchanged: 0/0
  1691 ;; Data sizes:     COMRAM   BANK0   BANK1   BANK2   BANK3   BANK4   BANK5
  1692 ;;      Params:         0       0       0       0       0       0       0
  1693 ;;      Locals:         0       0       0       0       0       0       0
  1694 ;;      Temps:          0       0       0       0       0       0       0
  1695 ;;      Totals:         0       0       0       0       0       0       0
  1696 ;;Total ram usage:        0 bytes
  1697 ;; Hardware stack levels used: 1
  1698 ;; Hardware stack levels required when called: 11
  1699 ;; This function calls:
  1700 ;;		Nothing
  1701 ;; This function is called by:
  1702 ;;		_setup
  1703 ;; This function uses a non-reentrant model
  1704 ;;
  1705                           
  1706                           	psect	text8
  1707   002C48                     __ptext8:
  1708                           	callstack 0
  1709   002C48                     _enable_interrupts:
  1710                           	callstack 18
  1711   002C48                     
  1712                           ;Interrupt.c: 94:     TMR0IE = 1;
  1713   002C48  8AF2               	bsf	4082,5,c	;volatile
  1714                           
  1715                           ;Interrupt.c: 95:     ADIE = 1;
  1716   002C4A  8C9D               	bsf	3997,6,c	;volatile
  1717                           
  1718                           ;Interrupt.c: 96:     PEIE = 1;
  1719   002C4C  8CF2               	bsf	4082,6,c	;volatile
  1720                           
  1721                           ;Interrupt.c: 97:     GIE = 1;
  1722   002C4E  8EF2               	bsf	4082,7,c	;volatile
  1723   002C50  0012               	return		;funcret
  1724   002C52                     __end_of_enable_interrupts:
  1725                           	callstack 0
  1726                           
  1727 ;; *************** function _disable_interrupts *****************
  1728 ;; Defined at:
  1729 ;;		line 87 in file "Interrupt.c"
  1730 ;; Parameters:    Size  Location     Type
  1731 ;;		None
  1732 ;; Auto vars:     Size  Location     Type
  1733 ;;		None
  1734 ;; Return value:  Size  Location     Type
  1735 ;;                  1    wreg      void 
  1736 ;; Registers used:
  1737 ;;		None
  1738 ;; Tracked objects:
  1739 ;;		On entry : 0/0
  1740 ;;		On exit  : 0/0
  1741 ;;		Unchanged: 0/0
  1742 ;; Data sizes:     COMRAM   BANK0   BANK1   BANK2   BANK3   BANK4   BANK5
  1743 ;;      Params:         0       0       0       0       0       0       0
  1744 ;;      Locals:         0       0       0       0       0       0       0
  1745 ;;      Temps:          0       0       0       0       0       0       0
  1746 ;;      Totals:         0       0       0       0       0       0       0
  1747 ;;Total ram usage:        0 bytes
  1748 ;; Hardware stack levels used: 1
  1749 ;; Hardware stack levels required when called: 11
  1750 ;; This function calls:
  1751 ;;		Nothing
  1752 ;; This function is called by:
  1753 ;;		_setup
  1754 ;; This function uses a non-reentrant model
  1755 ;;
  1756                           
  1757                           	psect	text9
  1758   002C52                     __ptext9:
  1759                           	callstack 0
  1760   002C52                     _disable_interrupts:
  1761                           	callstack 18
  1762   002C52                     
  1763                           ;Interrupt.c: 88:     IPEN = 0;
  1764   002C52  9ED0               	bcf	4048,7,c	;volatile
  1765                           
  1766                           ;Interrupt.c: 89:     GIE = 0;
  1767   002C54  9EF2               	bcf	4082,7,c	;volatile
  1768                           
  1769                           ;Interrupt.c: 90:     PEIE = 0;
  1770   002C56  9CF2               	bcf	4082,6,c	;volatile
  1771   002C58  0012               	return		;funcret
  1772   002C5A                     __end_of_disable_interrupts:
  1773                           	callstack 0
  1774                           
  1775 ;; *************** function _AD_init *****************
  1776 ;; Defined at:
  1777 ;;		line 12 in file "ADC.c"
  1778 ;; Parameters:    Size  Location     Type
  1779 ;;		None
  1780 ;; Auto vars:     Size  Location     Type
  1781 ;;		None
  1782 ;; Return value:  Size  Location     Type
  1783 ;;                  1    wreg      void 
  1784 ;; Registers used:
  1785 ;;		wreg, status,2
  1786 ;; Tracked objects:
  1787 ;;		On entry : 0/0
  1788 ;;		On exit  : 0/0
  1789 ;;		Unchanged: 0/0
  1790 ;; Data sizes:     COMRAM   BANK0   BANK1   BANK2   BANK3   BANK4   BANK5
  1791 ;;      Params:         0       0       0       0       0       0       0
  1792 ;;      Locals:         0       0       0       0       0       0       0
  1793 ;;      Temps:          0       0       0       0       0       0       0
  1794 ;;      Totals:         0       0       0       0       0       0       0
  1795 ;;Total ram usage:        0 bytes
  1796 ;; Hardware stack levels used: 1
  1797 ;; Hardware stack levels required when called: 11
  1798 ;; This function calls:
  1799 ;;		Nothing
  1800 ;; This function is called by:
  1801 ;;		_setup
  1802 ;; This function uses a non-reentrant model
  1803 ;;
  1804                           
  1805                           	psect	text10
  1806   002C22                     __ptext10:
  1807                           	callstack 0
  1808   002C22                     _AD_init:
  1809                           	callstack 18
  1810   002C22                     
  1811                           ;ADC.c: 14:     ADCON0 = 0b00000001;
  1812   002C22  0E01               	movlw	1
  1813   002C24  6EC2               	movwf	194,c	;volatile
  1814                           
  1815                           ;ADC.c: 15:     ADCON1 = 0b00001101;
  1816   002C26  0E0D               	movlw	13
  1817   002C28  6EC1               	movwf	193,c	;volatile
  1818                           
  1819                           ;ADC.c: 16:     ADCON2 = 0b10010100;
  1820   002C2A  0E94               	movlw	148
  1821   002C2C  6EC0               	movwf	192,c	;volatile
  1822   002C2E  0012               	return		;funcret
  1823   002C30                     __end_of_AD_init:
  1824                           	callstack 0
  1825                           
  1826 ;; *************** function _loop *****************
  1827 ;; Defined at:
  1828 ;;		line 44 in file "p2gI.c"
  1829 ;; Parameters:    Size  Location     Type
  1830 ;;		None
  1831 ;; Auto vars:     Size  Location     Type
  1832 ;;		None
  1833 ;; Return value:  Size  Location     Type
  1834 ;;                  1    wreg      void 
  1835 ;; Registers used:
  1836 ;;		wreg, status,2, status,0, prodl, prodh, cstack
  1837 ;; Tracked objects:
  1838 ;;		On entry : 0/0
  1839 ;;		On exit  : 0/0
  1840 ;;		Unchanged: 0/0
  1841 ;; Data sizes:     COMRAM   BANK0   BANK1   BANK2   BANK3   BANK4   BANK5
  1842 ;;      Params:         0       0       0       0       0       0       0
  1843 ;;      Locals:         0       0       0       0       0       0       0
  1844 ;;      Temps:          0       2       0       0       0       0       0
  1845 ;;      Totals:         0       2       0       0       0       0       0
  1846 ;;Total ram usage:        2 bytes
  1847 ;; Hardware stack levels used: 1
  1848 ;; Hardware stack levels required when called: 13
  1849 ;; This function calls:
  1850 ;;		___fldiv
  1851 ;;		___flmul
  1852 ;;		___fltol
  1853 ;;		___xxtofl
  1854 ;;		_mostra_segundos_e_centesimos_de_segundos
  1855 ;;		_show_display
  1856 ;; This function is called by:
  1857 ;;		_main
  1858 ;; This function uses a non-reentrant model
  1859 ;;
  1860                           
  1861                           	psect	text11
  1862   0023D6                     __ptext11:
  1863                           	callstack 0
  1864   0023D6                     _loop:
  1865                           	callstack 17
  1866   0023D6                     
  1867                           ;p2gI.c: 46:     show_display();
  1868   0023D6  ECDD  F00E         	call	_show_display	;wreg free
  1869                           
  1870                           ;p2gI.c: 47:     mostra_segundos_e_centesimos_de_segundos();
  1871   0023DA  ECB2  F013         	call	_mostra_segundos_e_centesimos_de_segundos	;wreg free
  1872   0023DE                     
  1873                           ;p2gI.c: 49:     tempo_total = memoria_segundo*100 + memoria_centesimo_de_segundo;
  1874   0023DE  0100               	movlb	0	; () banked
  1875   0023E0  51E2               	movf	_memoria_segundo& (0+255),w,b
  1876   0023E2  0D64               	mullw	100
  1877   0023E4  CFF3 F0CA          	movff	prodl,??_loop
  1878   0023E8  CFF4 F0CB          	movff	prodh,??_loop+1
  1879   0023EC  51E1               	movf	_memoria_centesimo_de_segundo& (0+255),w,b
  1880   0023EE  25CA               	addwf	??_loop& (0+255),w,b
  1881   0023F0  6FD2               	movwf	_tempo_total& (0+255),b
  1882   0023F2  0E00               	movlw	0
  1883   0023F4  21CB               	addwfc	(??_loop+1)& (0+255),w,b
  1884   0023F6  6FD3               	movwf	(_tempo_total+1)& (0+255),b
  1885   0023F8                     
  1886                           ; BSR set to: 0
  1887                           ;p2gI.c: 50:     if(!enable_time_config)
  1888   0023F8  507E               	movf	_enable_time_config^0,w,c
  1889   0023FA  A4D8               	btfss	status,2,c
  1890   0023FC  EF02  F012         	goto	u3591
  1891   002400  EF04  F012         	goto	u3590
  1892   002404                     u3591:
  1893   002404  EF3F  F012         	goto	l491
  1894   002408                     u3590:
  1895   002408                     
  1896                           ; BSR set to: 0
  1897                           ;p2gI.c: 51:         porcentagem = (Duty_cycle*100.0)/1023.0;
  1898   002408  0E00               	movlw	0
  1899   00240A  6FAB               	movwf	___fldiv@a& (0+255),b
  1900   00240C  0EC0               	movlw	192
  1901   00240E  6FAC               	movwf	(___fldiv@a+1)& (0+255),b
  1902   002410  0E7F               	movlw	127
  1903   002412  6FAD               	movwf	(___fldiv@a+2)& (0+255),b
  1904   002414  0E44               	movlw	68
  1905   002416  6FAE               	movwf	(___fldiv@a+3)& (0+255),b
  1906   002418  0E00               	movlw	0
  1907   00241A  6F92               	movwf	___flmul@a& (0+255),b
  1908   00241C  0E00               	movlw	0
  1909   00241E  6F93               	movwf	(___flmul@a+1)& (0+255),b
  1910   002420  0EC8               	movlw	200
  1911   002422  6F94               	movwf	(___flmul@a+2)& (0+255),b
  1912   002424  0E42               	movlw	66
  1913   002426  6F95               	movwf	(___flmul@a+3)& (0+255),b
  1914   002428  C0D6  F080         	movff	_Duty_cycle,___xxtofl@val
  1915   00242C  C0D7  F081         	movff	_Duty_cycle+1,___xxtofl@val+1
  1916   002430  6B82               	clrf	(___xxtofl@val+2)& (0+255),b
  1917   002432  6B83               	clrf	(___xxtofl@val+3)& (0+255),b
  1918   002434  0E00               	movlw	0
  1919   002436  EC24  F00A         	call	___xxtofl
  1920   00243A  C080  F08E         	movff	?___xxtofl,___flmul@b
  1921   00243E  C081  F08F         	movff	?___xxtofl+1,___flmul@b+1
  1922   002442  C082  F090         	movff	?___xxtofl+2,___flmul@b+2
  1923   002446  C083  F091         	movff	?___xxtofl+3,___flmul@b+3
  1924   00244A  EC12  F003         	call	___flmul	;wreg free
  1925   00244E  C08E  F0A7         	movff	?___flmul,___fldiv@b
  1926   002452  C08F  F0A8         	movff	?___flmul+1,___fldiv@b+1
  1927   002456  C090  F0A9         	movff	?___flmul+2,___fldiv@b+2
  1928   00245A  C091  F0AA         	movff	?___flmul+3,___fldiv@b+3
  1929   00245E  EC17  F007         	call	___fldiv	;wreg free
  1930   002462  C0A7  F0C0         	movff	?___fldiv,___fltol@f1
  1931   002466  C0A8  F0C1         	movff	?___fldiv+1,___fltol@f1+1
  1932   00246A  C0A9  F0C2         	movff	?___fldiv+2,___fltol@f1+2
  1933   00246E  C0AA  F0C3         	movff	?___fldiv+3,___fltol@f1+3
  1934   002472  EC59  F00E         	call	___fltol	;wreg free
  1935   002476  C0C0  F0D4         	movff	?___fltol,_porcentagem
  1936   00247A  C0C1  F0D5         	movff	?___fltol+1,_porcentagem+1
  1937   00247E                     l491:
  1938   00247E  0012               	return		;funcret
  1939   002480                     __end_of_loop:
  1940                           	callstack 0
  1941                           
  1942 ;; *************** function _show_display *****************
  1943 ;; Defined at:
  1944 ;;		line 64 in file "p2gI.c"
  1945 ;; Parameters:    Size  Location     Type
  1946 ;;		None
  1947 ;; Auto vars:     Size  Location     Type
  1948 ;;		None
  1949 ;; Return value:  Size  Location     Type
  1950 ;;                  1    wreg      void 
  1951 ;; Registers used:
  1952 ;;		wreg, status,2, status,0, cstack
  1953 ;; Tracked objects:
  1954 ;;		On entry : 0/0
  1955 ;;		On exit  : 0/0
  1956 ;;		Unchanged: 0/0
  1957 ;; Data sizes:     COMRAM   BANK0   BANK1   BANK2   BANK3   BANK4   BANK5
  1958 ;;      Params:         0       0       0       0       0       0       0
  1959 ;;      Locals:         0       0       0       0       0       0       0
  1960 ;;      Temps:          0       0       0       0       0       0       0
  1961 ;;      Totals:         0       0       0       0       0       0       0
  1962 ;;Total ram usage:        0 bytes
  1963 ;; Hardware stack levels used: 1
  1964 ;; Hardware stack levels required when called: 12
  1965 ;; This function calls:
  1966 ;;		___awdiv
  1967 ;;		___awmod
  1968 ;; This function is called by:
  1969 ;;		_loop
  1970 ;; This function uses a non-reentrant model
  1971 ;;
  1972                           
  1973                           	psect	text12
  1974   001DBA                     __ptext12:
  1975                           	callstack 0
  1976   001DBA                     _show_display:
  1977                           	callstack 17
  1978   001DBA                     
  1979                           ;p2gI.c: 66:     if(enable_time_config)
  1980   001DBA  507E               	movf	_enable_time_config^0,w,c
  1981   001DBC  B4D8               	btfsc	status,2,c
  1982   001DBE  EFE3  F00E         	goto	u2931
  1983   001DC2  EFE5  F00E         	goto	u2930
  1984   001DC6                     u2931:
  1985   001DC6  EF18  F00F         	goto	l3589
  1986   001DCA                     u2930:
  1987   001DCA                     
  1988                           ;p2gI.c: 67:     {;p2gI.c: 68:         display1 = segundo / 10;
  1989   001DCA  C07D  F080         	movff	_segundo,___awdiv@dividend
  1990   001DCE  0100               	movlb	0	; () banked
  1991   001DD0  6B81               	clrf	(___awdiv@dividend+1)& (0+255),b
  1992   001DD2  0E00               	movlw	0
  1993   001DD4  6F83               	movwf	(___awdiv@divisor+1)& (0+255),b
  1994   001DD6  0E0A               	movlw	10
  1995   001DD8  6F82               	movwf	___awdiv@divisor& (0+255),b
  1996   001DDA  EC79  F010         	call	___awdiv	;wreg free
  1997   001DDE  0100               	movlb	0	; () banked
  1998   001DE0  5180               	movf	?___awdiv& (0+255),w,b
  1999   001DE2  6FED               	movwf	_display1& (0+255),b
  2000                           
  2001                           ;p2gI.c: 69:         display2 = segundo % 10;
  2002   001DE4  C07D  F080         	movff	_segundo,___awmod@dividend
  2003   001DE8  6B81               	clrf	(___awmod@dividend+1)& (0+255),b
  2004   001DEA  0E00               	movlw	0
  2005   001DEC  6F83               	movwf	(___awmod@divisor+1)& (0+255),b
  2006   001DEE  0E0A               	movlw	10
  2007   001DF0  6F82               	movwf	___awmod@divisor& (0+255),b
  2008   001DF2  EC39  F011         	call	___awmod	;wreg free
  2009   001DF6  0100               	movlb	0	; () banked
  2010   001DF8  5180               	movf	?___awmod& (0+255),w,b
  2011   001DFA  6FEC               	movwf	_display2& (0+255),b
  2012                           
  2013                           ;p2gI.c: 70:         display3 = centesimo_de_segundo / 10;
  2014   001DFC  C0E4  F080         	movff	_centesimo_de_segundo,___awdiv@dividend
  2015   001E00  6B81               	clrf	(___awdiv@dividend+1)& (0+255),b
  2016   001E02  0E00               	movlw	0
  2017   001E04  6F83               	movwf	(___awdiv@divisor+1)& (0+255),b
  2018   001E06  0E0A               	movlw	10
  2019   001E08  6F82               	movwf	___awdiv@divisor& (0+255),b
  2020   001E0A  EC79  F010         	call	___awdiv	;wreg free
  2021   001E0E  0100               	movlb	0	; () banked
  2022   001E10  5180               	movf	?___awdiv& (0+255),w,b
  2023   001E12  6FEB               	movwf	_display3& (0+255),b
  2024                           
  2025                           ;p2gI.c: 71:         display4 = centesimo_de_segundo % 10;
  2026   001E14  C0E4  F080         	movff	_centesimo_de_segundo,___awmod@dividend
  2027   001E18  6B81               	clrf	(___awmod@dividend+1)& (0+255),b
  2028   001E1A  0E00               	movlw	0
  2029   001E1C  6F83               	movwf	(___awmod@divisor+1)& (0+255),b
  2030   001E1E  0E0A               	movlw	10
  2031   001E20  6F82               	movwf	___awmod@divisor& (0+255),b
  2032   001E22  EC39  F011         	call	___awmod	;wreg free
  2033   001E26  0100               	movlb	0	; () banked
  2034   001E28  5180               	movf	?___awmod& (0+255),w,b
  2035   001E2A  6FEA               	movwf	_display4& (0+255),b
  2036                           
  2037                           ;p2gI.c: 72:     }
  2038   001E2C  EF49  F00F         	goto	l502
  2039   001E30                     l3589:
  2040                           
  2041                           ;p2gI.c: 75:     {;p2gI.c: 76:         display1 = mostra_segundo / 10;
  2042   001E30  C07B  F080         	movff	_mostra_segundo,___awdiv@dividend
  2043   001E34  0100               	movlb	0	; () banked
  2044   001E36  6B81               	clrf	(___awdiv@dividend+1)& (0+255),b
  2045   001E38  0E00               	movlw	0
  2046   001E3A  6F83               	movwf	(___awdiv@divisor+1)& (0+255),b
  2047   001E3C  0E0A               	movlw	10
  2048   001E3E  6F82               	movwf	___awdiv@divisor& (0+255),b
  2049   001E40  EC79  F010         	call	___awdiv	;wreg free
  2050   001E44  0100               	movlb	0	; () banked
  2051   001E46  5180               	movf	?___awdiv& (0+255),w,b
  2052   001E48  6FED               	movwf	_display1& (0+255),b
  2053                           
  2054                           ;p2gI.c: 77:         display2 = mostra_segundo % 10;
  2055   001E4A  C07B  F080         	movff	_mostra_segundo,___awmod@dividend
  2056   001E4E  6B81               	clrf	(___awmod@dividend+1)& (0+255),b
  2057   001E50  0E00               	movlw	0
  2058   001E52  6F83               	movwf	(___awmod@divisor+1)& (0+255),b
  2059   001E54  0E0A               	movlw	10
  2060   001E56  6F82               	movwf	___awmod@divisor& (0+255),b
  2061   001E58  EC39  F011         	call	___awmod	;wreg free
  2062   001E5C  0100               	movlb	0	; () banked
  2063   001E5E  5180               	movf	?___awmod& (0+255),w,b
  2064   001E60  6FEC               	movwf	_display2& (0+255),b
  2065                           
  2066                           ;p2gI.c: 78:         display3 = mostra_centesimo_de_segundo / 10;
  2067   001E62  C07C  F080         	movff	_mostra_centesimo_de_segundo,___awdiv@dividend
  2068   001E66  6B81               	clrf	(___awdiv@dividend+1)& (0+255),b
  2069   001E68  0E00               	movlw	0
  2070   001E6A  6F83               	movwf	(___awdiv@divisor+1)& (0+255),b
  2071   001E6C  0E0A               	movlw	10
  2072   001E6E  6F82               	movwf	___awdiv@divisor& (0+255),b
  2073   001E70  EC79  F010         	call	___awdiv	;wreg free
  2074   001E74  0100               	movlb	0	; () banked
  2075   001E76  5180               	movf	?___awdiv& (0+255),w,b
  2076   001E78  6FEB               	movwf	_display3& (0+255),b
  2077                           
  2078                           ;p2gI.c: 79:         display4 = mostra_centesimo_de_segundo % 10;
  2079   001E7A  C07C  F080         	movff	_mostra_centesimo_de_segundo,___awmod@dividend
  2080   001E7E  6B81               	clrf	(___awmod@dividend+1)& (0+255),b
  2081   001E80  0E00               	movlw	0
  2082   001E82  6F83               	movwf	(___awmod@divisor+1)& (0+255),b
  2083   001E84  0E0A               	movlw	10
  2084   001E86  6F82               	movwf	___awmod@divisor& (0+255),b
  2085   001E88  EC39  F011         	call	___awmod	;wreg free
  2086   001E8C  0100               	movlb	0	; () banked
  2087   001E8E  5180               	movf	?___awmod& (0+255),w,b
  2088   001E90  6FEA               	movwf	_display4& (0+255),b
  2089   001E92                     l502:
  2090                           
  2091                           ; BSR set to: 0
  2092   001E92  0012               	return		;funcret
  2093   001E94                     __end_of_show_display:
  2094                           	callstack 0
  2095                           
  2096 ;; *************** function ___awmod *****************
  2097 ;; Defined at:
  2098 ;;		line 7 in file "C:\Program Files\Microchip\xc8\v2.40\pic\sources\c99\common\awmod.c"
  2099 ;; Parameters:    Size  Location     Type
  2100 ;;  dividend        2    0[BANK0 ] int 
  2101 ;;  divisor         2    2[BANK0 ] int 
  2102 ;; Auto vars:     Size  Location     Type
  2103 ;;  sign            1    5[BANK0 ] unsigned char 
  2104 ;;  counter         1    4[BANK0 ] unsigned char 
  2105 ;; Return value:  Size  Location     Type
  2106 ;;                  2    0[BANK0 ] int 
  2107 ;; Registers used:
  2108 ;;		wreg, status,2, status,0
  2109 ;; Tracked objects:
  2110 ;;		On entry : 0/0
  2111 ;;		On exit  : 0/0
  2112 ;;		Unchanged: 0/0
  2113 ;; Data sizes:     COMRAM   BANK0   BANK1   BANK2   BANK3   BANK4   BANK5
  2114 ;;      Params:         0       4       0       0       0       0       0
  2115 ;;      Locals:         0       2       0       0       0       0       0
  2116 ;;      Temps:          0       0       0       0       0       0       0
  2117 ;;      Totals:         0       6       0       0       0       0       0
  2118 ;;Total ram usage:        6 bytes
  2119 ;; Hardware stack levels used: 1
  2120 ;; Hardware stack levels required when called: 11
  2121 ;; This function calls:
  2122 ;;		Nothing
  2123 ;; This function is called by:
  2124 ;;		_show_display
  2125 ;; This function uses a non-reentrant model
  2126 ;;
  2127                           
  2128                           	psect	text13
  2129   002272                     __ptext13:
  2130                           	callstack 0
  2131   002272                     ___awmod:
  2132                           	callstack 17
  2133   002272  0E00               	movlw	0
  2134   002274  0100               	movlb	0	; () banked
  2135   002276  6F85               	movwf	___awmod@sign& (0+255),b
  2136   002278                     
  2137                           ; BSR set to: 0
  2138   002278  BF81               	btfsc	(___awmod@dividend+1)& (0+255),7,b
  2139   00227A  EF43  F011         	goto	u2620
  2140   00227E  EF41  F011         	goto	u2621
  2141   002282                     u2621:
  2142   002282  EF49  F011         	goto	l3287
  2143   002286                     u2620:
  2144   002286                     
  2145                           ; BSR set to: 0
  2146   002286  6D80               	negf	___awmod@dividend& (0+255),b
  2147   002288  1F81               	comf	(___awmod@dividend+1)& (0+255),f,b
  2148   00228A  B0D8               	btfsc	status,0,c
  2149   00228C  2B81               	incf	(___awmod@dividend+1)& (0+255),f,b
  2150   00228E                     
  2151                           ; BSR set to: 0
  2152   00228E  0E01               	movlw	1
  2153   002290  6F85               	movwf	___awmod@sign& (0+255),b
  2154   002292                     l3287:
  2155                           
  2156                           ; BSR set to: 0
  2157   002292  BF83               	btfsc	(___awmod@divisor+1)& (0+255),7,b
  2158   002294  EF50  F011         	goto	u2630
  2159   002298  EF4E  F011         	goto	u2631
  2160   00229C                     u2631:
  2161   00229C  EF54  F011         	goto	l3291
  2162   0022A0                     u2630:
  2163   0022A0                     
  2164                           ; BSR set to: 0
  2165   0022A0  6D82               	negf	___awmod@divisor& (0+255),b
  2166   0022A2  1F83               	comf	(___awmod@divisor+1)& (0+255),f,b
  2167   0022A4  B0D8               	btfsc	status,0,c
  2168   0022A6  2B83               	incf	(___awmod@divisor+1)& (0+255),f,b
  2169   0022A8                     l3291:
  2170                           
  2171                           ; BSR set to: 0
  2172   0022A8  5182               	movf	___awmod@divisor& (0+255),w,b
  2173   0022AA  1183               	iorwf	(___awmod@divisor+1)& (0+255),w,b
  2174   0022AC  B4D8               	btfsc	status,2,c
  2175   0022AE  EF5B  F011         	goto	u2641
  2176   0022B2  EF5D  F011         	goto	u2640
  2177   0022B6                     u2641:
  2178   0022B6  EF81  F011         	goto	l3307
  2179   0022BA                     u2640:
  2180   0022BA                     
  2181                           ; BSR set to: 0
  2182   0022BA  0E01               	movlw	1
  2183   0022BC  6F84               	movwf	___awmod@counter& (0+255),b
  2184   0022BE  EF65  F011         	goto	l3297
  2185   0022C2                     l3295:
  2186                           
  2187                           ; BSR set to: 0
  2188   0022C2  90D8               	bcf	status,0,c
  2189   0022C4  3782               	rlcf	___awmod@divisor& (0+255),f,b
  2190   0022C6  3783               	rlcf	(___awmod@divisor+1)& (0+255),f,b
  2191   0022C8  2B84               	incf	___awmod@counter& (0+255),f,b
  2192   0022CA                     l3297:
  2193                           
  2194                           ; BSR set to: 0
  2195   0022CA  AF83               	btfss	(___awmod@divisor+1)& (0+255),7,b
  2196   0022CC  EF6A  F011         	goto	u2651
  2197   0022D0  EF6C  F011         	goto	u2650
  2198   0022D4                     u2651:
  2199   0022D4  EF61  F011         	goto	l3295
  2200   0022D8                     u2650:
  2201   0022D8                     l3299:
  2202                           
  2203                           ; BSR set to: 0
  2204   0022D8  5182               	movf	___awmod@divisor& (0+255),w,b
  2205   0022DA  5D80               	subwf	___awmod@dividend& (0+255),w,b
  2206   0022DC  5183               	movf	(___awmod@divisor+1)& (0+255),w,b
  2207   0022DE  5981               	subwfb	(___awmod@dividend+1)& (0+255),w,b
  2208   0022E0  A0D8               	btfss	status,0,c
  2209   0022E2  EF75  F011         	goto	u2661
  2210   0022E6  EF77  F011         	goto	u2660
  2211   0022EA                     u2661:
  2212   0022EA  EF7B  F011         	goto	l3303
  2213   0022EE                     u2660:
  2214   0022EE                     
  2215                           ; BSR set to: 0
  2216   0022EE  5182               	movf	___awmod@divisor& (0+255),w,b
  2217   0022F0  5F80               	subwf	___awmod@dividend& (0+255),f,b
  2218   0022F2  5183               	movf	(___awmod@divisor+1)& (0+255),w,b
  2219   0022F4  5B81               	subwfb	(___awmod@dividend+1)& (0+255),f,b
  2220   0022F6                     l3303:
  2221                           
  2222                           ; BSR set to: 0
  2223   0022F6  90D8               	bcf	status,0,c
  2224   0022F8  3383               	rrcf	(___awmod@divisor+1)& (0+255),f,b
  2225   0022FA  3382               	rrcf	___awmod@divisor& (0+255),f,b
  2226   0022FC                     
  2227                           ; BSR set to: 0
  2228   0022FC  2F84               	decfsz	___awmod@counter& (0+255),f,b
  2229   0022FE  EF6C  F011         	goto	l3299
  2230   002302                     l3307:
  2231                           
  2232                           ; BSR set to: 0
  2233   002302  5185               	movf	___awmod@sign& (0+255),w,b
  2234   002304  B4D8               	btfsc	status,2,c
  2235   002306  EF87  F011         	goto	u2671
  2236   00230A  EF89  F011         	goto	u2670
  2237   00230E                     u2671:
  2238   00230E  EF8D  F011         	goto	l3311
  2239   002312                     u2670:
  2240   002312                     
  2241                           ; BSR set to: 0
  2242   002312  6D80               	negf	___awmod@dividend& (0+255),b
  2243   002314  1F81               	comf	(___awmod@dividend+1)& (0+255),f,b
  2244   002316  B0D8               	btfsc	status,0,c
  2245   002318  2B81               	incf	(___awmod@dividend+1)& (0+255),f,b
  2246   00231A                     l3311:
  2247                           
  2248                           ; BSR set to: 0
  2249   00231A  C080  F080         	movff	___awmod@dividend,?___awmod
  2250   00231E  C081  F081         	movff	___awmod@dividend+1,?___awmod+1
  2251   002322                     
  2252                           ; BSR set to: 0
  2253   002322  0012               	return		;funcret
  2254   002324                     __end_of___awmod:
  2255                           	callstack 0
  2256                           
  2257 ;; *************** function ___awdiv *****************
  2258 ;; Defined at:
  2259 ;;		line 7 in file "C:\Program Files\Microchip\xc8\v2.40\pic\sources\c99\common\awdiv.c"
  2260 ;; Parameters:    Size  Location     Type
  2261 ;;  dividend        2    0[BANK0 ] int 
  2262 ;;  divisor         2    2[BANK0 ] int 
  2263 ;; Auto vars:     Size  Location     Type
  2264 ;;  quotient        2    6[BANK0 ] int 
  2265 ;;  sign            1    5[BANK0 ] unsigned char 
  2266 ;;  counter         1    4[BANK0 ] unsigned char 
  2267 ;; Return value:  Size  Location     Type
  2268 ;;                  2    0[BANK0 ] int 
  2269 ;; Registers used:
  2270 ;;		wreg, status,2, status,0
  2271 ;; Tracked objects:
  2272 ;;		On entry : 0/0
  2273 ;;		On exit  : 0/0
  2274 ;;		Unchanged: 0/0
  2275 ;; Data sizes:     COMRAM   BANK0   BANK1   BANK2   BANK3   BANK4   BANK5
  2276 ;;      Params:         0       4       0       0       0       0       0
  2277 ;;      Locals:         0       4       0       0       0       0       0
  2278 ;;      Temps:          0       0       0       0       0       0       0
  2279 ;;      Totals:         0       8       0       0       0       0       0
  2280 ;;Total ram usage:        8 bytes
  2281 ;; Hardware stack levels used: 1
  2282 ;; Hardware stack levels required when called: 11
  2283 ;; This function calls:
  2284 ;;		Nothing
  2285 ;; This function is called by:
  2286 ;;		_show_display
  2287 ;; This function uses a non-reentrant model
  2288 ;;
  2289                           
  2290                           	psect	text14
  2291   0020F2                     __ptext14:
  2292                           	callstack 0
  2293   0020F2                     ___awdiv:
  2294                           	callstack 17
  2295   0020F2  0E00               	movlw	0
  2296   0020F4  0100               	movlb	0	; () banked
  2297   0020F6  6F85               	movwf	___awdiv@sign& (0+255),b
  2298   0020F8                     
  2299                           ; BSR set to: 0
  2300   0020F8  BF83               	btfsc	(___awdiv@divisor+1)& (0+255),7,b
  2301   0020FA  EF83  F010         	goto	u2560
  2302   0020FE  EF81  F010         	goto	u2561
  2303   002102                     u2561:
  2304   002102  EF89  F010         	goto	l3243
  2305   002106                     u2560:
  2306   002106                     
  2307                           ; BSR set to: 0
  2308   002106  6D82               	negf	___awdiv@divisor& (0+255),b
  2309   002108  1F83               	comf	(___awdiv@divisor+1)& (0+255),f,b
  2310   00210A  B0D8               	btfsc	status,0,c
  2311   00210C  2B83               	incf	(___awdiv@divisor+1)& (0+255),f,b
  2312   00210E                     
  2313                           ; BSR set to: 0
  2314   00210E  0E01               	movlw	1
  2315   002110  6F85               	movwf	___awdiv@sign& (0+255),b
  2316   002112                     l3243:
  2317                           
  2318                           ; BSR set to: 0
  2319   002112  BF81               	btfsc	(___awdiv@dividend+1)& (0+255),7,b
  2320   002114  EF90  F010         	goto	u2570
  2321   002118  EF8E  F010         	goto	u2571
  2322   00211C                     u2571:
  2323   00211C  EF96  F010         	goto	l3249
  2324   002120                     u2570:
  2325   002120                     
  2326                           ; BSR set to: 0
  2327   002120  6D80               	negf	___awdiv@dividend& (0+255),b
  2328   002122  1F81               	comf	(___awdiv@dividend+1)& (0+255),f,b
  2329   002124  B0D8               	btfsc	status,0,c
  2330   002126  2B81               	incf	(___awdiv@dividend+1)& (0+255),f,b
  2331   002128                     
  2332                           ; BSR set to: 0
  2333   002128  0E01               	movlw	1
  2334   00212A  1B85               	xorwf	___awdiv@sign& (0+255),f,b
  2335   00212C                     l3249:
  2336                           
  2337                           ; BSR set to: 0
  2338   00212C  0E00               	movlw	0
  2339   00212E  6F87               	movwf	(___awdiv@quotient+1)& (0+255),b
  2340   002130  0E00               	movlw	0
  2341   002132  6F86               	movwf	___awdiv@quotient& (0+255),b
  2342   002134                     
  2343                           ; BSR set to: 0
  2344   002134  5182               	movf	___awdiv@divisor& (0+255),w,b
  2345   002136  1183               	iorwf	(___awdiv@divisor+1)& (0+255),w,b
  2346   002138  B4D8               	btfsc	status,2,c
  2347   00213A  EFA1  F010         	goto	u2581
  2348   00213E  EFA3  F010         	goto	u2580
  2349   002142                     u2581:
  2350   002142  EFCB  F010         	goto	l3271
  2351   002146                     u2580:
  2352   002146                     
  2353                           ; BSR set to: 0
  2354   002146  0E01               	movlw	1
  2355   002148  6F84               	movwf	___awdiv@counter& (0+255),b
  2356   00214A  EFAB  F010         	goto	l3257
  2357   00214E                     l3255:
  2358                           
  2359                           ; BSR set to: 0
  2360   00214E  90D8               	bcf	status,0,c
  2361   002150  3782               	rlcf	___awdiv@divisor& (0+255),f,b
  2362   002152  3783               	rlcf	(___awdiv@divisor+1)& (0+255),f,b
  2363   002154  2B84               	incf	___awdiv@counter& (0+255),f,b
  2364   002156                     l3257:
  2365                           
  2366                           ; BSR set to: 0
  2367   002156  AF83               	btfss	(___awdiv@divisor+1)& (0+255),7,b
  2368   002158  EFB0  F010         	goto	u2591
  2369   00215C  EFB2  F010         	goto	u2590
  2370   002160                     u2591:
  2371   002160  EFA7  F010         	goto	l3255
  2372   002164                     u2590:
  2373   002164                     l3259:
  2374                           
  2375                           ; BSR set to: 0
  2376   002164  90D8               	bcf	status,0,c
  2377   002166  3786               	rlcf	___awdiv@quotient& (0+255),f,b
  2378   002168  3787               	rlcf	(___awdiv@quotient+1)& (0+255),f,b
  2379   00216A                     
  2380                           ; BSR set to: 0
  2381   00216A  5182               	movf	___awdiv@divisor& (0+255),w,b
  2382   00216C  5D80               	subwf	___awdiv@dividend& (0+255),w,b
  2383   00216E  5183               	movf	(___awdiv@divisor+1)& (0+255),w,b
  2384   002170  5981               	subwfb	(___awdiv@dividend+1)& (0+255),w,b
  2385   002172  A0D8               	btfss	status,0,c
  2386   002174  EFBE  F010         	goto	u2601
  2387   002178  EFC0  F010         	goto	u2600
  2388   00217C                     u2601:
  2389   00217C  EFC5  F010         	goto	l3267
  2390   002180                     u2600:
  2391   002180                     
  2392                           ; BSR set to: 0
  2393   002180  5182               	movf	___awdiv@divisor& (0+255),w,b
  2394   002182  5F80               	subwf	___awdiv@dividend& (0+255),f,b
  2395   002184  5183               	movf	(___awdiv@divisor+1)& (0+255),w,b
  2396   002186  5B81               	subwfb	(___awdiv@dividend+1)& (0+255),f,b
  2397   002188                     
  2398                           ; BSR set to: 0
  2399   002188  8186               	bsf	___awdiv@quotient& (0+255),0,b
  2400   00218A                     l3267:
  2401                           
  2402                           ; BSR set to: 0
  2403   00218A  90D8               	bcf	status,0,c
  2404   00218C  3383               	rrcf	(___awdiv@divisor+1)& (0+255),f,b
  2405   00218E  3382               	rrcf	___awdiv@divisor& (0+255),f,b
  2406   002190                     
  2407                           ; BSR set to: 0
  2408   002190  2F84               	decfsz	___awdiv@counter& (0+255),f,b
  2409   002192  EFB2  F010         	goto	l3259
  2410   002196                     l3271:
  2411                           
  2412                           ; BSR set to: 0
  2413   002196  5185               	movf	___awdiv@sign& (0+255),w,b
  2414   002198  B4D8               	btfsc	status,2,c
  2415   00219A  EFD1  F010         	goto	u2611
  2416   00219E  EFD3  F010         	goto	u2610
  2417   0021A2                     u2611:
  2418   0021A2  EFD7  F010         	goto	l3275
  2419   0021A6                     u2610:
  2420   0021A6                     
  2421                           ; BSR set to: 0
  2422   0021A6  6D86               	negf	___awdiv@quotient& (0+255),b
  2423   0021A8  1F87               	comf	(___awdiv@quotient+1)& (0+255),f,b
  2424   0021AA  B0D8               	btfsc	status,0,c
  2425   0021AC  2B87               	incf	(___awdiv@quotient+1)& (0+255),f,b
  2426   0021AE                     l3275:
  2427                           
  2428                           ; BSR set to: 0
  2429   0021AE  C086  F080         	movff	___awdiv@quotient,?___awdiv
  2430   0021B2  C087  F081         	movff	___awdiv@quotient+1,?___awdiv+1
  2431   0021B6                     
  2432                           ; BSR set to: 0
  2433   0021B6  0012               	return		;funcret
  2434   0021B8                     __end_of___awdiv:
  2435                           	callstack 0
  2436                           
  2437 ;; *************** function _mostra_segundos_e_centesimos_de_segundos *****************
  2438 ;; Defined at:
  2439 ;;		line 54 in file "p2gI.c"
  2440 ;; Parameters:    Size  Location     Type
  2441 ;;		None
  2442 ;; Auto vars:     Size  Location     Type
  2443 ;;		None
  2444 ;; Return value:  Size  Location     Type
  2445 ;;                  1    wreg      void 
  2446 ;; Registers used:
  2447 ;;		wreg, status,2, status,0, cstack
  2448 ;; Tracked objects:
  2449 ;;		On entry : 0/0
  2450 ;;		On exit  : 0/0
  2451 ;;		Unchanged: 0/0
  2452 ;; Data sizes:     COMRAM   BANK0   BANK1   BANK2   BANK3   BANK4   BANK5
  2453 ;;      Params:         0       0       0       0       0       0       0
  2454 ;;      Locals:         0       0       0       0       0       0       0
  2455 ;;      Temps:          0       0       0       0       0       0       0
  2456 ;;      Totals:         0       0       0       0       0       0       0
  2457 ;;Total ram usage:        0 bytes
  2458 ;; Hardware stack levels used: 1
  2459 ;; Hardware stack levels required when called: 12
  2460 ;; This function calls:
  2461 ;;		___lwdiv
  2462 ;;		___lwmod
  2463 ;; This function is called by:
  2464 ;;		_loop
  2465 ;; This function uses a non-reentrant model
  2466 ;;
  2467                           
  2468                           	psect	text15
  2469   002764                     __ptext15:
  2470                           	callstack 0
  2471   002764                     _mostra_segundos_e_centesimos_de_segundos:
  2472                           	callstack 17
  2473   002764                     
  2474                           ;p2gI.c: 56:     static uint16_t tempo = 0;;p2gI.c: 57:     tempo = AD_data[0];
  2475   002764  C135  F0D0         	movff	_AD_data,mostra_segundos_e_centesimos_de_segundos@tempo
  2476   002768  C136  F0D1         	movff	_AD_data+1,mostra_segundos_e_centesimos_de_segundos@tempo+1
  2477   00276C                     
  2478                           ;p2gI.c: 58:     if(tempo > 1000) tempo = 1000;
  2479   00276C  0EE9               	movlw	233
  2480   00276E  0100               	movlb	0	; () banked
  2481   002770  5DD0               	subwf	mostra_segundos_e_centesimos_de_segundos@tempo& (0+255),w,b
  2482   002772  0E03               	movlw	3
  2483   002774  59D1               	subwfb	(mostra_segundos_e_centesimos_de_segundos@tempo+1)& (0+255),w,b
  2484   002776  A0D8               	btfss	status,0,c
  2485   002778  EFC0  F013         	goto	u2941
  2486   00277C  EFC2  F013         	goto	u2940
  2487   002780                     u2941:
  2488   002780  EFC6  F013         	goto	l3597
  2489   002784                     u2940:
  2490   002784                     
  2491                           ; BSR set to: 0
  2492   002784  0E03               	movlw	3
  2493   002786  6FD1               	movwf	(mostra_segundos_e_centesimos_de_segundos@tempo+1)& (0+255),b
  2494   002788  0EE8               	movlw	232
  2495   00278A  6FD0               	movwf	mostra_segundos_e_centesimos_de_segundos@tempo& (0+255),b
  2496   00278C                     l3597:
  2497                           
  2498                           ; BSR set to: 0
  2499                           ;p2gI.c: 59:     segundo = tempo/100;
  2500   00278C  C0D0  F080         	movff	mostra_segundos_e_centesimos_de_segundos@tempo,___lwdiv@dividend
  2501   002790  C0D1  F081         	movff	mostra_segundos_e_centesimos_de_segundos@tempo+1,___lwdiv@dividend+1
  2502   002794  0E00               	movlw	0
  2503   002796  6F83               	movwf	(___lwdiv@divisor+1)& (0+255),b
  2504   002798  0E64               	movlw	100
  2505   00279A  6F82               	movwf	___lwdiv@divisor& (0+255),b
  2506   00279C  ECD5  F012         	call	___lwdiv	;wreg free
  2507   0027A0  0100               	movlb	0	; () banked
  2508   0027A2  5180               	movf	?___lwdiv& (0+255),w,b
  2509   0027A4  6E7D               	movwf	_segundo^0,c
  2510   0027A6                     
  2511                           ; BSR set to: 0
  2512                           ;p2gI.c: 60:     centesimo_de_segundo = tempo%100;
  2513   0027A6  C0D0  F080         	movff	mostra_segundos_e_centesimos_de_segundos@tempo,___lwmod@dividend
  2514   0027AA  C0D1  F081         	movff	mostra_segundos_e_centesimos_de_segundos@tempo+1,___lwmod@dividend+1
  2515   0027AE  0E00               	movlw	0
  2516   0027B0  6F83               	movwf	(___lwmod@divisor+1)& (0+255),b
  2517   0027B2  0E64               	movlw	100
  2518   0027B4  6F82               	movwf	___lwmod@divisor& (0+255),b
  2519   0027B6  ECE5  F013         	call	___lwmod	;wreg free
  2520   0027BA  0100               	movlb	0	; () banked
  2521   0027BC  5180               	movf	?___lwmod& (0+255),w,b
  2522   0027BE  6FE4               	movwf	_centesimo_de_segundo& (0+255),b
  2523   0027C0                     
  2524                           ; BSR set to: 0
  2525                           ;p2gI.c: 61:     Duty_cycle = AD_data[1];
  2526   0027C0  C137  F0D6         	movff	_AD_data+2,_Duty_cycle
  2527   0027C4  C138  F0D7         	movff	_AD_data+3,_Duty_cycle+1
  2528   0027C8                     
  2529                           ; BSR set to: 0
  2530   0027C8  0012               	return		;funcret
  2531   0027CA                     __end_of_mostra_segundos_e_centesimos_de_segundos:
  2532                           	callstack 0
  2533                           
  2534 ;; *************** function ___lwmod *****************
  2535 ;; Defined at:
  2536 ;;		line 7 in file "C:\Program Files\Microchip\xc8\v2.40\pic\sources\c99\common\lwmod.c"
  2537 ;; Parameters:    Size  Location     Type
  2538 ;;  dividend        2    0[BANK0 ] unsigned int 
  2539 ;;  divisor         2    2[BANK0 ] unsigned int 
  2540 ;; Auto vars:     Size  Location     Type
  2541 ;;  counter         1    4[BANK0 ] unsigned char 
  2542 ;; Return value:  Size  Location     Type
  2543 ;;                  2    0[BANK0 ] unsigned int 
  2544 ;; Registers used:
  2545 ;;		wreg, status,2, status,0
  2546 ;; Tracked objects:
  2547 ;;		On entry : 0/0
  2548 ;;		On exit  : 0/0
  2549 ;;		Unchanged: 0/0
  2550 ;; Data sizes:     COMRAM   BANK0   BANK1   BANK2   BANK3   BANK4   BANK5
  2551 ;;      Params:         0       4       0       0       0       0       0
  2552 ;;      Locals:         0       1       0       0       0       0       0
  2553 ;;      Temps:          0       0       0       0       0       0       0
  2554 ;;      Totals:         0       5       0       0       0       0       0
  2555 ;;Total ram usage:        5 bytes
  2556 ;; Hardware stack levels used: 1
  2557 ;; Hardware stack levels required when called: 11
  2558 ;; This function calls:
  2559 ;;		Nothing
  2560 ;; This function is called by:
  2561 ;;		_mostra_segundos_e_centesimos_de_segundos
  2562 ;; This function uses a non-reentrant model
  2563 ;;
  2564                           
  2565                           	psect	text16
  2566   0027CA                     __ptext16:
  2567                           	callstack 0
  2568   0027CA                     ___lwmod:
  2569                           	callstack 17
  2570   0027CA  0100               	movlb	0	; () banked
  2571   0027CC  5182               	movf	___lwmod@divisor& (0+255),w,b
  2572   0027CE  1183               	iorwf	(___lwmod@divisor+1)& (0+255),w,b
  2573   0027D0  B4D8               	btfsc	status,2,c
  2574   0027D2  EFED  F013         	goto	u2711
  2575   0027D6  EFEF  F013         	goto	u2710
  2576   0027DA                     u2711:
  2577   0027DA  EF13  F014         	goto	l1037
  2578   0027DE                     u2710:
  2579   0027DE                     
  2580                           ; BSR set to: 0
  2581   0027DE  0E01               	movlw	1
  2582   0027E0  6F84               	movwf	___lwmod@counter& (0+255),b
  2583   0027E2  EFF7  F013         	goto	l3343
  2584   0027E6                     l3341:
  2585                           
  2586                           ; BSR set to: 0
  2587   0027E6  90D8               	bcf	status,0,c
  2588   0027E8  3782               	rlcf	___lwmod@divisor& (0+255),f,b
  2589   0027EA  3783               	rlcf	(___lwmod@divisor+1)& (0+255),f,b
  2590   0027EC  2B84               	incf	___lwmod@counter& (0+255),f,b
  2591   0027EE                     l3343:
  2592                           
  2593                           ; BSR set to: 0
  2594   0027EE  AF83               	btfss	(___lwmod@divisor+1)& (0+255),7,b
  2595   0027F0  EFFC  F013         	goto	u2721
  2596   0027F4  EFFE  F013         	goto	u2720
  2597   0027F8                     u2721:
  2598   0027F8  EFF3  F013         	goto	l3341
  2599   0027FC                     u2720:
  2600   0027FC                     l3345:
  2601                           
  2602                           ; BSR set to: 0
  2603   0027FC  5182               	movf	___lwmod@divisor& (0+255),w,b
  2604   0027FE  5D80               	subwf	___lwmod@dividend& (0+255),w,b
  2605   002800  5183               	movf	(___lwmod@divisor+1)& (0+255),w,b
  2606   002802  5981               	subwfb	(___lwmod@dividend+1)& (0+255),w,b
  2607   002804  A0D8               	btfss	status,0,c
  2608   002806  EF07  F014         	goto	u2731
  2609   00280A  EF09  F014         	goto	u2730
  2610   00280E                     u2731:
  2611   00280E  EF0D  F014         	goto	l3349
  2612   002812                     u2730:
  2613   002812                     
  2614                           ; BSR set to: 0
  2615   002812  5182               	movf	___lwmod@divisor& (0+255),w,b
  2616   002814  5F80               	subwf	___lwmod@dividend& (0+255),f,b
  2617   002816  5183               	movf	(___lwmod@divisor+1)& (0+255),w,b
  2618   002818  5B81               	subwfb	(___lwmod@dividend+1)& (0+255),f,b
  2619   00281A                     l3349:
  2620                           
  2621                           ; BSR set to: 0
  2622   00281A  90D8               	bcf	status,0,c
  2623   00281C  3383               	rrcf	(___lwmod@divisor+1)& (0+255),f,b
  2624   00281E  3382               	rrcf	___lwmod@divisor& (0+255),f,b
  2625   002820                     
  2626                           ; BSR set to: 0
  2627   002820  2F84               	decfsz	___lwmod@counter& (0+255),f,b
  2628   002822  EFFE  F013         	goto	l3345
  2629   002826                     l1037:
  2630                           
  2631                           ; BSR set to: 0
  2632   002826  C080  F080         	movff	___lwmod@dividend,?___lwmod
  2633   00282A  C081  F081         	movff	___lwmod@dividend+1,?___lwmod+1
  2634   00282E                     
  2635                           ; BSR set to: 0
  2636   00282E  0012               	return		;funcret
  2637   002830                     __end_of___lwmod:
  2638                           	callstack 0
  2639                           
  2640 ;; *************** function ___lwdiv *****************
  2641 ;; Defined at:
  2642 ;;		line 7 in file "C:\Program Files\Microchip\xc8\v2.40\pic\sources\c99\common\lwdiv.c"
  2643 ;; Parameters:    Size  Location     Type
  2644 ;;  dividend        2    0[BANK0 ] unsigned int 
  2645 ;;  divisor         2    2[BANK0 ] unsigned int 
  2646 ;; Auto vars:     Size  Location     Type
  2647 ;;  quotient        2    4[BANK0 ] unsigned int 
  2648 ;;  counter         1    6[BANK0 ] unsigned char 
  2649 ;; Return value:  Size  Location     Type
  2650 ;;                  2    0[BANK0 ] unsigned int 
  2651 ;; Registers used:
  2652 ;;		wreg, status,2, status,0
  2653 ;; Tracked objects:
  2654 ;;		On entry : 0/0
  2655 ;;		On exit  : 0/0
  2656 ;;		Unchanged: 0/0
  2657 ;; Data sizes:     COMRAM   BANK0   BANK1   BANK2   BANK3   BANK4   BANK5
  2658 ;;      Params:         0       4       0       0       0       0       0
  2659 ;;      Locals:         0       3       0       0       0       0       0
  2660 ;;      Temps:          0       0       0       0       0       0       0
  2661 ;;      Totals:         0       7       0       0       0       0       0
  2662 ;;Total ram usage:        7 bytes
  2663 ;; Hardware stack levels used: 1
  2664 ;; Hardware stack levels required when called: 11
  2665 ;; This function calls:
  2666 ;;		Nothing
  2667 ;; This function is called by:
  2668 ;;		_mostra_segundos_e_centesimos_de_segundos
  2669 ;; This function uses a non-reentrant model
  2670 ;;
  2671                           
  2672                           	psect	text17
  2673   0025AA                     __ptext17:
  2674                           	callstack 0
  2675   0025AA                     ___lwdiv:
  2676                           	callstack 17
  2677   0025AA  0E00               	movlw	0
  2678   0025AC  0100               	movlb	0	; () banked
  2679   0025AE  6F85               	movwf	(___lwdiv@quotient+1)& (0+255),b
  2680   0025B0  0E00               	movlw	0
  2681   0025B2  6F84               	movwf	___lwdiv@quotient& (0+255),b
  2682   0025B4                     
  2683                           ; BSR set to: 0
  2684   0025B4  5182               	movf	___lwdiv@divisor& (0+255),w,b
  2685   0025B6  1183               	iorwf	(___lwdiv@divisor+1)& (0+255),w,b
  2686   0025B8  B4D8               	btfsc	status,2,c
  2687   0025BA  EFE1  F012         	goto	u2681
  2688   0025BE  EFE3  F012         	goto	u2680
  2689   0025C2                     u2681:
  2690   0025C2  EF0B  F013         	goto	l1027
  2691   0025C6                     u2680:
  2692   0025C6                     
  2693                           ; BSR set to: 0
  2694   0025C6  0E01               	movlw	1
  2695   0025C8  6F86               	movwf	___lwdiv@counter& (0+255),b
  2696   0025CA  EFEB  F012         	goto	l3323
  2697   0025CE                     l3321:
  2698                           
  2699                           ; BSR set to: 0
  2700   0025CE  90D8               	bcf	status,0,c
  2701   0025D0  3782               	rlcf	___lwdiv@divisor& (0+255),f,b
  2702   0025D2  3783               	rlcf	(___lwdiv@divisor+1)& (0+255),f,b
  2703   0025D4  2B86               	incf	___lwdiv@counter& (0+255),f,b
  2704   0025D6                     l3323:
  2705                           
  2706                           ; BSR set to: 0
  2707   0025D6  AF83               	btfss	(___lwdiv@divisor+1)& (0+255),7,b
  2708   0025D8  EFF0  F012         	goto	u2691
  2709   0025DC  EFF2  F012         	goto	u2690
  2710   0025E0                     u2691:
  2711   0025E0  EFE7  F012         	goto	l3321
  2712   0025E4                     u2690:
  2713   0025E4                     l3325:
  2714                           
  2715                           ; BSR set to: 0
  2716   0025E4  90D8               	bcf	status,0,c
  2717   0025E6  3784               	rlcf	___lwdiv@quotient& (0+255),f,b
  2718   0025E8  3785               	rlcf	(___lwdiv@quotient+1)& (0+255),f,b
  2719   0025EA                     
  2720                           ; BSR set to: 0
  2721   0025EA  5182               	movf	___lwdiv@divisor& (0+255),w,b
  2722   0025EC  5D80               	subwf	___lwdiv@dividend& (0+255),w,b
  2723   0025EE  5183               	movf	(___lwdiv@divisor+1)& (0+255),w,b
  2724   0025F0  5981               	subwfb	(___lwdiv@dividend+1)& (0+255),w,b
  2725   0025F2  A0D8               	btfss	status,0,c
  2726   0025F4  EFFE  F012         	goto	u2701
  2727   0025F8  EF00  F013         	goto	u2700
  2728   0025FC                     u2701:
  2729   0025FC  EF05  F013         	goto	l3333
  2730   002600                     u2700:
  2731   002600                     
  2732                           ; BSR set to: 0
  2733   002600  5182               	movf	___lwdiv@divisor& (0+255),w,b
  2734   002602  5F80               	subwf	___lwdiv@dividend& (0+255),f,b
  2735   002604  5183               	movf	(___lwdiv@divisor+1)& (0+255),w,b
  2736   002606  5B81               	subwfb	(___lwdiv@dividend+1)& (0+255),f,b
  2737   002608                     
  2738                           ; BSR set to: 0
  2739   002608  8184               	bsf	___lwdiv@quotient& (0+255),0,b
  2740   00260A                     l3333:
  2741                           
  2742                           ; BSR set to: 0
  2743   00260A  90D8               	bcf	status,0,c
  2744   00260C  3383               	rrcf	(___lwdiv@divisor+1)& (0+255),f,b
  2745   00260E  3382               	rrcf	___lwdiv@divisor& (0+255),f,b
  2746   002610                     
  2747                           ; BSR set to: 0
  2748   002610  2F86               	decfsz	___lwdiv@counter& (0+255),f,b
  2749   002612  EFF2  F012         	goto	l3325
  2750   002616                     l1027:
  2751                           
  2752                           ; BSR set to: 0
  2753   002616  C084  F080         	movff	___lwdiv@quotient,?___lwdiv
  2754   00261A  C085  F081         	movff	___lwdiv@quotient+1,?___lwdiv+1
  2755   00261E                     
  2756                           ; BSR set to: 0
  2757   00261E  0012               	return		;funcret
  2758   002620                     __end_of___lwdiv:
  2759                           	callstack 0
  2760                           
  2761 ;; *************** function ___xxtofl *****************
  2762 ;; Defined at:
  2763 ;;		line 10 in file "C:\Program Files\Microchip\xc8\v2.40\pic\sources\c99\common\xxtofl.c"
  2764 ;; Parameters:    Size  Location     Type
  2765 ;;  sign            1    wreg     unsigned char 
  2766 ;;  val             4    0[BANK0 ] long 
  2767 ;; Auto vars:     Size  Location     Type
  2768 ;;  sign            1    8[BANK0 ] unsigned char 
  2769 ;;  arg             4   10[BANK0 ] unsigned long 
  2770 ;;  exp             1    9[BANK0 ] unsigned char 
  2771 ;; Return value:  Size  Location     Type
  2772 ;;                  4    0[BANK0 ] unsigned char 
  2773 ;; Registers used:
  2774 ;;		wreg, status,2, status,0
  2775 ;; Tracked objects:
  2776 ;;		On entry : 0/0
  2777 ;;		On exit  : 0/0
  2778 ;;		Unchanged: 0/0
  2779 ;; Data sizes:     COMRAM   BANK0   BANK1   BANK2   BANK3   BANK4   BANK5
  2780 ;;      Params:         0       4       0       0       0       0       0
  2781 ;;      Locals:         0       6       0       0       0       0       0
  2782 ;;      Temps:          0       4       0       0       0       0       0
  2783 ;;      Totals:         0      14       0       0       0       0       0
  2784 ;;Total ram usage:       14 bytes
  2785 ;; Hardware stack levels used: 1
  2786 ;; Hardware stack levels required when called: 11
  2787 ;; This function calls:
  2788 ;;		Nothing
  2789 ;; This function is called by:
  2790 ;;		_loop
  2791 ;; This function uses a non-reentrant model
  2792 ;;
  2793                           
  2794                           	psect	text18
  2795   001448                     __ptext18:
  2796                           	callstack 0
  2797   001448                     ___xxtofl:
  2798                           	callstack 18
  2799                           
  2800                           ; BSR set to: 0
  2801                           ;incstack = 0
  2802                           ;___xxtofl@sign stored from wreg
  2803   001448  0100               	movlb	0	; () banked
  2804   00144A  6F88               	movwf	___xxtofl@sign& (0+255),b
  2805   00144C  0100               	movlb	0	; () banked
  2806   00144E  5188               	movf	___xxtofl@sign& (0+255),w,b
  2807   001450  B4D8               	btfsc	status,2,c
  2808   001452  EF2D  F00A         	goto	u3441
  2809   001456  EF2F  F00A         	goto	u3440
  2810   00145A                     u3441:
  2811   00145A  EF51  F00A         	goto	l1191
  2812   00145E                     u3440:
  2813   00145E                     
  2814                           ; BSR set to: 0
  2815   00145E  BF83               	btfsc	(___xxtofl@val+3)& (0+255),7,b
  2816   001460  EF36  F00A         	goto	u3450
  2817   001464  EF34  F00A         	goto	u3451
  2818   001468                     u3451:
  2819   001468  EF51  F00A         	goto	l1191
  2820   00146C                     u3450:
  2821   00146C                     
  2822                           ; BSR set to: 0
  2823   00146C  C080  F084         	movff	___xxtofl@val,??___xxtofl
  2824   001470  C081  F085         	movff	___xxtofl@val+1,??___xxtofl+1
  2825   001474  C082  F086         	movff	___xxtofl@val+2,??___xxtofl+2
  2826   001478  C083  F087         	movff	___xxtofl@val+3,??___xxtofl+3
  2827   00147C  1F84               	comf	??___xxtofl& (0+255),f,b
  2828   00147E  1F85               	comf	(??___xxtofl+1)& (0+255),f,b
  2829   001480  1F86               	comf	(??___xxtofl+2)& (0+255),f,b
  2830   001482  1F87               	comf	(??___xxtofl+3)& (0+255),f,b
  2831   001484  2B84               	incf	??___xxtofl& (0+255),f,b
  2832   001486  0E00               	movlw	0
  2833   001488  2385               	addwfc	(??___xxtofl+1)& (0+255),f,b
  2834   00148A  2386               	addwfc	(??___xxtofl+2)& (0+255),f,b
  2835   00148C  2387               	addwfc	(??___xxtofl+3)& (0+255),f,b
  2836   00148E  C084  F08A         	movff	??___xxtofl,___xxtofl@arg
  2837   001492  C085  F08B         	movff	??___xxtofl+1,___xxtofl@arg+1
  2838   001496  C086  F08C         	movff	??___xxtofl+2,___xxtofl@arg+2
  2839   00149A  C087  F08D         	movff	??___xxtofl+3,___xxtofl@arg+3
  2840   00149E  EF59  F00A         	goto	l3921
  2841   0014A2                     l1191:
  2842                           
  2843                           ; BSR set to: 0
  2844   0014A2  C080  F08A         	movff	___xxtofl@val,___xxtofl@arg
  2845   0014A6  C081  F08B         	movff	___xxtofl@val+1,___xxtofl@arg+1
  2846   0014AA  C082  F08C         	movff	___xxtofl@val+2,___xxtofl@arg+2
  2847   0014AE  C083  F08D         	movff	___xxtofl@val+3,___xxtofl@arg+3
  2848   0014B2                     l3921:
  2849                           
  2850                           ; BSR set to: 0
  2851   0014B2  5180               	movf	___xxtofl@val& (0+255),w,b
  2852   0014B4  1181               	iorwf	(___xxtofl@val+1)& (0+255),w,b
  2853   0014B6  1182               	iorwf	(___xxtofl@val+2)& (0+255),w,b
  2854   0014B8  1183               	iorwf	(___xxtofl@val+3)& (0+255),w,b
  2855   0014BA  A4D8               	btfss	status,2,c
  2856   0014BC  EF62  F00A         	goto	u3461
  2857   0014C0  EF64  F00A         	goto	u3460
  2858   0014C4                     u3461:
  2859   0014C4  EF6E  F00A         	goto	l3927
  2860   0014C8                     u3460:
  2861   0014C8                     
  2862                           ; BSR set to: 0
  2863   0014C8  0E00               	movlw	0
  2864   0014CA  6F80               	movwf	?___xxtofl& (0+255),b
  2865   0014CC  0E00               	movlw	0
  2866   0014CE  6F81               	movwf	(?___xxtofl+1)& (0+255),b
  2867   0014D0  0E00               	movlw	0
  2868   0014D2  6F82               	movwf	(?___xxtofl+2)& (0+255),b
  2869   0014D4  0E00               	movlw	0
  2870   0014D6  6F83               	movwf	(?___xxtofl+3)& (0+255),b
  2871   0014D8  EFFF  F00A         	goto	l1194
  2872   0014DC                     l3927:
  2873                           
  2874                           ; BSR set to: 0
  2875   0014DC  0E96               	movlw	150
  2876   0014DE  6F89               	movwf	___xxtofl@exp& (0+255),b
  2877   0014E0  EF78  F00A         	goto	l3931
  2878   0014E4                     l3929:
  2879                           
  2880                           ; BSR set to: 0
  2881   0014E4  2B89               	incf	___xxtofl@exp& (0+255),f,b
  2882   0014E6  90D8               	bcf	status,0,c
  2883   0014E8  338D               	rrcf	(___xxtofl@arg+3)& (0+255),f,b
  2884   0014EA  338C               	rrcf	(___xxtofl@arg+2)& (0+255),f,b
  2885   0014EC  338B               	rrcf	(___xxtofl@arg+1)& (0+255),f,b
  2886   0014EE  338A               	rrcf	___xxtofl@arg& (0+255),f,b
  2887   0014F0                     l3931:
  2888                           
  2889                           ; BSR set to: 0
  2890   0014F0  0E00               	movlw	0
  2891   0014F2  158A               	andwf	___xxtofl@arg& (0+255),w,b
  2892   0014F4  6F84               	movwf	??___xxtofl& (0+255),b
  2893   0014F6  0E00               	movlw	0
  2894   0014F8  158B               	andwf	(___xxtofl@arg+1)& (0+255),w,b
  2895   0014FA  6F85               	movwf	(??___xxtofl+1)& (0+255),b
  2896   0014FC  0E00               	movlw	0
  2897   0014FE  158C               	andwf	(___xxtofl@arg+2)& (0+255),w,b
  2898   001500  6F86               	movwf	(??___xxtofl+2)& (0+255),b
  2899   001502  0EFE               	movlw	254
  2900   001504  158D               	andwf	(___xxtofl@arg+3)& (0+255),w,b
  2901   001506  6F87               	movwf	(??___xxtofl+3)& (0+255),b
  2902   001508  5184               	movf	??___xxtofl& (0+255),w,b
  2903   00150A  1185               	iorwf	(??___xxtofl+1)& (0+255),w,b
  2904   00150C  1186               	iorwf	(??___xxtofl+2)& (0+255),w,b
  2905   00150E  1187               	iorwf	(??___xxtofl+3)& (0+255),w,b
  2906   001510  A4D8               	btfss	status,2,c
  2907   001512  EF8D  F00A         	goto	u3471
  2908   001516  EF8F  F00A         	goto	u3470
  2909   00151A                     u3471:
  2910   00151A  EF72  F00A         	goto	l3929
  2911   00151E                     u3470:
  2912   00151E  EF9D  F00A         	goto	l1198
  2913   001522                     l3933:
  2914                           
  2915                           ; BSR set to: 0
  2916   001522  2B89               	incf	___xxtofl@exp& (0+255),f,b
  2917   001524                     
  2918                           ; BSR set to: 0
  2919   001524  0E01               	movlw	1
  2920   001526  278A               	addwf	___xxtofl@arg& (0+255),f,b
  2921   001528  0E00               	movlw	0
  2922   00152A  238B               	addwfc	(___xxtofl@arg+1)& (0+255),f,b
  2923   00152C  238C               	addwfc	(___xxtofl@arg+2)& (0+255),f,b
  2924   00152E  238D               	addwfc	(___xxtofl@arg+3)& (0+255),f,b
  2925   001530                     
  2926                           ; BSR set to: 0
  2927   001530  90D8               	bcf	status,0,c
  2928   001532  338D               	rrcf	(___xxtofl@arg+3)& (0+255),f,b
  2929   001534  338C               	rrcf	(___xxtofl@arg+2)& (0+255),f,b
  2930   001536  338B               	rrcf	(___xxtofl@arg+1)& (0+255),f,b
  2931   001538  338A               	rrcf	___xxtofl@arg& (0+255),f,b
  2932   00153A                     l1198:
  2933                           
  2934                           ; BSR set to: 0
  2935   00153A  0E00               	movlw	0
  2936   00153C  158A               	andwf	___xxtofl@arg& (0+255),w,b
  2937   00153E  6F84               	movwf	??___xxtofl& (0+255),b
  2938   001540  0E00               	movlw	0
  2939   001542  158B               	andwf	(___xxtofl@arg+1)& (0+255),w,b
  2940   001544  6F85               	movwf	(??___xxtofl+1)& (0+255),b
  2941   001546  0E00               	movlw	0
  2942   001548  158C               	andwf	(___xxtofl@arg+2)& (0+255),w,b
  2943   00154A  6F86               	movwf	(??___xxtofl+2)& (0+255),b
  2944   00154C  0EFF               	movlw	255
  2945   00154E  158D               	andwf	(___xxtofl@arg+3)& (0+255),w,b
  2946   001550  6F87               	movwf	(??___xxtofl+3)& (0+255),b
  2947   001552  5184               	movf	??___xxtofl& (0+255),w,b
  2948   001554  1185               	iorwf	(??___xxtofl+1)& (0+255),w,b
  2949   001556  1186               	iorwf	(??___xxtofl+2)& (0+255),w,b
  2950   001558  1187               	iorwf	(??___xxtofl+3)& (0+255),w,b
  2951   00155A  A4D8               	btfss	status,2,c
  2952   00155C  EFB2  F00A         	goto	u3481
  2953   001560  EFB4  F00A         	goto	u3480
  2954   001564                     u3481:
  2955   001564  EF91  F00A         	goto	l3933
  2956   001568                     u3480:
  2957   001568  EFBC  F00A         	goto	l3941
  2958   00156C                     l3939:
  2959                           
  2960                           ; BSR set to: 0
  2961   00156C  0789               	decf	___xxtofl@exp& (0+255),f,b
  2962   00156E  90D8               	bcf	status,0,c
  2963   001570  378A               	rlcf	___xxtofl@arg& (0+255),f,b
  2964   001572  378B               	rlcf	(___xxtofl@arg+1)& (0+255),f,b
  2965   001574  378C               	rlcf	(___xxtofl@arg+2)& (0+255),f,b
  2966   001576  378D               	rlcf	(___xxtofl@arg+3)& (0+255),f,b
  2967   001578                     l3941:
  2968                           
  2969                           ; BSR set to: 0
  2970   001578  BF8C               	btfsc	(___xxtofl@arg+2)& (0+255),7,b
  2971   00157A  EFC1  F00A         	goto	u3491
  2972   00157E  EFC3  F00A         	goto	u3490
  2973   001582                     u3491:
  2974   001582  EFCB  F00A         	goto	l1205
  2975   001586                     u3490:
  2976   001586                     
  2977                           ; BSR set to: 0
  2978   001586  0E02               	movlw	2
  2979   001588  6189               	cpfslt	___xxtofl@exp& (0+255),b
  2980   00158A  EFC9  F00A         	goto	u3501
  2981   00158E  EFCB  F00A         	goto	u3500
  2982   001592                     u3501:
  2983   001592  EFB6  F00A         	goto	l3939
  2984   001596                     u3500:
  2985   001596                     l1205:
  2986                           
  2987                           ; BSR set to: 0
  2988   001596  B189               	btfsc	___xxtofl@exp& (0+255),0,b
  2989   001598  EFD0  F00A         	goto	u3511
  2990   00159C  EFD2  F00A         	goto	u3510
  2991   0015A0                     u3511:
  2992   0015A0  EFD3  F00A         	goto	l3947
  2993   0015A4                     u3510:
  2994   0015A4                     
  2995                           ; BSR set to: 0
  2996   0015A4  9F8C               	bcf	(___xxtofl@arg+2)& (0+255),7,b
  2997   0015A6                     l3947:
  2998                           
  2999                           ; BSR set to: 0
  3000   0015A6  90D8               	bcf	status,0,c
  3001   0015A8  3389               	rrcf	___xxtofl@exp& (0+255),f,b
  3002   0015AA                     
  3003                           ; BSR set to: 0
  3004   0015AA  C089  F084         	movff	___xxtofl@exp,??___xxtofl
  3005   0015AE  6B85               	clrf	(??___xxtofl+1)& (0+255),b
  3006   0015B0  6B86               	clrf	(??___xxtofl+2)& (0+255),b
  3007   0015B2  6B87               	clrf	(??___xxtofl+3)& (0+255),b
  3008   0015B4  C084  F087         	movff	??___xxtofl,??___xxtofl+3
  3009   0015B8  6B86               	clrf	(??___xxtofl+2)& (0+255),b
  3010   0015BA  6B85               	clrf	(??___xxtofl+1)& (0+255),b
  3011   0015BC  6B84               	clrf	??___xxtofl& (0+255),b
  3012   0015BE  5184               	movf	??___xxtofl& (0+255),w,b
  3013   0015C0  138A               	iorwf	___xxtofl@arg& (0+255),f,b
  3014   0015C2  5185               	movf	(??___xxtofl+1)& (0+255),w,b
  3015   0015C4  138B               	iorwf	(___xxtofl@arg+1)& (0+255),f,b
  3016   0015C6  5186               	movf	(??___xxtofl+2)& (0+255),w,b
  3017   0015C8  138C               	iorwf	(___xxtofl@arg+2)& (0+255),f,b
  3018   0015CA  5187               	movf	(??___xxtofl+3)& (0+255),w,b
  3019   0015CC  138D               	iorwf	(___xxtofl@arg+3)& (0+255),f,b
  3020   0015CE                     
  3021                           ; BSR set to: 0
  3022   0015CE  5188               	movf	___xxtofl@sign& (0+255),w,b
  3023   0015D0  B4D8               	btfsc	status,2,c
  3024   0015D2  EFED  F00A         	goto	u3521
  3025   0015D6  EFEF  F00A         	goto	u3520
  3026   0015DA                     u3521:
  3027   0015DA  EFF7  F00A         	goto	l3957
  3028   0015DE                     u3520:
  3029   0015DE                     
  3030                           ; BSR set to: 0
  3031   0015DE  BF83               	btfsc	(___xxtofl@val+3)& (0+255),7,b
  3032   0015E0  EFF6  F00A         	goto	u3530
  3033   0015E4  EFF4  F00A         	goto	u3531
  3034   0015E8                     u3531:
  3035   0015E8  EFF7  F00A         	goto	l3957
  3036   0015EC                     u3530:
  3037   0015EC                     
  3038                           ; BSR set to: 0
  3039   0015EC  8F8D               	bsf	(___xxtofl@arg+3)& (0+255),7,b
  3040   0015EE                     l3957:
  3041                           
  3042                           ; BSR set to: 0
  3043   0015EE  C08A  F080         	movff	___xxtofl@arg,?___xxtofl
  3044   0015F2  C08B  F081         	movff	___xxtofl@arg+1,?___xxtofl+1
  3045   0015F6  C08C  F082         	movff	___xxtofl@arg+2,?___xxtofl+2
  3046   0015FA  C08D  F083         	movff	___xxtofl@arg+3,?___xxtofl+3
  3047   0015FE                     l1194:
  3048                           
  3049                           ; BSR set to: 0
  3050   0015FE  0012               	return		;funcret
  3051   001600                     __end_of___xxtofl:
  3052                           	callstack 0
  3053                           
  3054 ;; *************** function ___fltol *****************
  3055 ;; Defined at:
  3056 ;;		line 43 in file "C:\Program Files\Microchip\xc8\v2.40\pic\sources\c99\common\fltol.c"
  3057 ;; Parameters:    Size  Location     Type
  3058 ;;  f1              4   64[BANK0 ] unsigned char 
  3059 ;; Auto vars:     Size  Location     Type
  3060 ;;  exp1            1   73[BANK0 ] unsigned char 
  3061 ;;  sign1           1   72[BANK0 ] unsigned char 
  3062 ;; Return value:  Size  Location     Type
  3063 ;;                  4   64[BANK0 ] long 
  3064 ;; Registers used:
  3065 ;;		wreg, status,2, status,0
  3066 ;; Tracked objects:
  3067 ;;		On entry : 0/0
  3068 ;;		On exit  : 0/0
  3069 ;;		Unchanged: 0/0
  3070 ;; Data sizes:     COMRAM   BANK0   BANK1   BANK2   BANK3   BANK4   BANK5
  3071 ;;      Params:         0       4       0       0       0       0       0
  3072 ;;      Locals:         0       2       0       0       0       0       0
  3073 ;;      Temps:          0       4       0       0       0       0       0
  3074 ;;      Totals:         0      10       0       0       0       0       0
  3075 ;;Total ram usage:       10 bytes
  3076 ;; Hardware stack levels used: 1
  3077 ;; Hardware stack levels required when called: 11
  3078 ;; This function calls:
  3079 ;;		Nothing
  3080 ;; This function is called by:
  3081 ;;		_loop
  3082 ;; This function uses a non-reentrant model
  3083 ;;
  3084                           
  3085                           	psect	text19
  3086   001CB2                     __ptext19:
  3087                           	callstack 0
  3088   001CB2                     ___fltol:
  3089                           	callstack 18
  3090   001CB2  0100               	movlb	0	; () banked
  3091   001CB4  35C2               	rlcf	(___fltol@f1+2)& (0+255),w,b
  3092   001CB6  35C3               	rlcf	(___fltol@f1+3)& (0+255),w,b
  3093   001CB8  6FC9               	movwf	___fltol@exp1& (0+255),b
  3094   001CBA  51C9               	movf	___fltol@exp1& (0+255),w,b
  3095   001CBC  A4D8               	btfss	status,2,c
  3096   001CBE  EF63  F00E         	goto	u3371
  3097   001CC2  EF65  F00E         	goto	u3370
  3098   001CC6                     u3371:
  3099   001CC6  EF6F  F00E         	goto	l3877
  3100   001CCA                     u3370:
  3101   001CCA                     l3873:
  3102                           
  3103                           ; BSR set to: 0
  3104   001CCA  0E00               	movlw	0
  3105   001CCC  6FC0               	movwf	?___fltol& (0+255),b
  3106   001CCE  0E00               	movlw	0
  3107   001CD0  6FC1               	movwf	(?___fltol+1)& (0+255),b
  3108   001CD2  0E00               	movlw	0
  3109   001CD4  6FC2               	movwf	(?___fltol+2)& (0+255),b
  3110   001CD6  0E00               	movlw	0
  3111   001CD8  6FC3               	movwf	(?___fltol+3)& (0+255),b
  3112   001CDA  EFDC  F00E         	goto	l833
  3113   001CDE                     l3877:
  3114                           
  3115                           ; BSR set to: 0
  3116   001CDE  C0C0  F0C4         	movff	___fltol@f1,??___fltol
  3117   001CE2  C0C1  F0C5         	movff	___fltol@f1+1,??___fltol+1
  3118   001CE6  C0C2  F0C6         	movff	___fltol@f1+2,??___fltol+2
  3119   001CEA  C0C3  F0C7         	movff	___fltol@f1+3,??___fltol+3
  3120   001CEE  0E20               	movlw	32
  3121   001CF0  EF7F  F00E         	goto	u3380
  3122   001CF4                     u3385:
  3123   001CF4  90D8               	bcf	status,0,c
  3124   001CF6  33C7               	rrcf	(??___fltol+3)& (0+255),f,b
  3125   001CF8  33C6               	rrcf	(??___fltol+2)& (0+255),f,b
  3126   001CFA  33C5               	rrcf	(??___fltol+1)& (0+255),f,b
  3127   001CFC  33C4               	rrcf	??___fltol& (0+255),f,b
  3128   001CFE                     u3380:
  3129   001CFE  2EE8               	decfsz	wreg,f,c
  3130   001D00  EF7A  F00E         	goto	u3385
  3131   001D04  51C4               	movf	??___fltol& (0+255),w,b
  3132   001D06  6FC8               	movwf	___fltol@sign1& (0+255),b
  3133   001D08                     
  3134                           ; BSR set to: 0
  3135   001D08  8FC2               	bsf	(___fltol@f1+2)& (0+255),7,b
  3136   001D0A                     
  3137                           ; BSR set to: 0
  3138   001D0A  0EFF               	movlw	255
  3139   001D0C  17C0               	andwf	___fltol@f1& (0+255),f,b
  3140   001D0E  0EFF               	movlw	255
  3141   001D10  17C1               	andwf	(___fltol@f1+1)& (0+255),f,b
  3142   001D12  0EFF               	movlw	255
  3143   001D14  17C2               	andwf	(___fltol@f1+2)& (0+255),f,b
  3144   001D16  0E00               	movlw	0
  3145   001D18  17C3               	andwf	(___fltol@f1+3)& (0+255),f,b
  3146   001D1A                     
  3147                           ; BSR set to: 0
  3148   001D1A  0E96               	movlw	150
  3149   001D1C  5FC9               	subwf	___fltol@exp1& (0+255),f,b
  3150   001D1E                     
  3151                           ; BSR set to: 0
  3152   001D1E  BFC9               	btfsc	___fltol@exp1& (0+255),7,b
  3153   001D20  EF96  F00E         	goto	u3390
  3154   001D24  EF94  F00E         	goto	u3391
  3155   001D28                     u3391:
  3156   001D28  EFAC  F00E         	goto	l3897
  3157   001D2C                     u3390:
  3158   001D2C                     
  3159                           ; BSR set to: 0
  3160   001D2C  51C9               	movf	___fltol@exp1& (0+255),w,b
  3161   001D2E  0A80               	xorlw	128
  3162   001D30  0F97               	addlw	151
  3163   001D32  B0D8               	btfsc	status,0,c
  3164   001D34  EF9E  F00E         	goto	u3401
  3165   001D38  EFA0  F00E         	goto	u3400
  3166   001D3C                     u3401:
  3167   001D3C  EFA2  F00E         	goto	l3893
  3168   001D40                     u3400:
  3169   001D40  EF65  F00E         	goto	l3873
  3170   001D44                     l3893:
  3171                           
  3172                           ; BSR set to: 0
  3173   001D44  90D8               	bcf	status,0,c
  3174   001D46  33C3               	rrcf	(___fltol@f1+3)& (0+255),f,b
  3175   001D48  33C2               	rrcf	(___fltol@f1+2)& (0+255),f,b
  3176   001D4A  33C1               	rrcf	(___fltol@f1+1)& (0+255),f,b
  3177   001D4C  33C0               	rrcf	___fltol@f1& (0+255),f,b
  3178   001D4E                     
  3179                           ; BSR set to: 0
  3180   001D4E  3FC9               	incfsz	___fltol@exp1& (0+255),f,b
  3181   001D50  EFA2  F00E         	goto	l3893
  3182   001D54  EFC4  F00E         	goto	l3907
  3183   001D58                     l3897:
  3184                           
  3185                           ; BSR set to: 0
  3186   001D58  0E1F               	movlw	31
  3187   001D5A  65C9               	cpfsgt	___fltol@exp1& (0+255),b
  3188   001D5C  EFB2  F00E         	goto	u3411
  3189   001D60  EFB4  F00E         	goto	u3410
  3190   001D64                     u3411:
  3191   001D64  EFBC  F00E         	goto	l3905
  3192   001D68                     u3410:
  3193   001D68  EF65  F00E         	goto	l3873
  3194   001D6C                     l3903:
  3195                           
  3196                           ; BSR set to: 0
  3197   001D6C  90D8               	bcf	status,0,c
  3198   001D6E  37C0               	rlcf	___fltol@f1& (0+255),f,b
  3199   001D70  37C1               	rlcf	(___fltol@f1+1)& (0+255),f,b
  3200   001D72  37C2               	rlcf	(___fltol@f1+2)& (0+255),f,b
  3201   001D74  37C3               	rlcf	(___fltol@f1+3)& (0+255),f,b
  3202   001D76  07C9               	decf	___fltol@exp1& (0+255),f,b
  3203   001D78                     l3905:
  3204                           
  3205                           ; BSR set to: 0
  3206   001D78  51C9               	movf	___fltol@exp1& (0+255),w,b
  3207   001D7A  A4D8               	btfss	status,2,c
  3208   001D7C  EFC2  F00E         	goto	u3421
  3209   001D80  EFC4  F00E         	goto	u3420
  3210   001D84                     u3421:
  3211   001D84  EFB6  F00E         	goto	l3903
  3212   001D88                     u3420:
  3213   001D88                     l3907:
  3214                           
  3215                           ; BSR set to: 0
  3216   001D88  51C8               	movf	___fltol@sign1& (0+255),w,b
  3217   001D8A  B4D8               	btfsc	status,2,c
  3218   001D8C  EFCA  F00E         	goto	u3431
  3219   001D90  EFCC  F00E         	goto	u3430
  3220   001D94                     u3431:
  3221   001D94  EFD4  F00E         	goto	l3911
  3222   001D98                     u3430:
  3223   001D98                     
  3224                           ; BSR set to: 0
  3225   001D98  1FC3               	comf	(___fltol@f1+3)& (0+255),f,b
  3226   001D9A  1FC2               	comf	(___fltol@f1+2)& (0+255),f,b
  3227   001D9C  1FC1               	comf	(___fltol@f1+1)& (0+255),f,b
  3228   001D9E  6DC0               	negf	___fltol@f1& (0+255),b
  3229   001DA0  0E00               	movlw	0
  3230   001DA2  23C1               	addwfc	(___fltol@f1+1)& (0+255),f,b
  3231   001DA4  23C2               	addwfc	(___fltol@f1+2)& (0+255),f,b
  3232   001DA6  23C3               	addwfc	(___fltol@f1+3)& (0+255),f,b
  3233   001DA8                     l3911:
  3234                           
  3235                           ; BSR set to: 0
  3236   001DA8  C0C0  F0C0         	movff	___fltol@f1,?___fltol
  3237   001DAC  C0C1  F0C1         	movff	___fltol@f1+1,?___fltol+1
  3238   001DB0  C0C2  F0C2         	movff	___fltol@f1+2,?___fltol+2
  3239   001DB4  C0C3  F0C3         	movff	___fltol@f1+3,?___fltol+3
  3240   001DB8                     l833:
  3241                           
  3242                           ; BSR set to: 0
  3243   001DB8  0012               	return		;funcret
  3244   001DBA                     __end_of___fltol:
  3245                           	callstack 0
  3246                           
  3247 ;; *************** function ___flmul *****************
  3248 ;; Defined at:
  3249 ;;		line 8 in file "C:\Program Files\Microchip\xc8\v2.40\pic\sources\c99\common\sprcmul.c"
  3250 ;; Parameters:    Size  Location     Type
  3251 ;;  b               4   14[BANK0 ] long 
  3252 ;;  a               4   18[BANK0 ] long 
  3253 ;; Auto vars:     Size  Location     Type
  3254 ;;  prod            4   33[BANK0 ] struct .
  3255 ;;  grs             4   27[BANK0 ] unsigned long 
  3256 ;;  temp            2   37[BANK0 ] struct .
  3257 ;;  bexp            1   32[BANK0 ] unsigned char 
  3258 ;;  aexp            1   31[BANK0 ] unsigned char 
  3259 ;;  sign            1   26[BANK0 ] unsigned char 
  3260 ;; Return value:  Size  Location     Type
  3261 ;;                  4   14[BANK0 ] unsigned char 
  3262 ;; Registers used:
  3263 ;;		wreg, status,2, status,0, prodl, prodh
  3264 ;; Tracked objects:
  3265 ;;		On entry : 0/0
  3266 ;;		On exit  : 0/0
  3267 ;;		Unchanged: 0/0
  3268 ;; Data sizes:     COMRAM   BANK0   BANK1   BANK2   BANK3   BANK4   BANK5
  3269 ;;      Params:         0       8       0       0       0       0       0
  3270 ;;      Locals:         0      13       0       0       0       0       0
  3271 ;;      Temps:          0       4       0       0       0       0       0
  3272 ;;      Totals:         0      25       0       0       0       0       0
  3273 ;;Total ram usage:       25 bytes
  3274 ;; Hardware stack levels used: 1
  3275 ;; Hardware stack levels required when called: 11
  3276 ;; This function calls:
  3277 ;;		Nothing
  3278 ;; This function is called by:
  3279 ;;		_loop
  3280 ;; This function uses a non-reentrant model
  3281 ;;
  3282                           
  3283                           	psect	text20
  3284   000624                     __ptext20:
  3285                           	callstack 0
  3286   000624                     ___flmul:
  3287                           	callstack 18
  3288   000624  0100               	movlb	0	; () banked
  3289   000626  5191               	movf	(___flmul@b+3)& (0+255),w,b
  3290   000628  0B80               	andlw	128
  3291   00062A  6F9A               	movwf	___flmul@sign& (0+255),b
  3292   00062C  5191               	movf	(___flmul@b+3)& (0+255),w,b
  3293   00062E  2591               	addwf	(___flmul@b+3)& (0+255),w,b
  3294   000630  6FA0               	movwf	___flmul@bexp& (0+255),b
  3295   000632                     
  3296                           ; BSR set to: 0
  3297   000632  AF90               	btfss	(___flmul@b+2)& (0+255),7,b
  3298   000634  EF1E  F003         	goto	u3181
  3299   000638  EF20  F003         	goto	u3180
  3300   00063C                     u3181:
  3301   00063C  EF21  F003         	goto	l3747
  3302   000640                     u3180:
  3303   000640                     
  3304                           ; BSR set to: 0
  3305   000640  81A0               	bsf	___flmul@bexp& (0+255),0,b
  3306   000642                     l3747:
  3307                           
  3308                           ; BSR set to: 0
  3309   000642  51A0               	movf	___flmul@bexp& (0+255),w,b
  3310   000644  B4D8               	btfsc	status,2,c
  3311   000646  EF27  F003         	goto	u3191
  3312   00064A  EF29  F003         	goto	u3190
  3313   00064E                     u3191:
  3314   00064E  EF3C  F003         	goto	l3755
  3315   000652                     u3190:
  3316   000652                     
  3317                           ; BSR set to: 0
  3318   000652  29A0               	incf	___flmul@bexp& (0+255),w,b
  3319   000654  A4D8               	btfss	status,2,c
  3320   000656  EF2F  F003         	goto	u3201
  3321   00065A  EF31  F003         	goto	u3200
  3322   00065E                     u3201:
  3323   00065E  EF39  F003         	goto	l3753
  3324   000662                     u3200:
  3325   000662                     
  3326                           ; BSR set to: 0
  3327   000662  0E00               	movlw	0
  3328   000664  6F8E               	movwf	___flmul@b& (0+255),b
  3329   000666  0E00               	movlw	0
  3330   000668  6F8F               	movwf	(___flmul@b+1)& (0+255),b
  3331   00066A  0E00               	movlw	0
  3332   00066C  6F90               	movwf	(___flmul@b+2)& (0+255),b
  3333   00066E  0E00               	movlw	0
  3334   000670  6F91               	movwf	(___flmul@b+3)& (0+255),b
  3335   000672                     l3753:
  3336                           
  3337                           ; BSR set to: 0
  3338   000672  8F90               	bsf	(___flmul@b+2)& (0+255),7,b
  3339   000674  EF44  F003         	goto	l3757
  3340   000678                     l3755:
  3341                           
  3342                           ; BSR set to: 0
  3343   000678  0E00               	movlw	0
  3344   00067A  6F8E               	movwf	___flmul@b& (0+255),b
  3345   00067C  0E00               	movlw	0
  3346   00067E  6F8F               	movwf	(___flmul@b+1)& (0+255),b
  3347   000680  0E00               	movlw	0
  3348   000682  6F90               	movwf	(___flmul@b+2)& (0+255),b
  3349   000684  0E00               	movlw	0
  3350   000686  6F91               	movwf	(___flmul@b+3)& (0+255),b
  3351   000688                     l3757:
  3352                           
  3353                           ; BSR set to: 0
  3354   000688  5195               	movf	(___flmul@a+3)& (0+255),w,b
  3355   00068A  0B80               	andlw	128
  3356   00068C  1B9A               	xorwf	___flmul@sign& (0+255),f,b
  3357   00068E                     
  3358                           ; BSR set to: 0
  3359   00068E  5195               	movf	(___flmul@a+3)& (0+255),w,b
  3360   000690  2595               	addwf	(___flmul@a+3)& (0+255),w,b
  3361   000692  6F9F               	movwf	___flmul@aexp& (0+255),b
  3362   000694                     
  3363                           ; BSR set to: 0
  3364   000694  AF94               	btfss	(___flmul@a+2)& (0+255),7,b
  3365   000696  EF4F  F003         	goto	u3211
  3366   00069A  EF51  F003         	goto	u3210
  3367   00069E                     u3211:
  3368   00069E  EF52  F003         	goto	l3765
  3369   0006A2                     u3210:
  3370   0006A2                     
  3371                           ; BSR set to: 0
  3372   0006A2  819F               	bsf	___flmul@aexp& (0+255),0,b
  3373   0006A4                     l3765:
  3374                           
  3375                           ; BSR set to: 0
  3376   0006A4  519F               	movf	___flmul@aexp& (0+255),w,b
  3377   0006A6  B4D8               	btfsc	status,2,c
  3378   0006A8  EF58  F003         	goto	u3221
  3379   0006AC  EF5A  F003         	goto	u3220
  3380   0006B0                     u3221:
  3381   0006B0  EF6D  F003         	goto	l3773
  3382   0006B4                     u3220:
  3383   0006B4                     
  3384                           ; BSR set to: 0
  3385   0006B4  299F               	incf	___flmul@aexp& (0+255),w,b
  3386   0006B6  A4D8               	btfss	status,2,c
  3387   0006B8  EF60  F003         	goto	u3231
  3388   0006BC  EF62  F003         	goto	u3230
  3389   0006C0                     u3231:
  3390   0006C0  EF6A  F003         	goto	l3771
  3391   0006C4                     u3230:
  3392   0006C4                     
  3393                           ; BSR set to: 0
  3394   0006C4  0E00               	movlw	0
  3395   0006C6  6F92               	movwf	___flmul@a& (0+255),b
  3396   0006C8  0E00               	movlw	0
  3397   0006CA  6F93               	movwf	(___flmul@a+1)& (0+255),b
  3398   0006CC  0E00               	movlw	0
  3399   0006CE  6F94               	movwf	(___flmul@a+2)& (0+255),b
  3400   0006D0  0E00               	movlw	0
  3401   0006D2  6F95               	movwf	(___flmul@a+3)& (0+255),b
  3402   0006D4                     l3771:
  3403                           
  3404                           ; BSR set to: 0
  3405   0006D4  8F94               	bsf	(___flmul@a+2)& (0+255),7,b
  3406   0006D6  EF75  F003         	goto	l1150
  3407   0006DA                     l3773:
  3408                           
  3409                           ; BSR set to: 0
  3410   0006DA  0E00               	movlw	0
  3411   0006DC  6F92               	movwf	___flmul@a& (0+255),b
  3412   0006DE  0E00               	movlw	0
  3413   0006E0  6F93               	movwf	(___flmul@a+1)& (0+255),b
  3414   0006E2  0E00               	movlw	0
  3415   0006E4  6F94               	movwf	(___flmul@a+2)& (0+255),b
  3416   0006E6  0E00               	movlw	0
  3417   0006E8  6F95               	movwf	(___flmul@a+3)& (0+255),b
  3418   0006EA                     l1150:
  3419                           
  3420                           ; BSR set to: 0
  3421   0006EA  519F               	movf	___flmul@aexp& (0+255),w,b
  3422   0006EC  B4D8               	btfsc	status,2,c
  3423   0006EE  EF7B  F003         	goto	u3241
  3424   0006F2  EF7D  F003         	goto	u3240
  3425   0006F6                     u3241:
  3426   0006F6  EF85  F003         	goto	l3777
  3427   0006FA                     u3240:
  3428   0006FA                     
  3429                           ; BSR set to: 0
  3430   0006FA  51A0               	movf	___flmul@bexp& (0+255),w,b
  3431   0006FC  A4D8               	btfss	status,2,c
  3432   0006FE  EF83  F003         	goto	u3251
  3433   000702  EF85  F003         	goto	u3250
  3434   000706                     u3251:
  3435   000706  EF8F  F003         	goto	l3781
  3436   00070A                     u3250:
  3437   00070A                     l3777:
  3438                           
  3439                           ; BSR set to: 0
  3440   00070A  0E00               	movlw	0
  3441   00070C  6F8E               	movwf	?___flmul& (0+255),b
  3442   00070E  0E00               	movlw	0
  3443   000710  6F8F               	movwf	(?___flmul+1)& (0+255),b
  3444   000712  0E00               	movlw	0
  3445   000714  6F90               	movwf	(?___flmul+2)& (0+255),b
  3446   000716  0E00               	movlw	0
  3447   000718  6F91               	movwf	(?___flmul+3)& (0+255),b
  3448   00071A  EF27  F005         	goto	l1154
  3449   00071E                     l3781:
  3450                           
  3451                           ; BSR set to: 0
  3452   00071E  5194               	movf	(___flmul@a+2)& (0+255),w,b
  3453   000720  038E               	mulwf	___flmul@b& (0+255),b
  3454   000722  CFF3 F0A5          	movff	prodl,___flmul@temp
  3455   000726  CFF4 F0A6          	movff	prodh,___flmul@temp+1
  3456   00072A                     
  3457                           ; BSR set to: 0
  3458   00072A  51A5               	movf	___flmul@temp& (0+255),w,b
  3459   00072C  6F9B               	movwf	___flmul@grs& (0+255),b
  3460   00072E  6B9C               	clrf	(___flmul@grs+1)& (0+255),b
  3461   000730  6B9D               	clrf	(___flmul@grs+2)& (0+255),b
  3462   000732  6B9E               	clrf	(___flmul@grs+3)& (0+255),b
  3463   000734                     
  3464                           ; BSR set to: 0
  3465   000734  51A6               	movf	(___flmul@temp+1)& (0+255),w,b
  3466   000736  6FA1               	movwf	___flmul@prod& (0+255),b
  3467   000738  6BA2               	clrf	(___flmul@prod+1)& (0+255),b
  3468   00073A  6BA3               	clrf	(___flmul@prod+2)& (0+255),b
  3469   00073C  6BA4               	clrf	(___flmul@prod+3)& (0+255),b
  3470   00073E  5193               	movf	(___flmul@a+1)& (0+255),w,b
  3471   000740  038F               	mulwf	(___flmul@b+1)& (0+255),b
  3472   000742  CFF3 F0A5          	movff	prodl,___flmul@temp
  3473   000746  CFF4 F0A6          	movff	prodh,___flmul@temp+1
  3474   00074A                     
  3475                           ; BSR set to: 0
  3476   00074A  51A5               	movf	___flmul@temp& (0+255),w,b
  3477   00074C  279B               	addwf	___flmul@grs& (0+255),f,b
  3478   00074E  0E00               	movlw	0
  3479   000750  239C               	addwfc	(___flmul@grs+1)& (0+255),f,b
  3480   000752  239D               	addwfc	(___flmul@grs+2)& (0+255),f,b
  3481   000754  239E               	addwfc	(___flmul@grs+3)& (0+255),f,b
  3482   000756                     
  3483                           ; BSR set to: 0
  3484   000756  51A6               	movf	(___flmul@temp+1)& (0+255),w,b
  3485   000758  27A1               	addwf	___flmul@prod& (0+255),f,b
  3486   00075A  0E00               	movlw	0
  3487   00075C  23A2               	addwfc	(___flmul@prod+1)& (0+255),f,b
  3488   00075E  23A3               	addwfc	(___flmul@prod+2)& (0+255),f,b
  3489   000760  23A4               	addwfc	(___flmul@prod+3)& (0+255),f,b
  3490   000762  5192               	movf	___flmul@a& (0+255),w,b
  3491   000764  0390               	mulwf	(___flmul@b+2)& (0+255),b
  3492   000766  CFF3 F0A5          	movff	prodl,___flmul@temp
  3493   00076A  CFF4 F0A6          	movff	prodh,___flmul@temp+1
  3494   00076E                     
  3495                           ; BSR set to: 0
  3496   00076E  51A5               	movf	___flmul@temp& (0+255),w,b
  3497   000770  279B               	addwf	___flmul@grs& (0+255),f,b
  3498   000772  0E00               	movlw	0
  3499   000774  239C               	addwfc	(___flmul@grs+1)& (0+255),f,b
  3500   000776  239D               	addwfc	(___flmul@grs+2)& (0+255),f,b
  3501   000778  239E               	addwfc	(___flmul@grs+3)& (0+255),f,b
  3502   00077A                     
  3503                           ; BSR set to: 0
  3504   00077A  51A6               	movf	(___flmul@temp+1)& (0+255),w,b
  3505   00077C  27A1               	addwf	___flmul@prod& (0+255),f,b
  3506   00077E  0E00               	movlw	0
  3507   000780  23A2               	addwfc	(___flmul@prod+1)& (0+255),f,b
  3508   000782  23A3               	addwfc	(___flmul@prod+2)& (0+255),f,b
  3509   000784  23A4               	addwfc	(___flmul@prod+3)& (0+255),f,b
  3510   000786                     
  3511                           ; BSR set to: 0
  3512   000786  C09D  F09E         	movff	___flmul@grs+2,___flmul@grs+3
  3513   00078A  C09C  F09D         	movff	___flmul@grs+1,___flmul@grs+2
  3514   00078E  C09B  F09C         	movff	___flmul@grs,___flmul@grs+1
  3515   000792  6B9B               	clrf	___flmul@grs& (0+255),b
  3516   000794                     
  3517                           ; BSR set to: 0
  3518   000794  5192               	movf	___flmul@a& (0+255),w,b
  3519   000796  038F               	mulwf	(___flmul@b+1)& (0+255),b
  3520   000798  CFF3 F0A5          	movff	prodl,___flmul@temp
  3521   00079C  CFF4 F0A6          	movff	prodh,___flmul@temp+1
  3522   0007A0                     
  3523                           ; BSR set to: 0
  3524   0007A0  51A5               	movf	___flmul@temp& (0+255),w,b
  3525   0007A2  279B               	addwf	___flmul@grs& (0+255),f,b
  3526   0007A4  51A6               	movf	(___flmul@temp+1)& (0+255),w,b
  3527   0007A6  239C               	addwfc	(___flmul@grs+1)& (0+255),f,b
  3528   0007A8  0E00               	movlw	0
  3529   0007AA  239D               	addwfc	(___flmul@grs+2)& (0+255),f,b
  3530   0007AC  0E00               	movlw	0
  3531   0007AE  239E               	addwfc	(___flmul@grs+3)& (0+255),f,b
  3532   0007B0                     
  3533                           ; BSR set to: 0
  3534   0007B0  5193               	movf	(___flmul@a+1)& (0+255),w,b
  3535   0007B2  038E               	mulwf	___flmul@b& (0+255),b
  3536   0007B4  CFF3 F0A5          	movff	prodl,___flmul@temp
  3537   0007B8  CFF4 F0A6          	movff	prodh,___flmul@temp+1
  3538   0007BC                     
  3539                           ; BSR set to: 0
  3540   0007BC  51A5               	movf	___flmul@temp& (0+255),w,b
  3541   0007BE  279B               	addwf	___flmul@grs& (0+255),f,b
  3542   0007C0  51A6               	movf	(___flmul@temp+1)& (0+255),w,b
  3543   0007C2  239C               	addwfc	(___flmul@grs+1)& (0+255),f,b
  3544   0007C4  0E00               	movlw	0
  3545   0007C6  239D               	addwfc	(___flmul@grs+2)& (0+255),f,b
  3546   0007C8  0E00               	movlw	0
  3547   0007CA  239E               	addwfc	(___flmul@grs+3)& (0+255),f,b
  3548   0007CC                     
  3549                           ; BSR set to: 0
  3550   0007CC  C09D  F09E         	movff	___flmul@grs+2,___flmul@grs+3
  3551   0007D0  C09C  F09D         	movff	___flmul@grs+1,___flmul@grs+2
  3552   0007D4  C09B  F09C         	movff	___flmul@grs,___flmul@grs+1
  3553   0007D8  6B9B               	clrf	___flmul@grs& (0+255),b
  3554   0007DA  5192               	movf	___flmul@a& (0+255),w,b
  3555   0007DC  038E               	mulwf	___flmul@b& (0+255),b
  3556   0007DE  CFF3 F0A5          	movff	prodl,___flmul@temp
  3557   0007E2  CFF4 F0A6          	movff	prodh,___flmul@temp+1
  3558   0007E6                     
  3559                           ; BSR set to: 0
  3560   0007E6  51A5               	movf	___flmul@temp& (0+255),w,b
  3561   0007E8  279B               	addwf	___flmul@grs& (0+255),f,b
  3562   0007EA  51A6               	movf	(___flmul@temp+1)& (0+255),w,b
  3563   0007EC  239C               	addwfc	(___flmul@grs+1)& (0+255),f,b
  3564   0007EE  0E00               	movlw	0
  3565   0007F0  239D               	addwfc	(___flmul@grs+2)& (0+255),f,b
  3566   0007F2  0E00               	movlw	0
  3567   0007F4  239E               	addwfc	(___flmul@grs+3)& (0+255),f,b
  3568   0007F6                     
  3569                           ; BSR set to: 0
  3570   0007F6  5194               	movf	(___flmul@a+2)& (0+255),w,b
  3571   0007F8  038F               	mulwf	(___flmul@b+1)& (0+255),b
  3572   0007FA  CFF3 F0A5          	movff	prodl,___flmul@temp
  3573   0007FE  CFF4 F0A6          	movff	prodh,___flmul@temp+1
  3574   000802  51A5               	movf	___flmul@temp& (0+255),w,b
  3575   000804  27A1               	addwf	___flmul@prod& (0+255),f,b
  3576   000806  51A6               	movf	(___flmul@temp+1)& (0+255),w,b
  3577   000808  23A2               	addwfc	(___flmul@prod+1)& (0+255),f,b
  3578   00080A  0E00               	movlw	0
  3579   00080C  23A3               	addwfc	(___flmul@prod+2)& (0+255),f,b
  3580   00080E  0E00               	movlw	0
  3581   000810  23A4               	addwfc	(___flmul@prod+3)& (0+255),f,b
  3582   000812                     
  3583                           ; BSR set to: 0
  3584   000812  5193               	movf	(___flmul@a+1)& (0+255),w,b
  3585   000814  0390               	mulwf	(___flmul@b+2)& (0+255),b
  3586   000816  CFF3 F0A5          	movff	prodl,___flmul@temp
  3587   00081A  CFF4 F0A6          	movff	prodh,___flmul@temp+1
  3588   00081E                     
  3589                           ; BSR set to: 0
  3590   00081E  51A5               	movf	___flmul@temp& (0+255),w,b
  3591   000820  27A1               	addwf	___flmul@prod& (0+255),f,b
  3592   000822  51A6               	movf	(___flmul@temp+1)& (0+255),w,b
  3593   000824  23A2               	addwfc	(___flmul@prod+1)& (0+255),f,b
  3594   000826  0E00               	movlw	0
  3595   000828  23A3               	addwfc	(___flmul@prod+2)& (0+255),f,b
  3596   00082A  0E00               	movlw	0
  3597   00082C  23A4               	addwfc	(___flmul@prod+3)& (0+255),f,b
  3598   00082E  5194               	movf	(___flmul@a+2)& (0+255),w,b
  3599   000830  0390               	mulwf	(___flmul@b+2)& (0+255),b
  3600   000832  CFF3 F0A5          	movff	prodl,___flmul@temp
  3601   000836  CFF4 F0A6          	movff	prodh,___flmul@temp+1
  3602   00083A                     
  3603                           ; BSR set to: 0
  3604   00083A  51A5               	movf	___flmul@temp& (0+255),w,b
  3605   00083C  6F96               	movwf	??___flmul& (0+255),b
  3606   00083E  51A6               	movf	(___flmul@temp+1)& (0+255),w,b
  3607   000840  6F97               	movwf	(??___flmul+1)& (0+255),b
  3608   000842  6B98               	clrf	(??___flmul+2)& (0+255),b
  3609   000844  6B99               	clrf	(??___flmul+3)& (0+255),b
  3610   000846  C098  F099         	movff	??___flmul+2,??___flmul+3
  3611   00084A  C097  F098         	movff	??___flmul+1,??___flmul+2
  3612   00084E  C096  F097         	movff	??___flmul,??___flmul+1
  3613   000852  6B96               	clrf	??___flmul& (0+255),b
  3614   000854  5196               	movf	??___flmul& (0+255),w,b
  3615   000856  27A1               	addwf	___flmul@prod& (0+255),f,b
  3616   000858  5197               	movf	(??___flmul+1)& (0+255),w,b
  3617   00085A  23A2               	addwfc	(___flmul@prod+1)& (0+255),f,b
  3618   00085C  5198               	movf	(??___flmul+2)& (0+255),w,b
  3619   00085E  23A3               	addwfc	(___flmul@prod+2)& (0+255),f,b
  3620   000860  5199               	movf	(??___flmul+3)& (0+255),w,b
  3621   000862  23A4               	addwfc	(___flmul@prod+3)& (0+255),f,b
  3622   000864                     
  3623                           ; BSR set to: 0
  3624   000864  C09B  F096         	movff	___flmul@grs,??___flmul
  3625   000868  C09C  F097         	movff	___flmul@grs+1,??___flmul+1
  3626   00086C  C09D  F098         	movff	___flmul@grs+2,??___flmul+2
  3627   000870  C09E  F099         	movff	___flmul@grs+3,??___flmul+3
  3628   000874  0E19               	movlw	25
  3629   000876  EF42  F004         	goto	u3260
  3630   00087A                     u3265:
  3631   00087A  90D8               	bcf	status,0,c
  3632   00087C  3399               	rrcf	(??___flmul+3)& (0+255),f,b
  3633   00087E  3398               	rrcf	(??___flmul+2)& (0+255),f,b
  3634   000880  3397               	rrcf	(??___flmul+1)& (0+255),f,b
  3635   000882  3396               	rrcf	??___flmul& (0+255),f,b
  3636   000884                     u3260:
  3637   000884  2EE8               	decfsz	wreg,f,c
  3638   000886  EF3D  F004         	goto	u3265
  3639   00088A  5196               	movf	??___flmul& (0+255),w,b
  3640   00088C  27A1               	addwf	___flmul@prod& (0+255),f,b
  3641   00088E  5197               	movf	(??___flmul+1)& (0+255),w,b
  3642   000890  23A2               	addwfc	(___flmul@prod+1)& (0+255),f,b
  3643   000892  5198               	movf	(??___flmul+2)& (0+255),w,b
  3644   000894  23A3               	addwfc	(___flmul@prod+2)& (0+255),f,b
  3645   000896  5199               	movf	(??___flmul+3)& (0+255),w,b
  3646   000898  23A4               	addwfc	(___flmul@prod+3)& (0+255),f,b
  3647   00089A                     
  3648                           ; BSR set to: 0
  3649   00089A  C09D  F09E         	movff	___flmul@grs+2,___flmul@grs+3
  3650   00089E  C09C  F09D         	movff	___flmul@grs+1,___flmul@grs+2
  3651   0008A2  C09B  F09C         	movff	___flmul@grs,___flmul@grs+1
  3652   0008A6  6B9B               	clrf	___flmul@grs& (0+255),b
  3653   0008A8                     
  3654                           ; BSR set to: 0
  3655   0008A8  519F               	movf	___flmul@aexp& (0+255),w,b
  3656   0008AA  C0A0  F096         	movff	___flmul@bexp,??___flmul
  3657   0008AE  6B97               	clrf	(??___flmul+1)& (0+255),b
  3658   0008B0  2796               	addwf	??___flmul& (0+255),f,b
  3659   0008B2  0E00               	movlw	0
  3660   0008B4  2397               	addwfc	(??___flmul+1)& (0+255),f,b
  3661   0008B6  0E82               	movlw	130
  3662   0008B8  2596               	addwf	??___flmul& (0+255),w,b
  3663   0008BA  6FA5               	movwf	___flmul@temp& (0+255),b
  3664   0008BC  0EFF               	movlw	255
  3665   0008BE  2197               	addwfc	(??___flmul+1)& (0+255),w,b
  3666   0008C0  6FA6               	movwf	(___flmul@temp+1)& (0+255),b
  3667   0008C2  EF78  F004         	goto	l3829
  3668   0008C6                     l3823:
  3669                           
  3670                           ; BSR set to: 0
  3671   0008C6  90D8               	bcf	status,0,c
  3672   0008C8  37A1               	rlcf	___flmul@prod& (0+255),f,b
  3673   0008CA  37A2               	rlcf	(___flmul@prod+1)& (0+255),f,b
  3674   0008CC  37A3               	rlcf	(___flmul@prod+2)& (0+255),f,b
  3675   0008CE  37A4               	rlcf	(___flmul@prod+3)& (0+255),f,b
  3676   0008D0                     
  3677                           ; BSR set to: 0
  3678   0008D0  AF9E               	btfss	(___flmul@grs+3)& (0+255),7,b
  3679   0008D2  EF6D  F004         	goto	u3271
  3680   0008D6  EF6F  F004         	goto	u3270
  3681   0008DA                     u3271:
  3682   0008DA  EF70  F004         	goto	l1157
  3683   0008DE                     u3270:
  3684   0008DE                     
  3685                           ; BSR set to: 0
  3686   0008DE  81A1               	bsf	___flmul@prod& (0+255),0,b
  3687   0008E0                     l1157:
  3688                           
  3689                           ; BSR set to: 0
  3690   0008E0  90D8               	bcf	status,0,c
  3691   0008E2  379B               	rlcf	___flmul@grs& (0+255),f,b
  3692   0008E4  379C               	rlcf	(___flmul@grs+1)& (0+255),f,b
  3693   0008E6  379D               	rlcf	(___flmul@grs+2)& (0+255),f,b
  3694   0008E8  379E               	rlcf	(___flmul@grs+3)& (0+255),f,b
  3695   0008EA  07A5               	decf	___flmul@temp& (0+255),f,b
  3696   0008EC  A0D8               	btfss	status,0,c
  3697   0008EE  07A6               	decf	(___flmul@temp+1)& (0+255),f,b
  3698   0008F0                     l3829:
  3699                           
  3700                           ; BSR set to: 0
  3701   0008F0  AFA3               	btfss	(___flmul@prod+2)& (0+255),7,b
  3702   0008F2  EF7D  F004         	goto	u3281
  3703   0008F6  EF7F  F004         	goto	u3280
  3704   0008FA                     u3281:
  3705   0008FA  EF63  F004         	goto	l3823
  3706   0008FE                     u3280:
  3707   0008FE                     
  3708                           ; BSR set to: 0
  3709   0008FE  0E00               	movlw	0
  3710   000900  6F9F               	movwf	___flmul@aexp& (0+255),b
  3711   000902                     
  3712                           ; BSR set to: 0
  3713   000902  AF9E               	btfss	(___flmul@grs+3)& (0+255),7,b
  3714   000904  EF86  F004         	goto	u3291
  3715   000908  EF88  F004         	goto	u3290
  3716   00090C                     u3291:
  3717   00090C  EFAC  F004         	goto	l1159
  3718   000910                     u3290:
  3719   000910                     
  3720                           ; BSR set to: 0
  3721   000910  0EFF               	movlw	255
  3722   000912  159B               	andwf	___flmul@grs& (0+255),w,b
  3723   000914  6F96               	movwf	??___flmul& (0+255),b
  3724   000916  0EFF               	movlw	255
  3725   000918  159C               	andwf	(___flmul@grs+1)& (0+255),w,b
  3726   00091A  6F97               	movwf	(??___flmul+1)& (0+255),b
  3727   00091C  0EFF               	movlw	255
  3728   00091E  159D               	andwf	(___flmul@grs+2)& (0+255),w,b
  3729   000920  6F98               	movwf	(??___flmul+2)& (0+255),b
  3730   000922  0E7F               	movlw	127
  3731   000924  159E               	andwf	(___flmul@grs+3)& (0+255),w,b
  3732   000926  6F99               	movwf	(??___flmul+3)& (0+255),b
  3733   000928  5196               	movf	??___flmul& (0+255),w,b
  3734   00092A  1197               	iorwf	(??___flmul+1)& (0+255),w,b
  3735   00092C  1198               	iorwf	(??___flmul+2)& (0+255),w,b
  3736   00092E  1199               	iorwf	(??___flmul+3)& (0+255),w,b
  3737   000930  B4D8               	btfsc	status,2,c
  3738   000932  EF9D  F004         	goto	u3301
  3739   000936  EF9F  F004         	goto	u3300
  3740   00093A                     u3301:
  3741   00093A  EFA3  F004         	goto	l1160
  3742   00093E                     u3300:
  3743   00093E                     l3837:
  3744                           
  3745                           ; BSR set to: 0
  3746   00093E  0E01               	movlw	1
  3747   000940  6F9F               	movwf	___flmul@aexp& (0+255),b
  3748   000942  EFAC  F004         	goto	l1159
  3749   000946                     l1160:
  3750                           
  3751                           ; BSR set to: 0
  3752   000946  A1A1               	btfss	___flmul@prod& (0+255),0,b
  3753   000948  EFA8  F004         	goto	u3311
  3754   00094C  EFAA  F004         	goto	u3310
  3755   000950                     u3311:
  3756   000950  EFAC  F004         	goto	l1159
  3757   000954                     u3310:
  3758   000954  EF9F  F004         	goto	l3837
  3759   000958                     l1159:
  3760                           
  3761                           ; BSR set to: 0
  3762   000958  519F               	movf	___flmul@aexp& (0+255),w,b
  3763   00095A  B4D8               	btfsc	status,2,c
  3764   00095C  EFB2  F004         	goto	u3321
  3765   000960  EFB4  F004         	goto	u3320
  3766   000964                     u3321:
  3767   000964  EFD8  F004         	goto	l3849
  3768   000968                     u3320:
  3769   000968                     
  3770                           ; BSR set to: 0
  3771   000968  0E01               	movlw	1
  3772   00096A  27A1               	addwf	___flmul@prod& (0+255),f,b
  3773   00096C  0E00               	movlw	0
  3774   00096E  23A2               	addwfc	(___flmul@prod+1)& (0+255),f,b
  3775   000970  23A3               	addwfc	(___flmul@prod+2)& (0+255),f,b
  3776   000972  23A4               	addwfc	(___flmul@prod+3)& (0+255),f,b
  3777   000974                     
  3778                           ; BSR set to: 0
  3779   000974  A1A4               	btfss	(___flmul@prod+3)& (0+255),0,b
  3780   000976  EFBF  F004         	goto	u3331
  3781   00097A  EFC1  F004         	goto	u3330
  3782   00097E                     u3331:
  3783   00097E  EFD8  F004         	goto	l3849
  3784   000982                     u3330:
  3785   000982                     
  3786                           ; BSR set to: 0
  3787   000982  C0A1  F096         	movff	___flmul@prod,??___flmul
  3788   000986  C0A2  F097         	movff	___flmul@prod+1,??___flmul+1
  3789   00098A  C0A3  F098         	movff	___flmul@prod+2,??___flmul+2
  3790   00098E  C0A4  F099         	movff	___flmul@prod+3,??___flmul+3
  3791   000992  3599               	rlcf	(??___flmul+3)& (0+255),w,b
  3792   000994  3399               	rrcf	(??___flmul+3)& (0+255),f,b
  3793   000996  3398               	rrcf	(??___flmul+2)& (0+255),f,b
  3794   000998  3397               	rrcf	(??___flmul+1)& (0+255),f,b
  3795   00099A  3396               	rrcf	??___flmul& (0+255),f,b
  3796   00099C  C096  F0A1         	movff	??___flmul,___flmul@prod
  3797   0009A0  C097  F0A2         	movff	??___flmul+1,___flmul@prod+1
  3798   0009A4  C098  F0A3         	movff	??___flmul+2,___flmul@prod+2
  3799   0009A8  C099  F0A4         	movff	??___flmul+3,___flmul@prod+3
  3800   0009AC                     
  3801                           ; BSR set to: 0
  3802   0009AC  4BA5               	infsnz	___flmul@temp& (0+255),f,b
  3803   0009AE  2BA6               	incf	(___flmul@temp+1)& (0+255),f,b
  3804   0009B0                     l3849:
  3805                           
  3806                           ; BSR set to: 0
  3807   0009B0  BFA6               	btfsc	(___flmul@temp+1)& (0+255),7,b
  3808   0009B2  EFE3  F004         	goto	u3341
  3809   0009B6  51A6               	movf	(___flmul@temp+1)& (0+255),w,b
  3810   0009B8  E108               	bnz	u3340
  3811   0009BA  29A5               	incf	___flmul@temp& (0+255),w,b
  3812   0009BC  A0D8               	btfss	status,0,c
  3813   0009BE  EFE3  F004         	goto	u3341
  3814   0009C2  EFE5  F004         	goto	u3340
  3815   0009C6                     u3341:
  3816   0009C6  EFEF  F004         	goto	l3853
  3817   0009CA                     u3340:
  3818   0009CA                     
  3819                           ; BSR set to: 0
  3820   0009CA  0E00               	movlw	0
  3821   0009CC  6FA1               	movwf	___flmul@prod& (0+255),b
  3822   0009CE  0E00               	movlw	0
  3823   0009D0  6FA2               	movwf	(___flmul@prod+1)& (0+255),b
  3824   0009D2  0E80               	movlw	128
  3825   0009D4  6FA3               	movwf	(___flmul@prod+2)& (0+255),b
  3826   0009D6  0E7F               	movlw	127
  3827   0009D8  6FA4               	movwf	(___flmul@prod+3)& (0+255),b
  3828   0009DA  EF1D  F005         	goto	l3865
  3829   0009DE                     l3853:
  3830                           
  3831                           ; BSR set to: 0
  3832   0009DE  BFA6               	btfsc	(___flmul@temp+1)& (0+255),7,b
  3833   0009E0  EFFC  F004         	goto	u3350
  3834   0009E4  51A6               	movf	(___flmul@temp+1)& (0+255),w,b
  3835   0009E6  E106               	bnz	u3351
  3836   0009E8  05A5               	decf	___flmul@temp& (0+255),w,b
  3837   0009EA  B0D8               	btfsc	status,0,c
  3838   0009EC  EFFA  F004         	goto	u3351
  3839   0009F0  EFFC  F004         	goto	u3350
  3840   0009F4                     u3351:
  3841   0009F4  EF08  F005         	goto	l1167
  3842   0009F8                     u3350:
  3843   0009F8                     
  3844                           ; BSR set to: 0
  3845   0009F8  0E00               	movlw	0
  3846   0009FA  6FA1               	movwf	___flmul@prod& (0+255),b
  3847   0009FC  0E00               	movlw	0
  3848   0009FE  6FA2               	movwf	(___flmul@prod+1)& (0+255),b
  3849   000A00  0E00               	movlw	0
  3850   000A02  6FA3               	movwf	(___flmul@prod+2)& (0+255),b
  3851   000A04  0E00               	movlw	0
  3852   000A06  6FA4               	movwf	(___flmul@prod+3)& (0+255),b
  3853   000A08  0E00               	movlw	0
  3854   000A0A  6F9A               	movwf	___flmul@sign& (0+255),b
  3855   000A0C  EF1D  F005         	goto	l3865
  3856   000A10                     l1167:
  3857                           
  3858                           ; BSR set to: 0
  3859   000A10  C0A5  F0A0         	movff	___flmul@temp,___flmul@bexp
  3860   000A14                     
  3861                           ; BSR set to: 0
  3862   000A14  0EFF               	movlw	255
  3863   000A16  17A1               	andwf	___flmul@prod& (0+255),f,b
  3864   000A18  0EFF               	movlw	255
  3865   000A1A  17A2               	andwf	(___flmul@prod+1)& (0+255),f,b
  3866   000A1C  0E7F               	movlw	127
  3867   000A1E  17A3               	andwf	(___flmul@prod+2)& (0+255),f,b
  3868   000A20  0E00               	movlw	0
  3869   000A22  17A4               	andwf	(___flmul@prod+3)& (0+255),f,b
  3870   000A24                     
  3871                           ; BSR set to: 0
  3872   000A24  A1A0               	btfss	___flmul@bexp& (0+255),0,b
  3873   000A26  EF17  F005         	goto	u3361
  3874   000A2A  EF19  F005         	goto	u3360
  3875   000A2E                     u3361:
  3876   000A2E  EF1A  F005         	goto	l3863
  3877   000A32                     u3360:
  3878   000A32                     
  3879                           ; BSR set to: 0
  3880   000A32  8FA3               	bsf	(___flmul@prod+2)& (0+255),7,b
  3881   000A34                     l3863:
  3882                           
  3883                           ; BSR set to: 0
  3884   000A34  90D8               	bcf	status,0,c
  3885   000A36  31A0               	rrcf	___flmul@bexp& (0+255),w,b
  3886   000A38  6FA4               	movwf	(___flmul@prod+3)& (0+255),b
  3887   000A3A                     l3865:
  3888                           
  3889                           ; BSR set to: 0
  3890   000A3A  519A               	movf	___flmul@sign& (0+255),w,b
  3891   000A3C  13A4               	iorwf	(___flmul@prod+3)& (0+255),f,b
  3892   000A3E                     
  3893                           ; BSR set to: 0
  3894   000A3E  C0A1  F08E         	movff	___flmul@prod,?___flmul
  3895   000A42  C0A2  F08F         	movff	___flmul@prod+1,?___flmul+1
  3896   000A46  C0A3  F090         	movff	___flmul@prod+2,?___flmul+2
  3897   000A4A  C0A4  F091         	movff	___flmul@prod+3,?___flmul+3
  3898   000A4E                     l1154:
  3899                           
  3900                           ; BSR set to: 0
  3901   000A4E  0012               	return		;funcret
  3902   000A50                     __end_of___flmul:
  3903                           	callstack 0
  3904                           
  3905 ;; *************** function ___fldiv *****************
  3906 ;; Defined at:
  3907 ;;		line 11 in file "C:\Program Files\Microchip\xc8\v2.40\pic\sources\c99\common\sprcdiv.c"
  3908 ;; Parameters:    Size  Location     Type
  3909 ;;  b               4   39[BANK0 ] unsigned char 
  3910 ;;  a               4   43[BANK0 ] unsigned char 
  3911 ;; Auto vars:     Size  Location     Type
  3912 ;;  grs             4   58[BANK0 ] unsigned long 
  3913 ;;  rem             4   51[BANK0 ] unsigned long 
  3914 ;;  new_exp         2   56[BANK0 ] short 
  3915 ;;  aexp            1   63[BANK0 ] unsigned char 
  3916 ;;  bexp            1   62[BANK0 ] unsigned char 
  3917 ;;  sign            1   55[BANK0 ] unsigned char 
  3918 ;; Return value:  Size  Location     Type
  3919 ;;                  4   39[BANK0 ] unsigned char 
  3920 ;; Registers used:
  3921 ;;		wreg, status,2, status,0
  3922 ;; Tracked objects:
  3923 ;;		On entry : 0/0
  3924 ;;		On exit  : 0/0
  3925 ;;		Unchanged: 0/0
  3926 ;; Data sizes:     COMRAM   BANK0   BANK1   BANK2   BANK3   BANK4   BANK5
  3927 ;;      Params:         0       8       0       0       0       0       0
  3928 ;;      Locals:         0      13       0       0       0       0       0
  3929 ;;      Temps:          0       4       0       0       0       0       0
  3930 ;;      Totals:         0      25       0       0       0       0       0
  3931 ;;Total ram usage:       25 bytes
  3932 ;; Hardware stack levels used: 1
  3933 ;; Hardware stack levels required when called: 11
  3934 ;; This function calls:
  3935 ;;		Nothing
  3936 ;; This function is called by:
  3937 ;;		_loop
  3938 ;; This function uses a non-reentrant model
  3939 ;;
  3940                           
  3941                           	psect	text21
  3942   000E2E                     __ptext21:
  3943                           	callstack 0
  3944   000E2E                     ___fldiv:
  3945                           	callstack 18
  3946   000E2E  0100               	movlb	0	; () banked
  3947   000E30  51AA               	movf	(___fldiv@b+3)& (0+255),w,b
  3948   000E32  0B80               	andlw	128
  3949   000E34  6FB7               	movwf	___fldiv@sign& (0+255),b
  3950   000E36  51AA               	movf	(___fldiv@b+3)& (0+255),w,b
  3951   000E38  25AA               	addwf	(___fldiv@b+3)& (0+255),w,b
  3952   000E3A  6FBE               	movwf	___fldiv@bexp& (0+255),b
  3953   000E3C                     
  3954                           ; BSR set to: 0
  3955   000E3C  AFA9               	btfss	(___fldiv@b+2)& (0+255),7,b
  3956   000E3E  EF23  F007         	goto	u2951
  3957   000E42  EF25  F007         	goto	u2950
  3958   000E46                     u2951:
  3959   000E46  EF26  F007         	goto	l3609
  3960   000E4A                     u2950:
  3961   000E4A                     
  3962                           ; BSR set to: 0
  3963   000E4A  81BE               	bsf	___fldiv@bexp& (0+255),0,b
  3964   000E4C                     l3609:
  3965                           
  3966                           ; BSR set to: 0
  3967   000E4C  51BE               	movf	___fldiv@bexp& (0+255),w,b
  3968   000E4E  B4D8               	btfsc	status,2,c
  3969   000E50  EF2C  F007         	goto	u2961
  3970   000E54  EF2E  F007         	goto	u2960
  3971   000E58                     u2961:
  3972   000E58  EF43  F007         	goto	l3619
  3973   000E5C                     u2960:
  3974   000E5C                     
  3975                           ; BSR set to: 0
  3976   000E5C  29BE               	incf	___fldiv@bexp& (0+255),w,b
  3977   000E5E  A4D8               	btfss	status,2,c
  3978   000E60  EF34  F007         	goto	u2971
  3979   000E64  EF36  F007         	goto	u2970
  3980   000E68                     u2971:
  3981   000E68  EF3E  F007         	goto	l3615
  3982   000E6C                     u2970:
  3983   000E6C                     
  3984                           ; BSR set to: 0
  3985   000E6C  0E00               	movlw	0
  3986   000E6E  6FA7               	movwf	___fldiv@b& (0+255),b
  3987   000E70  0E00               	movlw	0
  3988   000E72  6FA8               	movwf	(___fldiv@b+1)& (0+255),b
  3989   000E74  0E00               	movlw	0
  3990   000E76  6FA9               	movwf	(___fldiv@b+2)& (0+255),b
  3991   000E78  0E00               	movlw	0
  3992   000E7A  6FAA               	movwf	(___fldiv@b+3)& (0+255),b
  3993   000E7C                     l3615:
  3994                           
  3995                           ; BSR set to: 0
  3996   000E7C  8FA9               	bsf	(___fldiv@b+2)& (0+255),7,b
  3997   000E7E                     
  3998                           ; BSR set to: 0
  3999   000E7E  0E00               	movlw	0
  4000   000E80  6FAA               	movwf	(___fldiv@b+3)& (0+255),b
  4001   000E82  EF4B  F007         	goto	l3621
  4002   000E86                     l3619:
  4003                           
  4004                           ; BSR set to: 0
  4005   000E86  0E00               	movlw	0
  4006   000E88  6FA7               	movwf	___fldiv@b& (0+255),b
  4007   000E8A  0E00               	movlw	0
  4008   000E8C  6FA8               	movwf	(___fldiv@b+1)& (0+255),b
  4009   000E8E  0E00               	movlw	0
  4010   000E90  6FA9               	movwf	(___fldiv@b+2)& (0+255),b
  4011   000E92  0E00               	movlw	0
  4012   000E94  6FAA               	movwf	(___fldiv@b+3)& (0+255),b
  4013   000E96                     l3621:
  4014                           
  4015                           ; BSR set to: 0
  4016   000E96  51AE               	movf	(___fldiv@a+3)& (0+255),w,b
  4017   000E98  0B80               	andlw	128
  4018   000E9A  1BB7               	xorwf	___fldiv@sign& (0+255),f,b
  4019   000E9C                     
  4020                           ; BSR set to: 0
  4021   000E9C  51AE               	movf	(___fldiv@a+3)& (0+255),w,b
  4022   000E9E  25AE               	addwf	(___fldiv@a+3)& (0+255),w,b
  4023   000EA0  6FBF               	movwf	___fldiv@aexp& (0+255),b
  4024   000EA2                     
  4025                           ; BSR set to: 0
  4026   000EA2  AFAD               	btfss	(___fldiv@a+2)& (0+255),7,b
  4027   000EA4  EF56  F007         	goto	u2981
  4028   000EA8  EF58  F007         	goto	u2980
  4029   000EAC                     u2981:
  4030   000EAC  EF59  F007         	goto	l3629
  4031   000EB0                     u2980:
  4032   000EB0                     
  4033                           ; BSR set to: 0
  4034   000EB0  81BF               	bsf	___fldiv@aexp& (0+255),0,b
  4035   000EB2                     l3629:
  4036                           
  4037                           ; BSR set to: 0
  4038   000EB2  51BF               	movf	___fldiv@aexp& (0+255),w,b
  4039   000EB4  B4D8               	btfsc	status,2,c
  4040   000EB6  EF5F  F007         	goto	u2991
  4041   000EBA  EF61  F007         	goto	u2990
  4042   000EBE                     u2991:
  4043   000EBE  EF76  F007         	goto	l3639
  4044   000EC2                     u2990:
  4045   000EC2                     
  4046                           ; BSR set to: 0
  4047   000EC2  29BF               	incf	___fldiv@aexp& (0+255),w,b
  4048   000EC4  A4D8               	btfss	status,2,c
  4049   000EC6  EF67  F007         	goto	u3001
  4050   000ECA  EF69  F007         	goto	u3000
  4051   000ECE                     u3001:
  4052   000ECE  EF71  F007         	goto	l3635
  4053   000ED2                     u3000:
  4054   000ED2                     
  4055                           ; BSR set to: 0
  4056   000ED2  0E00               	movlw	0
  4057   000ED4  6FAB               	movwf	___fldiv@a& (0+255),b
  4058   000ED6  0E00               	movlw	0
  4059   000ED8  6FAC               	movwf	(___fldiv@a+1)& (0+255),b
  4060   000EDA  0E00               	movlw	0
  4061   000EDC  6FAD               	movwf	(___fldiv@a+2)& (0+255),b
  4062   000EDE  0E00               	movlw	0
  4063   000EE0  6FAE               	movwf	(___fldiv@a+3)& (0+255),b
  4064   000EE2                     l3635:
  4065                           
  4066                           ; BSR set to: 0
  4067   000EE2  8FAD               	bsf	(___fldiv@a+2)& (0+255),7,b
  4068   000EE4                     
  4069                           ; BSR set to: 0
  4070   000EE4  0E00               	movlw	0
  4071   000EE6  6FAE               	movwf	(___fldiv@a+3)& (0+255),b
  4072   000EE8  EF7E  F007         	goto	l3641
  4073   000EEC                     l3639:
  4074                           
  4075                           ; BSR set to: 0
  4076   000EEC  0E00               	movlw	0
  4077   000EEE  6FAB               	movwf	___fldiv@a& (0+255),b
  4078   000EF0  0E00               	movlw	0
  4079   000EF2  6FAC               	movwf	(___fldiv@a+1)& (0+255),b
  4080   000EF4  0E00               	movlw	0
  4081   000EF6  6FAD               	movwf	(___fldiv@a+2)& (0+255),b
  4082   000EF8  0E00               	movlw	0
  4083   000EFA  6FAE               	movwf	(___fldiv@a+3)& (0+255),b
  4084   000EFC                     l3641:
  4085                           
  4086                           ; BSR set to: 0
  4087   000EFC  51AB               	movf	___fldiv@a& (0+255),w,b
  4088   000EFE  11AC               	iorwf	(___fldiv@a+1)& (0+255),w,b
  4089   000F00  11AD               	iorwf	(___fldiv@a+2)& (0+255),w,b
  4090   000F02  11AE               	iorwf	(___fldiv@a+3)& (0+255),w,b
  4091   000F04  A4D8               	btfss	status,2,c
  4092   000F06  EF87  F007         	goto	u3011
  4093   000F0A  EF89  F007         	goto	u3010
  4094   000F0E                     u3011:
  4095   000F0E  EFA1  F007         	goto	l3653
  4096   000F12                     u3010:
  4097   000F12                     
  4098                           ; BSR set to: 0
  4099   000F12  0E00               	movlw	0
  4100   000F14  6FA7               	movwf	___fldiv@b& (0+255),b
  4101   000F16  0E00               	movlw	0
  4102   000F18  6FA8               	movwf	(___fldiv@b+1)& (0+255),b
  4103   000F1A  0E00               	movlw	0
  4104   000F1C  6FA9               	movwf	(___fldiv@b+2)& (0+255),b
  4105   000F1E  0E00               	movlw	0
  4106   000F20  6FAA               	movwf	(___fldiv@b+3)& (0+255),b
  4107   000F22                     
  4108                           ; BSR set to: 0
  4109   000F22  0E80               	movlw	128
  4110   000F24  13A9               	iorwf	(___fldiv@b+2)& (0+255),f,b
  4111   000F26  0E7F               	movlw	127
  4112   000F28  13AA               	iorwf	(___fldiv@b+3)& (0+255),f,b
  4113   000F2A                     l3647:
  4114                           
  4115                           ; BSR set to: 0
  4116   000F2A  51B7               	movf	___fldiv@sign& (0+255),w,b
  4117   000F2C  13AA               	iorwf	(___fldiv@b+3)& (0+255),f,b
  4118   000F2E                     
  4119                           ; BSR set to: 0
  4120   000F2E  C0A7  F0A7         	movff	___fldiv@b,?___fldiv
  4121   000F32  C0A8  F0A8         	movff	___fldiv@b+1,?___fldiv+1
  4122   000F36  C0A9  F0A9         	movff	___fldiv@b+2,?___fldiv+2
  4123   000F3A  C0AA  F0AA         	movff	___fldiv@b+3,?___fldiv+3
  4124   000F3E  EFE4  F008         	goto	l1118
  4125   000F42                     l3653:
  4126                           
  4127                           ; BSR set to: 0
  4128   000F42  51BE               	movf	___fldiv@bexp& (0+255),w,b
  4129   000F44  A4D8               	btfss	status,2,c
  4130   000F46  EFA7  F007         	goto	u3021
  4131   000F4A  EFA9  F007         	goto	u3020
  4132   000F4E                     u3021:
  4133   000F4E  EFB3  F007         	goto	l3661
  4134   000F52                     u3020:
  4135   000F52                     
  4136                           ; BSR set to: 0
  4137   000F52  0E00               	movlw	0
  4138   000F54  6FA7               	movwf	?___fldiv& (0+255),b
  4139   000F56  0E00               	movlw	0
  4140   000F58  6FA8               	movwf	(?___fldiv+1)& (0+255),b
  4141   000F5A  0E00               	movlw	0
  4142   000F5C  6FA9               	movwf	(?___fldiv+2)& (0+255),b
  4143   000F5E  0E00               	movlw	0
  4144   000F60  6FAA               	movwf	(?___fldiv+3)& (0+255),b
  4145   000F62  EFE4  F008         	goto	l1118
  4146   000F66                     l3661:
  4147                           
  4148                           ; BSR set to: 0
  4149   000F66  51BF               	movf	___fldiv@aexp& (0+255),w,b
  4150   000F68  C0BE  F0AF         	movff	___fldiv@bexp,??___fldiv
  4151   000F6C  6BB0               	clrf	(??___fldiv+1)& (0+255),b
  4152   000F6E  5FAF               	subwf	??___fldiv& (0+255),f,b
  4153   000F70  0E00               	movlw	0
  4154   000F72  5BB0               	subwfb	(??___fldiv+1)& (0+255),f,b
  4155   000F74  0E7F               	movlw	127
  4156   000F76  25AF               	addwf	??___fldiv& (0+255),w,b
  4157   000F78  6FB8               	movwf	___fldiv@new_exp& (0+255),b
  4158   000F7A  0E00               	movlw	0
  4159   000F7C  21B0               	addwfc	(??___fldiv+1)& (0+255),w,b
  4160   000F7E  6FB9               	movwf	(___fldiv@new_exp+1)& (0+255),b
  4161   000F80                     
  4162                           ; BSR set to: 0
  4163   000F80  C0A7  F0B3         	movff	___fldiv@b,___fldiv@rem
  4164   000F84  C0A8  F0B4         	movff	___fldiv@b+1,___fldiv@rem+1
  4165   000F88  C0A9  F0B5         	movff	___fldiv@b+2,___fldiv@rem+2
  4166   000F8C  C0AA  F0B6         	movff	___fldiv@b+3,___fldiv@rem+3
  4167   000F90                     
  4168                           ; BSR set to: 0
  4169   000F90  0E00               	movlw	0
  4170   000F92  6FA7               	movwf	___fldiv@b& (0+255),b
  4171   000F94  0E00               	movlw	0
  4172   000F96  6FA8               	movwf	(___fldiv@b+1)& (0+255),b
  4173   000F98  0E00               	movlw	0
  4174   000F9A  6FA9               	movwf	(___fldiv@b+2)& (0+255),b
  4175   000F9C  0E00               	movlw	0
  4176   000F9E  6FAA               	movwf	(___fldiv@b+3)& (0+255),b
  4177   000FA0                     
  4178                           ; BSR set to: 0
  4179   000FA0  0E00               	movlw	0
  4180   000FA2  6FBA               	movwf	___fldiv@grs& (0+255),b
  4181   000FA4  0E00               	movlw	0
  4182   000FA6  6FBB               	movwf	(___fldiv@grs+1)& (0+255),b
  4183   000FA8  0E00               	movlw	0
  4184   000FAA  6FBC               	movwf	(___fldiv@grs+2)& (0+255),b
  4185   000FAC  0E00               	movlw	0
  4186   000FAE  6FBD               	movwf	(___fldiv@grs+3)& (0+255),b
  4187   000FB0                     
  4188                           ; BSR set to: 0
  4189   000FB0  0E00               	movlw	0
  4190   000FB2  6FBF               	movwf	___fldiv@aexp& (0+255),b
  4191   000FB4  EF14  F008         	goto	l1120
  4192   000FB8                     l3671:
  4193                           
  4194                           ; BSR set to: 0
  4195   000FB8  51BF               	movf	___fldiv@aexp& (0+255),w,b
  4196   000FBA  B4D8               	btfsc	status,2,c
  4197   000FBC  EFE2  F007         	goto	u3031
  4198   000FC0  EFE4  F007         	goto	u3030
  4199   000FC4                     u3031:
  4200   000FC4  EFFB  F007         	goto	l3679
  4201   000FC8                     u3030:
  4202   000FC8                     
  4203                           ; BSR set to: 0
  4204   000FC8  90D8               	bcf	status,0,c
  4205   000FCA  37B3               	rlcf	___fldiv@rem& (0+255),f,b
  4206   000FCC  37B4               	rlcf	(___fldiv@rem+1)& (0+255),f,b
  4207   000FCE  37B5               	rlcf	(___fldiv@rem+2)& (0+255),f,b
  4208   000FD0  37B6               	rlcf	(___fldiv@rem+3)& (0+255),f,b
  4209   000FD2  90D8               	bcf	status,0,c
  4210   000FD4  37A7               	rlcf	___fldiv@b& (0+255),f,b
  4211   000FD6  37A8               	rlcf	(___fldiv@b+1)& (0+255),f,b
  4212   000FD8  37A9               	rlcf	(___fldiv@b+2)& (0+255),f,b
  4213   000FDA  37AA               	rlcf	(___fldiv@b+3)& (0+255),f,b
  4214   000FDC                     
  4215                           ; BSR set to: 0
  4216   000FDC  AFBD               	btfss	(___fldiv@grs+3)& (0+255),7,b
  4217   000FDE  EFF3  F007         	goto	u3041
  4218   000FE2  EFF5  F007         	goto	u3040
  4219   000FE6                     u3041:
  4220   000FE6  EFF6  F007         	goto	l1123
  4221   000FEA                     u3040:
  4222   000FEA                     
  4223                           ; BSR set to: 0
  4224   000FEA  81A7               	bsf	___fldiv@b& (0+255),0,b
  4225   000FEC                     l1123:
  4226                           
  4227                           ; BSR set to: 0
  4228   000FEC  90D8               	bcf	status,0,c
  4229   000FEE  37BA               	rlcf	___fldiv@grs& (0+255),f,b
  4230   000FF0  37BB               	rlcf	(___fldiv@grs+1)& (0+255),f,b
  4231   000FF2  37BC               	rlcf	(___fldiv@grs+2)& (0+255),f,b
  4232   000FF4  37BD               	rlcf	(___fldiv@grs+3)& (0+255),f,b
  4233   000FF6                     l3679:
  4234                           
  4235                           ; BSR set to: 0
  4236   000FF6  51AB               	movf	___fldiv@a& (0+255),w,b
  4237   000FF8  5DB3               	subwf	___fldiv@rem& (0+255),w,b
  4238   000FFA  51AC               	movf	(___fldiv@a+1)& (0+255),w,b
  4239   000FFC  59B4               	subwfb	(___fldiv@rem+1)& (0+255),w,b
  4240   000FFE  51AD               	movf	(___fldiv@a+2)& (0+255),w,b
  4241   001000  59B5               	subwfb	(___fldiv@rem+2)& (0+255),w,b
  4242   001002  51AE               	movf	(___fldiv@a+3)& (0+255),w,b
  4243   001004  59B6               	subwfb	(___fldiv@rem+3)& (0+255),w,b
  4244   001006  A0D8               	btfss	status,0,c
  4245   001008  EF08  F008         	goto	u3051
  4246   00100C  EF0A  F008         	goto	u3050
  4247   001010                     u3051:
  4248   001010  EF13  F008         	goto	l3685
  4249   001014                     u3050:
  4250   001014                     
  4251                           ; BSR set to: 0
  4252   001014  8DBD               	bsf	(___fldiv@grs+3)& (0+255),6,b
  4253   001016                     
  4254                           ; BSR set to: 0
  4255   001016  51AB               	movf	___fldiv@a& (0+255),w,b
  4256   001018  5FB3               	subwf	___fldiv@rem& (0+255),f,b
  4257   00101A  51AC               	movf	(___fldiv@a+1)& (0+255),w,b
  4258   00101C  5BB4               	subwfb	(___fldiv@rem+1)& (0+255),f,b
  4259   00101E  51AD               	movf	(___fldiv@a+2)& (0+255),w,b
  4260   001020  5BB5               	subwfb	(___fldiv@rem+2)& (0+255),f,b
  4261   001022  51AE               	movf	(___fldiv@a+3)& (0+255),w,b
  4262   001024  5BB6               	subwfb	(___fldiv@rem+3)& (0+255),f,b
  4263   001026                     l3685:
  4264                           
  4265                           ; BSR set to: 0
  4266   001026  2BBF               	incf	___fldiv@aexp& (0+255),f,b
  4267   001028                     l1120:
  4268                           
  4269                           ; BSR set to: 0
  4270   001028  0E19               	movlw	25
  4271   00102A  65BF               	cpfsgt	___fldiv@aexp& (0+255),b
  4272   00102C  EF1A  F008         	goto	u3061
  4273   001030  EF1C  F008         	goto	u3060
  4274   001034                     u3061:
  4275   001034  EFDC  F007         	goto	l3671
  4276   001038                     u3060:
  4277   001038                     
  4278                           ; BSR set to: 0
  4279   001038  51B3               	movf	___fldiv@rem& (0+255),w,b
  4280   00103A  11B4               	iorwf	(___fldiv@rem+1)& (0+255),w,b
  4281   00103C  11B5               	iorwf	(___fldiv@rem+2)& (0+255),w,b
  4282   00103E  11B6               	iorwf	(___fldiv@rem+3)& (0+255),w,b
  4283   001040  B4D8               	btfsc	status,2,c
  4284   001042  EF25  F008         	goto	u3071
  4285   001046  EF27  F008         	goto	u3070
  4286   00104A                     u3071:
  4287   00104A  EF3F  F008         	goto	l3697
  4288   00104E                     u3070:
  4289   00104E                     
  4290                           ; BSR set to: 0
  4291   00104E  81BA               	bsf	___fldiv@grs& (0+255),0,b
  4292   001050  EF3F  F008         	goto	l3697
  4293   001054                     l3691:
  4294                           
  4295                           ; BSR set to: 0
  4296   001054  90D8               	bcf	status,0,c
  4297   001056  37A7               	rlcf	___fldiv@b& (0+255),f,b
  4298   001058  37A8               	rlcf	(___fldiv@b+1)& (0+255),f,b
  4299   00105A  37A9               	rlcf	(___fldiv@b+2)& (0+255),f,b
  4300   00105C  37AA               	rlcf	(___fldiv@b+3)& (0+255),f,b
  4301   00105E                     
  4302                           ; BSR set to: 0
  4303   00105E  AFBD               	btfss	(___fldiv@grs+3)& (0+255),7,b
  4304   001060  EF34  F008         	goto	u3081
  4305   001064  EF36  F008         	goto	u3080
  4306   001068                     u3081:
  4307   001068  EF37  F008         	goto	l1129
  4308   00106C                     u3080:
  4309   00106C                     
  4310                           ; BSR set to: 0
  4311   00106C  81A7               	bsf	___fldiv@b& (0+255),0,b
  4312   00106E                     l1129:
  4313                           
  4314                           ; BSR set to: 0
  4315   00106E  90D8               	bcf	status,0,c
  4316   001070  37BA               	rlcf	___fldiv@grs& (0+255),f,b
  4317   001072  37BB               	rlcf	(___fldiv@grs+1)& (0+255),f,b
  4318   001074  37BC               	rlcf	(___fldiv@grs+2)& (0+255),f,b
  4319   001076  37BD               	rlcf	(___fldiv@grs+3)& (0+255),f,b
  4320   001078  07B8               	decf	___fldiv@new_exp& (0+255),f,b
  4321   00107A  A0D8               	btfss	status,0,c
  4322   00107C  07B9               	decf	(___fldiv@new_exp+1)& (0+255),f,b
  4323   00107E                     l3697:
  4324                           
  4325                           ; BSR set to: 0
  4326   00107E  AFA9               	btfss	(___fldiv@b+2)& (0+255),7,b
  4327   001080  EF44  F008         	goto	u3091
  4328   001084  EF46  F008         	goto	u3090
  4329   001088                     u3091:
  4330   001088  EF2A  F008         	goto	l3691
  4331   00108C                     u3090:
  4332   00108C                     
  4333                           ; BSR set to: 0
  4334   00108C  0E00               	movlw	0
  4335   00108E  6FBF               	movwf	___fldiv@aexp& (0+255),b
  4336   001090                     
  4337                           ; BSR set to: 0
  4338   001090  AFBD               	btfss	(___fldiv@grs+3)& (0+255),7,b
  4339   001092  EF4D  F008         	goto	u3101
  4340   001096  EF4F  F008         	goto	u3100
  4341   00109A                     u3101:
  4342   00109A  EF73  F008         	goto	l1131
  4343   00109E                     u3100:
  4344   00109E                     
  4345                           ; BSR set to: 0
  4346   00109E  0EFF               	movlw	255
  4347   0010A0  15BA               	andwf	___fldiv@grs& (0+255),w,b
  4348   0010A2  6FAF               	movwf	??___fldiv& (0+255),b
  4349   0010A4  0EFF               	movlw	255
  4350   0010A6  15BB               	andwf	(___fldiv@grs+1)& (0+255),w,b
  4351   0010A8  6FB0               	movwf	(??___fldiv+1)& (0+255),b
  4352   0010AA  0EFF               	movlw	255
  4353   0010AC  15BC               	andwf	(___fldiv@grs+2)& (0+255),w,b
  4354   0010AE  6FB1               	movwf	(??___fldiv+2)& (0+255),b
  4355   0010B0  0E7F               	movlw	127
  4356   0010B2  15BD               	andwf	(___fldiv@grs+3)& (0+255),w,b
  4357   0010B4  6FB2               	movwf	(??___fldiv+3)& (0+255),b
  4358   0010B6  51AF               	movf	??___fldiv& (0+255),w,b
  4359   0010B8  11B0               	iorwf	(??___fldiv+1)& (0+255),w,b
  4360   0010BA  11B1               	iorwf	(??___fldiv+2)& (0+255),w,b
  4361   0010BC  11B2               	iorwf	(??___fldiv+3)& (0+255),w,b
  4362   0010BE  B4D8               	btfsc	status,2,c
  4363   0010C0  EF64  F008         	goto	u3111
  4364   0010C4  EF66  F008         	goto	u3110
  4365   0010C8                     u3111:
  4366   0010C8  EF6A  F008         	goto	l1132
  4367   0010CC                     u3110:
  4368   0010CC                     l3705:
  4369                           
  4370                           ; BSR set to: 0
  4371   0010CC  0E01               	movlw	1
  4372   0010CE  6FBF               	movwf	___fldiv@aexp& (0+255),b
  4373   0010D0  EF73  F008         	goto	l1131
  4374   0010D4                     l1132:
  4375                           
  4376                           ; BSR set to: 0
  4377   0010D4  A1A7               	btfss	___fldiv@b& (0+255),0,b
  4378   0010D6  EF6F  F008         	goto	u3121
  4379   0010DA  EF71  F008         	goto	u3120
  4380   0010DE                     u3121:
  4381   0010DE  EF73  F008         	goto	l1131
  4382   0010E2                     u3120:
  4383   0010E2  EF66  F008         	goto	l3705
  4384   0010E6                     l1131:
  4385                           
  4386                           ; BSR set to: 0
  4387   0010E6  51BF               	movf	___fldiv@aexp& (0+255),w,b
  4388   0010E8  B4D8               	btfsc	status,2,c
  4389   0010EA  EF79  F008         	goto	u3131
  4390   0010EE  EF7B  F008         	goto	u3130
  4391   0010F2                     u3131:
  4392   0010F2  EF9F  F008         	goto	l3717
  4393   0010F6                     u3130:
  4394   0010F6                     
  4395                           ; BSR set to: 0
  4396   0010F6  0E01               	movlw	1
  4397   0010F8  27A7               	addwf	___fldiv@b& (0+255),f,b
  4398   0010FA  0E00               	movlw	0
  4399   0010FC  23A8               	addwfc	(___fldiv@b+1)& (0+255),f,b
  4400   0010FE  23A9               	addwfc	(___fldiv@b+2)& (0+255),f,b
  4401   001100  23AA               	addwfc	(___fldiv@b+3)& (0+255),f,b
  4402   001102                     
  4403                           ; BSR set to: 0
  4404   001102  A1AA               	btfss	(___fldiv@b+3)& (0+255),0,b
  4405   001104  EF86  F008         	goto	u3141
  4406   001108  EF88  F008         	goto	u3140
  4407   00110C                     u3141:
  4408   00110C  EF9F  F008         	goto	l3717
  4409   001110                     u3140:
  4410   001110                     
  4411                           ; BSR set to: 0
  4412   001110  C0A7  F0AF         	movff	___fldiv@b,??___fldiv
  4413   001114  C0A8  F0B0         	movff	___fldiv@b+1,??___fldiv+1
  4414   001118  C0A9  F0B1         	movff	___fldiv@b+2,??___fldiv+2
  4415   00111C  C0AA  F0B2         	movff	___fldiv@b+3,??___fldiv+3
  4416   001120  35B2               	rlcf	(??___fldiv+3)& (0+255),w,b
  4417   001122  33B2               	rrcf	(??___fldiv+3)& (0+255),f,b
  4418   001124  33B1               	rrcf	(??___fldiv+2)& (0+255),f,b
  4419   001126  33B0               	rrcf	(??___fldiv+1)& (0+255),f,b
  4420   001128  33AF               	rrcf	??___fldiv& (0+255),f,b
  4421   00112A  C0AF  F0A7         	movff	??___fldiv,___fldiv@b
  4422   00112E  C0B0  F0A8         	movff	??___fldiv+1,___fldiv@b+1
  4423   001132  C0B1  F0A9         	movff	??___fldiv+2,___fldiv@b+2
  4424   001136  C0B2  F0AA         	movff	??___fldiv+3,___fldiv@b+3
  4425   00113A                     
  4426                           ; BSR set to: 0
  4427   00113A  4BB8               	infsnz	___fldiv@new_exp& (0+255),f,b
  4428   00113C  2BB9               	incf	(___fldiv@new_exp+1)& (0+255),f,b
  4429   00113E                     l3717:
  4430                           
  4431                           ; BSR set to: 0
  4432   00113E  BFB9               	btfsc	(___fldiv@new_exp+1)& (0+255),7,b
  4433   001140  EFAA  F008         	goto	u3151
  4434   001144  51B9               	movf	(___fldiv@new_exp+1)& (0+255),w,b
  4435   001146  E108               	bnz	u3150
  4436   001148  29B8               	incf	___fldiv@new_exp& (0+255),w,b
  4437   00114A  A0D8               	btfss	status,0,c
  4438   00114C  EFAA  F008         	goto	u3151
  4439   001150  EFAC  F008         	goto	u3150
  4440   001154                     u3151:
  4441   001154  EFB7  F008         	goto	l3721
  4442   001158                     u3150:
  4443   001158                     
  4444                           ; BSR set to: 0
  4445   001158  0E00               	movlw	0
  4446   00115A  6FB9               	movwf	(___fldiv@new_exp+1)& (0+255),b
  4447   00115C  69B8               	setf	___fldiv@new_exp& (0+255),b
  4448   00115E  0E00               	movlw	0
  4449   001160  6FA7               	movwf	___fldiv@b& (0+255),b
  4450   001162  0E00               	movlw	0
  4451   001164  6FA8               	movwf	(___fldiv@b+1)& (0+255),b
  4452   001166  0E00               	movlw	0
  4453   001168  6FA9               	movwf	(___fldiv@b+2)& (0+255),b
  4454   00116A  0E00               	movlw	0
  4455   00116C  6FAA               	movwf	(___fldiv@b+3)& (0+255),b
  4456   00116E                     l3721:
  4457                           
  4458                           ; BSR set to: 0
  4459   00116E  BFB9               	btfsc	(___fldiv@new_exp+1)& (0+255),7,b
  4460   001170  EFC4  F008         	goto	u3160
  4461   001174  51B9               	movf	(___fldiv@new_exp+1)& (0+255),w,b
  4462   001176  E106               	bnz	u3161
  4463   001178  05B8               	decf	___fldiv@new_exp& (0+255),w,b
  4464   00117A  B0D8               	btfsc	status,0,c
  4465   00117C  EFC2  F008         	goto	u3161
  4466   001180  EFC4  F008         	goto	u3160
  4467   001184                     u3161:
  4468   001184  EFD2  F008         	goto	l3725
  4469   001188                     u3160:
  4470   001188                     
  4471                           ; BSR set to: 0
  4472   001188  0E00               	movlw	0
  4473   00118A  6FB9               	movwf	(___fldiv@new_exp+1)& (0+255),b
  4474   00118C  0E00               	movlw	0
  4475   00118E  6FB8               	movwf	___fldiv@new_exp& (0+255),b
  4476   001190  0E00               	movlw	0
  4477   001192  6FA7               	movwf	___fldiv@b& (0+255),b
  4478   001194  0E00               	movlw	0
  4479   001196  6FA8               	movwf	(___fldiv@b+1)& (0+255),b
  4480   001198  0E00               	movlw	0
  4481   00119A  6FA9               	movwf	(___fldiv@b+2)& (0+255),b
  4482   00119C  0E00               	movlw	0
  4483   00119E  6FAA               	movwf	(___fldiv@b+3)& (0+255),b
  4484   0011A0  0E00               	movlw	0
  4485   0011A2  6FB7               	movwf	___fldiv@sign& (0+255),b
  4486   0011A4                     l3725:
  4487                           
  4488                           ; BSR set to: 0
  4489   0011A4  C0B8  F0BE         	movff	___fldiv@new_exp,___fldiv@bexp
  4490   0011A8                     
  4491                           ; BSR set to: 0
  4492   0011A8  A1BE               	btfss	___fldiv@bexp& (0+255),0,b
  4493   0011AA  EFD9  F008         	goto	u3171
  4494   0011AE  EFDB  F008         	goto	u3170
  4495   0011B2                     u3171:
  4496   0011B2  EFDE  F008         	goto	l3731
  4497   0011B6                     u3170:
  4498   0011B6                     
  4499                           ; BSR set to: 0
  4500   0011B6  8FA9               	bsf	(___fldiv@b+2)& (0+255),7,b
  4501   0011B8  EFDF  F008         	goto	l3733
  4502   0011BC                     l3731:
  4503                           
  4504                           ; BSR set to: 0
  4505   0011BC  9FA9               	bcf	(___fldiv@b+2)& (0+255),7,b
  4506   0011BE                     l3733:
  4507                           
  4508                           ; BSR set to: 0
  4509   0011BE  90D8               	bcf	status,0,c
  4510   0011C0  31BE               	rrcf	___fldiv@bexp& (0+255),w,b
  4511   0011C2  6FAA               	movwf	(___fldiv@b+3)& (0+255),b
  4512   0011C4  EF95  F007         	goto	l3647
  4513   0011C8                     l1118:
  4514                           
  4515                           ; BSR set to: 0
  4516   0011C8  0012               	return		;funcret
  4517   0011CA                     __end_of___fldiv:
  4518                           	callstack 0
  4519                           
  4520 ;; *************** function _f_interrupt_high *****************
  4521 ;; Defined at:
  4522 ;;		line 45 in file "Interrupt.c"
  4523 ;; Parameters:    Size  Location     Type
  4524 ;;		None
  4525 ;; Auto vars:     Size  Location     Type
  4526 ;;		None
  4527 ;; Return value:  Size  Location     Type
  4528 ;;                  1    wreg      void 
  4529 ;; Registers used:
  4530 ;;		wreg, fsr1l, fsr1h, fsr2l, fsr2h, status,2, status,0, tblptrl, tblptrh, tblptru, prodl, prodh, cstack
  4531 ;; Tracked objects:
  4532 ;;		On entry : 0/0
  4533 ;;		On exit  : 0/0
  4534 ;;		Unchanged: 0/0
  4535 ;; Data sizes:     COMRAM   BANK0   BANK1   BANK2   BANK3   BANK4   BANK5
  4536 ;;      Params:         0       0       0       0       0       0       0
  4537 ;;      Locals:         0       0       0       0       0       0       0
  4538 ;;      Temps:         10       0       0       0       0       0       0
  4539 ;;      Totals:        10       0       0       0       0       0       0
  4540 ;;Total ram usage:       10 bytes
  4541 ;; Hardware stack levels used: 1
  4542 ;; Hardware stack levels required when called: 10
  4543 ;; This function calls:
  4544 ;;		_f_timers
  4545 ;; This function is called by:
  4546 ;;		Interrupt level 2
  4547 ;; This function uses a non-reentrant model
  4548 ;;
  4549                           
  4550                           	psect	intcode
  4551   000008                     __pintcode:
  4552                           	callstack 0
  4553   000008                     _f_interrupt_high:
  4554                           	callstack 16
  4555                           
  4556                           ; BSR set to: 0
  4557                           ;incstack = 0
  4558   000008  827F               	bsf	int$flags,1,c	;set compiler interrupt flag (level 2)
  4559   00000A  EDC0  F00D         	call	int_func,f	;refresh shadow registers
  4560                           
  4561                           	psect	intcode_body
  4562   001B80                     __pintcode_body:
  4563                           	callstack 16
  4564   001B80                     int_func:
  4565                           	callstack 16
  4566   001B80  0006               	pop		; remove dummy address from shadow register refresh
  4567   001B82  CFE1 F070          	movff	fsr1l,??_f_interrupt_high
  4568   001B86  CFE2 F071          	movff	fsr1h,??_f_interrupt_high+1
  4569   001B8A  CFD9 F072          	movff	fsr2l,??_f_interrupt_high+2
  4570   001B8E  CFDA F073          	movff	fsr2h,??_f_interrupt_high+3
  4571   001B92  CFF3 F074          	movff	prodl,??_f_interrupt_high+4
  4572   001B96  CFF4 F075          	movff	prodh,??_f_interrupt_high+5
  4573   001B9A  CFF6 F076          	movff	tblptrl,??_f_interrupt_high+6
  4574   001B9E  CFF7 F077          	movff	tblptrh,??_f_interrupt_high+7
  4575   001BA2  CFF8 F078          	movff	tblptru,??_f_interrupt_high+8
  4576   001BA6  CFF5 F079          	movff	tablat,??_f_interrupt_high+9
  4577   001BAA                     
  4578                           ;Interrupt.c: 47:     if (TMR0IF && TMR0IE) {
  4579   001BAA  A4F2               	btfss	4082,2,c	;volatile
  4580   001BAC  EFDA  F00D         	goto	i2u360_41
  4581   001BB0  EFDC  F00D         	goto	i2u360_40
  4582   001BB4                     i2u360_41:
  4583   001BB4  EFEA  F00D         	goto	i2l4051
  4584   001BB8                     i2u360_40:
  4585   001BB8  AAF2               	btfss	4082,5,c	;volatile
  4586   001BBA  EFE1  F00D         	goto	i2u361_41
  4587   001BBE  EFE3  F00D         	goto	i2u361_40
  4588   001BC2                     i2u361_41:
  4589   001BC2  EFEA  F00D         	goto	i2l4051
  4590   001BC6                     i2u361_40:
  4591   001BC6                     
  4592                           ;Interrupt.c: 48:         TMR0 += 0x06;
  4593   001BC6  0E06               	movlw	6
  4594   001BC8  26D6               	addwf	214,f,c	;volatile
  4595   001BCA  0E00               	movlw	0
  4596   001BCC  22D7               	addwfc	215,f,c	;volatile
  4597   001BCE                     
  4598                           ;Interrupt.c: 50:         f_timers();
  4599   001BCE  EC4A  F00F         	call	_f_timers	;wreg free
  4600   001BD2                     
  4601                           ;Interrupt.c: 53:         TMR0IF = 0x00;
  4602   001BD2  94F2               	bcf	4082,2,c	;volatile
  4603   001BD4                     i2l4051:
  4604                           
  4605                           ;Interrupt.c: 56:     if (INT0IF && INT0IE) {
  4606   001BD4  A2F2               	btfss	4082,1,c	;volatile
  4607   001BD6  EFEF  F00D         	goto	i2u362_41
  4608   001BDA  EFF1  F00D         	goto	i2u362_40
  4609   001BDE                     i2u362_41:
  4610   001BDE  EFF9  F00D         	goto	i2l283
  4611   001BE2                     i2u362_40:
  4612   001BE2  A8F2               	btfss	4082,4,c	;volatile
  4613   001BE4  EFF6  F00D         	goto	i2u363_41
  4614   001BE8  EFF8  F00D         	goto	i2u363_40
  4615   001BEC                     i2u363_41:
  4616   001BEC  EFF9  F00D         	goto	i2l283
  4617   001BF0                     i2u363_40:
  4618   001BF0                     
  4619                           ;Interrupt.c: 57:         INT0IF = 0;
  4620   001BF0  92F2               	bcf	4082,1,c	;volatile
  4621   001BF2                     i2l283:
  4622                           
  4623                           ;Interrupt.c: 60:     if (INT1IF && INT1IE) {
  4624   001BF2  A0F0               	btfss	4080,0,c	;volatile
  4625   001BF4  EFFE  F00D         	goto	i2u364_41
  4626   001BF8  EF00  F00E         	goto	i2u364_40
  4627   001BFC                     i2u364_41:
  4628   001BFC  EF08  F00E         	goto	i2l284
  4629   001C00                     i2u364_40:
  4630   001C00  A6F0               	btfss	4080,3,c	;volatile
  4631   001C02  EF05  F00E         	goto	i2u365_41
  4632   001C06  EF07  F00E         	goto	i2u365_40
  4633   001C0A                     i2u365_41:
  4634   001C0A  EF08  F00E         	goto	i2l284
  4635   001C0E                     i2u365_40:
  4636   001C0E                     
  4637                           ;Interrupt.c: 61:         INT1IF = 0;
  4638   001C0E  90F0               	bcf	4080,0,c	;volatile
  4639   001C10                     i2l284:
  4640                           
  4641                           ;Interrupt.c: 64:     if (INT2IF && INT2IE) {
  4642   001C10  A2F0               	btfss	4080,1,c	;volatile
  4643   001C12  EF0D  F00E         	goto	i2u366_41
  4644   001C16  EF0F  F00E         	goto	i2u366_40
  4645   001C1A                     i2u366_41:
  4646   001C1A  EF17  F00E         	goto	i2l285
  4647   001C1E                     i2u366_40:
  4648   001C1E  A8F0               	btfss	4080,4,c	;volatile
  4649   001C20  EF14  F00E         	goto	i2u367_41
  4650   001C24  EF16  F00E         	goto	i2u367_40
  4651   001C28                     i2u367_41:
  4652   001C28  EF17  F00E         	goto	i2l285
  4653   001C2C                     i2u367_40:
  4654   001C2C                     
  4655                           ;Interrupt.c: 65:         INT2IF = 0;
  4656   001C2C  92F0               	bcf	4080,1,c	;volatile
  4657   001C2E                     i2l285:
  4658                           
  4659                           ;Interrupt.c: 68:     if (ADIF && ADIE && PEIE) {
  4660   001C2E  AC9E               	btfss	3998,6,c	;volatile
  4661   001C30  EF1C  F00E         	goto	i2u368_41
  4662   001C34  EF1E  F00E         	goto	i2u368_40
  4663   001C38                     i2u368_41:
  4664   001C38  EF2D  F00E         	goto	i2l286
  4665   001C3C                     i2u368_40:
  4666   001C3C  AC9D               	btfss	3997,6,c	;volatile
  4667   001C3E  EF23  F00E         	goto	i2u369_41
  4668   001C42  EF25  F00E         	goto	i2u369_40
  4669   001C46                     i2u369_41:
  4670   001C46  EF2D  F00E         	goto	i2l286
  4671   001C4A                     i2u369_40:
  4672   001C4A  ACF2               	btfss	4082,6,c	;volatile
  4673   001C4C  EF2A  F00E         	goto	i2u370_41
  4674   001C50  EF2C  F00E         	goto	i2u370_40
  4675   001C54                     i2u370_41:
  4676   001C54  EF2D  F00E         	goto	i2l286
  4677   001C58                     i2u370_40:
  4678   001C58                     
  4679                           ;Interrupt.c: 69:         ADIF = 0;
  4680   001C58  9C9E               	bcf	3998,6,c	;volatile
  4681   001C5A                     i2l286:
  4682                           
  4683                           ;Interrupt.c: 72:     if (TMR2IF && TMR2IE && PEIE)
  4684   001C5A  A29E               	btfss	3998,1,c	;volatile
  4685   001C5C  EF32  F00E         	goto	i2u371_41
  4686   001C60  EF34  F00E         	goto	i2u371_40
  4687   001C64                     i2u371_41:
  4688   001C64  EF43  F00E         	goto	i2l288
  4689   001C68                     i2u371_40:
  4690   001C68  A29D               	btfss	3997,1,c	;volatile
  4691   001C6A  EF39  F00E         	goto	i2u372_41
  4692   001C6E  EF3B  F00E         	goto	i2u372_40
  4693   001C72                     i2u372_41:
  4694   001C72  EF43  F00E         	goto	i2l288
  4695   001C76                     i2u372_40:
  4696   001C76  ACF2               	btfss	4082,6,c	;volatile
  4697   001C78  EF40  F00E         	goto	i2u373_41
  4698   001C7C  EF42  F00E         	goto	i2u373_40
  4699   001C80                     i2u373_41:
  4700   001C80  EF43  F00E         	goto	i2l288
  4701   001C84                     i2u373_40:
  4702   001C84                     
  4703                           ;Interrupt.c: 73:     {;Interrupt.c: 75:         TMR2IF = 0;
  4704   001C84  929E               	bcf	3998,1,c	;volatile
  4705   001C86                     i2l288:
  4706   001C86  C079  FFF5         	movff	??_f_interrupt_high+9,tablat
  4707   001C8A  C078  FFF8         	movff	??_f_interrupt_high+8,tblptru
  4708   001C8E  C077  FFF7         	movff	??_f_interrupt_high+7,tblptrh
  4709   001C92  C076  FFF6         	movff	??_f_interrupt_high+6,tblptrl
  4710   001C96  C075  FFF4         	movff	??_f_interrupt_high+5,prodh
  4711   001C9A  C074  FFF3         	movff	??_f_interrupt_high+4,prodl
  4712   001C9E  C073  FFDA         	movff	??_f_interrupt_high+3,fsr2h
  4713   001CA2  C072  FFD9         	movff	??_f_interrupt_high+2,fsr2l
  4714   001CA6  C071  FFE2         	movff	??_f_interrupt_high+1,fsr1h
  4715   001CAA  C070  FFE1         	movff	??_f_interrupt_high,fsr1l
  4716   001CAE  927F               	bcf	int$flags,1,c	;clear compiler interrupt flag (level 2)
  4717   001CB0  0011               	retfie		f
  4718   001CB2                     __end_of_f_interrupt_high:
  4719                           	callstack 0
  4720                           
  4721 ;; *************** function _f_timers *****************
  4722 ;; Defined at:
  4723 ;;		line 113 in file "Interrupt.c"
  4724 ;; Parameters:    Size  Location     Type
  4725 ;;		None
  4726 ;; Auto vars:     Size  Location     Type
  4727 ;;		None
  4728 ;; Return value:  Size  Location     Type
  4729 ;;                  1    wreg      void 
  4730 ;; Registers used:
  4731 ;;		wreg, fsr1l, fsr1h, fsr2l, fsr2h, status,2, status,0, tblptrl, tblptrh, tblptru, prodl, prodh, cstack
  4732 ;; Tracked objects:
  4733 ;;		On entry : 0/0
  4734 ;;		On exit  : 0/0
  4735 ;;		Unchanged: 0/0
  4736 ;; Data sizes:     COMRAM   BANK0   BANK1   BANK2   BANK3   BANK4   BANK5
  4737 ;;      Params:         0       0       0       0       0       0       0
  4738 ;;      Locals:         0       0       0       0       0       0       0
  4739 ;;      Temps:          0       0       0       0       0       0       0
  4740 ;;      Totals:         0       0       0       0       0       0       0
  4741 ;;Total ram usage:        0 bytes
  4742 ;; Hardware stack levels used: 1
  4743 ;; Hardware stack levels required when called: 9
  4744 ;; This function calls:
  4745 ;;		_ADC_maq
  4746 ;;		_clock_regressive
  4747 ;;		_mux_display
  4748 ;;		_read_keyb
  4749 ;;		_show_display_LCD
  4750 ;; This function is called by:
  4751 ;;		_f_interrupt_high
  4752 ;; This function uses a non-reentrant model
  4753 ;;
  4754                           
  4755                           	psect	text23
  4756   001E94                     __ptext23:
  4757                           	callstack 0
  4758   001E94                     _f_timers:
  4759                           	callstack 16
  4760   001E94                     
  4761                           ;Interrupt.c: 114:     static uint16_t counter1 = 1, counter2 = 1, counter3 = 1, counter
      +                          4 = 1, counter5 = 1;;Interrupt.c: 116:     RE0 ^= 1;
  4762   001E94  7084               	btg	3972,0,c	;volatile
  4763   001E96                     
  4764                           ;Interrupt.c: 118:     ADC_maq();
  4765   001E96  EC49  F013         	call	_ADC_maq	;wreg free
  4766   001E9A                     
  4767                           ;Interrupt.c: 120:     if (counter1 < 5)
  4768   001E9A  0100               	movlb	0	; () banked
  4769   001E9C  51F6               	movf	(f_timers@counter1+1)& (0+255),w,b
  4770   001E9E  E107               	bnz	i2u354_41
  4771   001EA0  0E05               	movlw	5
  4772   001EA2  5DF5               	subwf	f_timers@counter1& (0+255),w,b
  4773   001EA4  B0D8               	btfsc	status,0,c
  4774   001EA6  EF57  F00F         	goto	i2u354_41
  4775   001EAA  EF59  F00F         	goto	i2u354_40
  4776   001EAE                     i2u354_41:
  4777   001EAE  EF5D  F00F         	goto	i2l4003
  4778   001EB2                     i2u354_40:
  4779   001EB2                     
  4780                           ; BSR set to: 0
  4781                           ;Interrupt.c: 121:     {;Interrupt.c: 122:         counter1++;
  4782   001EB2  4BF5               	infsnz	f_timers@counter1& (0+255),f,b
  4783   001EB4  2BF6               	incf	(f_timers@counter1+1)& (0+255),f,b
  4784                           
  4785                           ;Interrupt.c: 123:     }
  4786   001EB6  EF64  F00F         	goto	i2l4007
  4787   001EBA                     i2l4003:
  4788                           
  4789                           ; BSR set to: 0
  4790                           ;Interrupt.c: 126:     {;Interrupt.c: 127:         mux_display();
  4791   001EBA  EC92  F011         	call	_mux_display	;wreg free
  4792   001EBE                     
  4793                           ;Interrupt.c: 128:         counter1 = 1;
  4794   001EBE  0E00               	movlw	0
  4795   001EC0  0100               	movlb	0	; () banked
  4796   001EC2  6FF6               	movwf	(f_timers@counter1+1)& (0+255),b
  4797   001EC4  0E01               	movlw	1
  4798   001EC6  6FF5               	movwf	f_timers@counter1& (0+255),b
  4799   001EC8                     i2l4007:
  4800                           
  4801                           ; BSR set to: 0
  4802                           ;Interrupt.c: 132:     if (counter2 < 10)
  4803   001EC8  51F4               	movf	(f_timers@counter2+1)& (0+255),w,b
  4804   001ECA  E107               	bnz	i2u355_41
  4805   001ECC  0E0A               	movlw	10
  4806   001ECE  5DF3               	subwf	f_timers@counter2& (0+255),w,b
  4807   001ED0  B0D8               	btfsc	status,0,c
  4808   001ED2  EF6D  F00F         	goto	i2u355_41
  4809   001ED6  EF6F  F00F         	goto	i2u355_40
  4810   001EDA                     i2u355_41:
  4811   001EDA  EF73  F00F         	goto	i2l4011
  4812   001EDE                     i2u355_40:
  4813   001EDE                     
  4814                           ; BSR set to: 0
  4815                           ;Interrupt.c: 133:     {;Interrupt.c: 134:         counter2++;
  4816   001EDE  4BF3               	infsnz	f_timers@counter2& (0+255),f,b
  4817   001EE0  2BF4               	incf	(f_timers@counter2+1)& (0+255),f,b
  4818                           
  4819                           ;Interrupt.c: 135:     }
  4820   001EE2  EF7A  F00F         	goto	i2l4015
  4821   001EE6                     i2l4011:
  4822                           
  4823                           ; BSR set to: 0
  4824                           ;Interrupt.c: 138:     {;Interrupt.c: 139:         read_keyb();
  4825   001EE6  EC1B  F00D         	call	_read_keyb	;wreg free
  4826   001EEA                     
  4827                           ;Interrupt.c: 141:         counter2 = 1;
  4828   001EEA  0E00               	movlw	0
  4829   001EEC  0100               	movlb	0	; () banked
  4830   001EEE  6FF4               	movwf	(f_timers@counter2+1)& (0+255),b
  4831   001EF0  0E01               	movlw	1
  4832   001EF2  6FF3               	movwf	f_timers@counter2& (0+255),b
  4833   001EF4                     i2l4015:
  4834                           
  4835                           ; BSR set to: 0
  4836                           ;Interrupt.c: 144:     if (counter3 < temporizacao)
  4837   001EF4  51F7               	movf	_temporizacao& (0+255),w,b
  4838   001EF6  5DF1               	subwf	f_timers@counter3& (0+255),w,b
  4839   001EF8  51F8               	movf	(_temporizacao+1)& (0+255),w,b
  4840   001EFA  59F2               	subwfb	(f_timers@counter3+1)& (0+255),w,b
  4841   001EFC  B0D8               	btfsc	status,0,c
  4842   001EFE  EF83  F00F         	goto	i2u356_41
  4843   001F02  EF85  F00F         	goto	i2u356_40
  4844   001F06                     i2u356_41:
  4845   001F06  EF89  F00F         	goto	i2l4019
  4846   001F0A                     i2u356_40:
  4847   001F0A                     
  4848                           ; BSR set to: 0
  4849                           ;Interrupt.c: 145:     {;Interrupt.c: 146:         counter3++;
  4850   001F0A  4BF1               	infsnz	f_timers@counter3& (0+255),f,b
  4851   001F0C  2BF2               	incf	(f_timers@counter3+1)& (0+255),f,b
  4852                           
  4853                           ;Interrupt.c: 147:     }
  4854   001F0E  EF98  F00F         	goto	i2l4025
  4855   001F12                     i2l4019:
  4856                           
  4857                           ; BSR set to: 0
  4858                           ;Interrupt.c: 150:     {;Interrupt.c: 151:         if(start_counter)
  4859   001F12  51E3               	movf	_start_counter& (0+255),w,b
  4860   001F14  B4D8               	btfsc	status,2,c
  4861   001F16  EF8F  F00F         	goto	i2u357_41
  4862   001F1A  EF91  F00F         	goto	i2u357_40
  4863   001F1E                     i2u357_41:
  4864   001F1E  EF93  F00F         	goto	i2l4023
  4865   001F22                     i2u357_40:
  4866   001F22                     
  4867                           ; BSR set to: 0
  4868                           ;Interrupt.c: 152:             clock_regressive();
  4869   001F22  EC10  F013         	call	_clock_regressive	;wreg free
  4870   001F26                     i2l4023:
  4871                           
  4872                           ;Interrupt.c: 153:         counter3 = 1;
  4873   001F26  0E00               	movlw	0
  4874   001F28  0100               	movlb	0	; () banked
  4875   001F2A  6FF2               	movwf	(f_timers@counter3+1)& (0+255),b
  4876   001F2C  0E01               	movlw	1
  4877   001F2E  6FF1               	movwf	f_timers@counter3& (0+255),b
  4878   001F30                     i2l4025:
  4879                           
  4880                           ; BSR set to: 0
  4881                           ;Interrupt.c: 156:     if (counter4 < 100)
  4882   001F30  51F0               	movf	(f_timers@counter4+1)& (0+255),w,b
  4883   001F32  E107               	bnz	i2u358_41
  4884   001F34  0E64               	movlw	100
  4885   001F36  5DEF               	subwf	f_timers@counter4& (0+255),w,b
  4886   001F38  B0D8               	btfsc	status,0,c
  4887   001F3A  EFA1  F00F         	goto	i2u358_41
  4888   001F3E  EFA3  F00F         	goto	i2u358_40
  4889   001F42                     i2u358_41:
  4890   001F42  EFA7  F00F         	goto	i2l4029
  4891   001F46                     i2u358_40:
  4892   001F46                     
  4893                           ; BSR set to: 0
  4894                           ;Interrupt.c: 157:     {;Interrupt.c: 158:         counter4++;
  4895   001F46  4BEF               	infsnz	f_timers@counter4& (0+255),f,b
  4896   001F48  2BF0               	incf	(f_timers@counter4+1)& (0+255),f,b
  4897                           
  4898                           ;Interrupt.c: 159:     }
  4899   001F4A  EFAE  F00F         	goto	i2l319
  4900   001F4E                     i2l4029:
  4901                           
  4902                           ; BSR set to: 0
  4903                           ;Interrupt.c: 162:     {;Interrupt.c: 163:         show_display_LCD();
  4904   001F4E  ECDC  F010         	call	_show_display_LCD	;wreg free
  4905   001F52                     
  4906                           ;Interrupt.c: 164:         counter4 = 1;
  4907   001F52  0E00               	movlw	0
  4908   001F54  0100               	movlb	0	; () banked
  4909   001F56  6FF0               	movwf	(f_timers@counter4+1)& (0+255),b
  4910   001F58  0E01               	movlw	1
  4911   001F5A  6FEF               	movwf	f_timers@counter4& (0+255),b
  4912   001F5C                     i2l319:
  4913                           
  4914                           ; BSR set to: 0
  4915   001F5C  0012               	return		;funcret
  4916   001F5E                     __end_of_f_timers:
  4917                           	callstack 0
  4918                           
  4919 ;; *************** function _show_display_LCD *****************
  4920 ;; Defined at:
  4921 ;;		line 342 in file "Interrupt.c"
  4922 ;; Parameters:    Size  Location     Type
  4923 ;;		None
  4924 ;; Auto vars:     Size  Location     Type
  4925 ;;		None
  4926 ;; Return value:  Size  Location     Type
  4927 ;;                  1    wreg      void 
  4928 ;; Registers used:
  4929 ;;		wreg, fsr1l, fsr1h, fsr2l, fsr2h, status,2, status,0, tblptrl, tblptrh, tblptru, prodl, prodh, cstack
  4930 ;; Tracked objects:
  4931 ;;		On entry : 0/0
  4932 ;;		On exit  : 0/0
  4933 ;;		Unchanged: 0/0
  4934 ;; Data sizes:     COMRAM   BANK0   BANK1   BANK2   BANK3   BANK4   BANK5
  4935 ;;      Params:         0       0       0       0       0       0       0
  4936 ;;      Locals:         0       0       0       0       0       0       0
  4937 ;;      Temps:          0       0       0       0       0       0       0
  4938 ;;      Totals:         0       0       0       0       0       0       0
  4939 ;;Total ram usage:        0 bytes
  4940 ;; Hardware stack levels used: 1
  4941 ;; Hardware stack levels required when called: 8
  4942 ;; This function calls:
  4943 ;;		_lcd_str
  4944 ;;		_sprintf
  4945 ;;		i2_lcd_cmd
  4946 ;; This function is called by:
  4947 ;;		_f_timers
  4948 ;; This function uses a non-reentrant model
  4949 ;;
  4950                           
  4951                           	psect	text24
  4952   0021B8                     __ptext24:
  4953                           	callstack 0
  4954   0021B8                     _show_display_LCD:
  4955                           	callstack 16
  4956   0021B8                     
  4957                           ;Interrupt.c: 344:     static uint8_t old_latd = 0, memoria_modo = 0;;Interrupt.c: 345: 
      +                              old_latd = LATD;
  4958   0021B8  CF8C F0DE          	movff	3980,show_display_LCD@old_latd	;volatile
  4959   0021BC                     
  4960                           ;Interrupt.c: 347:     static char modo = 0;;Interrupt.c: 348:     if(enable_time_config
      +                          ) modo = 'A';
  4961   0021BC  507E               	movf	_enable_time_config^0,w,c
  4962   0021BE  B4D8               	btfsc	status,2,c
  4963   0021C0  EFE4  F010         	goto	i2u290_41
  4964   0021C4  EFE6  F010         	goto	i2u290_40
  4965   0021C8                     i2u290_41:
  4966   0021C8  EFEB  F010         	goto	i2l3561
  4967   0021CC                     i2u290_40:
  4968   0021CC  0E41               	movlw	65
  4969   0021CE  0100               	movlb	0	; () banked
  4970   0021D0  6FDC               	movwf	show_display_LCD@modo& (0+255),b
  4971   0021D2  EFEE  F010         	goto	i2l3563
  4972   0021D6                     i2l3561:
  4973   0021D6  0E54               	movlw	84
  4974   0021D8  0100               	movlb	0	; () banked
  4975   0021DA  6FDC               	movwf	show_display_LCD@modo& (0+255),b
  4976   0021DC                     i2l3563:
  4977                           
  4978                           ; BSR set to: 0
  4979                           ;Interrupt.c: 350:     if(memoria_modo != enable_time_config)
  4980   0021DC  51DD               	movf	show_display_LCD@memoria_modo& (0+255),w,b
  4981   0021DE  187E               	xorwf	_enable_time_config^0,w,c
  4982   0021E0  B4D8               	btfsc	status,2,c
  4983   0021E2  EFF5  F010         	goto	i2u291_41
  4984   0021E6  EFF7  F010         	goto	i2u291_40
  4985   0021EA                     i2u291_41:
  4986   0021EA  EF0D  F011         	goto	i2l3571
  4987   0021EE                     i2u291_40:
  4988   0021EE                     
  4989                           ; BSR set to: 0
  4990                           ;Interrupt.c: 351:     {;Interrupt.c: 352:         lcd_cmd(0x80);
  4991   0021EE  0E80               	movlw	128
  4992   0021F0  ECC3  F015         	call	i2_lcd_cmd
  4993   0021F4                     
  4994                           ;Interrupt.c: 353:         sprintf(buffer, "Grupo I modo: %c", modo);
  4995   0021F4  0E5B               	movlw	low _buffer
  4996   0021F6  6E5B               	movwf	sprintf@s^0,c
  4997   0021F8  0E01               	movlw	high _buffer
  4998   0021FA  6E5C               	movwf	(sprintf@s+1)^0,c
  4999   0021FC  0E01               	movlw	low STR_1
  5000   0021FE  6E5D               	movwf	sprintf@fmt^0,c
  5001   002200  0E06               	movlw	high STR_1
  5002   002202  6E5E               	movwf	(sprintf@fmt+1)^0,c
  5003   002204  C0DC  F05F         	movff	show_display_LCD@modo,?_sprintf+4
  5004   002208  6A60               	clrf	(?_sprintf+5)^0,c
  5005   00220A  EC18  F014         	call	_sprintf	;wreg free
  5006   00220E                     
  5007                           ;Interrupt.c: 354:         lcd_str(buffer);
  5008   00220E  0E5B               	movlw	low _buffer
  5009   002210  6E03               	movwf	lcd_str@str^0,c
  5010   002212  0E01               	movlw	high _buffer
  5011   002214  6E04               	movwf	(lcd_str@str+1)^0,c
  5012   002216  EC0C  F015         	call	_lcd_str	;wreg free
  5013   00221A                     i2l3571:
  5014                           
  5015                           ;Interrupt.c: 357:     if(imprime_linha2)
  5016   00221A  0100               	movlb	0	; () banked
  5017   00221C  51FF               	movf	_imprime_linha2& (0+255),w,b
  5018   00221E  B4D8               	btfsc	status,2,c
  5019   002220  EF14  F011         	goto	i2u292_41
  5020   002224  EF16  F011         	goto	i2u292_40
  5021   002228                     i2u292_41:
  5022   002228  EF34  F011         	goto	i2l3581
  5023   00222C                     i2u292_40:
  5024   00222C                     
  5025                           ; BSR set to: 0
  5026                           ;Interrupt.c: 358:     {;Interrupt.c: 359:         lcd_cmd(0xC0);
  5027   00222C  0EC0               	movlw	192
  5028   00222E  ECC3  F015         	call	i2_lcd_cmd
  5029   002232                     
  5030                           ;Interrupt.c: 360:         sprintf(buffer, "DC: %3.3d%% T:%d", porcentagem, tempo_total)
      +                          ;
  5031   002232  0E5B               	movlw	low _buffer
  5032   002234  6E5B               	movwf	sprintf@s^0,c
  5033   002236  0E01               	movlw	high _buffer
  5034   002238  6E5C               	movwf	(sprintf@s+1)^0,c
  5035   00223A  0E12               	movlw	low STR_2
  5036   00223C  6E5D               	movwf	sprintf@fmt^0,c
  5037   00223E  0E06               	movlw	high STR_2
  5038   002240  6E5E               	movwf	(sprintf@fmt+1)^0,c
  5039   002242  C0D4  F05F         	movff	_porcentagem,?_sprintf+4
  5040   002246  C0D5  F060         	movff	_porcentagem+1,?_sprintf+5
  5041   00224A  C0D2  F061         	movff	_tempo_total,?_sprintf+6
  5042   00224E  C0D3  F062         	movff	_tempo_total+1,?_sprintf+7
  5043   002252  EC18  F014         	call	_sprintf	;wreg free
  5044   002256                     
  5045                           ;Interrupt.c: 361:         lcd_str(buffer);
  5046   002256  0E5B               	movlw	low _buffer
  5047   002258  6E03               	movwf	lcd_str@str^0,c
  5048   00225A  0E01               	movlw	high _buffer
  5049   00225C  6E04               	movwf	(lcd_str@str+1)^0,c
  5050   00225E  EC0C  F015         	call	_lcd_str	;wreg free
  5051   002262                     
  5052                           ;Interrupt.c: 362:         imprime_linha2 = 0;
  5053   002262  0E00               	movlw	0
  5054   002264  0100               	movlb	0	; () banked
  5055   002266  6FFF               	movwf	_imprime_linha2& (0+255),b
  5056   002268                     i2l3581:
  5057                           
  5058                           ; BSR set to: 0
  5059                           ;Interrupt.c: 365:     memoria_modo = enable_time_config;
  5060   002268  C07E  F0DD         	movff	_enable_time_config,show_display_LCD@memoria_modo
  5061   00226C                     
  5062                           ; BSR set to: 0
  5063                           ;Interrupt.c: 366:     LATD = old_latd;
  5064   00226C  C0DE  FF8C         	movff	show_display_LCD@old_latd,3980	;volatile
  5065   002270                     
  5066                           ; BSR set to: 0
  5067   002270  0012               	return		;funcret
  5068   002272                     __end_of_show_display_LCD:
  5069                           	callstack 0
  5070                           
  5071 ;; *************** function i2_lcd_cmd *****************
  5072 ;; Defined at:
  5073 ;;		line 34 in file "lcd.c"
  5074 ;; Parameters:    Size  Location     Type
  5075 ;;  val             1    wreg     unsigned char 
  5076 ;; Auto vars:     Size  Location     Type
  5077 ;;  val             1    1[COMRAM] unsigned char 
  5078 ;; Return value:  Size  Location     Type
  5079 ;;                  1    wreg      void 
  5080 ;; Registers used:
  5081 ;;		wreg, status,2, cstack
  5082 ;; Tracked objects:
  5083 ;;		On entry : 0/0
  5084 ;;		On exit  : 0/0
  5085 ;;		Unchanged: 0/0
  5086 ;; Data sizes:     COMRAM   BANK0   BANK1   BANK2   BANK3   BANK4   BANK5
  5087 ;;      Params:         0       0       0       0       0       0       0
  5088 ;;      Locals:         1       0       0       0       0       0       0
  5089 ;;      Temps:          0       0       0       0       0       0       0
  5090 ;;      Totals:         1       0       0       0       0       0       0
  5091 ;;Total ram usage:        1 bytes
  5092 ;; Hardware stack levels used: 1
  5093 ;; Hardware stack levels required when called: 1
  5094 ;; This function calls:
  5095 ;;		i2_lcd_wr
  5096 ;; This function is called by:
  5097 ;;		_show_display_LCD
  5098 ;; This function uses a non-reentrant model
  5099 ;;
  5100                           
  5101                           	psect	text25
  5102   002B86                     __ptext25:
  5103                           	callstack 0
  5104   002B86                     i2_lcd_cmd:
  5105                           	callstack 22
  5106                           
  5107                           ; BSR set to: 0
  5108                           ;incstack = 0
  5109                           ;i2lcd_cmd@val stored from wreg
  5110   002B86  6E02               	movwf	i2lcd_cmd@val^0,c
  5111   002B88                     
  5112                           ;lcd.c: 34: void lcd_cmd(unsigned char val);lcd.c: 35: {;lcd.c: 36:  PORTEbits.RE1=1;
  5113   002B88  8284               	bsf	132,1,c	;volatile
  5114   002B8A                     
  5115                           ;lcd.c: 37:     lcd_wr(val);
  5116   002B8A  5002               	movf	i2lcd_cmd@val^0,w,c
  5117   002B8C  EC2D  F016         	call	i2_lcd_wr
  5118   002B90                     
  5119                           ;lcd.c: 38:     PORTEbits.RE2=0;
  5120   002B90  9484               	bcf	132,2,c	;volatile
  5121   002B92                     
  5122                           ;lcd.c: 39:     _delay((unsigned long)((40)*(4000000/4000000.0)));
  5123   002B92  0E0D               	movlw	13
  5124   002B94                     i2u379_47:
  5125   002B94  2EE8               	decfsz	wreg,f,c
  5126   002B96  D7FE               	bra	i2u379_47
  5127   002B98  F000               	nop	
  5128   002B9A                     
  5129                           ;lcd.c: 40:     PORTEbits.RE1=0;
  5130   002B9A  9284               	bcf	132,1,c	;volatile
  5131   002B9C                     
  5132                           ;lcd.c: 41:     _delay((unsigned long)((40)*(4000000/4000000.0)));
  5133   002B9C  0E0D               	movlw	13
  5134   002B9E                     i2u380_47:
  5135   002B9E  2EE8               	decfsz	wreg,f,c
  5136   002BA0  D7FE               	bra	i2u380_47
  5137   002BA2  F000               	nop	
  5138   002BA4                     
  5139                           ;lcd.c: 42:  PORTEbits.RE1=1;
  5140   002BA4  8284               	bsf	132,1,c	;volatile
  5141   002BA6  0012               	return		;funcret
  5142   002BA8                     __end_ofi2_lcd_cmd:
  5143                           	callstack 0
  5144                           
  5145 ;; *************** function _sprintf *****************
  5146 ;; Defined at:
  5147 ;;		line 9 in file "C:\Program Files\Microchip\xc8\v2.40\pic\sources\c99\common\nf_sprintf.c"
  5148 ;; Parameters:    Size  Location     Type
  5149 ;;  s               2   90[COMRAM] PTR unsigned char 
  5150 ;;		 -> buffer(10), 
  5151 ;;  fmt             2   92[COMRAM] PTR const unsigned char 
  5152 ;;		 -> STR_2(17), STR_1(17), 
  5153 ;; Auto vars:     Size  Location     Type
  5154 ;;  f              11  100[COMRAM] struct _IO_FILE
  5155 ;;  ap              2   98[COMRAM] PTR void [1]
  5156 ;;		 -> ?_sprintf(2), 
  5157 ;;  ret             2    0        int 
  5158 ;; Return value:  Size  Location     Type
  5159 ;;                  2   90[COMRAM] int 
  5160 ;; Registers used:
  5161 ;;		wreg, fsr1l, fsr1h, fsr2l, fsr2h, status,2, status,0, tblptrl, tblptrh, tblptru, prodl, prodh, cstack
  5162 ;; Tracked objects:
  5163 ;;		On entry : 0/0
  5164 ;;		On exit  : 0/0
  5165 ;;		Unchanged: 0/0
  5166 ;; Data sizes:     COMRAM   BANK0   BANK1   BANK2   BANK3   BANK4   BANK5
  5167 ;;      Params:         8       0       0       0       0       0       0
  5168 ;;      Locals:        13       0       0       0       0       0       0
  5169 ;;      Temps:          0       0       0       0       0       0       0
  5170 ;;      Totals:        21       0       0       0       0       0       0
  5171 ;;Total ram usage:       21 bytes
  5172 ;; Hardware stack levels used: 1
  5173 ;; Hardware stack levels required when called: 7
  5174 ;; This function calls:
  5175 ;;		_vfprintf
  5176 ;; This function is called by:
  5177 ;;		_show_display_LCD
  5178 ;; This function uses a non-reentrant model
  5179 ;;
  5180                           
  5181                           	psect	text26
  5182   002830                     __ptext26:
  5183                           	callstack 0
  5184   002830                     _sprintf:
  5185                           	callstack 16
  5186   002830  0E5F               	movlw	low (?_sprintf+4)
  5187   002832  6E63               	movwf	sprintf@ap^0,c
  5188   002834  0E00               	movlw	high (?_sprintf+4)
  5189   002836  6E64               	movwf	(sprintf@ap+1)^0,c
  5190   002838  C05B  F065         	movff	sprintf@s,sprintf@f
  5191   00283C  C05C  F066         	movff	sprintf@s+1,sprintf@f+1
  5192   002840  0E00               	movlw	0
  5193   002842  6E69               	movwf	(sprintf@f+4)^0,c
  5194   002844  0E00               	movlw	0
  5195   002846  6E68               	movwf	(sprintf@f+3)^0,c
  5196   002848  0E00               	movlw	0
  5197   00284A  6E6F               	movwf	(sprintf@f+10)^0,c
  5198   00284C  0E00               	movlw	0
  5199   00284E  6E6E               	movwf	(sprintf@f+9)^0,c
  5200   002850  0E65               	movlw	low sprintf@f
  5201   002852  6E53               	movwf	vfprintf@fp^0,c
  5202   002854  0E00               	movlw	high sprintf@f
  5203   002856  6E54               	movwf	(vfprintf@fp+1)^0,c
  5204   002858  C05D  F055         	movff	sprintf@fmt,vfprintf@fmt
  5205   00285C  C05E  F056         	movff	sprintf@fmt+1,vfprintf@fmt+1
  5206   002860  0E63               	movlw	low sprintf@ap
  5207   002862  6E57               	movwf	vfprintf@ap^0,c
  5208   002864  0E00               	movlw	high sprintf@ap
  5209   002866  6E58               	movwf	(vfprintf@ap+1)^0,c
  5210   002868  EC3F  F014         	call	_vfprintf	;wreg free
  5211   00286C  5068               	movf	(sprintf@f+3)^0,w,c
  5212   00286E  245B               	addwf	sprintf@s^0,w,c
  5213   002870  6ED9               	movwf	fsr2l,c
  5214   002872  5069               	movf	(sprintf@f+4)^0,w,c
  5215   002874  205C               	addwfc	(sprintf@s+1)^0,w,c
  5216   002876  6EDA               	movwf	fsr2h,c
  5217   002878  0E00               	movlw	0
  5218   00287A  6EDF               	movwf	indf2,c
  5219   00287C  0012               	return		;funcret
  5220   00287E                     __end_of_sprintf:
  5221                           	callstack 0
  5222                           
  5223 ;; *************** function _vfprintf *****************
  5224 ;; Defined at:
  5225 ;;		line 1520 in file "C:\Program Files\Microchip\xc8\v2.40\pic\sources\c99\common\doprnt.c"
  5226 ;; Parameters:    Size  Location     Type
  5227 ;;  fp              2   82[COMRAM] PTR struct _IO_FILE
  5228 ;;		 -> sprintf@f(11), 
  5229 ;;  fmt             2   84[COMRAM] PTR const unsigned char 
  5230 ;;		 -> STR_2(17), STR_1(17), 
  5231 ;;  ap              2   86[COMRAM] PTR PTR void 
  5232 ;;		 -> sprintf@ap(2), 
  5233 ;; Auto vars:     Size  Location     Type
  5234 ;;  cfmt            2   88[COMRAM] PTR unsigned char 
  5235 ;;		 -> STR_2(17), STR_1(17), 
  5236 ;; Return value:  Size  Location     Type
  5237 ;;                  2   82[COMRAM] int 
  5238 ;; Registers used:
  5239 ;;		wreg, fsr1l, fsr1h, fsr2l, fsr2h, status,2, status,0, tblptrl, tblptrh, tblptru, prodl, prodh, cstack
  5240 ;; Tracked objects:
  5241 ;;		On entry : 0/0
  5242 ;;		On exit  : 0/0
  5243 ;;		Unchanged: 0/0
  5244 ;; Data sizes:     COMRAM   BANK0   BANK1   BANK2   BANK3   BANK4   BANK5
  5245 ;;      Params:         6       0       0       0       0       0       0
  5246 ;;      Locals:         2       0       0       0       0       0       0
  5247 ;;      Temps:          0       0       0       0       0       0       0
  5248 ;;      Totals:         8       0       0       0       0       0       0
  5249 ;;Total ram usage:        8 bytes
  5250 ;; Hardware stack levels used: 1
  5251 ;; Hardware stack levels required when called: 6
  5252 ;; This function calls:
  5253 ;;		_vfpfcnvrt
  5254 ;; This function is called by:
  5255 ;;		_sprintf
  5256 ;; This function uses a non-reentrant model
  5257 ;;
  5258                           
  5259                           	psect	text27
  5260   00287E                     __ptext27:
  5261                           	callstack 0
  5262   00287E                     _vfprintf:
  5263                           	callstack 16
  5264   00287E                     
  5265                           ;C:\Program Files\Microchip\xc8\v2.40\pic\sources\c99\common\doprnt.c: 1520: int vfprint
      +                          f(FILE *fp, const char *fmt, va_list ap);C:\Program Files\Microchip\xc8\v2.40\pic\source
      +                          s\c99\common\doprnt.c: 1521: {;C:\Program Files\Microchip\xc8\v2.40\pic\sources\c99\comm
      +                          on\doprnt.c: 1523:     char *cfmt;;C:\Program Files\Microchip\xc8\v2.40\pic\sources\c99\
      +                          common\doprnt.c: 1525:     cfmt = (char *)fmt;
  5266   00287E  C055  F059         	movff	vfprintf@fmt,vfprintf@cfmt
  5267   002882  C056  F05A         	movff	vfprintf@fmt+1,vfprintf@cfmt+1
  5268                           
  5269                           ;C:\Program Files\Microchip\xc8\v2.40\pic\sources\c99\common\doprnt.c: 1529:     while (
      +                          *cfmt) {
  5270   002886  EF53  F014         	goto	i2l3159
  5271   00288A                     i2l3157:
  5272                           
  5273                           ;C:\Program Files\Microchip\xc8\v2.40\pic\sources\c99\common\doprnt.c: 1533:    vfpfcnvr
      +                          t(fp, &cfmt, ap);
  5274   00288A  C053  F03F         	movff	vfprintf@fp,vfpfcnvrt@fp
  5275   00288E  C054  F040         	movff	vfprintf@fp+1,vfpfcnvrt@fp+1
  5276   002892  0E59               	movlw	low vfprintf@cfmt
  5277   002894  6E41               	movwf	vfpfcnvrt@fmt^0,c
  5278   002896  0E00               	movlw	high vfprintf@cfmt
  5279   002898  6E42               	movwf	(vfpfcnvrt@fmt+1)^0,c
  5280   00289A  C057  F043         	movff	vfprintf@ap,vfpfcnvrt@ap
  5281   00289E  C058  F044         	movff	vfprintf@ap+1,vfpfcnvrt@ap+1
  5282   0028A2  EC28  F005         	call	_vfpfcnvrt	;wreg free
  5283   0028A6                     i2l3159:
  5284                           
  5285                           ;C:\Program Files\Microchip\xc8\v2.40\pic\sources\c99\common\doprnt.c: 1529:     while (
      +                          *cfmt) {
  5286   0028A6  C059  FFF6         	movff	vfprintf@cfmt,tblptrl
  5287   0028AA  C05A  FFF7         	movff	vfprintf@cfmt+1,tblptrh
  5288   0028AE                     	if	0	;tblptru may be non-zero
  5289   0028AE                     	endif
  5290   0028AE                     	if	0	;tblptru may be non-zero
  5291   0028AE                     	endif
  5292   0028AE  0008               	tblrd		*
  5293   0028B0  50F5               	movf	tablat,w,c
  5294   0028B2  0900               	iorlw	0
  5295   0028B4  A4D8               	btfss	status,2,c
  5296   0028B6  EF5F  F014         	goto	i2u252_41
  5297   0028BA  EF61  F014         	goto	i2u252_40
  5298   0028BE                     i2u252_41:
  5299   0028BE  EF45  F014         	goto	i2l3157
  5300   0028C2                     i2u252_40:
  5301   0028C2                     
  5302                           ;C:\Program Files\Microchip\xc8\v2.40\pic\sources\c99\common\doprnt.c: 1538:  return 0;
  5303   0028C2  0E00               	movlw	0
  5304   0028C4  6E54               	movwf	(?_vfprintf+1)^0,c
  5305   0028C6  0E00               	movlw	0
  5306   0028C8  6E53               	movwf	?_vfprintf^0,c
  5307   0028CA  0012               	return		;funcret
  5308   0028CC                     __end_of_vfprintf:
  5309                           	callstack 0
  5310                           
  5311 ;; *************** function _vfpfcnvrt *****************
  5312 ;; Defined at:
  5313 ;;		line 1007 in file "C:\Program Files\Microchip\xc8\v2.40\pic\sources\c99\common\doprnt.c"
  5314 ;; Parameters:    Size  Location     Type
  5315 ;;  fp              2   62[COMRAM] PTR struct _IO_FILE
  5316 ;;		 -> sprintf@f(11), 
  5317 ;;  fmt             2   64[COMRAM] PTR PTR unsigned char 
  5318 ;;		 -> vfprintf@cfmt(2), 
  5319 ;;  ap              2   66[COMRAM] PTR PTR void 
  5320 ;;		 -> sprintf@ap(2), 
  5321 ;; Auto vars:     Size  Location     Type
  5322 ;;  convarg         8   71[COMRAM] struct .
  5323 ;;  cp              2   80[COMRAM] PTR unsigned char 
  5324 ;;		 -> STR_2(17), STR_1(17), 
  5325 ;;  i               2    0        int 
  5326 ;;  done            2    0        int 
  5327 ;;  c               1   79[COMRAM] unsigned char 
  5328 ;; Return value:  Size  Location     Type
  5329 ;;                  1    wreg      void 
  5330 ;; Registers used:
  5331 ;;		wreg, fsr1l, fsr1h, fsr2l, fsr2h, status,2, status,0, tblptrl, tblptrh, tblptru, prodl, prodh, cstack
  5332 ;; Tracked objects:
  5333 ;;		On entry : 0/0
  5334 ;;		On exit  : 0/0
  5335 ;;		Unchanged: 0/0
  5336 ;; Data sizes:     COMRAM   BANK0   BANK1   BANK2   BANK3   BANK4   BANK5
  5337 ;;      Params:         6       0       0       0       0       0       0
  5338 ;;      Locals:        11       0       0       0       0       0       0
  5339 ;;      Temps:          3       0       0       0       0       0       0
  5340 ;;      Totals:        20       0       0       0       0       0       0
  5341 ;;Total ram usage:       20 bytes
  5342 ;; Hardware stack levels used: 1
  5343 ;; Hardware stack levels required when called: 5
  5344 ;; This function calls:
  5345 ;;		_atoi
  5346 ;;		_ctoa
  5347 ;;		_dtoa
  5348 ;;		_fputc
  5349 ;;		_isdigit
  5350 ;; This function is called by:
  5351 ;;		_vfprintf
  5352 ;; This function uses a non-reentrant model
  5353 ;;
  5354                           
  5355                           	psect	text28
  5356   000A50                     __ptext28:
  5357                           	callstack 0
  5358   000A50                     _vfpfcnvrt:
  5359                           	callstack 16
  5360   000A50                     
  5361                           ;C:\Program Files\Microchip\xc8\v2.40\pic\sources\c99\common\doprnt.c: 1007: vfpfcnvrt(F
      +                          ILE *fp, char *fmt[], va_list ap);C:\Program Files\Microchip\xc8\v2.40\pic\sources\c99\c
      +                          ommon\doprnt.c: 1008: {;C:\Program Files\Microchip\xc8\v2.40\pic\sources\c99\common\dopr
      +                          nt.c: 1009:     char c, *cp;;C:\Program Files\Microchip\xc8\v2.40\pic\sources\c99\common
      +                          \doprnt.c: 1010:     int done, i;;C:\Program Files\Microchip\xc8\v2.40\pic\sources\c99\c
      +                          ommon\doprnt.c: 1016:  } convarg;;C:\Program Files\Microchip\xc8\v2.40\pic\sources\c99\c
      +                          ommon\doprnt.c: 1019:     if ((*fmt)[0] == '%') {
  5362   000A50  C041  FFD9         	movff	vfpfcnvrt@fmt,fsr2l
  5363   000A54  C042  FFDA         	movff	vfpfcnvrt@fmt+1,fsr2h
  5364   000A58  CFDE FFF6          	movff	postinc2,tblptrl
  5365   000A5C  CFDD FFF7          	movff	postdec2,tblptrh
  5366   000A60                     	if	0	;tblptru may be non-zero
  5367   000A60                     	endif
  5368   000A60                     	if	0	;tblptru may be non-zero
  5369   000A60                     	endif
  5370   000A60  0008               	tblrd		*
  5371   000A62  50F5               	movf	tablat,w,c
  5372   000A64  0A25               	xorlw	37
  5373   000A66  A4D8               	btfss	status,2,c
  5374   000A68  EF38  F005         	goto	i2u241_41
  5375   000A6C  EF3A  F005         	goto	i2u241_40
  5376   000A70                     i2u241_41:
  5377   000A70  EF02  F007         	goto	i2l3129
  5378   000A74                     i2u241_40:
  5379   000A74                     
  5380                           ;C:\Program Files\Microchip\xc8\v2.40\pic\sources\c99\common\doprnt.c: 1020:         ++*
      +                          fmt;
  5381   000A74  C041  FFD9         	movff	vfpfcnvrt@fmt,fsr2l
  5382   000A78  C042  FFDA         	movff	vfpfcnvrt@fmt+1,fsr2h
  5383   000A7C  2ADE               	incf	postinc2,f,c
  5384   000A7E  0E00               	movlw	0
  5385   000A80  22DD               	addwfc	postdec2,f,c
  5386   000A82                     
  5387                           ;C:\Program Files\Microchip\xc8\v2.40\pic\sources\c99\common\doprnt.c: 1022:         fla
      +                          gs = width = 0;
  5388   000A82  0E00               	movlw	0
  5389   000A84  0100               	movlb	0	; () banked
  5390   000A86  6FCD               	movwf	(_width+1)& (0+255),b
  5391   000A88  0E00               	movlw	0
  5392   000A8A  6FCC               	movwf	_width& (0+255),b
  5393   000A8C  C0CC  F07A         	movff	_width,_flags
  5394   000A90                     
  5395                           ; BSR set to: 0
  5396                           ;C:\Program Files\Microchip\xc8\v2.40\pic\sources\c99\common\doprnt.c: 1023:         pre
      +                          c = -1;
  5397   000A90  69CE               	setf	_prec& (0+255),b
  5398   000A92  69CF               	setf	(_prec+1)& (0+255),b
  5399   000A94                     
  5400                           ; BSR set to: 0
  5401                           ;C:\Program Files\Microchip\xc8\v2.40\pic\sources\c99\common\doprnt.c: 1074:         if 
      +                          ((*fmt)[0] == '*') {
  5402   000A94  C041  FFD9         	movff	vfpfcnvrt@fmt,fsr2l
  5403   000A98  C042  FFDA         	movff	vfpfcnvrt@fmt+1,fsr2h
  5404   000A9C  CFDE FFF6          	movff	postinc2,tblptrl
  5405   000AA0  CFDD FFF7          	movff	postdec2,tblptrh
  5406   000AA4                     	if	0	;tblptru may be non-zero
  5407   000AA4                     	endif
  5408   000AA4                     	if	0	;tblptru may be non-zero
  5409   000AA4                     	endif
  5410   000AA4  0008               	tblrd		*
  5411   000AA6  50F5               	movf	tablat,w,c
  5412   000AA8  0A2A               	xorlw	42
  5413   000AAA  A4D8               	btfss	status,2,c
  5414   000AAC  EF5A  F005         	goto	i2u242_41
  5415   000AB0  EF5C  F005         	goto	i2u242_40
  5416   000AB4                     i2u242_41:
  5417   000AB4  EF85  F005         	goto	i2l3071
  5418   000AB8                     i2u242_40:
  5419   000AB8                     
  5420                           ; BSR set to: 0
  5421                           ;C:\Program Files\Microchip\xc8\v2.40\pic\sources\c99\common\doprnt.c: 1075:            
      +                           ++*fmt;
  5422   000AB8  C041  FFD9         	movff	vfpfcnvrt@fmt,fsr2l
  5423   000ABC  C042  FFDA         	movff	vfpfcnvrt@fmt+1,fsr2h
  5424   000AC0  2ADE               	incf	postinc2,f,c
  5425   000AC2  0E00               	movlw	0
  5426   000AC4  22DD               	addwfc	postdec2,f,c
  5427                           
  5428                           ;C:\Program Files\Microchip\xc8\v2.40\pic\sources\c99\common\doprnt.c: 1076:            
      +                           width = (*(int *)__va_arg(*(int **)ap, (int)0));
  5429   000AC6  C043  FFD9         	movff	vfpfcnvrt@ap,fsr2l
  5430   000ACA  C044  FFDA         	movff	vfpfcnvrt@ap+1,fsr2h
  5431   000ACE  CFDF F045          	movff	indf2,??_vfpfcnvrt
  5432   000AD2  0E02               	movlw	2
  5433   000AD4  26DE               	addwf	postinc2,f,c
  5434   000AD6  CFDF F046          	movff	indf2,??_vfpfcnvrt+1
  5435   000ADA  0E00               	movlw	0
  5436   000ADC  22DD               	addwfc	postdec2,f,c
  5437   000ADE  C045  FFD9         	movff	??_vfpfcnvrt,fsr2l
  5438   000AE2  C046  FFDA         	movff	??_vfpfcnvrt+1,fsr2h
  5439   000AE6  CFDE F0CC          	movff	postinc2,_width
  5440   000AEA  CFDD F0CD          	movff	postdec2,_width+1
  5441   000AEE                     
  5442                           ; BSR set to: 0
  5443                           ;C:\Program Files\Microchip\xc8\v2.40\pic\sources\c99\common\doprnt.c: 1077:            
      +                           if (width < 0) {
  5444   000AEE  BFCD               	btfsc	(_width+1)& (0+255),7,b
  5445   000AF0  EF7E  F005         	goto	i2u243_40
  5446   000AF4  EF7C  F005         	goto	i2u243_41
  5447   000AF8                     i2u243_41:
  5448   000AF8  EFB8  F005         	goto	i2l3079
  5449   000AFC                     i2u243_40:
  5450   000AFC                     
  5451                           ; BSR set to: 0
  5452                           ;C:\Program Files\Microchip\xc8\v2.40\pic\sources\c99\common\doprnt.c: 1078:            
      +                               flags |= (1 << 0);
  5453   000AFC  807A               	bsf	_flags^0,0,c
  5454                           
  5455                           ;C:\Program Files\Microchip\xc8\v2.40\pic\sources\c99\common\doprnt.c: 1079:            
      +                               width = -width;
  5456   000AFE  6DCC               	negf	_width& (0+255),b
  5457   000B00  1FCD               	comf	(_width+1)& (0+255),f,b
  5458   000B02  B0D8               	btfsc	status,0,c
  5459   000B04  2BCD               	incf	(_width+1)& (0+255),f,b
  5460   000B06  EFB8  F005         	goto	i2l3079
  5461   000B0A                     i2l3071:
  5462                           
  5463                           ; BSR set to: 0
  5464                           ;C:\Program Files\Microchip\xc8\v2.40\pic\sources\c99\common\doprnt.c: 1082:            
      +                           width = atoi(*fmt);
  5465   000B0A  C041  FFD9         	movff	vfpfcnvrt@fmt,fsr2l
  5466   000B0E  C042  FFDA         	movff	vfpfcnvrt@fmt+1,fsr2h
  5467   000B12  CFDE F007          	movff	postinc2,atoi@s
  5468   000B16  CFDD F008          	movff	postdec2,atoi@s+1
  5469   000B1A  EC76  F00C         	call	_atoi	;wreg free
  5470   000B1E  C007  F0CC         	movff	?_atoi,_width
  5471   000B22  C008  F0CD         	movff	?_atoi+1,_width+1
  5472                           
  5473                           ;C:\Program Files\Microchip\xc8\v2.40\pic\sources\c99\common\doprnt.c: 1083:            
      +                           while ((0 && isdigit((*fmt)[0]), ((unsigned)((*fmt)[0])-'0') < 10)) {
  5474   000B26  EF9C  F005         	goto	i2l3077
  5475   000B2A                     i2l3073:
  5476                           
  5477                           ;C:\Program Files\Microchip\xc8\v2.40\pic\sources\c99\common\doprnt.c: 1084:            
      +                               ++*fmt;
  5478   000B2A  C041  FFD9         	movff	vfpfcnvrt@fmt,fsr2l
  5479   000B2E  C042  FFDA         	movff	vfpfcnvrt@fmt+1,fsr2h
  5480   000B32  2ADE               	incf	postinc2,f,c
  5481   000B34  0E00               	movlw	0
  5482   000B36  22DD               	addwfc	postdec2,f,c
  5483   000B38                     i2l3077:
  5484   000B38  C041  FFD9         	movff	vfpfcnvrt@fmt,fsr2l
  5485   000B3C  C042  FFDA         	movff	vfpfcnvrt@fmt+1,fsr2h
  5486   000B40  CFDE FFF6          	movff	postinc2,tblptrl
  5487   000B44  CFDD FFF7          	movff	postdec2,tblptrh
  5488   000B48                     	if	0	;tblptru may be non-zero
  5489   000B48                     	endif
  5490   000B48                     	if	0	;tblptru may be non-zero
  5491   000B48                     	endif
  5492   000B48  0008               	tblrd		*
  5493   000B4A  CFF5 F045          	movff	tablat,??_vfpfcnvrt
  5494   000B4E  0ED0               	movlw	208
  5495   000B50  2445               	addwf	??_vfpfcnvrt^0,w,c
  5496   000B52  6E46               	movwf	(??_vfpfcnvrt+1)^0,c
  5497   000B54  6A47               	clrf	(??_vfpfcnvrt+2)^0,c
  5498   000B56  0EFF               	movlw	255
  5499   000B58  2247               	addwfc	(??_vfpfcnvrt+2)^0,f,c
  5500   000B5A  5047               	movf	(??_vfpfcnvrt+2)^0,w,c
  5501   000B5C  E109               	bnz	i2u244_40
  5502   000B5E  0E0A               	movlw	10
  5503   000B60  5C46               	subwf	(??_vfpfcnvrt+1)^0,w,c
  5504   000B62  A0D8               	btfss	status,0,c
  5505   000B64  EFB6  F005         	goto	i2u244_41
  5506   000B68  EFB8  F005         	goto	i2u244_40
  5507   000B6C                     i2u244_41:
  5508   000B6C  EF95  F005         	goto	i2l3073
  5509   000B70                     i2u244_40:
  5510   000B70                     i2l3079:
  5511                           
  5512                           ;C:\Program Files\Microchip\xc8\v2.40\pic\sources\c99\common\doprnt.c: 1091:         if 
      +                          ((*fmt)[0] == '.') {
  5513   000B70  C041  FFD9         	movff	vfpfcnvrt@fmt,fsr2l
  5514   000B74  C042  FFDA         	movff	vfpfcnvrt@fmt+1,fsr2h
  5515   000B78  CFDE FFF6          	movff	postinc2,tblptrl
  5516   000B7C  CFDD FFF7          	movff	postdec2,tblptrh
  5517   000B80                     	if	0	;tblptru may be non-zero
  5518   000B80                     	endif
  5519   000B80                     	if	0	;tblptru may be non-zero
  5520   000B80                     	endif
  5521   000B80  0008               	tblrd		*
  5522   000B82  50F5               	movf	tablat,w,c
  5523   000B84  0A2E               	xorlw	46
  5524   000B86  A4D8               	btfss	status,2,c
  5525   000B88  EFC8  F005         	goto	i2u245_41
  5526   000B8C  EFCA  F005         	goto	i2u245_40
  5527   000B90                     i2u245_41:
  5528   000B90  EF38  F006         	goto	i2l3097
  5529   000B94                     i2u245_40:
  5530   000B94                     
  5531                           ;C:\Program Files\Microchip\xc8\v2.40\pic\sources\c99\common\doprnt.c: 1092:            
      +                           prec = 0;
  5532   000B94  0E00               	movlw	0
  5533   000B96  0100               	movlb	0	; () banked
  5534   000B98  6FCF               	movwf	(_prec+1)& (0+255),b
  5535   000B9A  0E00               	movlw	0
  5536   000B9C  6FCE               	movwf	_prec& (0+255),b
  5537   000B9E                     
  5538                           ; BSR set to: 0
  5539                           ;C:\Program Files\Microchip\xc8\v2.40\pic\sources\c99\common\doprnt.c: 1093:            
      +                           ++*fmt;
  5540   000B9E  C041  FFD9         	movff	vfpfcnvrt@fmt,fsr2l
  5541   000BA2  C042  FFDA         	movff	vfpfcnvrt@fmt+1,fsr2h
  5542   000BA6  2ADE               	incf	postinc2,f,c
  5543   000BA8  0E00               	movlw	0
  5544   000BAA  22DD               	addwfc	postdec2,f,c
  5545   000BAC                     
  5546                           ; BSR set to: 0
  5547                           ;C:\Program Files\Microchip\xc8\v2.40\pic\sources\c99\common\doprnt.c: 1094:            
      +                           if ((*fmt)[0] == '*') {
  5548   000BAC  C041  FFD9         	movff	vfpfcnvrt@fmt,fsr2l
  5549   000BB0  C042  FFDA         	movff	vfpfcnvrt@fmt+1,fsr2h
  5550   000BB4  CFDE FFF6          	movff	postinc2,tblptrl
  5551   000BB8  CFDD FFF7          	movff	postdec2,tblptrh
  5552   000BBC                     	if	0	;tblptru may be non-zero
  5553   000BBC                     	endif
  5554   000BBC                     	if	0	;tblptru may be non-zero
  5555   000BBC                     	endif
  5556   000BBC  0008               	tblrd		*
  5557   000BBE  50F5               	movf	tablat,w,c
  5558   000BC0  0A2A               	xorlw	42
  5559   000BC2  A4D8               	btfss	status,2,c
  5560   000BC4  EFE6  F005         	goto	i2u246_41
  5561   000BC8  EFE8  F005         	goto	i2u246_40
  5562   000BCC                     i2u246_41:
  5563   000BCC  EF05  F006         	goto	i2l3089
  5564   000BD0                     i2u246_40:
  5565   000BD0                     
  5566                           ; BSR set to: 0
  5567                           ;C:\Program Files\Microchip\xc8\v2.40\pic\sources\c99\common\doprnt.c: 1095:            
      +                               ++*fmt;
  5568   000BD0  C041  FFD9         	movff	vfpfcnvrt@fmt,fsr2l
  5569   000BD4  C042  FFDA         	movff	vfpfcnvrt@fmt+1,fsr2h
  5570   000BD8  2ADE               	incf	postinc2,f,c
  5571   000BDA  0E00               	movlw	0
  5572   000BDC  22DD               	addwfc	postdec2,f,c
  5573                           
  5574                           ;C:\Program Files\Microchip\xc8\v2.40\pic\sources\c99\common\doprnt.c: 1096:            
      +                               prec = (*(int *)__va_arg(*(int **)ap, (int)0));
  5575   000BDE  C043  FFD9         	movff	vfpfcnvrt@ap,fsr2l
  5576   000BE2  C044  FFDA         	movff	vfpfcnvrt@ap+1,fsr2h
  5577   000BE6  CFDF F045          	movff	indf2,??_vfpfcnvrt
  5578   000BEA  0E02               	movlw	2
  5579   000BEC  26DE               	addwf	postinc2,f,c
  5580   000BEE  CFDF F046          	movff	indf2,??_vfpfcnvrt+1
  5581   000BF2  0E00               	movlw	0
  5582   000BF4  22DD               	addwfc	postdec2,f,c
  5583   000BF6  C045  FFD9         	movff	??_vfpfcnvrt,fsr2l
  5584   000BFA  C046  FFDA         	movff	??_vfpfcnvrt+1,fsr2h
  5585   000BFE  CFDE F0CE          	movff	postinc2,_prec
  5586   000C02  CFDD F0CF          	movff	postdec2,_prec+1
  5587                           
  5588                           ;C:\Program Files\Microchip\xc8\v2.40\pic\sources\c99\common\doprnt.c: 1097:            
      +                           } else {
  5589   000C06  EF38  F006         	goto	i2l3097
  5590   000C0A                     i2l3089:
  5591                           
  5592                           ; BSR set to: 0
  5593                           ;C:\Program Files\Microchip\xc8\v2.40\pic\sources\c99\common\doprnt.c: 1098:            
      +                               prec = atoi(*fmt);
  5594   000C0A  C041  FFD9         	movff	vfpfcnvrt@fmt,fsr2l
  5595   000C0E  C042  FFDA         	movff	vfpfcnvrt@fmt+1,fsr2h
  5596   000C12  CFDE F007          	movff	postinc2,atoi@s
  5597   000C16  CFDD F008          	movff	postdec2,atoi@s+1
  5598   000C1A  EC76  F00C         	call	_atoi	;wreg free
  5599   000C1E  C007  F0CE         	movff	?_atoi,_prec
  5600   000C22  C008  F0CF         	movff	?_atoi+1,_prec+1
  5601                           
  5602                           ;C:\Program Files\Microchip\xc8\v2.40\pic\sources\c99\common\doprnt.c: 1099:            
      +                               while ((0 && isdigit((*fmt)[0]), ((unsigned)((*fmt)[0])-'0') < 10)) {
  5603   000C26  EF1C  F006         	goto	i2l3095
  5604   000C2A                     i2l3091:
  5605                           
  5606                           ;C:\Program Files\Microchip\xc8\v2.40\pic\sources\c99\common\doprnt.c: 1100:            
      +                                   ++*fmt;
  5607   000C2A  C041  FFD9         	movff	vfpfcnvrt@fmt,fsr2l
  5608   000C2E  C042  FFDA         	movff	vfpfcnvrt@fmt+1,fsr2h
  5609   000C32  2ADE               	incf	postinc2,f,c
  5610   000C34  0E00               	movlw	0
  5611   000C36  22DD               	addwfc	postdec2,f,c
  5612   000C38                     i2l3095:
  5613   000C38  C041  FFD9         	movff	vfpfcnvrt@fmt,fsr2l
  5614   000C3C  C042  FFDA         	movff	vfpfcnvrt@fmt+1,fsr2h
  5615   000C40  CFDE FFF6          	movff	postinc2,tblptrl
  5616   000C44  CFDD FFF7          	movff	postdec2,tblptrh
  5617   000C48                     	if	0	;tblptru may be non-zero
  5618   000C48                     	endif
  5619   000C48                     	if	0	;tblptru may be non-zero
  5620   000C48                     	endif
  5621   000C48  0008               	tblrd		*
  5622   000C4A  CFF5 F045          	movff	tablat,??_vfpfcnvrt
  5623   000C4E  0ED0               	movlw	208
  5624   000C50  2445               	addwf	??_vfpfcnvrt^0,w,c
  5625   000C52  6E46               	movwf	(??_vfpfcnvrt+1)^0,c
  5626   000C54  6A47               	clrf	(??_vfpfcnvrt+2)^0,c
  5627   000C56  0EFF               	movlw	255
  5628   000C58  2247               	addwfc	(??_vfpfcnvrt+2)^0,f,c
  5629   000C5A  5047               	movf	(??_vfpfcnvrt+2)^0,w,c
  5630   000C5C  E109               	bnz	i2u247_40
  5631   000C5E  0E0A               	movlw	10
  5632   000C60  5C46               	subwf	(??_vfpfcnvrt+1)^0,w,c
  5633   000C62  A0D8               	btfss	status,0,c
  5634   000C64  EF36  F006         	goto	i2u247_41
  5635   000C68  EF38  F006         	goto	i2u247_40
  5636   000C6C                     i2u247_41:
  5637   000C6C  EF15  F006         	goto	i2l3091
  5638   000C70                     i2u247_40:
  5639   000C70                     i2l3097:
  5640                           
  5641                           ;C:\Program Files\Microchip\xc8\v2.40\pic\sources\c99\common\doprnt.c: 1108:         if 
      +                          (*fmt[0] == 'c') {
  5642   000C70  C041  FFD9         	movff	vfpfcnvrt@fmt,fsr2l
  5643   000C74  C042  FFDA         	movff	vfpfcnvrt@fmt+1,fsr2h
  5644   000C78  CFDE FFF6          	movff	postinc2,tblptrl
  5645   000C7C  CFDD FFF7          	movff	postdec2,tblptrh
  5646   000C80                     	if	0	;tblptru may be non-zero
  5647   000C80                     	endif
  5648   000C80                     	if	0	;tblptru may be non-zero
  5649   000C80                     	endif
  5650   000C80  0008               	tblrd		*
  5651   000C82  50F5               	movf	tablat,w,c
  5652   000C84  0A63               	xorlw	99
  5653   000C86  A4D8               	btfss	status,2,c
  5654   000C88  EF48  F006         	goto	i2u248_41
  5655   000C8C  EF4A  F006         	goto	i2u248_40
  5656   000C90                     i2u248_41:
  5657   000C90  EF6D  F006         	goto	i2l3105
  5658   000C94                     i2u248_40:
  5659   000C94                     
  5660                           ;C:\Program Files\Microchip\xc8\v2.40\pic\sources\c99\common\doprnt.c: 1109:            
      +                           ++*fmt;
  5661   000C94  C041  FFD9         	movff	vfpfcnvrt@fmt,fsr2l
  5662   000C98  C042  FFDA         	movff	vfpfcnvrt@fmt+1,fsr2h
  5663   000C9C  2ADE               	incf	postinc2,f,c
  5664   000C9E  0E00               	movlw	0
  5665   000CA0  22DD               	addwfc	postdec2,f,c
  5666                           
  5667                           ;C:\Program Files\Microchip\xc8\v2.40\pic\sources\c99\common\doprnt.c: 1110:            
      +                           c = (unsigned char)(*(int *)__va_arg(*(int **)ap, (int)0));
  5668   000CA2  C043  FFD9         	movff	vfpfcnvrt@ap,fsr2l
  5669   000CA6  C044  FFDA         	movff	vfpfcnvrt@ap+1,fsr2h
  5670   000CAA  CFDF F045          	movff	indf2,??_vfpfcnvrt
  5671   000CAE  0E02               	movlw	2
  5672   000CB0  26DE               	addwf	postinc2,f,c
  5673   000CB2  CFDF F046          	movff	indf2,??_vfpfcnvrt+1
  5674   000CB6  0E00               	movlw	0
  5675   000CB8  22DD               	addwfc	postdec2,f,c
  5676   000CBA  C045  FFD9         	movff	??_vfpfcnvrt,fsr2l
  5677   000CBE  C046  FFDA         	movff	??_vfpfcnvrt+1,fsr2h
  5678   000CC2  50DF               	movf	indf2,w,c
  5679   000CC4  6E50               	movwf	vfpfcnvrt@c^0,c
  5680   000CC6                     
  5681                           ;C:\Program Files\Microchip\xc8\v2.40\pic\sources\c99\common\doprnt.c: 1111:            
      +                           return (void) ctoa(fp, c);;	Return value of _vfpfcnvrt is never used
  5682   000CC6  C03F  F00A         	movff	vfpfcnvrt@fp,ctoa@fp
  5683   000CCA  C040  F00B         	movff	vfpfcnvrt@fp+1,ctoa@fp+1
  5684   000CCE  C050  F00C         	movff	vfpfcnvrt@c,ctoa@c
  5685   000CD2  ECAF  F00F         	call	_ctoa	;wreg free
  5686   000CD6  EF16  F007         	goto	i2l1302
  5687   000CDA                     i2l3105:
  5688                           
  5689                           ;C:\Program Files\Microchip\xc8\v2.40\pic\sources\c99\common\doprnt.c: 1117:   cp = *fmt
      +                          ;
  5690   000CDA  C041  FFD9         	movff	vfpfcnvrt@fmt,fsr2l
  5691   000CDE  C042  FFDA         	movff	vfpfcnvrt@fmt+1,fsr2h
  5692   000CE2  CFDE F051          	movff	postinc2,vfpfcnvrt@cp
  5693   000CE6  CFDD F052          	movff	postdec2,vfpfcnvrt@cp+1
  5694   000CEA                     
  5695                           ;C:\Program Files\Microchip\xc8\v2.40\pic\sources\c99\common\doprnt.c: 1187:   if (*cp =
      +                          = 'd' || *cp == 'i') {
  5696   000CEA  C051  FFF6         	movff	vfpfcnvrt@cp,tblptrl
  5697   000CEE  C052  FFF7         	movff	vfpfcnvrt@cp+1,tblptrh
  5698   000CF2                     	if	0	;tblptru may be non-zero
  5699   000CF2                     	endif
  5700   000CF2                     	if	0	;tblptru may be non-zero
  5701   000CF2                     	endif
  5702   000CF2  0008               	tblrd		*
  5703   000CF4  50F5               	movf	tablat,w,c
  5704   000CF6  0A64               	xorlw	100
  5705   000CF8  B4D8               	btfsc	status,2,c
  5706   000CFA  EF81  F006         	goto	i2u249_41
  5707   000CFE  EF83  F006         	goto	i2u249_40
  5708   000D02                     i2u249_41:
  5709   000D02  EF91  F006         	goto	i2l3111
  5710   000D06                     i2u249_40:
  5711   000D06  C051  FFF6         	movff	vfpfcnvrt@cp,tblptrl
  5712   000D0A  C052  FFF7         	movff	vfpfcnvrt@cp+1,tblptrh
  5713   000D0E                     	if	0	;tblptru may be non-zero
  5714   000D0E                     	endif
  5715   000D0E                     	if	0	;tblptru may be non-zero
  5716   000D0E                     	endif
  5717   000D0E  0008               	tblrd		*
  5718   000D10  50F5               	movf	tablat,w,c
  5719   000D12  0A69               	xorlw	105
  5720   000D14  A4D8               	btfss	status,2,c
  5721   000D16  EF8F  F006         	goto	i2u250_41
  5722   000D1A  EF91  F006         	goto	i2u250_40
  5723   000D1E                     i2u250_41:
  5724   000D1E  EFD4  F006         	goto	i2l3117
  5725   000D22                     i2u250_40:
  5726   000D22                     i2l3111:
  5727                           
  5728                           ;C:\Program Files\Microchip\xc8\v2.40\pic\sources\c99\common\doprnt.c: 1230:    convarg.
      +                          ll = (long long)(int)(*(int *)__va_arg(*(int **)ap, (int)0));
  5729   000D22  C043  FFD9         	movff	vfpfcnvrt@ap,fsr2l
  5730   000D26  C044  FFDA         	movff	vfpfcnvrt@ap+1,fsr2h
  5731   000D2A  CFDF F045          	movff	indf2,??_vfpfcnvrt
  5732   000D2E  0E02               	movlw	2
  5733   000D30  26DE               	addwf	postinc2,f,c
  5734   000D32  CFDF F046          	movff	indf2,??_vfpfcnvrt+1
  5735   000D36  0E00               	movlw	0
  5736   000D38  22DD               	addwfc	postdec2,f,c
  5737   000D3A  C045  FFD9         	movff	??_vfpfcnvrt,fsr2l
  5738   000D3E  C046  FFDA         	movff	??_vfpfcnvrt+1,fsr2h
  5739   000D42  CFDE F048          	movff	postinc2,vfpfcnvrt@convarg
  5740   000D46  CFDD F049          	movff	postdec2,vfpfcnvrt@convarg+1
  5741   000D4A  0E00               	movlw	0
  5742   000D4C  BE49               	btfsc	(vfpfcnvrt@convarg+1)^0,7,c
  5743   000D4E  0EFF               	movlw	-1
  5744   000D50  6E4A               	movwf	(vfpfcnvrt@convarg+2)^0,c
  5745   000D52  6E4B               	movwf	(vfpfcnvrt@convarg+3)^0,c
  5746   000D54  6E4C               	movwf	(vfpfcnvrt@convarg+4)^0,c
  5747   000D56  6E4D               	movwf	(vfpfcnvrt@convarg+5)^0,c
  5748   000D58  6E4E               	movwf	(vfpfcnvrt@convarg+6)^0,c
  5749   000D5A  6E4F               	movwf	(vfpfcnvrt@convarg+7)^0,c
  5750                           
  5751                           ;C:\Program Files\Microchip\xc8\v2.40\pic\sources\c99\common\doprnt.c: 1232:    *fmt = c
      +                          p+1;
  5752   000D5C  0E01               	movlw	1
  5753   000D5E  2451               	addwf	vfpfcnvrt@cp^0,w,c
  5754   000D60  6E45               	movwf	??_vfpfcnvrt^0,c
  5755   000D62  0E00               	movlw	0
  5756   000D64  2052               	addwfc	(vfpfcnvrt@cp+1)^0,w,c
  5757   000D66  6E46               	movwf	(??_vfpfcnvrt+1)^0,c
  5758   000D68  C041  FFD9         	movff	vfpfcnvrt@fmt,fsr2l
  5759   000D6C  C042  FFDA         	movff	vfpfcnvrt@fmt+1,fsr2h
  5760   000D70  C045  FFDE         	movff	??_vfpfcnvrt,postinc2
  5761   000D74  C046  FFDD         	movff	??_vfpfcnvrt+1,postdec2
  5762   000D78                     
  5763                           ;C:\Program Files\Microchip\xc8\v2.40\pic\sources\c99\common\doprnt.c: 1233:    return (
      +                          void) dtoa(fp, convarg.ll);;	Return value of _vfpfcnvrt is never used
  5764   000D78  C03F  F01C         	movff	vfpfcnvrt@fp,dtoa@fp
  5765   000D7C  C040  F01D         	movff	vfpfcnvrt@fp+1,dtoa@fp+1
  5766   000D80  C048  F01E         	movff	vfpfcnvrt@convarg,dtoa@d
  5767   000D84  C049  F01F         	movff	vfpfcnvrt@convarg+1,dtoa@d+1
  5768   000D88  C04A  F020         	movff	vfpfcnvrt@convarg+2,dtoa@d+2
  5769   000D8C  C04B  F021         	movff	vfpfcnvrt@convarg+3,dtoa@d+3
  5770   000D90  C04C  F022         	movff	vfpfcnvrt@convarg+4,dtoa@d+4
  5771   000D94  C04D  F023         	movff	vfpfcnvrt@convarg+5,dtoa@d+5
  5772   000D98  C04E  F024         	movff	vfpfcnvrt@convarg+6,dtoa@d+6
  5773   000D9C  C04F  F025         	movff	vfpfcnvrt@convarg+7,dtoa@d+7
  5774   000DA0  ECE5  F008         	call	_dtoa	;wreg free
  5775   000DA4  EF16  F007         	goto	i2l1302
  5776   000DA8                     i2l3117:
  5777                           
  5778                           ;C:\Program Files\Microchip\xc8\v2.40\pic\sources\c99\common\doprnt.c: 1501:         if 
      +                          ((*fmt)[0] == '%') {
  5779   000DA8  C041  FFD9         	movff	vfpfcnvrt@fmt,fsr2l
  5780   000DAC  C042  FFDA         	movff	vfpfcnvrt@fmt+1,fsr2h
  5781   000DB0  CFDE FFF6          	movff	postinc2,tblptrl
  5782   000DB4  CFDD FFF7          	movff	postdec2,tblptrh
  5783   000DB8                     	if	0	;tblptru may be non-zero
  5784   000DB8                     	endif
  5785   000DB8                     	if	0	;tblptru may be non-zero
  5786   000DB8                     	endif
  5787   000DB8  0008               	tblrd		*
  5788   000DBA  50F5               	movf	tablat,w,c
  5789   000DBC  0A25               	xorlw	37
  5790   000DBE  A4D8               	btfss	status,2,c
  5791   000DC0  EFE4  F006         	goto	i2u251_41
  5792   000DC4  EFE6  F006         	goto	i2u251_40
  5793   000DC8                     i2u251_41:
  5794   000DC8  EFF9  F006         	goto	i2l3125
  5795   000DCC                     i2u251_40:
  5796   000DCC                     
  5797                           ;C:\Program Files\Microchip\xc8\v2.40\pic\sources\c99\common\doprnt.c: 1502:            
      +                           ++*fmt;
  5798   000DCC  C041  FFD9         	movff	vfpfcnvrt@fmt,fsr2l
  5799   000DD0  C042  FFDA         	movff	vfpfcnvrt@fmt+1,fsr2h
  5800   000DD4  2ADE               	incf	postinc2,f,c
  5801   000DD6  0E00               	movlw	0
  5802   000DD8  22DD               	addwfc	postdec2,f,c
  5803   000DDA                     
  5804                           ;C:\Program Files\Microchip\xc8\v2.40\pic\sources\c99\common\doprnt.c: 1503:            
      +                           fputc((int)'%', fp);
  5805   000DDA  0E00               	movlw	0
  5806   000DDC  6E02               	movwf	(fputc@c+1)^0,c
  5807   000DDE  0E25               	movlw	37
  5808   000DE0  6E01               	movwf	fputc@c^0,c
  5809   000DE2  C03F  F003         	movff	vfpfcnvrt@fp,fputc@fp
  5810   000DE6  C040  F004         	movff	vfpfcnvrt@fp+1,fputc@fp+1
  5811   000DEA  EC14  F010         	call	_fputc	;wreg free
  5812   000DEE  EF16  F007         	goto	i2l1302
  5813   000DF2                     i2l3125:
  5814                           
  5815                           ;C:\Program Files\Microchip\xc8\v2.40\pic\sources\c99\common\doprnt.c: 1509:         ++*
      +                          fmt;
  5816   000DF2  C041  FFD9         	movff	vfpfcnvrt@fmt,fsr2l
  5817   000DF6  C042  FFDA         	movff	vfpfcnvrt@fmt+1,fsr2h
  5818   000DFA  2ADE               	incf	postinc2,f,c
  5819   000DFC  0E00               	movlw	0
  5820   000DFE  22DD               	addwfc	postdec2,f,c
  5821   000E00  EF16  F007         	goto	i2l1302
  5822   000E04                     i2l3129:
  5823                           
  5824                           ;C:\Program Files\Microchip\xc8\v2.40\pic\sources\c99\common\doprnt.c: 1514:     fputc((
      +                          int)(*fmt)[0], fp);
  5825   000E04  C041  FFD9         	movff	vfpfcnvrt@fmt,fsr2l
  5826   000E08  C042  FFDA         	movff	vfpfcnvrt@fmt+1,fsr2h
  5827   000E0C  CFDE FFF6          	movff	postinc2,tblptrl
  5828   000E10  CFDD FFF7          	movff	postdec2,tblptrh
  5829   000E14                     	if	0	;tblptru may be non-zero
  5830   000E14                     	endif
  5831   000E14                     	if	0	;tblptru may be non-zero
  5832   000E14                     	endif
  5833   000E14  0008               	tblrd		*
  5834   000E16  50F5               	movf	tablat,w,c
  5835   000E18  6E01               	movwf	fputc@c^0,c
  5836   000E1A  6A02               	clrf	(fputc@c+1)^0,c
  5837   000E1C  C03F  F003         	movff	vfpfcnvrt@fp,fputc@fp
  5838   000E20  C040  F004         	movff	vfpfcnvrt@fp+1,fputc@fp+1
  5839   000E24  EC14  F010         	call	_fputc	;wreg free
  5840   000E28  EFF9  F006         	goto	i2l3125
  5841   000E2C                     i2l1302:
  5842   000E2C  0012               	return		;funcret
  5843   000E2E                     __end_of_vfpfcnvrt:
  5844                           	callstack 0
  5845                           
  5846 ;; *************** function _dtoa *****************
  5847 ;; Defined at:
  5848 ;;		line 443 in file "C:\Program Files\Microchip\xc8\v2.40\pic\sources\c99\common\doprnt.c"
  5849 ;; Parameters:    Size  Location     Type
  5850 ;;  fp              2   27[COMRAM] PTR struct _IO_FILE
  5851 ;;		 -> sprintf@f(11), 
  5852 ;;  d               8   29[COMRAM] long long 
  5853 ;; Auto vars:     Size  Location     Type
  5854 ;;  n               8   51[COMRAM] long long 
  5855 ;;  i               2   59[COMRAM] int 
  5856 ;;  w               2   49[COMRAM] int 
  5857 ;;  p               2   47[COMRAM] int 
  5858 ;;  s               1   61[COMRAM] unsigned char 
  5859 ;; Return value:  Size  Location     Type
  5860 ;;                  1    wreg      void 
  5861 ;; Registers used:
  5862 ;;		wreg, fsr1l, fsr1h, fsr2l, fsr2h, status,2, status,0, cstack
  5863 ;; Tracked objects:
  5864 ;;		On entry : 0/0
  5865 ;;		On exit  : 0/0
  5866 ;;		Unchanged: 0/0
  5867 ;; Data sizes:     COMRAM   BANK0   BANK1   BANK2   BANK3   BANK4   BANK5
  5868 ;;      Params:        10       0       0       0       0       0       0
  5869 ;;      Locals:        17       0       0       0       0       0       0
  5870 ;;      Temps:          8       0       0       0       0       0       0
  5871 ;;      Totals:        35       0       0       0       0       0       0
  5872 ;;Total ram usage:       35 bytes
  5873 ;; Hardware stack levels used: 1
  5874 ;; Hardware stack levels required when called: 4
  5875 ;; This function calls:
  5876 ;;		___aodiv
  5877 ;;		___aomod
  5878 ;;		_abs
  5879 ;;		_pad
  5880 ;; This function is called by:
  5881 ;;		_vfpfcnvrt
  5882 ;; This function uses a non-reentrant model
  5883 ;;
  5884                           
  5885                           	psect	text29
  5886   0011CA                     __ptext29:
  5887                           	callstack 0
  5888   0011CA                     _dtoa:
  5889                           	callstack 16
  5890   0011CA                     
  5891                           ;C:\Program Files\Microchip\xc8\v2.40\pic\sources\c99\common\doprnt.c: 443: static void 
      +                          dtoa(FILE *fp, long long d);C:\Program Files\Microchip\xc8\v2.40\pic\sources\c99\common\
      +                          doprnt.c: 444: {;C:\Program Files\Microchip\xc8\v2.40\pic\sources\c99\common\doprnt.c: 4
      +                          45:  char s;;C:\Program Files\Microchip\xc8\v2.40\pic\sources\c99\common\doprnt.c: 446: 
      +                              int i, p, w;;C:\Program Files\Microchip\xc8\v2.40\pic\sources\c99\common\doprnt.c: 4
      +                          47:     long long n;;C:\Program Files\Microchip\xc8\v2.40\pic\sources\c99\common\doprnt.
      +                          c: 450:     n = d;
  5892   0011CA  C01E  F034         	movff	dtoa@d,dtoa@n
  5893   0011CE  C01F  F035         	movff	dtoa@d+1,dtoa@n+1
  5894   0011D2  C020  F036         	movff	dtoa@d+2,dtoa@n+2
  5895   0011D6  C021  F037         	movff	dtoa@d+3,dtoa@n+3
  5896   0011DA  C022  F038         	movff	dtoa@d+4,dtoa@n+4
  5897   0011DE  C023  F039         	movff	dtoa@d+5,dtoa@n+5
  5898   0011E2  C024  F03A         	movff	dtoa@d+6,dtoa@n+6
  5899   0011E6  C025  F03B         	movff	dtoa@d+7,dtoa@n+7
  5900   0011EA                     
  5901                           ;C:\Program Files\Microchip\xc8\v2.40\pic\sources\c99\common\doprnt.c: 451:     s = n < 
      +                          0 ? 1 : 0;
  5902   0011EA  BE3B               	btfsc	(dtoa@n+7)^0,7,c
  5903   0011EC  EFFA  F008         	goto	i2u227_41
  5904   0011F0  EFFD  F008         	goto	i2u227_40
  5905   0011F4                     i2u227_41:
  5906   0011F4  0E01               	movlw	1
  5907   0011F6  EFFE  F008         	goto	i2u228_40
  5908   0011FA                     i2u227_40:
  5909   0011FA  0E00               	movlw	0
  5910   0011FC                     i2u228_40:
  5911   0011FC  6E3E               	movwf	dtoa@s^0,c
  5912   0011FE                     
  5913                           ;C:\Program Files\Microchip\xc8\v2.40\pic\sources\c99\common\doprnt.c: 452:     if (s) {
  5914   0011FE  503E               	movf	dtoa@s^0,w,c
  5915   001200  B4D8               	btfsc	status,2,c
  5916   001202  EF05  F009         	goto	i2u229_41
  5917   001206  EF07  F009         	goto	i2u229_40
  5918   00120A                     i2u229_41:
  5919   00120A  EF17  F009         	goto	i2l2979
  5920   00120E                     i2u229_40:
  5921   00120E                     
  5922                           ;C:\Program Files\Microchip\xc8\v2.40\pic\sources\c99\common\doprnt.c: 453:         n = 
      +                          -n;
  5923   00120E  1E3B               	comf	(dtoa@n+7)^0,f,c
  5924   001210  1E3A               	comf	(dtoa@n+6)^0,f,c
  5925   001212  1E39               	comf	(dtoa@n+5)^0,f,c
  5926   001214  1E38               	comf	(dtoa@n+4)^0,f,c
  5927   001216  1E37               	comf	(dtoa@n+3)^0,f,c
  5928   001218  1E36               	comf	(dtoa@n+2)^0,f,c
  5929   00121A  1E35               	comf	(dtoa@n+1)^0,f,c
  5930   00121C  6C34               	negf	dtoa@n^0,c
  5931   00121E  0E00               	movlw	0
  5932   001220  2235               	addwfc	(dtoa@n+1)^0,f,c
  5933   001222  2236               	addwfc	(dtoa@n+2)^0,f,c
  5934   001224  2237               	addwfc	(dtoa@n+3)^0,f,c
  5935   001226  2238               	addwfc	(dtoa@n+4)^0,f,c
  5936   001228  2239               	addwfc	(dtoa@n+5)^0,f,c
  5937   00122A  223A               	addwfc	(dtoa@n+6)^0,f,c
  5938   00122C  223B               	addwfc	(dtoa@n+7)^0,f,c
  5939   00122E                     i2l2979:
  5940                           
  5941                           ;C:\Program Files\Microchip\xc8\v2.40\pic\sources\c99\common\doprnt.c: 462:     p = (0 <
      +                           prec) ? prec : 1;
  5942   00122E  0100               	movlb	0	; () banked
  5943   001230  BFCF               	btfsc	(_prec+1)& (0+255),7,b
  5944   001232  EF25  F009         	goto	i2u230_40
  5945   001236  51CF               	movf	(_prec+1)& (0+255),w,b
  5946   001238  E106               	bnz	i2u230_41
  5947   00123A  05CE               	decf	_prec& (0+255),w,b
  5948   00123C  B0D8               	btfsc	status,0,c
  5949   00123E  EF23  F009         	goto	i2u230_41
  5950   001242  EF25  F009         	goto	i2u230_40
  5951   001246                     i2u230_41:
  5952   001246  EF2B  F009         	goto	i2l1267
  5953   00124A                     i2u230_40:
  5954   00124A                     
  5955                           ; BSR set to: 0
  5956   00124A  0E00               	movlw	0
  5957   00124C  6E31               	movwf	(dtoa@p+1)^0,c
  5958   00124E  0E01               	movlw	1
  5959   001250  6E30               	movwf	dtoa@p^0,c
  5960   001252  EF2F  F009         	goto	i2l1269
  5961   001256                     i2l1267:
  5962                           
  5963                           ; BSR set to: 0
  5964   001256  C0CE  F030         	movff	_prec,dtoa@p
  5965   00125A  C0CF  F031         	movff	_prec+1,dtoa@p+1
  5966   00125E                     i2l1269:
  5967                           
  5968                           ; BSR set to: 0
  5969                           ;C:\Program Files\Microchip\xc8\v2.40\pic\sources\c99\common\doprnt.c: 463:     w = widt
      +                          h;
  5970   00125E  C0CC  F032         	movff	_width,dtoa@w
  5971   001262  C0CD  F033         	movff	_width+1,dtoa@w+1
  5972   001266                     
  5973                           ; BSR set to: 0
  5974                           ;C:\Program Files\Microchip\xc8\v2.40\pic\sources\c99\common\doprnt.c: 464:     if (s
  5975   001266  503E               	movf	dtoa@s^0,w,c
  5976   001268  B4D8               	btfsc	status,2,c
  5977   00126A  EF39  F009         	goto	i2u231_41
  5978   00126E  EF3B  F009         	goto	i2u231_40
  5979   001272                     i2u231_41:
  5980   001272  EF52  F009         	goto	i2l1270
  5981   001276                     i2u231_40:
  5982   001276                     
  5983                           ; BSR set to: 0
  5984                           ;C:\Program Files\Microchip\xc8\v2.40\pic\sources\c99\common\doprnt.c: 468:     ) {;C:\P
      +                          rogram Files\Microchip\xc8\v2.40\pic\sources\c99\common\doprnt.c: 469:         --w;
  5985   001276  0632               	decf	dtoa@w^0,f,c
  5986   001278  A0D8               	btfss	status,0,c
  5987   00127A  0633               	decf	(dtoa@w+1)^0,f,c
  5988   00127C                     
  5989                           ; BSR set to: 0
  5990                           ;C:\Program Files\Microchip\xc8\v2.40\pic\sources\c99\common\doprnt.c: 470:   s = s ? '-
      +                          ' : '+';
  5991   00127C  503E               	movf	dtoa@s^0,w,c
  5992   00127E  A4D8               	btfss	status,2,c
  5993   001280  EF44  F009         	goto	i2u232_41
  5994   001284  EF46  F009         	goto	i2u232_40
  5995   001288                     i2u232_41:
  5996   001288  EF4C  F009         	goto	i2l2991
  5997   00128C                     i2u232_40:
  5998   00128C                     
  5999                           ; BSR set to: 0
  6000   00128C  0E00               	movlw	0
  6001   00128E  6E2F               	movwf	(_dtoa$979+1)^0,c
  6002   001290  0E2B               	movlw	43
  6003   001292  6E2E               	movwf	_dtoa$979^0,c
  6004   001294  EF50  F009         	goto	i2l2993
  6005   001298                     i2l2991:
  6006                           
  6007                           ; BSR set to: 0
  6008   001298  0E00               	movlw	0
  6009   00129A  6E2F               	movwf	(_dtoa$979+1)^0,c
  6010   00129C  0E2D               	movlw	45
  6011   00129E  6E2E               	movwf	_dtoa$979^0,c
  6012   0012A0                     i2l2993:
  6013                           
  6014                           ; BSR set to: 0
  6015   0012A0  C02E  F03E         	movff	_dtoa$979,dtoa@s
  6016   0012A4                     i2l1270:
  6017                           
  6018                           ; BSR set to: 0
  6019                           ;C:\Program Files\Microchip\xc8\v2.40\pic\sources\c99\common\doprnt.c: 480:     i = size
      +                          of(dbuf) - 1;
  6020   0012A4  0E00               	movlw	0
  6021   0012A6  6E3D               	movwf	(dtoa@i+1)^0,c
  6022   0012A8  0E1F               	movlw	31
  6023   0012AA  6E3C               	movwf	dtoa@i^0,c
  6024   0012AC                     
  6025                           ; BSR set to: 0
  6026                           ;C:\Program Files\Microchip\xc8\v2.40\pic\sources\c99\common\doprnt.c: 481:     dbuf[i] 
      +                          = '\0';
  6027   0012AC  0E00               	movlw	0
  6028   0012AE  0101               	movlb	1	; () banked
  6029   0012B0  6F5A               	movwf	(_dbuf+31)& (0+255),b
  6030                           
  6031                           ;C:\Program Files\Microchip\xc8\v2.40\pic\sources\c99\common\doprnt.c: 482:     while (!
      +                          (i < 1) && (n || (0 < p)
  6032   0012B2  EFD7  F009         	goto	i2l3007
  6033   0012B6                     i2l2997:
  6034                           
  6035                           ;C:\Program Files\Microchip\xc8\v2.40\pic\sources\c99\common\doprnt.c: 486:     )) {;C:\
      +                          Program Files\Microchip\xc8\v2.40\pic\sources\c99\common\doprnt.c: 487:         --i;
  6036   0012B6  063C               	decf	dtoa@i^0,f,c
  6037   0012B8  A0D8               	btfss	status,0,c
  6038   0012BA  063D               	decf	(dtoa@i+1)^0,f,c
  6039   0012BC                     
  6040                           ;C:\Program Files\Microchip\xc8\v2.40\pic\sources\c99\common\doprnt.c: 488:         dbuf
      +                          [i] = (char)((int)'0' + abs(n % 10));
  6041   0012BC  0E3B               	movlw	low _dbuf
  6042   0012BE  243C               	addwf	dtoa@i^0,w,c
  6043   0012C0  6ED9               	movwf	fsr2l,c
  6044   0012C2  0E01               	movlw	high _dbuf
  6045   0012C4  203D               	addwfc	(dtoa@i+1)^0,w,c
  6046   0012C6  6EDA               	movwf	fsr2h,c
  6047   0012C8  C034  F001         	movff	dtoa@n,___aomod@dividend
  6048   0012CC  C035  F002         	movff	dtoa@n+1,___aomod@dividend+1
  6049   0012D0  C036  F003         	movff	dtoa@n+2,___aomod@dividend+2
  6050   0012D4  C037  F004         	movff	dtoa@n+3,___aomod@dividend+3
  6051   0012D8  C038  F005         	movff	dtoa@n+4,___aomod@dividend+4
  6052   0012DC  C039  F006         	movff	dtoa@n+5,___aomod@dividend+5
  6053   0012E0  C03A  F007         	movff	dtoa@n+6,___aomod@dividend+6
  6054   0012E4  C03B  F008         	movff	dtoa@n+7,___aomod@dividend+7
  6055   0012E8  0E0A               	movlw	10
  6056   0012EA  6E09               	movwf	___aomod@divisor^0,c
  6057   0012EC  0E00               	movlw	0
  6058   0012EE  6E0A               	movwf	(___aomod@divisor+1)^0,c
  6059   0012F0  0E00               	movlw	0
  6060   0012F2  6E0B               	movwf	(___aomod@divisor+2)^0,c
  6061   0012F4  0E00               	movlw	0
  6062   0012F6  6E0C               	movwf	(___aomod@divisor+3)^0,c
  6063   0012F8  0E00               	movlw	0
  6064   0012FA  6E0D               	movwf	(___aomod@divisor+4)^0,c
  6065   0012FC  0E00               	movlw	0
  6066   0012FE  6E0E               	movwf	(___aomod@divisor+5)^0,c
  6067   001300  0E00               	movlw	0
  6068   001302  6E0F               	movwf	(___aomod@divisor+6)^0,c
  6069   001304  0E00               	movlw	0
  6070   001306  6E10               	movwf	(___aomod@divisor+7)^0,c
  6071   001308  ECC4  F00B         	call	___aomod	;wreg free
  6072   00130C  C001  F026         	movff	?___aomod,??_dtoa
  6073   001310  C002  F027         	movff	?___aomod+1,??_dtoa+1
  6074   001314  C003  F028         	movff	?___aomod+2,??_dtoa+2
  6075   001318  C004  F029         	movff	?___aomod+3,??_dtoa+3
  6076   00131C  C005  F02A         	movff	?___aomod+4,??_dtoa+4
  6077   001320  C006  F02B         	movff	?___aomod+5,??_dtoa+5
  6078   001324  C007  F02C         	movff	?___aomod+6,??_dtoa+6
  6079   001328  C008  F02D         	movff	?___aomod+7,??_dtoa+7
  6080   00132C  C026  F013         	movff	??_dtoa,abs@a
  6081   001330  C027  F014         	movff	??_dtoa+1,abs@a+1
  6082   001334  ECCD  F014         	call	_abs	;wreg free
  6083   001338  5013               	movf	?_abs^0,w,c
  6084   00133A  0F30               	addlw	48
  6085   00133C  6EDF               	movwf	indf2,c
  6086   00133E                     
  6087                           ;C:\Program Files\Microchip\xc8\v2.40\pic\sources\c99\common\doprnt.c: 489:         --p;
  6088   00133E  0630               	decf	dtoa@p^0,f,c
  6089   001340  A0D8               	btfss	status,0,c
  6090   001342  0631               	decf	(dtoa@p+1)^0,f,c
  6091   001344                     
  6092                           ;C:\Program Files\Microchip\xc8\v2.40\pic\sources\c99\common\doprnt.c: 490:         --w;
  6093   001344  0632               	decf	dtoa@w^0,f,c
  6094   001346  A0D8               	btfss	status,0,c
  6095   001348  0633               	decf	(dtoa@w+1)^0,f,c
  6096   00134A                     
  6097                           ;C:\Program Files\Microchip\xc8\v2.40\pic\sources\c99\common\doprnt.c: 491:         n = 
      +                          n / 10;
  6098   00134A  C034  F001         	movff	dtoa@n,___aodiv@dividend
  6099   00134E  C035  F002         	movff	dtoa@n+1,___aodiv@dividend+1
  6100   001352  C036  F003         	movff	dtoa@n+2,___aodiv@dividend+2
  6101   001356  C037  F004         	movff	dtoa@n+3,___aodiv@dividend+3
  6102   00135A  C038  F005         	movff	dtoa@n+4,___aodiv@dividend+4
  6103   00135E  C039  F006         	movff	dtoa@n+5,___aodiv@dividend+5
  6104   001362  C03A  F007         	movff	dtoa@n+6,___aodiv@dividend+6
  6105   001366  C03B  F008         	movff	dtoa@n+7,___aodiv@dividend+7
  6106   00136A  0E0A               	movlw	10
  6107   00136C  6E09               	movwf	___aodiv@divisor^0,c
  6108   00136E  0E00               	movlw	0
  6109   001370  6E0A               	movwf	(___aodiv@divisor+1)^0,c
  6110   001372  0E00               	movlw	0
  6111   001374  6E0B               	movwf	(___aodiv@divisor+2)^0,c
  6112   001376  0E00               	movlw	0
  6113   001378  6E0C               	movwf	(___aodiv@divisor+3)^0,c
  6114   00137A  0E00               	movlw	0
  6115   00137C  6E0D               	movwf	(___aodiv@divisor+4)^0,c
  6116   00137E  0E00               	movlw	0
  6117   001380  6E0E               	movwf	(___aodiv@divisor+5)^0,c
  6118   001382  0E00               	movlw	0
  6119   001384  6E0F               	movwf	(___aodiv@divisor+6)^0,c
  6120   001386  0E00               	movlw	0
  6121   001388  6E10               	movwf	(___aodiv@divisor+7)^0,c
  6122   00138A  EC00  F00B         	call	___aodiv	;wreg free
  6123   00138E  C001  F034         	movff	?___aodiv,dtoa@n
  6124   001392  C002  F035         	movff	?___aodiv+1,dtoa@n+1
  6125   001396  C003  F036         	movff	?___aodiv+2,dtoa@n+2
  6126   00139A  C004  F037         	movff	?___aodiv+3,dtoa@n+3
  6127   00139E  C005  F038         	movff	?___aodiv+4,dtoa@n+4
  6128   0013A2  C006  F039         	movff	?___aodiv+5,dtoa@n+5
  6129   0013A6  C007  F03A         	movff	?___aodiv+6,dtoa@n+6
  6130   0013AA  C008  F03B         	movff	?___aodiv+7,dtoa@n+7
  6131   0013AE                     i2l3007:
  6132                           
  6133                           ;C:\Program Files\Microchip\xc8\v2.40\pic\sources\c99\common\doprnt.c: 482:     while (!
      +                          (i < 1) && (n || (0 < p)
  6134   0013AE  BE3D               	btfsc	(dtoa@i+1)^0,7,c
  6135   0013B0  EFE2  F009         	goto	i2u233_41
  6136   0013B4  503D               	movf	(dtoa@i+1)^0,w,c
  6137   0013B6  E108               	bnz	i2u233_40
  6138   0013B8  043C               	decf	dtoa@i^0,w,c
  6139   0013BA  A0D8               	btfss	status,0,c
  6140   0013BC  EFE2  F009         	goto	i2u233_41
  6141   0013C0  EFE4  F009         	goto	i2u233_40
  6142   0013C4                     i2u233_41:
  6143   0013C4  EF00  F00A         	goto	i2l3013
  6144   0013C8                     i2u233_40:
  6145   0013C8  5034               	movf	dtoa@n^0,w,c
  6146   0013CA  1035               	iorwf	(dtoa@n+1)^0,w,c
  6147   0013CC  1036               	iorwf	(dtoa@n+2)^0,w,c
  6148   0013CE  1037               	iorwf	(dtoa@n+3)^0,w,c
  6149   0013D0  1038               	iorwf	(dtoa@n+4)^0,w,c
  6150   0013D2  1039               	iorwf	(dtoa@n+5)^0,w,c
  6151   0013D4  103A               	iorwf	(dtoa@n+6)^0,w,c
  6152   0013D6  103B               	iorwf	(dtoa@n+7)^0,w,c
  6153   0013D8  A4D8               	btfss	status,2,c
  6154   0013DA  EFF1  F009         	goto	i2u234_41
  6155   0013DE  EFF3  F009         	goto	i2u234_40
  6156   0013E2                     i2u234_41:
  6157   0013E2  EF5B  F009         	goto	i2l2997
  6158   0013E6                     i2u234_40:
  6159   0013E6  BE31               	btfsc	(dtoa@p+1)^0,7,c
  6160   0013E8  EF00  F00A         	goto	i2u235_40
  6161   0013EC  5031               	movf	(dtoa@p+1)^0,w,c
  6162   0013EE  E106               	bnz	i2u235_41
  6163   0013F0  0430               	decf	dtoa@p^0,w,c
  6164   0013F2  B0D8               	btfsc	status,0,c
  6165   0013F4  EFFE  F009         	goto	i2u235_41
  6166   0013F8  EF00  F00A         	goto	i2u235_40
  6167   0013FC                     i2u235_41:
  6168   0013FC  EF5B  F009         	goto	i2l2997
  6169   001400                     i2u235_40:
  6170   001400                     i2l3013:
  6171                           
  6172                           ;C:\Program Files\Microchip\xc8\v2.40\pic\sources\c99\common\doprnt.c: 495:     if (s !=
      +                           0) {
  6173   001400  503E               	movf	dtoa@s^0,w,c
  6174   001402  B4D8               	btfsc	status,2,c
  6175   001404  EF06  F00A         	goto	i2u236_41
  6176   001408  EF08  F00A         	goto	i2u236_40
  6177   00140C                     i2u236_41:
  6178   00140C  EF13  F00A         	goto	i2l3019
  6179   001410                     i2u236_40:
  6180   001410                     
  6181                           ;C:\Program Files\Microchip\xc8\v2.40\pic\sources\c99\common\doprnt.c: 496:         --i;
  6182   001410  063C               	decf	dtoa@i^0,f,c
  6183   001412  A0D8               	btfss	status,0,c
  6184   001414  063D               	decf	(dtoa@i+1)^0,f,c
  6185   001416                     
  6186                           ;C:\Program Files\Microchip\xc8\v2.40\pic\sources\c99\common\doprnt.c: 497:         dbuf
      +                          [i] = s;
  6187   001416  0E3B               	movlw	low _dbuf
  6188   001418  243C               	addwf	dtoa@i^0,w,c
  6189   00141A  6ED9               	movwf	fsr2l,c
  6190   00141C  0E01               	movlw	high _dbuf
  6191   00141E  203D               	addwfc	(dtoa@i+1)^0,w,c
  6192   001420  6EDA               	movwf	fsr2h,c
  6193   001422  C03E  FFDF         	movff	dtoa@s,indf2
  6194   001426                     i2l3019:
  6195                           
  6196                           ;C:\Program Files\Microchip\xc8\v2.40\pic\sources\c99\common\doprnt.c: 501:     return (
      +                          void) pad(fp, &dbuf[i], w);
  6197   001426  C01C  F011         	movff	dtoa@fp,pad@fp
  6198   00142A  C01D  F012         	movff	dtoa@fp+1,pad@fp+1
  6199   00142E  0E3B               	movlw	low _dbuf
  6200   001430  243C               	addwf	dtoa@i^0,w,c
  6201   001432  6E13               	movwf	pad@buf^0,c
  6202   001434  0E01               	movlw	high _dbuf
  6203   001436  203D               	addwfc	(dtoa@i+1)^0,w,c
  6204   001438  6E14               	movwf	(pad@buf+1)^0,c
  6205   00143A  C032  F015         	movff	dtoa@w,pad@p
  6206   00143E  C033  F016         	movff	dtoa@w+1,pad@p+1
  6207   001442  EC40  F012         	call	_pad	;wreg free
  6208   001446  0012               	return		;funcret
  6209   001448                     __end_of_dtoa:
  6210                           	callstack 0
  6211                           
  6212 ;; *************** function _pad *****************
  6213 ;; Defined at:
  6214 ;;		line 133 in file "C:\Program Files\Microchip\xc8\v2.40\pic\sources\c99\common\doprnt.c"
  6215 ;; Parameters:    Size  Location     Type
  6216 ;;  fp              2   16[COMRAM] PTR struct _IO_FILE
  6217 ;;		 -> sprintf@f(11), 
  6218 ;;  buf             2   18[COMRAM] PTR unsigned char 
  6219 ;;		 -> dbuf(32), 
  6220 ;;  p               2   20[COMRAM] int 
  6221 ;; Auto vars:     Size  Location     Type
  6222 ;;  w               2   25[COMRAM] int 
  6223 ;;  i               2   23[COMRAM] int 
  6224 ;; Return value:  Size  Location     Type
  6225 ;;                  1    wreg      void 
  6226 ;; Registers used:
  6227 ;;		wreg, fsr1l, fsr1h, fsr2l, fsr2h, status,2, status,0, cstack
  6228 ;; Tracked objects:
  6229 ;;		On entry : 0/0
  6230 ;;		On exit  : 0/0
  6231 ;;		Unchanged: 0/0
  6232 ;; Data sizes:     COMRAM   BANK0   BANK1   BANK2   BANK3   BANK4   BANK5
  6233 ;;      Params:         6       0       0       0       0       0       0
  6234 ;;      Locals:         4       0       0       0       0       0       0
  6235 ;;      Temps:          1       0       0       0       0       0       0
  6236 ;;      Totals:        11       0       0       0       0       0       0
  6237 ;;Total ram usage:       11 bytes
  6238 ;; Hardware stack levels used: 1
  6239 ;; Hardware stack levels required when called: 3
  6240 ;; This function calls:
  6241 ;;		_fputc
  6242 ;;		_fputs
  6243 ;; This function is called by:
  6244 ;;		_dtoa
  6245 ;; This function uses a non-reentrant model
  6246 ;;
  6247                           
  6248                           	psect	text30
  6249   002480                     __ptext30:
  6250                           	callstack 0
  6251   002480                     _pad:
  6252                           	callstack 16
  6253   002480                     
  6254                           ;C:\Program Files\Microchip\xc8\v2.40\pic\sources\c99\common\doprnt.c: 133: static void 
      +                          pad(FILE *fp, char *buf, int p);C:\Program Files\Microchip\xc8\v2.40\pic\sources\c99\com
      +                          mon\doprnt.c: 134: {;C:\Program Files\Microchip\xc8\v2.40\pic\sources\c99\common\doprnt.
      +                          c: 135:     int i, w;;C:\Program Files\Microchip\xc8\v2.40\pic\sources\c99\common\doprnt
      +                          .c: 139:     if (flags & (1 << 0)) {
  6255   002480  A07A               	btfss	_flags^0,0,c
  6256   002482  EF45  F012         	goto	i2u213_41
  6257   002486  EF47  F012         	goto	i2u213_40
  6258   00248A                     i2u213_41:
  6259   00248A  EF51  F012         	goto	i2l2913
  6260   00248E                     i2u213_40:
  6261   00248E                     
  6262                           ;C:\Program Files\Microchip\xc8\v2.40\pic\sources\c99\common\doprnt.c: 140:         fput
      +                          s((const char *)buf, fp);
  6263   00248E  C013  F00A         	movff	pad@buf,fputs@s
  6264   002492  C014  F00B         	movff	pad@buf+1,fputs@s+1
  6265   002496  C011  F00C         	movff	pad@fp,fputs@fp
  6266   00249A  C012  F00D         	movff	pad@fp+1,fputs@fp+1
  6267   00249E  ECAB  F014         	call	_fputs	;wreg free
  6268   0024A2                     i2l2913:
  6269                           
  6270                           ;C:\Program Files\Microchip\xc8\v2.40\pic\sources\c99\common\doprnt.c: 145:     w = (p <
      +                           0) ? 0 : p;
  6271   0024A2  BE16               	btfsc	(pad@p+1)^0,7,c
  6272   0024A4  EF56  F012         	goto	i2u214_41
  6273   0024A8  EF58  F012         	goto	i2u214_40
  6274   0024AC                     i2u214_41:
  6275   0024AC  EF5E  F012         	goto	i2l2917
  6276   0024B0                     i2u214_40:
  6277   0024B0  C015  F01A         	movff	pad@p,pad@w
  6278   0024B4  C016  F01B         	movff	pad@p+1,pad@w+1
  6279   0024B8  EF62  F012         	goto	i2l1241
  6280   0024BC                     i2l2917:
  6281   0024BC  0E00               	movlw	0
  6282   0024BE  6E1B               	movwf	(pad@w+1)^0,c
  6283   0024C0  0E00               	movlw	0
  6284   0024C2  6E1A               	movwf	pad@w^0,c
  6285   0024C4                     i2l1241:
  6286                           
  6287                           ;C:\Program Files\Microchip\xc8\v2.40\pic\sources\c99\common\doprnt.c: 146:     i = 0;
  6288   0024C4  0E00               	movlw	0
  6289   0024C6  6E19               	movwf	(pad@i+1)^0,c
  6290   0024C8  0E00               	movlw	0
  6291   0024CA  6E18               	movwf	pad@i^0,c
  6292                           
  6293                           ;C:\Program Files\Microchip\xc8\v2.40\pic\sources\c99\common\doprnt.c: 147:     while (i
      +                           < w) {
  6294   0024CC  EF74  F012         	goto	i2l2923
  6295   0024D0                     i2l2919:
  6296                           
  6297                           ;C:\Program Files\Microchip\xc8\v2.40\pic\sources\c99\common\doprnt.c: 148:         fput
      +                          c(' ', fp);
  6298   0024D0  0E00               	movlw	0
  6299   0024D2  6E02               	movwf	(fputc@c+1)^0,c
  6300   0024D4  0E20               	movlw	32
  6301   0024D6  6E01               	movwf	fputc@c^0,c
  6302   0024D8  C011  F003         	movff	pad@fp,fputc@fp
  6303   0024DC  C012  F004         	movff	pad@fp+1,fputc@fp+1
  6304   0024E0  EC14  F010         	call	_fputc	;wreg free
  6305   0024E4                     
  6306                           ;C:\Program Files\Microchip\xc8\v2.40\pic\sources\c99\common\doprnt.c: 149:         ++i;
  6307   0024E4  4A18               	infsnz	pad@i^0,f,c
  6308   0024E6  2A19               	incf	(pad@i+1)^0,f,c
  6309   0024E8                     i2l2923:
  6310                           
  6311                           ;C:\Program Files\Microchip\xc8\v2.40\pic\sources\c99\common\doprnt.c: 147:     while (i
      +                           < w) {
  6312   0024E8  501A               	movf	pad@w^0,w,c
  6313   0024EA  5C18               	subwf	pad@i^0,w,c
  6314   0024EC  5019               	movf	(pad@i+1)^0,w,c
  6315   0024EE  0A80               	xorlw	128
  6316   0024F0  6E17               	movwf	??_pad^0,c
  6317   0024F2  501B               	movf	(pad@w+1)^0,w,c
  6318   0024F4  0A80               	xorlw	128
  6319   0024F6  5817               	subwfb	??_pad^0,w,c
  6320   0024F8  A0D8               	btfss	status,0,c
  6321   0024FA  EF81  F012         	goto	i2u215_41
  6322   0024FE  EF83  F012         	goto	i2u215_40
  6323   002502                     i2u215_41:
  6324   002502  EF68  F012         	goto	i2l2919
  6325   002506                     i2u215_40:
  6326   002506                     
  6327                           ;C:\Program Files\Microchip\xc8\v2.40\pic\sources\c99\common\doprnt.c: 154:     if (!(fl
      +                          ags & (1 << 0))) {
  6328   002506  B07A               	btfsc	_flags^0,0,c
  6329   002508  EF88  F012         	goto	i2u216_41
  6330   00250C  EF8A  F012         	goto	i2u216_40
  6331   002510                     i2u216_41:
  6332   002510  EF94  F012         	goto	i2l1246
  6333   002514                     i2u216_40:
  6334   002514                     
  6335                           ;C:\Program Files\Microchip\xc8\v2.40\pic\sources\c99\common\doprnt.c: 156:         fput
      +                          s((const char *)buf, fp);
  6336   002514  C013  F00A         	movff	pad@buf,fputs@s
  6337   002518  C014  F00B         	movff	pad@buf+1,fputs@s+1
  6338   00251C  C011  F00C         	movff	pad@fp,fputs@fp
  6339   002520  C012  F00D         	movff	pad@fp+1,fputs@fp+1
  6340   002524  ECAB  F014         	call	_fputs	;wreg free
  6341   002528                     i2l1246:
  6342   002528  0012               	return		;funcret
  6343   00252A                     __end_of_pad:
  6344                           	callstack 0
  6345                           
  6346 ;; *************** function _fputs *****************
  6347 ;; Defined at:
  6348 ;;		line 8 in file "C:\Program Files\Microchip\xc8\v2.40\pic\sources\c99\common\nf_fputs.c"
  6349 ;; Parameters:    Size  Location     Type
  6350 ;;  s               2    9[COMRAM] PTR const unsigned char 
  6351 ;;		 -> dbuf(32), 
  6352 ;;  fp              2   11[COMRAM] PTR struct _IO_FILE
  6353 ;;		 -> sprintf@f(11), 
  6354 ;; Auto vars:     Size  Location     Type
  6355 ;;  i               2   14[COMRAM] int 
  6356 ;;  c               1   13[COMRAM] unsigned char 
  6357 ;; Return value:  Size  Location     Type
  6358 ;;                  2    9[COMRAM] int 
  6359 ;; Registers used:
  6360 ;;		wreg, fsr1l, fsr1h, fsr2l, fsr2h, status,2, status,0, cstack
  6361 ;; Tracked objects:
  6362 ;;		On entry : 0/0
  6363 ;;		On exit  : 0/0
  6364 ;;		Unchanged: 0/0
  6365 ;; Data sizes:     COMRAM   BANK0   BANK1   BANK2   BANK3   BANK4   BANK5
  6366 ;;      Params:         4       0       0       0       0       0       0
  6367 ;;      Locals:         3       0       0       0       0       0       0
  6368 ;;      Temps:          0       0       0       0       0       0       0
  6369 ;;      Totals:         7       0       0       0       0       0       0
  6370 ;;Total ram usage:        7 bytes
  6371 ;; Hardware stack levels used: 1
  6372 ;; Hardware stack levels required when called: 2
  6373 ;; This function calls:
  6374 ;;		_fputc
  6375 ;; This function is called by:
  6376 ;;		_pad
  6377 ;; This function uses a non-reentrant model
  6378 ;;
  6379                           
  6380                           	psect	text31
  6381   002956                     __ptext31:
  6382                           	callstack 0
  6383   002956                     _fputs:
  6384                           	callstack 16
  6385   002956  0E00               	movlw	0
  6386   002958  6E10               	movwf	(fputs@i+1)^0,c
  6387   00295A  0E00               	movlw	0
  6388   00295C  6E0F               	movwf	fputs@i^0,c
  6389   00295E  EFBC  F014         	goto	i2l2821
  6390   002962                     i2l2817:
  6391   002962  C00E  F001         	movff	fputs@c,fputc@c
  6392   002966  6A02               	clrf	(fputc@c+1)^0,c
  6393   002968  C00C  F003         	movff	fputs@fp,fputc@fp
  6394   00296C  C00D  F004         	movff	fputs@fp+1,fputc@fp+1
  6395   002970  EC14  F010         	call	_fputc	;wreg free
  6396   002974  4A0F               	infsnz	fputs@i^0,f,c
  6397   002976  2A10               	incf	(fputs@i+1)^0,f,c
  6398   002978                     i2l2821:
  6399   002978  500F               	movf	fputs@i^0,w,c
  6400   00297A  240A               	addwf	fputs@s^0,w,c
  6401   00297C  6ED9               	movwf	fsr2l,c
  6402   00297E  5010               	movf	(fputs@i+1)^0,w,c
  6403   002980  200B               	addwfc	(fputs@s+1)^0,w,c
  6404   002982  6EDA               	movwf	fsr2h,c
  6405   002984  50DF               	movf	indf2,w,c
  6406   002986  6E0E               	movwf	fputs@c^0,c
  6407   002988  500E               	movf	fputs@c^0,w,c
  6408   00298A  A4D8               	btfss	status,2,c
  6409   00298C  EFCA  F014         	goto	i2u199_41
  6410   002990  EFCC  F014         	goto	i2u199_40
  6411   002994                     i2u199_41:
  6412   002994  EFB1  F014         	goto	i2l2817
  6413   002998                     i2u199_40:
  6414   002998  0012               	return		;funcret
  6415   00299A                     __end_of_fputs:
  6416                           	callstack 0
  6417                           
  6418 ;; *************** function _abs *****************
  6419 ;; Defined at:
  6420 ;;		line 1 in file "C:\Program Files\Microchip\xc8\v2.40\pic\sources\c99\common\abs.c"
  6421 ;; Parameters:    Size  Location     Type
  6422 ;;  a               2   18[COMRAM] int 
  6423 ;; Auto vars:     Size  Location     Type
  6424 ;;		None
  6425 ;; Return value:  Size  Location     Type
  6426 ;;                  2   18[COMRAM] int 
  6427 ;; Registers used:
  6428 ;;		wreg, status,2, status,0
  6429 ;; Tracked objects:
  6430 ;;		On entry : 0/0
  6431 ;;		On exit  : 0/0
  6432 ;;		Unchanged: 0/0
  6433 ;; Data sizes:     COMRAM   BANK0   BANK1   BANK2   BANK3   BANK4   BANK5
  6434 ;;      Params:         2       0       0       0       0       0       0
  6435 ;;      Locals:         0       0       0       0       0       0       0
  6436 ;;      Temps:          2       0       0       0       0       0       0
  6437 ;;      Totals:         4       0       0       0       0       0       0
  6438 ;;Total ram usage:        4 bytes
  6439 ;; Hardware stack levels used: 1
  6440 ;; This function calls:
  6441 ;;		Nothing
  6442 ;; This function is called by:
  6443 ;;		_dtoa
  6444 ;; This function uses a non-reentrant model
  6445 ;;
  6446                           
  6447                           	psect	text32
  6448   00299A                     __ptext32:
  6449                           	callstack 0
  6450   00299A                     _abs:
  6451                           	callstack 19
  6452   00299A  BE14               	btfsc	(abs@a+1)^0,7,c
  6453   00299C  EFDA  F014         	goto	i2u217_40
  6454   0029A0  5014               	movf	(abs@a+1)^0,w,c
  6455   0029A2  E106               	bnz	i2u217_41
  6456   0029A4  0413               	decf	abs@a^0,w,c
  6457   0029A6  B0D8               	btfsc	status,0,c
  6458   0029A8  EFD8  F014         	goto	i2u217_41
  6459   0029AC  EFDA  F014         	goto	i2u217_40
  6460   0029B0                     i2u217_41:
  6461   0029B0  EFE8  F014         	goto	i2l1316
  6462   0029B4                     i2u217_40:
  6463   0029B4  C013  F015         	movff	abs@a,??_abs
  6464   0029B8  C014  F016         	movff	abs@a+1,??_abs+1
  6465   0029BC  1E15               	comf	??_abs^0,f,c
  6466   0029BE  1E16               	comf	(??_abs+1)^0,f,c
  6467   0029C0  4A15               	infsnz	??_abs^0,f,c
  6468   0029C2  2A16               	incf	(??_abs+1)^0,f,c
  6469   0029C4  C015  F013         	movff	??_abs,?_abs
  6470   0029C8  C016  F014         	movff	??_abs+1,?_abs+1
  6471   0029CC  EFEC  F014         	goto	i2l1319
  6472   0029D0                     i2l1316:
  6473   0029D0  C013  F013         	movff	abs@a,?_abs
  6474   0029D4  C014  F014         	movff	abs@a+1,?_abs+1
  6475   0029D8                     i2l1319:
  6476   0029D8  0012               	return		;funcret
  6477   0029DA                     __end_of_abs:
  6478                           	callstack 0
  6479                           
  6480 ;; *************** function ___aomod *****************
  6481 ;; Defined at:
  6482 ;;		line 9 in file "C:\Program Files\Microchip\xc8\v2.40\pic\sources\c99\common\aomod.c"
  6483 ;; Parameters:    Size  Location     Type
  6484 ;;  dividend        8    0[COMRAM] long long 
  6485 ;;  divisor         8    8[COMRAM] long long 
  6486 ;; Auto vars:     Size  Location     Type
  6487 ;;  sign            1   17[COMRAM] unsigned char 
  6488 ;;  counter         1   16[COMRAM] unsigned char 
  6489 ;; Return value:  Size  Location     Type
  6490 ;;                  8    0[COMRAM] long long 
  6491 ;; Registers used:
  6492 ;;		wreg, status,2, status,0
  6493 ;; Tracked objects:
  6494 ;;		On entry : 0/0
  6495 ;;		On exit  : 0/0
  6496 ;;		Unchanged: 0/0
  6497 ;; Data sizes:     COMRAM   BANK0   BANK1   BANK2   BANK3   BANK4   BANK5
  6498 ;;      Params:        16       0       0       0       0       0       0
  6499 ;;      Locals:         2       0       0       0       0       0       0
  6500 ;;      Temps:          0       0       0       0       0       0       0
  6501 ;;      Totals:        18       0       0       0       0       0       0
  6502 ;;Total ram usage:       18 bytes
  6503 ;; Hardware stack levels used: 1
  6504 ;; This function calls:
  6505 ;;		Nothing
  6506 ;; This function is called by:
  6507 ;;		_dtoa
  6508 ;; This function uses a non-reentrant model
  6509 ;;
  6510                           
  6511                           	psect	text33
  6512   001788                     __ptext33:
  6513                           	callstack 0
  6514   001788                     ___aomod:
  6515                           	callstack 19
  6516   001788  0E00               	movlw	0
  6517   00178A  6E12               	movwf	___aomod@sign^0,c
  6518   00178C  BE08               	btfsc	(___aomod@dividend+7)^0,7,c
  6519   00178E  EFCD  F00B         	goto	i2u207_40
  6520   001792  EFCB  F00B         	goto	i2u207_41
  6521   001796                     i2u207_41:
  6522   001796  EFDF  F00B         	goto	i2l2881
  6523   00179A                     i2u207_40:
  6524   00179A  1E08               	comf	(___aomod@dividend+7)^0,f,c
  6525   00179C  1E07               	comf	(___aomod@dividend+6)^0,f,c
  6526   00179E  1E06               	comf	(___aomod@dividend+5)^0,f,c
  6527   0017A0  1E05               	comf	(___aomod@dividend+4)^0,f,c
  6528   0017A2  1E04               	comf	(___aomod@dividend+3)^0,f,c
  6529   0017A4  1E03               	comf	(___aomod@dividend+2)^0,f,c
  6530   0017A6  1E02               	comf	(___aomod@dividend+1)^0,f,c
  6531   0017A8  6C01               	negf	___aomod@dividend^0,c
  6532   0017AA  0E00               	movlw	0
  6533   0017AC  2202               	addwfc	(___aomod@dividend+1)^0,f,c
  6534   0017AE  2203               	addwfc	(___aomod@dividend+2)^0,f,c
  6535   0017B0  2204               	addwfc	(___aomod@dividend+3)^0,f,c
  6536   0017B2  2205               	addwfc	(___aomod@dividend+4)^0,f,c
  6537   0017B4  2206               	addwfc	(___aomod@dividend+5)^0,f,c
  6538   0017B6  2207               	addwfc	(___aomod@dividend+6)^0,f,c
  6539   0017B8  2208               	addwfc	(___aomod@dividend+7)^0,f,c
  6540   0017BA  0E01               	movlw	1
  6541   0017BC  6E12               	movwf	___aomod@sign^0,c
  6542   0017BE                     i2l2881:
  6543   0017BE  BE10               	btfsc	(___aomod@divisor+7)^0,7,c
  6544   0017C0  EFE6  F00B         	goto	i2u208_40
  6545   0017C4  EFE4  F00B         	goto	i2u208_41
  6546   0017C8                     i2u208_41:
  6547   0017C8  EFF6  F00B         	goto	i2l2885
  6548   0017CC                     i2u208_40:
  6549   0017CC  1E10               	comf	(___aomod@divisor+7)^0,f,c
  6550   0017CE  1E0F               	comf	(___aomod@divisor+6)^0,f,c
  6551   0017D0  1E0E               	comf	(___aomod@divisor+5)^0,f,c
  6552   0017D2  1E0D               	comf	(___aomod@divisor+4)^0,f,c
  6553   0017D4  1E0C               	comf	(___aomod@divisor+3)^0,f,c
  6554   0017D6  1E0B               	comf	(___aomod@divisor+2)^0,f,c
  6555   0017D8  1E0A               	comf	(___aomod@divisor+1)^0,f,c
  6556   0017DA  6C09               	negf	___aomod@divisor^0,c
  6557   0017DC  0E00               	movlw	0
  6558   0017DE  220A               	addwfc	(___aomod@divisor+1)^0,f,c
  6559   0017E0  220B               	addwfc	(___aomod@divisor+2)^0,f,c
  6560   0017E2  220C               	addwfc	(___aomod@divisor+3)^0,f,c
  6561   0017E4  220D               	addwfc	(___aomod@divisor+4)^0,f,c
  6562   0017E6  220E               	addwfc	(___aomod@divisor+5)^0,f,c
  6563   0017E8  220F               	addwfc	(___aomod@divisor+6)^0,f,c
  6564   0017EA  2210               	addwfc	(___aomod@divisor+7)^0,f,c
  6565   0017EC                     i2l2885:
  6566   0017EC  5009               	movf	___aomod@divisor^0,w,c
  6567   0017EE  100A               	iorwf	(___aomod@divisor+1)^0,w,c
  6568   0017F0  100B               	iorwf	(___aomod@divisor+2)^0,w,c
  6569   0017F2  100C               	iorwf	(___aomod@divisor+3)^0,w,c
  6570   0017F4  100D               	iorwf	(___aomod@divisor+4)^0,w,c
  6571   0017F6  100E               	iorwf	(___aomod@divisor+5)^0,w,c
  6572   0017F8  100F               	iorwf	(___aomod@divisor+6)^0,w,c
  6573   0017FA  1010               	iorwf	(___aomod@divisor+7)^0,w,c
  6574   0017FC  B4D8               	btfsc	status,2,c
  6575   0017FE  EF03  F00C         	goto	i2u209_41
  6576   001802  EF05  F00C         	goto	i2u209_40
  6577   001806                     i2u209_41:
  6578   001806  EF4D  F00C         	goto	i2l2901
  6579   00180A                     i2u209_40:
  6580   00180A  0E01               	movlw	1
  6581   00180C  6E11               	movwf	___aomod@counter^0,c
  6582   00180E  EF13  F00C         	goto	i2l2891
  6583   001812                     i2l2889:
  6584   001812  90D8               	bcf	status,0,c
  6585   001814  3609               	rlcf	___aomod@divisor^0,f,c
  6586   001816  360A               	rlcf	(___aomod@divisor+1)^0,f,c
  6587   001818  360B               	rlcf	(___aomod@divisor+2)^0,f,c
  6588   00181A  360C               	rlcf	(___aomod@divisor+3)^0,f,c
  6589   00181C  360D               	rlcf	(___aomod@divisor+4)^0,f,c
  6590   00181E  360E               	rlcf	(___aomod@divisor+5)^0,f,c
  6591   001820  360F               	rlcf	(___aomod@divisor+6)^0,f,c
  6592   001822  3610               	rlcf	(___aomod@divisor+7)^0,f,c
  6593   001824  2A11               	incf	___aomod@counter^0,f,c
  6594   001826                     i2l2891:
  6595   001826  AE10               	btfss	(___aomod@divisor+7)^0,7,c
  6596   001828  EF18  F00C         	goto	i2u210_41
  6597   00182C  EF1A  F00C         	goto	i2u210_40
  6598   001830                     i2u210_41:
  6599   001830  EF09  F00C         	goto	i2l2889
  6600   001834                     i2u210_40:
  6601   001834                     i2l2893:
  6602   001834  5009               	movf	___aomod@divisor^0,w,c
  6603   001836  5C01               	subwf	___aomod@dividend^0,w,c
  6604   001838  500A               	movf	(___aomod@divisor+1)^0,w,c
  6605   00183A  5802               	subwfb	(___aomod@dividend+1)^0,w,c
  6606   00183C  500B               	movf	(___aomod@divisor+2)^0,w,c
  6607   00183E  5803               	subwfb	(___aomod@dividend+2)^0,w,c
  6608   001840  500C               	movf	(___aomod@divisor+3)^0,w,c
  6609   001842  5804               	subwfb	(___aomod@dividend+3)^0,w,c
  6610   001844  500D               	movf	(___aomod@divisor+4)^0,w,c
  6611   001846  5805               	subwfb	(___aomod@dividend+4)^0,w,c
  6612   001848  500E               	movf	(___aomod@divisor+5)^0,w,c
  6613   00184A  5806               	subwfb	(___aomod@dividend+5)^0,w,c
  6614   00184C  500F               	movf	(___aomod@divisor+6)^0,w,c
  6615   00184E  5807               	subwfb	(___aomod@dividend+6)^0,w,c
  6616   001850  5010               	movf	(___aomod@divisor+7)^0,w,c
  6617   001852  5808               	subwfb	(___aomod@dividend+7)^0,w,c
  6618   001854  A0D8               	btfss	status,0,c
  6619   001856  EF2F  F00C         	goto	i2u211_41
  6620   00185A  EF31  F00C         	goto	i2u211_40
  6621   00185E                     i2u211_41:
  6622   00185E  EF41  F00C         	goto	i2l2897
  6623   001862                     i2u211_40:
  6624   001862  5009               	movf	___aomod@divisor^0,w,c
  6625   001864  5E01               	subwf	___aomod@dividend^0,f,c
  6626   001866  500A               	movf	(___aomod@divisor+1)^0,w,c
  6627   001868  5A02               	subwfb	(___aomod@dividend+1)^0,f,c
  6628   00186A  500B               	movf	(___aomod@divisor+2)^0,w,c
  6629   00186C  5A03               	subwfb	(___aomod@dividend+2)^0,f,c
  6630   00186E  500C               	movf	(___aomod@divisor+3)^0,w,c
  6631   001870  5A04               	subwfb	(___aomod@dividend+3)^0,f,c
  6632   001872  500D               	movf	(___aomod@divisor+4)^0,w,c
  6633   001874  5A05               	subwfb	(___aomod@dividend+4)^0,f,c
  6634   001876  500E               	movf	(___aomod@divisor+5)^0,w,c
  6635   001878  5A06               	subwfb	(___aomod@dividend+5)^0,f,c
  6636   00187A  500F               	movf	(___aomod@divisor+6)^0,w,c
  6637   00187C  5A07               	subwfb	(___aomod@dividend+6)^0,f,c
  6638   00187E  5010               	movf	(___aomod@divisor+7)^0,w,c
  6639   001880  5A08               	subwfb	(___aomod@dividend+7)^0,f,c
  6640   001882                     i2l2897:
  6641   001882  90D8               	bcf	status,0,c
  6642   001884  3210               	rrcf	(___aomod@divisor+7)^0,f,c
  6643   001886  320F               	rrcf	(___aomod@divisor+6)^0,f,c
  6644   001888  320E               	rrcf	(___aomod@divisor+5)^0,f,c
  6645   00188A  320D               	rrcf	(___aomod@divisor+4)^0,f,c
  6646   00188C  320C               	rrcf	(___aomod@divisor+3)^0,f,c
  6647   00188E  320B               	rrcf	(___aomod@divisor+2)^0,f,c
  6648   001890  320A               	rrcf	(___aomod@divisor+1)^0,f,c
  6649   001892  3209               	rrcf	___aomod@divisor^0,f,c
  6650   001894  2E11               	decfsz	___aomod@counter^0,f,c
  6651   001896  EF1A  F00C         	goto	i2l2893
  6652   00189A                     i2l2901:
  6653   00189A  5012               	movf	___aomod@sign^0,w,c
  6654   00189C  B4D8               	btfsc	status,2,c
  6655   00189E  EF53  F00C         	goto	i2u212_41
  6656   0018A2  EF55  F00C         	goto	i2u212_40
  6657   0018A6                     i2u212_41:
  6658   0018A6  EF65  F00C         	goto	i2l2905
  6659   0018AA                     i2u212_40:
  6660   0018AA  1E08               	comf	(___aomod@dividend+7)^0,f,c
  6661   0018AC  1E07               	comf	(___aomod@dividend+6)^0,f,c
  6662   0018AE  1E06               	comf	(___aomod@dividend+5)^0,f,c
  6663   0018B0  1E05               	comf	(___aomod@dividend+4)^0,f,c
  6664   0018B2  1E04               	comf	(___aomod@dividend+3)^0,f,c
  6665   0018B4  1E03               	comf	(___aomod@dividend+2)^0,f,c
  6666   0018B6  1E02               	comf	(___aomod@dividend+1)^0,f,c
  6667   0018B8  6C01               	negf	___aomod@dividend^0,c
  6668   0018BA  0E00               	movlw	0
  6669   0018BC  2202               	addwfc	(___aomod@dividend+1)^0,f,c
  6670   0018BE  2203               	addwfc	(___aomod@dividend+2)^0,f,c
  6671   0018C0  2204               	addwfc	(___aomod@dividend+3)^0,f,c
  6672   0018C2  2205               	addwfc	(___aomod@dividend+4)^0,f,c
  6673   0018C4  2206               	addwfc	(___aomod@dividend+5)^0,f,c
  6674   0018C6  2207               	addwfc	(___aomod@dividend+6)^0,f,c
  6675   0018C8  2208               	addwfc	(___aomod@dividend+7)^0,f,c
  6676   0018CA                     i2l2905:
  6677   0018CA  C001  F001         	movff	___aomod@dividend,?___aomod
  6678   0018CE  C002  F002         	movff	___aomod@dividend+1,?___aomod+1
  6679   0018D2  C003  F003         	movff	___aomod@dividend+2,?___aomod+2
  6680   0018D6  C004  F004         	movff	___aomod@dividend+3,?___aomod+3
  6681   0018DA  C005  F005         	movff	___aomod@dividend+4,?___aomod+4
  6682   0018DE  C006  F006         	movff	___aomod@dividend+5,?___aomod+5
  6683   0018E2  C007  F007         	movff	___aomod@dividend+6,?___aomod+6
  6684   0018E6  C008  F008         	movff	___aomod@dividend+7,?___aomod+7
  6685   0018EA  0012               	return		;funcret
  6686   0018EC                     __end_of___aomod:
  6687                           	callstack 0
  6688                           
  6689 ;; *************** function ___aodiv *****************
  6690 ;; Defined at:
  6691 ;;		line 9 in file "C:\Program Files\Microchip\xc8\v2.40\pic\sources\c99\common\aodiv.c"
  6692 ;; Parameters:    Size  Location     Type
  6693 ;;  dividend        8    0[COMRAM] long long 
  6694 ;;  divisor         8    8[COMRAM] long long 
  6695 ;; Auto vars:     Size  Location     Type
  6696 ;;  quotient        8   18[COMRAM] long long 
  6697 ;;  sign            1   17[COMRAM] unsigned char 
  6698 ;;  counter         1   16[COMRAM] unsigned char 
  6699 ;; Return value:  Size  Location     Type
  6700 ;;                  8    0[COMRAM] long long 
  6701 ;; Registers used:
  6702 ;;		wreg, fsr2l, fsr2h, status,2, status,0
  6703 ;; Tracked objects:
  6704 ;;		On entry : 0/0
  6705 ;;		On exit  : 0/0
  6706 ;;		Unchanged: 0/0
  6707 ;; Data sizes:     COMRAM   BANK0   BANK1   BANK2   BANK3   BANK4   BANK5
  6708 ;;      Params:        16       0       0       0       0       0       0
  6709 ;;      Locals:        10       0       0       0       0       0       0
  6710 ;;      Temps:          0       0       0       0       0       0       0
  6711 ;;      Totals:        26       0       0       0       0       0       0
  6712 ;;Total ram usage:       26 bytes
  6713 ;; Hardware stack levels used: 1
  6714 ;; This function calls:
  6715 ;;		Nothing
  6716 ;; This function is called by:
  6717 ;;		_dtoa
  6718 ;; This function uses a non-reentrant model
  6719 ;;
  6720                           
  6721                           	psect	text34
  6722   001600                     __ptext34:
  6723                           	callstack 0
  6724   001600                     ___aodiv:
  6725                           	callstack 19
  6726   001600  0E00               	movlw	0
  6727   001602  6E12               	movwf	___aodiv@sign^0,c
  6728   001604  BE10               	btfsc	(___aodiv@divisor+7)^0,7,c
  6729   001606  EF09  F00B         	goto	i2u200_40
  6730   00160A  EF07  F00B         	goto	i2u200_41
  6731   00160E                     i2u200_41:
  6732   00160E  EF1B  F00B         	goto	i2l2837
  6733   001612                     i2u200_40:
  6734   001612  1E10               	comf	(___aodiv@divisor+7)^0,f,c
  6735   001614  1E0F               	comf	(___aodiv@divisor+6)^0,f,c
  6736   001616  1E0E               	comf	(___aodiv@divisor+5)^0,f,c
  6737   001618  1E0D               	comf	(___aodiv@divisor+4)^0,f,c
  6738   00161A  1E0C               	comf	(___aodiv@divisor+3)^0,f,c
  6739   00161C  1E0B               	comf	(___aodiv@divisor+2)^0,f,c
  6740   00161E  1E0A               	comf	(___aodiv@divisor+1)^0,f,c
  6741   001620  6C09               	negf	___aodiv@divisor^0,c
  6742   001622  0E00               	movlw	0
  6743   001624  220A               	addwfc	(___aodiv@divisor+1)^0,f,c
  6744   001626  220B               	addwfc	(___aodiv@divisor+2)^0,f,c
  6745   001628  220C               	addwfc	(___aodiv@divisor+3)^0,f,c
  6746   00162A  220D               	addwfc	(___aodiv@divisor+4)^0,f,c
  6747   00162C  220E               	addwfc	(___aodiv@divisor+5)^0,f,c
  6748   00162E  220F               	addwfc	(___aodiv@divisor+6)^0,f,c
  6749   001630  2210               	addwfc	(___aodiv@divisor+7)^0,f,c
  6750   001632  0E01               	movlw	1
  6751   001634  6E12               	movwf	___aodiv@sign^0,c
  6752   001636                     i2l2837:
  6753   001636  BE08               	btfsc	(___aodiv@dividend+7)^0,7,c
  6754   001638  EF22  F00B         	goto	i2u201_40
  6755   00163C  EF20  F00B         	goto	i2u201_41
  6756   001640                     i2u201_41:
  6757   001640  EF34  F00B         	goto	i2l2843
  6758   001644                     i2u201_40:
  6759   001644  1E08               	comf	(___aodiv@dividend+7)^0,f,c
  6760   001646  1E07               	comf	(___aodiv@dividend+6)^0,f,c
  6761   001648  1E06               	comf	(___aodiv@dividend+5)^0,f,c
  6762   00164A  1E05               	comf	(___aodiv@dividend+4)^0,f,c
  6763   00164C  1E04               	comf	(___aodiv@dividend+3)^0,f,c
  6764   00164E  1E03               	comf	(___aodiv@dividend+2)^0,f,c
  6765   001650  1E02               	comf	(___aodiv@dividend+1)^0,f,c
  6766   001652  6C01               	negf	___aodiv@dividend^0,c
  6767   001654  0E00               	movlw	0
  6768   001656  2202               	addwfc	(___aodiv@dividend+1)^0,f,c
  6769   001658  2203               	addwfc	(___aodiv@dividend+2)^0,f,c
  6770   00165A  2204               	addwfc	(___aodiv@dividend+3)^0,f,c
  6771   00165C  2205               	addwfc	(___aodiv@dividend+4)^0,f,c
  6772   00165E  2206               	addwfc	(___aodiv@dividend+5)^0,f,c
  6773   001660  2207               	addwfc	(___aodiv@dividend+6)^0,f,c
  6774   001662  2208               	addwfc	(___aodiv@dividend+7)^0,f,c
  6775   001664  0E01               	movlw	1
  6776   001666  1A12               	xorwf	___aodiv@sign^0,f,c
  6777   001668                     i2l2843:
  6778   001668  EE20  F013         	lfsr	2,___aodiv@quotient
  6779   00166C  0E07               	movlw	7
  6780   00166E                     i2u202_41:
  6781   00166E  6ADE               	clrf	postinc2,c
  6782   001670  06E8               	decf	wreg,f,c
  6783   001672  E2FD               	bc	i2u202_41
  6784   001674  5009               	movf	___aodiv@divisor^0,w,c
  6785   001676  100A               	iorwf	(___aodiv@divisor+1)^0,w,c
  6786   001678  100B               	iorwf	(___aodiv@divisor+2)^0,w,c
  6787   00167A  100C               	iorwf	(___aodiv@divisor+3)^0,w,c
  6788   00167C  100D               	iorwf	(___aodiv@divisor+4)^0,w,c
  6789   00167E  100E               	iorwf	(___aodiv@divisor+5)^0,w,c
  6790   001680  100F               	iorwf	(___aodiv@divisor+6)^0,w,c
  6791   001682  1010               	iorwf	(___aodiv@divisor+7)^0,w,c
  6792   001684  B4D8               	btfsc	status,2,c
  6793   001686  EF47  F00B         	goto	i2u203_41
  6794   00168A  EF49  F00B         	goto	i2u203_40
  6795   00168E                     i2u203_41:
  6796   00168E  EF9B  F00B         	goto	i2l2865
  6797   001692                     i2u203_40:
  6798   001692  0E01               	movlw	1
  6799   001694  6E11               	movwf	___aodiv@counter^0,c
  6800   001696  EF57  F00B         	goto	i2l2851
  6801   00169A                     i2l2849:
  6802   00169A  90D8               	bcf	status,0,c
  6803   00169C  3609               	rlcf	___aodiv@divisor^0,f,c
  6804   00169E  360A               	rlcf	(___aodiv@divisor+1)^0,f,c
  6805   0016A0  360B               	rlcf	(___aodiv@divisor+2)^0,f,c
  6806   0016A2  360C               	rlcf	(___aodiv@divisor+3)^0,f,c
  6807   0016A4  360D               	rlcf	(___aodiv@divisor+4)^0,f,c
  6808   0016A6  360E               	rlcf	(___aodiv@divisor+5)^0,f,c
  6809   0016A8  360F               	rlcf	(___aodiv@divisor+6)^0,f,c
  6810   0016AA  3610               	rlcf	(___aodiv@divisor+7)^0,f,c
  6811   0016AC  2A11               	incf	___aodiv@counter^0,f,c
  6812   0016AE                     i2l2851:
  6813   0016AE  AE10               	btfss	(___aodiv@divisor+7)^0,7,c
  6814   0016B0  EF5C  F00B         	goto	i2u204_41
  6815   0016B4  EF5E  F00B         	goto	i2u204_40
  6816   0016B8                     i2u204_41:
  6817   0016B8  EF4D  F00B         	goto	i2l2849
  6818   0016BC                     i2u204_40:
  6819   0016BC                     i2l2853:
  6820   0016BC  90D8               	bcf	status,0,c
  6821   0016BE  3613               	rlcf	___aodiv@quotient^0,f,c
  6822   0016C0  3614               	rlcf	(___aodiv@quotient+1)^0,f,c
  6823   0016C2  3615               	rlcf	(___aodiv@quotient+2)^0,f,c
  6824   0016C4  3616               	rlcf	(___aodiv@quotient+3)^0,f,c
  6825   0016C6  3617               	rlcf	(___aodiv@quotient+4)^0,f,c
  6826   0016C8  3618               	rlcf	(___aodiv@quotient+5)^0,f,c
  6827   0016CA  3619               	rlcf	(___aodiv@quotient+6)^0,f,c
  6828   0016CC  361A               	rlcf	(___aodiv@quotient+7)^0,f,c
  6829   0016CE  5009               	movf	___aodiv@divisor^0,w,c
  6830   0016D0  5C01               	subwf	___aodiv@dividend^0,w,c
  6831   0016D2  500A               	movf	(___aodiv@divisor+1)^0,w,c
  6832   0016D4  5802               	subwfb	(___aodiv@dividend+1)^0,w,c
  6833   0016D6  500B               	movf	(___aodiv@divisor+2)^0,w,c
  6834   0016D8  5803               	subwfb	(___aodiv@dividend+2)^0,w,c
  6835   0016DA  500C               	movf	(___aodiv@divisor+3)^0,w,c
  6836   0016DC  5804               	subwfb	(___aodiv@dividend+3)^0,w,c
  6837   0016DE  500D               	movf	(___aodiv@divisor+4)^0,w,c
  6838   0016E0  5805               	subwfb	(___aodiv@dividend+4)^0,w,c
  6839   0016E2  500E               	movf	(___aodiv@divisor+5)^0,w,c
  6840   0016E4  5806               	subwfb	(___aodiv@dividend+5)^0,w,c
  6841   0016E6  500F               	movf	(___aodiv@divisor+6)^0,w,c
  6842   0016E8  5807               	subwfb	(___aodiv@dividend+6)^0,w,c
  6843   0016EA  5010               	movf	(___aodiv@divisor+7)^0,w,c
  6844   0016EC  5808               	subwfb	(___aodiv@dividend+7)^0,w,c
  6845   0016EE  A0D8               	btfss	status,0,c
  6846   0016F0  EF7C  F00B         	goto	i2u205_41
  6847   0016F4  EF7E  F00B         	goto	i2u205_40
  6848   0016F8                     i2u205_41:
  6849   0016F8  EF8F  F00B         	goto	i2l2861
  6850   0016FC                     i2u205_40:
  6851   0016FC  5009               	movf	___aodiv@divisor^0,w,c
  6852   0016FE  5E01               	subwf	___aodiv@dividend^0,f,c
  6853   001700  500A               	movf	(___aodiv@divisor+1)^0,w,c
  6854   001702  5A02               	subwfb	(___aodiv@dividend+1)^0,f,c
  6855   001704  500B               	movf	(___aodiv@divisor+2)^0,w,c
  6856   001706  5A03               	subwfb	(___aodiv@dividend+2)^0,f,c
  6857   001708  500C               	movf	(___aodiv@divisor+3)^0,w,c
  6858   00170A  5A04               	subwfb	(___aodiv@dividend+3)^0,f,c
  6859   00170C  500D               	movf	(___aodiv@divisor+4)^0,w,c
  6860   00170E  5A05               	subwfb	(___aodiv@dividend+4)^0,f,c
  6861   001710  500E               	movf	(___aodiv@divisor+5)^0,w,c
  6862   001712  5A06               	subwfb	(___aodiv@dividend+5)^0,f,c
  6863   001714  500F               	movf	(___aodiv@divisor+6)^0,w,c
  6864   001716  5A07               	subwfb	(___aodiv@dividend+6)^0,f,c
  6865   001718  5010               	movf	(___aodiv@divisor+7)^0,w,c
  6866   00171A  5A08               	subwfb	(___aodiv@dividend+7)^0,f,c
  6867   00171C  8013               	bsf	___aodiv@quotient^0,0,c
  6868   00171E                     i2l2861:
  6869   00171E  90D8               	bcf	status,0,c
  6870   001720  3210               	rrcf	(___aodiv@divisor+7)^0,f,c
  6871   001722  320F               	rrcf	(___aodiv@divisor+6)^0,f,c
  6872   001724  320E               	rrcf	(___aodiv@divisor+5)^0,f,c
  6873   001726  320D               	rrcf	(___aodiv@divisor+4)^0,f,c
  6874   001728  320C               	rrcf	(___aodiv@divisor+3)^0,f,c
  6875   00172A  320B               	rrcf	(___aodiv@divisor+2)^0,f,c
  6876   00172C  320A               	rrcf	(___aodiv@divisor+1)^0,f,c
  6877   00172E  3209               	rrcf	___aodiv@divisor^0,f,c
  6878   001730  2E11               	decfsz	___aodiv@counter^0,f,c
  6879   001732  EF5E  F00B         	goto	i2l2853
  6880   001736                     i2l2865:
  6881   001736  5012               	movf	___aodiv@sign^0,w,c
  6882   001738  B4D8               	btfsc	status,2,c
  6883   00173A  EFA1  F00B         	goto	i2u206_41
  6884   00173E  EFA3  F00B         	goto	i2u206_40
  6885   001742                     i2u206_41:
  6886   001742  EFB3  F00B         	goto	i2l2869
  6887   001746                     i2u206_40:
  6888   001746  1E1A               	comf	(___aodiv@quotient+7)^0,f,c
  6889   001748  1E19               	comf	(___aodiv@quotient+6)^0,f,c
  6890   00174A  1E18               	comf	(___aodiv@quotient+5)^0,f,c
  6891   00174C  1E17               	comf	(___aodiv@quotient+4)^0,f,c
  6892   00174E  1E16               	comf	(___aodiv@quotient+3)^0,f,c
  6893   001750  1E15               	comf	(___aodiv@quotient+2)^0,f,c
  6894   001752  1E14               	comf	(___aodiv@quotient+1)^0,f,c
  6895   001754  6C13               	negf	___aodiv@quotient^0,c
  6896   001756  0E00               	movlw	0
  6897   001758  2214               	addwfc	(___aodiv@quotient+1)^0,f,c
  6898   00175A  2215               	addwfc	(___aodiv@quotient+2)^0,f,c
  6899   00175C  2216               	addwfc	(___aodiv@quotient+3)^0,f,c
  6900   00175E  2217               	addwfc	(___aodiv@quotient+4)^0,f,c
  6901   001760  2218               	addwfc	(___aodiv@quotient+5)^0,f,c
  6902   001762  2219               	addwfc	(___aodiv@quotient+6)^0,f,c
  6903   001764  221A               	addwfc	(___aodiv@quotient+7)^0,f,c
  6904   001766                     i2l2869:
  6905   001766  C013  F001         	movff	___aodiv@quotient,?___aodiv
  6906   00176A  C014  F002         	movff	___aodiv@quotient+1,?___aodiv+1
  6907   00176E  C015  F003         	movff	___aodiv@quotient+2,?___aodiv+2
  6908   001772  C016  F004         	movff	___aodiv@quotient+3,?___aodiv+3
  6909   001776  C017  F005         	movff	___aodiv@quotient+4,?___aodiv+4
  6910   00177A  C018  F006         	movff	___aodiv@quotient+5,?___aodiv+5
  6911   00177E  C019  F007         	movff	___aodiv@quotient+6,?___aodiv+6
  6912   001782  C01A  F008         	movff	___aodiv@quotient+7,?___aodiv+7
  6913   001786  0012               	return		;funcret
  6914   001788                     __end_of___aodiv:
  6915                           	callstack 0
  6916                           
  6917 ;; *************** function _ctoa *****************
  6918 ;; Defined at:
  6919 ;;		line 406 in file "C:\Program Files\Microchip\xc8\v2.40\pic\sources\c99\common\doprnt.c"
  6920 ;; Parameters:    Size  Location     Type
  6921 ;;  fp              2    9[COMRAM] PTR struct _IO_FILE
  6922 ;;		 -> sprintf@f(11), 
  6923 ;;  c               1   11[COMRAM] unsigned char 
  6924 ;; Auto vars:     Size  Location     Type
  6925 ;;  w               2   15[COMRAM] int 
  6926 ;;  l               2   13[COMRAM] int 
  6927 ;; Return value:  Size  Location     Type
  6928 ;;                  1    wreg      void 
  6929 ;; Registers used:
  6930 ;;		wreg, fsr1l, fsr1h, fsr2l, fsr2h, status,2, status,0, cstack
  6931 ;; Tracked objects:
  6932 ;;		On entry : 0/0
  6933 ;;		On exit  : 0/0
  6934 ;;		Unchanged: 0/0
  6935 ;; Data sizes:     COMRAM   BANK0   BANK1   BANK2   BANK3   BANK4   BANK5
  6936 ;;      Params:         3       0       0       0       0       0       0
  6937 ;;      Locals:         4       0       0       0       0       0       0
  6938 ;;      Temps:          1       0       0       0       0       0       0
  6939 ;;      Totals:         8       0       0       0       0       0       0
  6940 ;;Total ram usage:        8 bytes
  6941 ;; Hardware stack levels used: 1
  6942 ;; Hardware stack levels required when called: 2
  6943 ;; This function calls:
  6944 ;;		_fputc
  6945 ;; This function is called by:
  6946 ;;		_vfpfcnvrt
  6947 ;; This function uses a non-reentrant model
  6948 ;;
  6949                           
  6950                           	psect	text35
  6951   001F5E                     __ptext35:
  6952                           	callstack 0
  6953   001F5E                     _ctoa:
  6954                           	callstack 18
  6955   001F5E                     
  6956                           ;C:\Program Files\Microchip\xc8\v2.40\pic\sources\c99\common\doprnt.c: 406: static void 
      +                          ctoa(FILE *fp, char c);C:\Program Files\Microchip\xc8\v2.40\pic\sources\c99\common\doprn
      +                          t.c: 407: {;C:\Program Files\Microchip\xc8\v2.40\pic\sources\c99\common\doprnt.c: 408:  
      +                             int l,w;;C:\Program Files\Microchip\xc8\v2.40\pic\sources\c99\common\doprnt.c: 411:  
      +                             w = width ? width - 1 : width;
  6957   001F5E  0100               	movlb	0	; () banked
  6958   001F60  51CC               	movf	_width& (0+255),w,b
  6959   001F62  11CD               	iorwf	(_width+1)& (0+255),w,b
  6960   001F64  A4D8               	btfss	status,2,c
  6961   001F66  EFB7  F00F         	goto	i2u222_41
  6962   001F6A  EFB9  F00F         	goto	i2u222_40
  6963   001F6E                     i2u222_41:
  6964   001F6E  EFBF  F00F         	goto	i2l2951
  6965   001F72                     i2u222_40:
  6966   001F72                     
  6967                           ; BSR set to: 0
  6968   001F72  C0CC  F010         	movff	_width,ctoa@w
  6969   001F76  C0CD  F011         	movff	_width+1,ctoa@w+1
  6970   001F7A  EFC5  F00F         	goto	i2l2953
  6971   001F7E                     i2l2951:
  6972                           
  6973                           ; BSR set to: 0
  6974   001F7E  0EFF               	movlw	255
  6975   001F80  25CC               	addwf	_width& (0+255),w,b
  6976   001F82  6E10               	movwf	ctoa@w^0,c
  6977   001F84  0EFF               	movlw	255
  6978   001F86  21CD               	addwfc	(_width+1)& (0+255),w,b
  6979   001F88  6E11               	movwf	(ctoa@w+1)^0,c
  6980   001F8A                     i2l2953:
  6981                           
  6982                           ; BSR set to: 0
  6983                           ;C:\Program Files\Microchip\xc8\v2.40\pic\sources\c99\common\doprnt.c: 415:     if (flag
      +                          s & (1 << 0)) {
  6984   001F8A  A07A               	btfss	_flags^0,0,c
  6985   001F8C  EFCA  F00F         	goto	i2u223_41
  6986   001F90  EFCC  F00F         	goto	i2u223_40
  6987   001F94                     i2u223_41:
  6988   001F94  EFD5  F00F         	goto	i2l2957
  6989   001F98                     i2u223_40:
  6990   001F98                     
  6991                           ; BSR set to: 0
  6992                           ;C:\Program Files\Microchip\xc8\v2.40\pic\sources\c99\common\doprnt.c: 416:         fput
      +                          c(c, fp);
  6993   001F98  C00C  F001         	movff	ctoa@c,fputc@c
  6994   001F9C  6A02               	clrf	(fputc@c+1)^0,c
  6995   001F9E  C00A  F003         	movff	ctoa@fp,fputc@fp
  6996   001FA2  C00B  F004         	movff	ctoa@fp+1,fputc@fp+1
  6997   001FA6  EC14  F010         	call	_fputc	;wreg free
  6998   001FAA                     i2l2957:
  6999                           
  7000                           ;C:\Program Files\Microchip\xc8\v2.40\pic\sources\c99\common\doprnt.c: 421:     w = (w <
      +                           0) ? 0 : w;
  7001   001FAA  BE11               	btfsc	(ctoa@w+1)^0,7,c
  7002   001FAC  EFDA  F00F         	goto	i2u224_41
  7003   001FB0  EFDC  F00F         	goto	i2u224_40
  7004   001FB4                     i2u224_41:
  7005   001FB4  EFDE  F00F         	goto	i2l2961
  7006   001FB8                     i2u224_40:
  7007   001FB8  EFE2  F00F         	goto	i2l1257
  7008   001FBC                     i2l2961:
  7009   001FBC  0E00               	movlw	0
  7010   001FBE  6E11               	movwf	(ctoa@w+1)^0,c
  7011   001FC0  0E00               	movlw	0
  7012   001FC2  6E10               	movwf	ctoa@w^0,c
  7013   001FC4                     i2l1257:
  7014                           
  7015                           ;C:\Program Files\Microchip\xc8\v2.40\pic\sources\c99\common\doprnt.c: 422:     l = 0;
  7016   001FC4  0E00               	movlw	0
  7017   001FC6  6E0F               	movwf	(ctoa@l+1)^0,c
  7018   001FC8  0E00               	movlw	0
  7019   001FCA  6E0E               	movwf	ctoa@l^0,c
  7020                           
  7021                           ;C:\Program Files\Microchip\xc8\v2.40\pic\sources\c99\common\doprnt.c: 423:     while (l
      +                           < w) {
  7022   001FCC  EFF4  F00F         	goto	i2l2967
  7023   001FD0                     i2l2963:
  7024                           
  7025                           ;C:\Program Files\Microchip\xc8\v2.40\pic\sources\c99\common\doprnt.c: 424:         fput
      +                          c(' ', fp);
  7026   001FD0  0E00               	movlw	0
  7027   001FD2  6E02               	movwf	(fputc@c+1)^0,c
  7028   001FD4  0E20               	movlw	32
  7029   001FD6  6E01               	movwf	fputc@c^0,c
  7030   001FD8  C00A  F003         	movff	ctoa@fp,fputc@fp
  7031   001FDC  C00B  F004         	movff	ctoa@fp+1,fputc@fp+1
  7032   001FE0  EC14  F010         	call	_fputc	;wreg free
  7033   001FE4                     
  7034                           ;C:\Program Files\Microchip\xc8\v2.40\pic\sources\c99\common\doprnt.c: 425:         ++l;
  7035   001FE4  4A0E               	infsnz	ctoa@l^0,f,c
  7036   001FE6  2A0F               	incf	(ctoa@l+1)^0,f,c
  7037   001FE8                     i2l2967:
  7038                           
  7039                           ;C:\Program Files\Microchip\xc8\v2.40\pic\sources\c99\common\doprnt.c: 423:     while (l
      +                           < w) {
  7040   001FE8  5010               	movf	ctoa@w^0,w,c
  7041   001FEA  5C0E               	subwf	ctoa@l^0,w,c
  7042   001FEC  500F               	movf	(ctoa@l+1)^0,w,c
  7043   001FEE  0A80               	xorlw	128
  7044   001FF0  6E0D               	movwf	??_ctoa^0,c
  7045   001FF2  5011               	movf	(ctoa@w+1)^0,w,c
  7046   001FF4  0A80               	xorlw	128
  7047   001FF6  580D               	subwfb	??_ctoa^0,w,c
  7048   001FF8  A0D8               	btfss	status,0,c
  7049   001FFA  EF01  F010         	goto	i2u225_41
  7050   001FFE  EF03  F010         	goto	i2u225_40
  7051   002002                     i2u225_41:
  7052   002002  EFE8  F00F         	goto	i2l2963
  7053   002006                     i2u225_40:
  7054   002006                     
  7055                           ;C:\Program Files\Microchip\xc8\v2.40\pic\sources\c99\common\doprnt.c: 429:     if (!(fl
      +                          ags & (1 << 0))) {
  7056   002006  B07A               	btfsc	_flags^0,0,c
  7057   002008  EF08  F010         	goto	i2u226_41
  7058   00200C  EF0A  F010         	goto	i2u226_40
  7059   002010                     i2u226_41:
  7060   002010  EF13  F010         	goto	i2l1262
  7061   002014                     i2u226_40:
  7062   002014                     
  7063                           ;C:\Program Files\Microchip\xc8\v2.40\pic\sources\c99\common\doprnt.c: 431:         fput
      +                          c(c, fp);
  7064   002014  C00C  F001         	movff	ctoa@c,fputc@c
  7065   002018  6A02               	clrf	(fputc@c+1)^0,c
  7066   00201A  C00A  F003         	movff	ctoa@fp,fputc@fp
  7067   00201E  C00B  F004         	movff	ctoa@fp+1,fputc@fp+1
  7068   002022  EC14  F010         	call	_fputc	;wreg free
  7069   002026                     i2l1262:
  7070   002026  0012               	return		;funcret
  7071   002028                     __end_of_ctoa:
  7072                           	callstack 0
  7073                           
  7074 ;; *************** function _fputc *****************
  7075 ;; Defined at:
  7076 ;;		line 8 in file "C:\Program Files\Microchip\xc8\v2.40\pic\sources\c99\common\nf_fputc.c"
  7077 ;; Parameters:    Size  Location     Type
  7078 ;;  c               2    0[COMRAM] int 
  7079 ;;  fp              2    2[COMRAM] PTR struct _IO_FILE
  7080 ;;		 -> sprintf@f(11), 
  7081 ;; Auto vars:     Size  Location     Type
  7082 ;;		None
  7083 ;; Return value:  Size  Location     Type
  7084 ;;                  2    0[COMRAM] int 
  7085 ;; Registers used:
  7086 ;;		wreg, fsr1l, fsr1h, fsr2l, fsr2h, status,2, status,0, cstack
  7087 ;; Tracked objects:
  7088 ;;		On entry : 0/0
  7089 ;;		On exit  : 0/0
  7090 ;;		Unchanged: 0/0
  7091 ;; Data sizes:     COMRAM   BANK0   BANK1   BANK2   BANK3   BANK4   BANK5
  7092 ;;      Params:         4       0       0       0       0       0       0
  7093 ;;      Locals:         0       0       0       0       0       0       0
  7094 ;;      Temps:          5       0       0       0       0       0       0
  7095 ;;      Totals:         9       0       0       0       0       0       0
  7096 ;;Total ram usage:        9 bytes
  7097 ;; Hardware stack levels used: 1
  7098 ;; Hardware stack levels required when called: 1
  7099 ;; This function calls:
  7100 ;;		_putch
  7101 ;; This function is called by:
  7102 ;;		_pad
  7103 ;;		_ctoa
  7104 ;;		_vfpfcnvrt
  7105 ;;		_fputs
  7106 ;; This function uses a non-reentrant model
  7107 ;;
  7108                           
  7109                           	psect	text36
  7110   002028                     __ptext36:
  7111                           	callstack 0
  7112   002028                     _fputc:
  7113                           	callstack 19
  7114   002028  5003               	movf	fputc@fp^0,w,c
  7115   00202A  1004               	iorwf	(fputc@fp+1)^0,w,c
  7116   00202C  B4D8               	btfsc	status,2,c
  7117   00202E  EF1B  F010         	goto	i2u195_41
  7118   002032  EF1D  F010         	goto	i2u195_40
  7119   002036                     i2u195_41:
  7120   002036  EF26  F010         	goto	i2l2805
  7121   00203A                     i2u195_40:
  7122   00203A  5003               	movf	fputc@fp^0,w,c
  7123   00203C  1004               	iorwf	(fputc@fp+1)^0,w,c
  7124   00203E  A4D8               	btfss	status,2,c
  7125   002040  EF24  F010         	goto	i2u196_41
  7126   002044  EF26  F010         	goto	i2u196_40
  7127   002048                     i2u196_41:
  7128   002048  EF2B  F010         	goto	i2l2807
  7129   00204C                     i2u196_40:
  7130   00204C                     i2l2805:
  7131   00204C  5001               	movf	fputc@c^0,w,c
  7132   00204E  EC35  F016         	call	_putch
  7133   002052  EF78  F010         	goto	i2l1370
  7134   002056                     i2l2807:
  7135   002056  EE20 F009          	lfsr	2,9
  7136   00205A  5003               	movf	fputc@fp^0,w,c
  7137   00205C  26D9               	addwf	fsr2l,f,c
  7138   00205E  5004               	movf	(fputc@fp+1)^0,w,c
  7139   002060  22DA               	addwfc	fsr2h,f,c
  7140   002062  50DE               	movf	postinc2,w,c
  7141   002064  10DE               	iorwf	postinc2,w,c
  7142   002066  B4D8               	btfsc	status,2,c
  7143   002068  EF38  F010         	goto	i2u197_41
  7144   00206C  EF3A  F010         	goto	i2u197_40
  7145   002070                     i2u197_41:
  7146   002070  EF55  F010         	goto	i2l2811
  7147   002074                     i2u197_40:
  7148   002074  EE20 F009          	lfsr	2,9
  7149   002078  5003               	movf	fputc@fp^0,w,c
  7150   00207A  26D9               	addwf	fsr2l,f,c
  7151   00207C  5004               	movf	(fputc@fp+1)^0,w,c
  7152   00207E  22DA               	addwfc	fsr2h,f,c
  7153   002080  EE10 F003          	lfsr	1,3
  7154   002084  5003               	movf	fputc@fp^0,w,c
  7155   002086  26E1               	addwf	fsr1l,f,c
  7156   002088  5004               	movf	(fputc@fp+1)^0,w,c
  7157   00208A  22E2               	addwfc	fsr1h,f,c
  7158   00208C  50DE               	movf	postinc2,w,c
  7159   00208E  5CE6               	subwf	postinc1,w,c
  7160   002090  50E6               	movf	postinc1,w,c
  7161   002092  0A80               	xorlw	128
  7162   002094  6E09               	movwf	(??_fputc+4)^0,c
  7163   002096  50DE               	movf	postinc2,w,c
  7164   002098  0A80               	xorlw	128
  7165   00209A  5809               	subwfb	(??_fputc+4)^0,w,c
  7166   00209C  B0D8               	btfsc	status,0,c
  7167   00209E  EF53  F010         	goto	i2u198_41
  7168   0020A2  EF55  F010         	goto	i2u198_40
  7169   0020A6                     i2u198_41:
  7170   0020A6  EF78  F010         	goto	i2l1370
  7171   0020AA                     i2u198_40:
  7172   0020AA                     i2l2811:
  7173   0020AA  EE20 F003          	lfsr	2,3
  7174   0020AE  5003               	movf	fputc@fp^0,w,c
  7175   0020B0  26D9               	addwf	fsr2l,f,c
  7176   0020B2  5004               	movf	(fputc@fp+1)^0,w,c
  7177   0020B4  22DA               	addwfc	fsr2h,f,c
  7178   0020B6  CFDE F005          	movff	postinc2,??_fputc
  7179   0020BA  CFDD F006          	movff	postdec2,??_fputc+1
  7180   0020BE  C003  FFD9         	movff	fputc@fp,fsr2l
  7181   0020C2  C004  FFDA         	movff	fputc@fp+1,fsr2h
  7182   0020C6  CFDE F007          	movff	postinc2,??_fputc+2
  7183   0020CA  CFDD F008          	movff	postdec2,??_fputc+3
  7184   0020CE  5005               	movf	??_fputc^0,w,c
  7185   0020D0  2407               	addwf	(??_fputc+2)^0,w,c
  7186   0020D2  6ED9               	movwf	fsr2l,c
  7187   0020D4  5006               	movf	(??_fputc+1)^0,w,c
  7188   0020D6  2008               	addwfc	(??_fputc+3)^0,w,c
  7189   0020D8  6EDA               	movwf	fsr2h,c
  7190   0020DA  C001  FFDF         	movff	fputc@c,indf2
  7191   0020DE  EE20 F003          	lfsr	2,3
  7192   0020E2  5003               	movf	fputc@fp^0,w,c
  7193   0020E4  26D9               	addwf	fsr2l,f,c
  7194   0020E6  5004               	movf	(fputc@fp+1)^0,w,c
  7195   0020E8  22DA               	addwfc	fsr2h,f,c
  7196   0020EA  2ADE               	incf	postinc2,f,c
  7197   0020EC  0E00               	movlw	0
  7198   0020EE  22DD               	addwfc	postdec2,f,c
  7199   0020F0                     i2l1370:
  7200   0020F0  0012               	return		;funcret
  7201   0020F2                     __end_of_fputc:
  7202                           	callstack 0
  7203                           
  7204 ;; *************** function _putch *****************
  7205 ;; Defined at:
  7206 ;;		line 7 in file "C:\Program Files\Microchip\xc8\v2.40\pic\sources\c99\common\putch.c"
  7207 ;; Parameters:    Size  Location     Type
  7208 ;;  c               1    wreg     unsigned char 
  7209 ;; Auto vars:     Size  Location     Type
  7210 ;;  c               1    0[COMRAM] unsigned char 
  7211 ;; Return value:  Size  Location     Type
  7212 ;;                  1    wreg      void 
  7213 ;; Registers used:
  7214 ;;		wreg
  7215 ;; Tracked objects:
  7216 ;;		On entry : 0/0
  7217 ;;		On exit  : 0/0
  7218 ;;		Unchanged: 0/0
  7219 ;; Data sizes:     COMRAM   BANK0   BANK1   BANK2   BANK3   BANK4   BANK5
  7220 ;;      Params:         0       0       0       0       0       0       0
  7221 ;;      Locals:         0       0       0       0       0       0       0
  7222 ;;      Temps:          0       0       0       0       0       0       0
  7223 ;;      Totals:         0       0       0       0       0       0       0
  7224 ;;Total ram usage:        0 bytes
  7225 ;; Hardware stack levels used: 1
  7226 ;; This function calls:
  7227 ;;		Nothing
  7228 ;; This function is called by:
  7229 ;;		_fputc
  7230 ;; This function uses a non-reentrant model
  7231 ;;
  7232                           
  7233                           	psect	text37
  7234   002C6A                     __ptext37:
  7235                           	callstack 0
  7236   002C6A                     _putch:
  7237                           	callstack 19
  7238   002C6A  0012               	return		;funcret
  7239   002C6C                     __end_of_putch:
  7240                           	callstack 0
  7241                           
  7242 ;; *************** function _atoi *****************
  7243 ;; Defined at:
  7244 ;;		line 4 in file "C:\Program Files\Microchip\xc8\v2.40\pic\sources\c99\common\atoi.c"
  7245 ;; Parameters:    Size  Location     Type
  7246 ;;  s               2    6[COMRAM] PTR const unsigned char 
  7247 ;;		 -> STR_2(17), STR_1(17), 
  7248 ;; Auto vars:     Size  Location     Type
  7249 ;;  n               2   13[COMRAM] int 
  7250 ;;  neg             2   11[COMRAM] int 
  7251 ;; Return value:  Size  Location     Type
  7252 ;;                  2    6[COMRAM] int 
  7253 ;; Registers used:
  7254 ;;		wreg, status,2, status,0, tblptrl, tblptrh, tblptru, prodl, prodh, cstack
  7255 ;; Tracked objects:
  7256 ;;		On entry : 0/0
  7257 ;;		On exit  : 0/0
  7258 ;;		Unchanged: 0/0
  7259 ;; Data sizes:     COMRAM   BANK0   BANK1   BANK2   BANK3   BANK4   BANK5
  7260 ;;      Params:         2       0       0       0       0       0       0
  7261 ;;      Locals:         4       0       0       0       0       0       0
  7262 ;;      Temps:          3       0       0       0       0       0       0
  7263 ;;      Totals:         9       0       0       0       0       0       0
  7264 ;;Total ram usage:        9 bytes
  7265 ;; Hardware stack levels used: 1
  7266 ;; Hardware stack levels required when called: 1
  7267 ;; This function calls:
  7268 ;;		___wmul
  7269 ;;		_isdigit
  7270 ;;		_isspace
  7271 ;; This function is called by:
  7272 ;;		_vfpfcnvrt
  7273 ;; This function uses a non-reentrant model
  7274 ;;
  7275                           
  7276                           	psect	text38
  7277   0018EC                     __ptext38:
  7278                           	callstack 0
  7279   0018EC                     _atoi:
  7280                           	callstack 19
  7281   0018EC  0E00               	movlw	0
  7282   0018EE  6E0F               	movwf	(atoi@n+1)^0,c
  7283   0018F0  0E00               	movlw	0
  7284   0018F2  6E0E               	movwf	atoi@n^0,c
  7285   0018F4  0E00               	movlw	0
  7286   0018F6  6E0D               	movwf	(atoi@neg+1)^0,c
  7287   0018F8  0E00               	movlw	0
  7288   0018FA  6E0C               	movwf	atoi@neg^0,c
  7289   0018FC  EF82  F00C         	goto	i2l3029
  7290   001900                     i2l3025:
  7291   001900  4A07               	infsnz	atoi@s^0,f,c
  7292   001902  2A08               	incf	(atoi@s+1)^0,f,c
  7293   001904                     i2l3029:
  7294   001904  C007  FFF6         	movff	atoi@s,tblptrl
  7295   001908  C008  FFF7         	movff	atoi@s+1,tblptrh
  7296   00190C                     	if	0	;tblptru may be non-zero
  7297   00190C                     	endif
  7298   00190C                     	if	0	;tblptru may be non-zero
  7299   00190C                     	endif
  7300   00190C  0008               	tblrd		*
  7301   00190E  50F5               	movf	tablat,w,c
  7302   001910  0A20               	xorlw	32
  7303   001912  B4D8               	btfsc	status,2,c
  7304   001914  EF8E  F00C         	goto	i2u237_41
  7305   001918  EF90  F00C         	goto	i2u237_40
  7306   00191C                     i2u237_41:
  7307   00191C  EF80  F00C         	goto	i2l3025
  7308   001920                     i2u237_40:
  7309   001920  C007  FFF6         	movff	atoi@s,tblptrl
  7310   001924  C008  FFF7         	movff	atoi@s+1,tblptrh
  7311   001928                     	if	0	;tblptru may be non-zero
  7312   001928                     	endif
  7313   001928                     	if	0	;tblptru may be non-zero
  7314   001928                     	endif
  7315   001928  0008               	tblrd		*
  7316   00192A  CFF5 F009          	movff	tablat,??_atoi
  7317   00192E  0EF7               	movlw	247
  7318   001930  2409               	addwf	??_atoi^0,w,c
  7319   001932  6E0A               	movwf	(??_atoi+1)^0,c
  7320   001934  6A0B               	clrf	(??_atoi+2)^0,c
  7321   001936  0EFF               	movlw	255
  7322   001938  220B               	addwfc	(??_atoi+2)^0,f,c
  7323   00193A  500B               	movf	(??_atoi+2)^0,w,c
  7324   00193C  E109               	bnz	i2u238_40
  7325   00193E  0E05               	movlw	5
  7326   001940  5C0A               	subwf	(??_atoi+1)^0,w,c
  7327   001942  A0D8               	btfss	status,0,c
  7328   001944  EFA6  F00C         	goto	i2u238_41
  7329   001948  EFA8  F00C         	goto	i2u238_40
  7330   00194C                     i2u238_41:
  7331   00194C  EF80  F00C         	goto	i2l3025
  7332   001950                     i2u238_40:
  7333   001950  EFB2  F00C         	goto	i2l3037
  7334   001954                     i2l3033:
  7335   001954  0E00               	movlw	0
  7336   001956  6E0D               	movwf	(atoi@neg+1)^0,c
  7337   001958  0E01               	movlw	1
  7338   00195A  6E0C               	movwf	atoi@neg^0,c
  7339   00195C                     i2l3035:
  7340   00195C  4A07               	infsnz	atoi@s^0,f,c
  7341   00195E  2A08               	incf	(atoi@s+1)^0,f,c
  7342   001960  EFE7  F00C         	goto	i2l3045
  7343   001964                     i2l3037:
  7344   001964  C007  FFF6         	movff	atoi@s,tblptrl
  7345   001968  C008  FFF7         	movff	atoi@s+1,tblptrh
  7346   00196C                     	if	0	;tblptru may be non-zero
  7347   00196C                     	endif
  7348   00196C                     	if	0	;tblptru may be non-zero
  7349   00196C                     	endif
  7350   00196C  0008               	tblrd		*
  7351   00196E  50F5               	movf	tablat,w,c
  7352   001970  6E09               	movwf	??_atoi^0,c
  7353   001972  6A0A               	clrf	(??_atoi+1)^0,c
  7354                           
  7355                           ; Switch on 2 bytes has been partitioned into a top level switch of size 1, and 1 sub-sw
      +                          itches
  7356                           ; Switch size 1, requested type "simple"
  7357                           ; Number of cases is 1, Range of values is 0 to 0
  7358                           ; switch strategies available:
  7359                           ; Name         Instructions Cycles
  7360                           ; simple_byte            4     3 (average)
  7361                           ;	Chosen strategy is simple_byte
  7362   001974  500A               	movf	(??_atoi+1)^0,w,c
  7363   001976  0A00               	xorlw	0	; case 0
  7364   001978  B4D8               	btfsc	status,2,c
  7365   00197A  EFC1  F00C         	goto	i2l4161
  7366   00197E  EFE7  F00C         	goto	i2l3045
  7367   001982                     i2l4161:
  7368                           
  7369                           ; Switch size 1, requested type "simple"
  7370                           ; Number of cases is 2, Range of values is 43 to 45
  7371                           ; switch strategies available:
  7372                           ; Name         Instructions Cycles
  7373                           ; simple_byte            7     4 (average)
  7374                           ;	Chosen strategy is simple_byte
  7375   001982  5009               	movf	??_atoi^0,w,c
  7376   001984  0A2B               	xorlw	43	; case 43
  7377   001986  B4D8               	btfsc	status,2,c
  7378   001988  EFAE  F00C         	goto	i2l3035
  7379   00198C  0A06               	xorlw	6	; case 45
  7380   00198E  B4D8               	btfsc	status,2,c
  7381   001990  EFAA  F00C         	goto	i2l3033
  7382   001994  EFE7  F00C         	goto	i2l3045
  7383   001998                     i2l3039:
  7384   001998  C00E  F001         	movff	atoi@n,___wmul@multiplier
  7385   00199C  C00F  F002         	movff	atoi@n+1,___wmul@multiplier+1
  7386   0019A0  0E00               	movlw	0
  7387   0019A2  6E04               	movwf	(___wmul@multiplicand+1)^0,c
  7388   0019A4  0E0A               	movlw	10
  7389   0019A6  6E03               	movwf	___wmul@multiplicand^0,c
  7390   0019A8  ECB0  F015         	call	___wmul	;wreg free
  7391   0019AC  C007  FFF6         	movff	atoi@s,tblptrl
  7392   0019B0  C008  FFF7         	movff	atoi@s+1,tblptrh
  7393   0019B4                     	if	0	;tblptru may be non-zero
  7394   0019B4                     	endif
  7395   0019B4                     	if	0	;tblptru may be non-zero
  7396   0019B4                     	endif
  7397   0019B4  0008               	tblrd		*
  7398   0019B6  50F5               	movf	tablat,w,c
  7399   0019B8  5E01               	subwf	?___wmul^0,f,c
  7400   0019BA  0E00               	movlw	0
  7401   0019BC  5A02               	subwfb	(?___wmul+1)^0,f,c
  7402   0019BE  0E30               	movlw	48
  7403   0019C0  2401               	addwf	?___wmul^0,w,c
  7404   0019C2  6E0E               	movwf	atoi@n^0,c
  7405   0019C4  0E00               	movlw	0
  7406   0019C6  2002               	addwfc	(?___wmul+1)^0,w,c
  7407   0019C8  6E0F               	movwf	(atoi@n+1)^0,c
  7408   0019CA  EFAE  F00C         	goto	i2l3035
  7409   0019CE                     i2l3045:
  7410   0019CE  C007  FFF6         	movff	atoi@s,tblptrl
  7411   0019D2  C008  FFF7         	movff	atoi@s+1,tblptrh
  7412   0019D6                     	if	0	;tblptru may be non-zero
  7413   0019D6                     	endif
  7414   0019D6                     	if	0	;tblptru may be non-zero
  7415   0019D6                     	endif
  7416   0019D6  0008               	tblrd		*
  7417   0019D8  CFF5 F009          	movff	tablat,??_atoi
  7418   0019DC  0ED0               	movlw	208
  7419   0019DE  2409               	addwf	??_atoi^0,w,c
  7420   0019E0  6E0A               	movwf	(??_atoi+1)^0,c
  7421   0019E2  6A0B               	clrf	(??_atoi+2)^0,c
  7422   0019E4  0EFF               	movlw	255
  7423   0019E6  220B               	addwfc	(??_atoi+2)^0,f,c
  7424   0019E8  500B               	movf	(??_atoi+2)^0,w,c
  7425   0019EA  E109               	bnz	i2u239_40
  7426   0019EC  0E0A               	movlw	10
  7427   0019EE  5C0A               	subwf	(??_atoi+1)^0,w,c
  7428   0019F0  A0D8               	btfss	status,0,c
  7429   0019F2  EFFD  F00C         	goto	i2u239_41
  7430   0019F6  EFFF  F00C         	goto	i2u239_40
  7431   0019FA                     i2u239_41:
  7432   0019FA  EFCC  F00C         	goto	i2l3039
  7433   0019FE                     i2u239_40:
  7434   0019FE  500C               	movf	atoi@neg^0,w,c
  7435   001A00  100D               	iorwf	(atoi@neg+1)^0,w,c
  7436   001A02  A4D8               	btfss	status,2,c
  7437   001A04  EF06  F00D         	goto	i2u240_41
  7438   001A08  EF08  F00D         	goto	i2u240_40
  7439   001A0C                     i2u240_41:
  7440   001A0C  EF16  F00D         	goto	i2l1341
  7441   001A10                     i2u240_40:
  7442   001A10  C00E  F009         	movff	atoi@n,??_atoi
  7443   001A14  C00F  F00A         	movff	atoi@n+1,??_atoi+1
  7444   001A18  1E09               	comf	??_atoi^0,f,c
  7445   001A1A  1E0A               	comf	(??_atoi+1)^0,f,c
  7446   001A1C  4A09               	infsnz	??_atoi^0,f,c
  7447   001A1E  2A0A               	incf	(??_atoi+1)^0,f,c
  7448   001A20  C009  F007         	movff	??_atoi,?_atoi
  7449   001A24  C00A  F008         	movff	??_atoi+1,?_atoi+1
  7450   001A28  EF1A  F00D         	goto	i2l1344
  7451   001A2C                     i2l1341:
  7452   001A2C  C00E  F007         	movff	atoi@n,?_atoi
  7453   001A30  C00F  F008         	movff	atoi@n+1,?_atoi+1
  7454   001A34                     i2l1344:
  7455   001A34  0012               	return		;funcret
  7456   001A36                     __end_of_atoi:
  7457                           	callstack 0
  7458                           
  7459 ;; *************** function _isspace *****************
  7460 ;; Defined at:
  7461 ;;		line 5 in file "C:\Program Files\Microchip\xc8\v2.40\pic\sources\c99\common\isspace.c"
  7462 ;; Parameters:    Size  Location     Type
  7463 ;;  c               2    0[COMRAM] int 
  7464 ;; Auto vars:     Size  Location     Type
  7465 ;;		None
  7466 ;; Return value:  Size  Location     Type
  7467 ;;                  2    0[COMRAM] int 
  7468 ;; Registers used:
  7469 ;;		wreg, status,2, status,0
  7470 ;; Tracked objects:
  7471 ;;		On entry : 0/0
  7472 ;;		On exit  : 0/0
  7473 ;;		Unchanged: 0/0
  7474 ;; Data sizes:     COMRAM   BANK0   BANK1   BANK2   BANK3   BANK4   BANK5
  7475 ;;      Params:         2       0       0       0       0       0       0
  7476 ;;      Locals:         1       0       0       0       0       0       0
  7477 ;;      Temps:          2       0       0       0       0       0       0
  7478 ;;      Totals:         5       0       0       0       0       0       0
  7479 ;;Total ram usage:        5 bytes
  7480 ;; Hardware stack levels used: 1
  7481 ;; This function calls:
  7482 ;;		Nothing
  7483 ;; This function is called by:
  7484 ;;		_atoi
  7485 ;; This function uses a non-reentrant model
  7486 ;;
  7487                           
  7488                           	psect	text39
  7489   0028CC                     __ptext39:
  7490                           	callstack 0
  7491   0028CC                     _isspace:
  7492                           	callstack 19
  7493   0028CC  0E01               	movlw	1
  7494   0028CE  6E05               	movwf	_isspace$1029^0,c
  7495   0028D0  0E20               	movlw	32
  7496   0028D2  1801               	xorwf	isspace@c^0,w,c
  7497   0028D4  1002               	iorwf	(isspace@c+1)^0,w,c
  7498   0028D6  B4D8               	btfsc	status,2,c
  7499   0028D8  EF70  F014         	goto	i2u220_41
  7500   0028DC  EF72  F014         	goto	i2u220_40
  7501   0028E0                     i2u220_41:
  7502   0028E0  EF85  F014         	goto	i2l2943
  7503   0028E4                     i2u220_40:
  7504   0028E4  0EF7               	movlw	247
  7505   0028E6  2401               	addwf	isspace@c^0,w,c
  7506   0028E8  6E03               	movwf	??_isspace^0,c
  7507   0028EA  0EFF               	movlw	255
  7508   0028EC  2002               	addwfc	(isspace@c+1)^0,w,c
  7509   0028EE  6E04               	movwf	(??_isspace+1)^0,c
  7510   0028F0  5004               	movf	(??_isspace+1)^0,w,c
  7511   0028F2  E109               	bnz	i2u221_40
  7512   0028F4  0E05               	movlw	5
  7513   0028F6  5C03               	subwf	??_isspace^0,w,c
  7514   0028F8  A0D8               	btfss	status,0,c
  7515   0028FA  EF81  F014         	goto	i2u221_41
  7516   0028FE  EF83  F014         	goto	i2u221_40
  7517   002902                     i2u221_41:
  7518   002902  EF85  F014         	goto	i2l2943
  7519   002906                     i2u221_40:
  7520   002906  0E00               	movlw	0
  7521   002908  6E05               	movwf	_isspace$1029^0,c
  7522   00290A                     i2l2943:
  7523   00290A  C005  F001         	movff	_isspace$1029,?_isspace
  7524   00290E  6A02               	clrf	(?_isspace+1)^0,c
  7525   002910  0012               	return		;funcret
  7526   002912                     __end_of_isspace:
  7527                           	callstack 0
  7528                           
  7529 ;; *************** function _isdigit *****************
  7530 ;; Defined at:
  7531 ;;		line 5 in file "C:\Program Files\Microchip\xc8\v2.40\pic\sources\c99\common\isdigit.c"
  7532 ;; Parameters:    Size  Location     Type
  7533 ;;  c               2    0[COMRAM] int 
  7534 ;; Auto vars:     Size  Location     Type
  7535 ;;		None
  7536 ;; Return value:  Size  Location     Type
  7537 ;;                  2    0[COMRAM] int 
  7538 ;; Registers used:
  7539 ;;		wreg, status,2, status,0
  7540 ;; Tracked objects:
  7541 ;;		On entry : 0/0
  7542 ;;		On exit  : 0/0
  7543 ;;		Unchanged: 0/0
  7544 ;; Data sizes:     COMRAM   BANK0   BANK1   BANK2   BANK3   BANK4   BANK5
  7545 ;;      Params:         2       0       0       0       0       0       0
  7546 ;;      Locals:         0       0       0       0       0       0       0
  7547 ;;      Temps:          2       0       0       0       0       0       0
  7548 ;;      Totals:         4       0       0       0       0       0       0
  7549 ;;Total ram usage:        4 bytes
  7550 ;; Hardware stack levels used: 1
  7551 ;; This function calls:
  7552 ;;		Nothing
  7553 ;; This function is called by:
  7554 ;;		_vfpfcnvrt
  7555 ;;		_atoi
  7556 ;; This function uses a non-reentrant model
  7557 ;;
  7558                           
  7559                           	psect	text40
  7560   002ABC                     __ptext40:
  7561                           	callstack 0
  7562   002ABC                     _isdigit:
  7563                           	callstack 20
  7564   002ABC  0ED0               	movlw	208
  7565   002ABE  2401               	addwf	isdigit@c^0,w,c
  7566   002AC0  6E03               	movwf	??_isdigit^0,c
  7567   002AC2  0EFF               	movlw	255
  7568   002AC4  2002               	addwfc	(isdigit@c+1)^0,w,c
  7569   002AC6  6E04               	movwf	(??_isdigit+1)^0,c
  7570   002AC8  5004               	movf	(??_isdigit+1)^0,w,c
  7571   002ACA  E10A               	bnz	i2u218_40
  7572   002ACC  0E0A               	movlw	10
  7573   002ACE  5C03               	subwf	??_isdigit^0,w,c
  7574   002AD0  A0D8               	btfss	status,0,c
  7575   002AD2  EF6D  F015         	goto	i2u218_41
  7576   002AD6  EF70  F015         	goto	i2u218_40
  7577   002ADA                     i2u218_41:
  7578   002ADA  0E01               	movlw	1
  7579   002ADC  EF71  F015         	goto	i2u219_40
  7580   002AE0                     i2u218_40:
  7581   002AE0  0E00               	movlw	0
  7582   002AE2                     i2u219_40:
  7583   002AE2  6E01               	movwf	?_isdigit^0,c
  7584   002AE4  6A02               	clrf	(?_isdigit+1)^0,c
  7585   002AE6  0012               	return		;funcret
  7586   002AE8                     __end_of_isdigit:
  7587                           	callstack 0
  7588                           
  7589 ;; *************** function ___wmul *****************
  7590 ;; Defined at:
  7591 ;;		line 15 in file "C:\Program Files\Microchip\xc8\v2.40\pic\sources\c99\common\Umul16.c"
  7592 ;; Parameters:    Size  Location     Type
  7593 ;;  multiplier      2    0[COMRAM] unsigned int 
  7594 ;;  multiplicand    2    2[COMRAM] unsigned int 
  7595 ;; Auto vars:     Size  Location     Type
  7596 ;;  product         2    4[COMRAM] unsigned int 
  7597 ;; Return value:  Size  Location     Type
  7598 ;;                  2    0[COMRAM] unsigned int 
  7599 ;; Registers used:
  7600 ;;		wreg, status,2, status,0, prodl, prodh
  7601 ;; Tracked objects:
  7602 ;;		On entry : 0/0
  7603 ;;		On exit  : 0/0
  7604 ;;		Unchanged: 0/0
  7605 ;; Data sizes:     COMRAM   BANK0   BANK1   BANK2   BANK3   BANK4   BANK5
  7606 ;;      Params:         4       0       0       0       0       0       0
  7607 ;;      Locals:         2       0       0       0       0       0       0
  7608 ;;      Temps:          0       0       0       0       0       0       0
  7609 ;;      Totals:         6       0       0       0       0       0       0
  7610 ;;Total ram usage:        6 bytes
  7611 ;; Hardware stack levels used: 1
  7612 ;; This function calls:
  7613 ;;		Nothing
  7614 ;; This function is called by:
  7615 ;;		_atoi
  7616 ;; This function uses a non-reentrant model
  7617 ;;
  7618                           
  7619                           	psect	text41
  7620   002B60                     __ptext41:
  7621                           	callstack 0
  7622   002B60                     ___wmul:
  7623                           	callstack 19
  7624   002B60  5001               	movf	___wmul@multiplier^0,w,c
  7625   002B62  0203               	mulwf	___wmul@multiplicand^0,c
  7626   002B64  CFF3 F005          	movff	prodl,___wmul@product
  7627   002B68  CFF4 F006          	movff	prodh,___wmul@product+1
  7628   002B6C  5001               	movf	___wmul@multiplier^0,w,c
  7629   002B6E  0204               	mulwf	(___wmul@multiplicand+1)^0,c
  7630   002B70  50F3               	movf	243,w,c
  7631   002B72  2606               	addwf	(___wmul@product+1)^0,f,c
  7632   002B74  5002               	movf	(___wmul@multiplier+1)^0,w,c
  7633   002B76  0203               	mulwf	___wmul@multiplicand^0,c
  7634   002B78  50F3               	movf	243,w,c
  7635   002B7A  2606               	addwf	(___wmul@product+1)^0,f,c
  7636   002B7C  C005  F001         	movff	___wmul@product,?___wmul
  7637   002B80  C006  F002         	movff	___wmul@product+1,?___wmul+1
  7638   002B84  0012               	return		;funcret
  7639   002B86                     __end_of___wmul:
  7640                           	callstack 0
  7641                           
  7642 ;; *************** function _lcd_str *****************
  7643 ;; Defined at:
  7644 ;;		line 76 in file "lcd.c"
  7645 ;; Parameters:    Size  Location     Type
  7646 ;;  str             2    2[COMRAM] PTR const unsigned char 
  7647 ;;		 -> buffer(10), 
  7648 ;; Auto vars:     Size  Location     Type
  7649 ;;  i               1    4[COMRAM] unsigned char 
  7650 ;; Return value:  Size  Location     Type
  7651 ;;                  1    wreg      void 
  7652 ;; Registers used:
  7653 ;;		wreg, fsr2l, fsr2h, status,2, status,0, cstack
  7654 ;; Tracked objects:
  7655 ;;		On entry : 0/0
  7656 ;;		On exit  : 0/0
  7657 ;;		Unchanged: 0/0
  7658 ;; Data sizes:     COMRAM   BANK0   BANK1   BANK2   BANK3   BANK4   BANK5
  7659 ;;      Params:         2       0       0       0       0       0       0
  7660 ;;      Locals:         1       0       0       0       0       0       0
  7661 ;;      Temps:          0       0       0       0       0       0       0
  7662 ;;      Totals:         3       0       0       0       0       0       0
  7663 ;;Total ram usage:        3 bytes
  7664 ;; Hardware stack levels used: 1
  7665 ;; Hardware stack levels required when called: 2
  7666 ;; This function calls:
  7667 ;;		_lcd_dat
  7668 ;; This function is called by:
  7669 ;;		_show_display_LCD
  7670 ;; This function uses a non-reentrant model
  7671 ;;
  7672                           
  7673                           	psect	text42
  7674   002A18                     __ptext42:
  7675                           	callstack 0
  7676   002A18                     _lcd_str:
  7677                           	callstack 21
  7678   002A18                     
  7679                           ;lcd.c: 76: void lcd_str(const char* str);lcd.c: 77: {;lcd.c: 78:  unsigned char i=0;
  7680   002A18  0E00               	movlw	0
  7681   002A1A  6E05               	movwf	lcd_str@i^0,c
  7682                           
  7683                           ;lcd.c: 80:  while(str[i] != 0 )
  7684   002A1C  EF1A  F015         	goto	i2l3233
  7685   002A20                     i2l3229:
  7686                           
  7687                           ;lcd.c: 81:  {;lcd.c: 82:    lcd_dat(str[i]);
  7688   002A20  5005               	movf	lcd_str@i^0,w,c
  7689   002A22  2403               	addwf	lcd_str@str^0,w,c
  7690   002A24  6ED9               	movwf	fsr2l,c
  7691   002A26  0E00               	movlw	0
  7692   002A28  2004               	addwfc	(lcd_str@str+1)^0,w,c
  7693   002A2A  6EDA               	movwf	fsr2h,c
  7694   002A2C  50DF               	movf	indf2,w,c
  7695   002A2E  ECD4  F015         	call	_lcd_dat
  7696   002A32                     
  7697                           ;lcd.c: 83:    i++;
  7698   002A32  2A05               	incf	lcd_str@i^0,f,c
  7699   002A34                     i2l3233:
  7700                           
  7701                           ;lcd.c: 80:  while(str[i] != 0 )
  7702   002A34  5005               	movf	lcd_str@i^0,w,c
  7703   002A36  2403               	addwf	lcd_str@str^0,w,c
  7704   002A38  6ED9               	movwf	fsr2l,c
  7705   002A3A  0E00               	movlw	0
  7706   002A3C  2004               	addwfc	(lcd_str@str+1)^0,w,c
  7707   002A3E  6EDA               	movwf	fsr2h,c
  7708   002A40  50DF               	movf	indf2,w,c
  7709   002A42  A4D8               	btfss	status,2,c
  7710   002A44  EF26  F015         	goto	i2u255_41
  7711   002A48  EF28  F015         	goto	i2u255_40
  7712   002A4C                     i2u255_41:
  7713   002A4C  EF10  F015         	goto	i2l3229
  7714   002A50                     i2u255_40:
  7715   002A50  0012               	return		;funcret
  7716   002A52                     __end_of_lcd_str:
  7717                           	callstack 0
  7718                           
  7719 ;; *************** function _lcd_dat *****************
  7720 ;; Defined at:
  7721 ;;		line 45 in file "lcd.c"
  7722 ;; Parameters:    Size  Location     Type
  7723 ;;  val             1    wreg     unsigned char 
  7724 ;; Auto vars:     Size  Location     Type
  7725 ;;  val             1    1[COMRAM] unsigned char 
  7726 ;; Return value:  Size  Location     Type
  7727 ;;                  1    wreg      void 
  7728 ;; Registers used:
  7729 ;;		wreg, status,2, cstack
  7730 ;; Tracked objects:
  7731 ;;		On entry : 0/0
  7732 ;;		On exit  : 0/0
  7733 ;;		Unchanged: 0/0
  7734 ;; Data sizes:     COMRAM   BANK0   BANK1   BANK2   BANK3   BANK4   BANK5
  7735 ;;      Params:         0       0       0       0       0       0       0
  7736 ;;      Locals:         1       0       0       0       0       0       0
  7737 ;;      Temps:          0       0       0       0       0       0       0
  7738 ;;      Totals:         1       0       0       0       0       0       0
  7739 ;;Total ram usage:        1 bytes
  7740 ;; Hardware stack levels used: 1
  7741 ;; Hardware stack levels required when called: 1
  7742 ;; This function calls:
  7743 ;;		i2_lcd_wr
  7744 ;; This function is called by:
  7745 ;;		_lcd_str
  7746 ;; This function uses a non-reentrant model
  7747 ;;
  7748                           
  7749                           	psect	text43
  7750   002BA8                     __ptext43:
  7751                           	callstack 0
  7752   002BA8                     _lcd_dat:
  7753                           	callstack 21
  7754                           
  7755                           ;incstack = 0
  7756                           ;lcd_dat@val stored from wreg
  7757   002BA8  6E02               	movwf	lcd_dat@val^0,c
  7758   002BAA                     
  7759                           ;lcd.c: 45: void lcd_dat(unsigned char val);lcd.c: 46: {;lcd.c: 47:  PORTEbits.RE1=1;
  7760   002BAA  8284               	bsf	132,1,c	;volatile
  7761   002BAC                     
  7762                           ;lcd.c: 48:     lcd_wr(val);
  7763   002BAC  5002               	movf	lcd_dat@val^0,w,c
  7764   002BAE  EC2D  F016         	call	i2_lcd_wr
  7765   002BB2                     
  7766                           ;lcd.c: 49:     PORTEbits.RE2=1;
  7767   002BB2  8484               	bsf	132,2,c	;volatile
  7768   002BB4                     
  7769                           ;lcd.c: 50:     _delay((unsigned long)((40)*(4000000/4000000.0)));
  7770   002BB4  0E0D               	movlw	13
  7771   002BB6                     i2u381_47:
  7772   002BB6  2EE8               	decfsz	wreg,f,c
  7773   002BB8  D7FE               	bra	i2u381_47
  7774   002BBA  F000               	nop	
  7775   002BBC                     
  7776                           ;lcd.c: 51:     PORTEbits.RE1=0;
  7777   002BBC  9284               	bcf	132,1,c	;volatile
  7778   002BBE                     
  7779                           ;lcd.c: 52:     _delay((unsigned long)((40)*(4000000/4000000.0)));
  7780   002BBE  0E0D               	movlw	13
  7781   002BC0                     i2u382_47:
  7782   002BC0  2EE8               	decfsz	wreg,f,c
  7783   002BC2  D7FE               	bra	i2u382_47
  7784   002BC4  F000               	nop	
  7785   002BC6                     
  7786                           ;lcd.c: 53:  PORTEbits.RE1=1;
  7787   002BC6  8284               	bsf	132,1,c	;volatile
  7788   002BC8  0012               	return		;funcret
  7789   002BCA                     __end_of_lcd_dat:
  7790                           	callstack 0
  7791                           
  7792 ;; *************** function i2_lcd_wr *****************
  7793 ;; Defined at:
  7794 ;;		line 29 in file "lcd.c"
  7795 ;; Parameters:    Size  Location     Type
  7796 ;;  val             1    wreg     unsigned char 
  7797 ;; Auto vars:     Size  Location     Type
  7798 ;;  val             1    0[COMRAM] unsigned char 
  7799 ;; Return value:  Size  Location     Type
  7800 ;;                  1    wreg      void 
  7801 ;; Registers used:
  7802 ;;		wreg
  7803 ;; Tracked objects:
  7804 ;;		On entry : 0/0
  7805 ;;		On exit  : 0/0
  7806 ;;		Unchanged: 0/0
  7807 ;; Data sizes:     COMRAM   BANK0   BANK1   BANK2   BANK3   BANK4   BANK5
  7808 ;;      Params:         0       0       0       0       0       0       0
  7809 ;;      Locals:         1       0       0       0       0       0       0
  7810 ;;      Temps:          0       0       0       0       0       0       0
  7811 ;;      Totals:         1       0       0       0       0       0       0
  7812 ;;Total ram usage:        1 bytes
  7813 ;; Hardware stack levels used: 1
  7814 ;; This function calls:
  7815 ;;		Nothing
  7816 ;; This function is called by:
  7817 ;;		_lcd_dat
  7818 ;;		i2_lcd_cmd
  7819 ;; This function uses a non-reentrant model
  7820 ;;
  7821                           
  7822                           	psect	text44
  7823   002C5A                     __ptext44:
  7824                           	callstack 0
  7825   002C5A                     i2_lcd_wr:
  7826                           	callstack 22
  7827                           
  7828                           ;incstack = 0
  7829                           ;i2lcd_wr@val stored from wreg
  7830   002C5A  6E01               	movwf	i2lcd_wr@val^0,c
  7831   002C5C                     
  7832                           ;lcd.c: 29: void lcd_wr(unsigned char val);lcd.c: 30: {;lcd.c: 31:   PORTD=val;
  7833   002C5C  C001  FF83         	movff	i2lcd_wr@val,3971	;volatile
  7834   002C60  0012               	return		;funcret
  7835   002C62                     __end_ofi2_lcd_wr:
  7836                           	callstack 0
  7837                           
  7838 ;; *************** function _read_keyb *****************
  7839 ;; Defined at:
  7840 ;;		line 169 in file "Interrupt.c"
  7841 ;; Parameters:    Size  Location     Type
  7842 ;;		None
  7843 ;; Auto vars:     Size  Location     Type
  7844 ;;  dado            1   10[COMRAM] unsigned char 
  7845 ;;  dado_RB5        1    9[COMRAM] unsigned char 
  7846 ;;  dado_RB4        1    8[COMRAM] unsigned char 
  7847 ;;  dado_RB3        1    7[COMRAM] unsigned char 
  7848 ;;  dado_RB2        1    6[COMRAM] unsigned char 
  7849 ;;  dado_RB1        1    5[COMRAM] unsigned char 
  7850 ;;  dado_RB0        1    4[COMRAM] unsigned char 
  7851 ;; Return value:  Size  Location     Type
  7852 ;;                  1    wreg      void 
  7853 ;; Registers used:
  7854 ;;		wreg, status,2, status,0, cstack
  7855 ;; Tracked objects:
  7856 ;;		On entry : 0/0
  7857 ;;		On exit  : 0/0
  7858 ;;		Unchanged: 0/0
  7859 ;; Data sizes:     COMRAM   BANK0   BANK1   BANK2   BANK3   BANK4   BANK5
  7860 ;;      Params:         0       0       0       0       0       0       0
  7861 ;;      Locals:         7       0       0       0       0       0       0
  7862 ;;      Temps:          0       0       0       0       0       0       0
  7863 ;;      Totals:         7       0       0       0       0       0       0
  7864 ;;Total ram usage:        7 bytes
  7865 ;; Hardware stack levels used: 1
  7866 ;; Hardware stack levels required when called: 2
  7867 ;; This function calls:
  7868 ;;		_f_int0
  7869 ;;		_f_int1
  7870 ;;		_f_int2
  7871 ;;		_f_int3
  7872 ;;		_f_int4
  7873 ;;		_f_int5
  7874 ;; This function is called by:
  7875 ;;		_f_timers
  7876 ;; This function uses a non-reentrant model
  7877 ;;
  7878                           
  7879                           	psect	text45
  7880   001A36                     __ptext45:
  7881                           	callstack 0
  7882   001A36                     _read_keyb:
  7883                           	callstack 22
  7884   001A36                     
  7885                           ;Interrupt.c: 171:     uint8_t dado, dado_RB0, dado_RB1, dado_RB2, dado_RB3, dado_RB4, d
      +                          ado_RB5;;Interrupt.c: 173:     static uint8_t m_dado_RB0 = 1, m_dado_RB1 = 1, m_dado_RB2
      +                           = 1, m_dado_RB3 = 1, m_dado_RB4 = 1, m_dado_RB5 = 1;;Interrupt.c: 175:     dado = PORTB
      +                          ;
  7886   001A36  CF81 F00B          	movff	3969,read_keyb@dado	;volatile
  7887                           
  7888                           ;Interrupt.c: 177:     if (dado & 0b00000001)
  7889   001A3A  A00B               	btfss	read_keyb@dado^0,0,c
  7890   001A3C  EF22  F00D         	goto	i2u274_41
  7891   001A40  EF24  F00D         	goto	i2u274_40
  7892   001A44                     i2u274_41:
  7893   001A44  EF28  F00D         	goto	i2l3463
  7894   001A48                     i2u274_40:
  7895   001A48                     
  7896                           ;Interrupt.c: 178:     {;Interrupt.c: 179:         dado_RB0 = 1;
  7897   001A48  0E01               	movlw	1
  7898   001A4A  6E05               	movwf	read_keyb@dado_RB0^0,c
  7899                           
  7900                           ;Interrupt.c: 180:     }
  7901   001A4C  EF2A  F00D         	goto	i2l3465
  7902   001A50                     i2l3463:
  7903                           
  7904                           ;Interrupt.c: 182:     {;Interrupt.c: 183:         dado_RB0 = 0;
  7905   001A50  0E00               	movlw	0
  7906   001A52  6E05               	movwf	read_keyb@dado_RB0^0,c
  7907   001A54                     i2l3465:
  7908                           
  7909                           ;Interrupt.c: 186:     if (dado & 0b00000010)
  7910   001A54  A20B               	btfss	read_keyb@dado^0,1,c
  7911   001A56  EF2F  F00D         	goto	i2u275_41
  7912   001A5A  EF31  F00D         	goto	i2u275_40
  7913   001A5E                     i2u275_41:
  7914   001A5E  EF35  F00D         	goto	i2l3469
  7915   001A62                     i2u275_40:
  7916   001A62                     
  7917                           ;Interrupt.c: 187:     {;Interrupt.c: 188:         dado_RB1 = 1;
  7918   001A62  0E01               	movlw	1
  7919   001A64  6E06               	movwf	read_keyb@dado_RB1^0,c
  7920                           
  7921                           ;Interrupt.c: 189:     }
  7922   001A66  EF37  F00D         	goto	i2l3471
  7923   001A6A                     i2l3469:
  7924                           
  7925                           ;Interrupt.c: 191:     {;Interrupt.c: 192:         dado_RB1 = 0;
  7926   001A6A  0E00               	movlw	0
  7927   001A6C  6E06               	movwf	read_keyb@dado_RB1^0,c
  7928   001A6E                     i2l3471:
  7929                           
  7930                           ;Interrupt.c: 195:     if (dado & 0b00000100)
  7931   001A6E  A40B               	btfss	read_keyb@dado^0,2,c
  7932   001A70  EF3C  F00D         	goto	i2u276_41
  7933   001A74  EF3E  F00D         	goto	i2u276_40
  7934   001A78                     i2u276_41:
  7935   001A78  EF42  F00D         	goto	i2l3475
  7936   001A7C                     i2u276_40:
  7937   001A7C                     
  7938                           ;Interrupt.c: 196:     {;Interrupt.c: 197:         dado_RB2 = 1;
  7939   001A7C  0E01               	movlw	1
  7940   001A7E  6E07               	movwf	read_keyb@dado_RB2^0,c
  7941                           
  7942                           ;Interrupt.c: 198:     }
  7943   001A80  EF44  F00D         	goto	i2l3477
  7944   001A84                     i2l3475:
  7945                           
  7946                           ;Interrupt.c: 200:     {;Interrupt.c: 201:         dado_RB2 = 0;
  7947   001A84  0E00               	movlw	0
  7948   001A86  6E07               	movwf	read_keyb@dado_RB2^0,c
  7949   001A88                     i2l3477:
  7950                           
  7951                           ;Interrupt.c: 205:     if (dado & 0b00001000)
  7952   001A88  A60B               	btfss	read_keyb@dado^0,3,c
  7953   001A8A  EF49  F00D         	goto	i2u277_41
  7954   001A8E  EF4B  F00D         	goto	i2u277_40
  7955   001A92                     i2u277_41:
  7956   001A92  EF4F  F00D         	goto	i2l3481
  7957   001A96                     i2u277_40:
  7958   001A96                     
  7959                           ;Interrupt.c: 206:     {;Interrupt.c: 207:         dado_RB3 = 1;
  7960   001A96  0E01               	movlw	1
  7961   001A98  6E08               	movwf	read_keyb@dado_RB3^0,c
  7962                           
  7963                           ;Interrupt.c: 208:     }
  7964   001A9A  EF51  F00D         	goto	i2l3483
  7965   001A9E                     i2l3481:
  7966                           
  7967                           ;Interrupt.c: 210:     {;Interrupt.c: 211:         dado_RB3 = 0;
  7968   001A9E  0E00               	movlw	0
  7969   001AA0  6E08               	movwf	read_keyb@dado_RB3^0,c
  7970   001AA2                     i2l3483:
  7971                           
  7972                           ;Interrupt.c: 214:     if (dado & 0b00010000)
  7973   001AA2  A80B               	btfss	read_keyb@dado^0,4,c
  7974   001AA4  EF56  F00D         	goto	i2u278_41
  7975   001AA8  EF58  F00D         	goto	i2u278_40
  7976   001AAC                     i2u278_41:
  7977   001AAC  EF5C  F00D         	goto	i2l3487
  7978   001AB0                     i2u278_40:
  7979   001AB0                     
  7980                           ;Interrupt.c: 215:     {;Interrupt.c: 216:         dado_RB4 = 1;
  7981   001AB0  0E01               	movlw	1
  7982   001AB2  6E09               	movwf	read_keyb@dado_RB4^0,c
  7983                           
  7984                           ;Interrupt.c: 217:     }
  7985   001AB4  EF5E  F00D         	goto	i2l3489
  7986   001AB8                     i2l3487:
  7987                           
  7988                           ;Interrupt.c: 220:     {;Interrupt.c: 221:         dado_RB4 = 0;
  7989   001AB8  0E00               	movlw	0
  7990   001ABA  6E09               	movwf	read_keyb@dado_RB4^0,c
  7991   001ABC                     i2l3489:
  7992                           
  7993                           ;Interrupt.c: 224:     if (dado & 0b00100000)
  7994   001ABC  AA0B               	btfss	read_keyb@dado^0,5,c
  7995   001ABE  EF63  F00D         	goto	i2u279_41
  7996   001AC2  EF65  F00D         	goto	i2u279_40
  7997   001AC6                     i2u279_41:
  7998   001AC6  EF69  F00D         	goto	i2l3493
  7999   001ACA                     i2u279_40:
  8000   001ACA                     
  8001                           ;Interrupt.c: 225:     {;Interrupt.c: 226:         dado_RB5 = 1;
  8002   001ACA  0E01               	movlw	1
  8003   001ACC  6E0A               	movwf	read_keyb@dado_RB5^0,c
  8004                           
  8005                           ;Interrupt.c: 227:     }
  8006   001ACE  EF6B  F00D         	goto	i2l3495
  8007   001AD2                     i2l3493:
  8008                           
  8009                           ;Interrupt.c: 230:     {;Interrupt.c: 231:         dado_RB5=0;
  8010   001AD2  0E00               	movlw	0
  8011   001AD4  6E0A               	movwf	read_keyb@dado_RB5^0,c
  8012   001AD6                     i2l3495:
  8013                           
  8014                           ;Interrupt.c: 234:     if (dado_RB0< m_dado_RB0)
  8015   001AD6  0100               	movlb	0	; () banked
  8016   001AD8  51FE               	movf	read_keyb@m_dado_RB0& (0+255),w,b
  8017   001ADA  5C05               	subwf	read_keyb@dado_RB0^0,w,c
  8018   001ADC  B0D8               	btfsc	status,0,c
  8019   001ADE  EF73  F00D         	goto	i2u280_41
  8020   001AE2  EF75  F00D         	goto	i2u280_40
  8021   001AE6                     i2u280_41:
  8022   001AE6  EF77  F00D         	goto	i2l3499
  8023   001AEA                     i2u280_40:
  8024   001AEA                     
  8025                           ; BSR set to: 0
  8026                           ;Interrupt.c: 235:     {;Interrupt.c: 236:         f_int0();
  8027   001AEA  EC38  F016         	call	_f_int0	;wreg free
  8028   001AEE                     i2l3499:
  8029                           
  8030                           ;Interrupt.c: 239:     if (dado_RB1 < m_dado_RB1)
  8031   001AEE  0100               	movlb	0	; () banked
  8032   001AF0  51FD               	movf	read_keyb@m_dado_RB1& (0+255),w,b
  8033   001AF2  5C06               	subwf	read_keyb@dado_RB1^0,w,c
  8034   001AF4  B0D8               	btfsc	status,0,c
  8035   001AF6  EF7F  F00D         	goto	i2u281_41
  8036   001AFA  EF81  F00D         	goto	i2u281_40
  8037   001AFE                     i2u281_41:
  8038   001AFE  EF83  F00D         	goto	i2l3503
  8039   001B02                     i2u281_40:
  8040   001B02                     
  8041                           ; BSR set to: 0
  8042                           ;Interrupt.c: 240:     {;Interrupt.c: 241:         f_int1();
  8043   001B02  EC37  F016         	call	_f_int1	;wreg free
  8044   001B06                     i2l3503:
  8045                           
  8046                           ;Interrupt.c: 244:     if (dado_RB2 < m_dado_RB2)
  8047   001B06  0100               	movlb	0	; () banked
  8048   001B08  51FC               	movf	read_keyb@m_dado_RB2& (0+255),w,b
  8049   001B0A  5C07               	subwf	read_keyb@dado_RB2^0,w,c
  8050   001B0C  B0D8               	btfsc	status,0,c
  8051   001B0E  EF8B  F00D         	goto	i2u282_41
  8052   001B12  EF8D  F00D         	goto	i2u282_40
  8053   001B16                     i2u282_41:
  8054   001B16  EF8F  F00D         	goto	i2l3507
  8055   001B1A                     i2u282_40:
  8056   001B1A                     
  8057                           ; BSR set to: 0
  8058                           ;Interrupt.c: 245:     {;Interrupt.c: 246:         f_int2();
  8059   001B1A  EC36  F016         	call	_f_int2	;wreg free
  8060   001B1E                     i2l3507:
  8061                           
  8062                           ;Interrupt.c: 249:     if (dado_RB3< m_dado_RB3)
  8063   001B1E  0100               	movlb	0	; () banked
  8064   001B20  51FB               	movf	read_keyb@m_dado_RB3& (0+255),w,b
  8065   001B22  5C08               	subwf	read_keyb@dado_RB3^0,w,c
  8066   001B24  B0D8               	btfsc	status,0,c
  8067   001B26  EF97  F00D         	goto	i2u283_41
  8068   001B2A  EF99  F00D         	goto	i2u283_40
  8069   001B2E                     i2u283_41:
  8070   001B2E  EF9B  F00D         	goto	i2l3511
  8071   001B32                     i2u283_40:
  8072   001B32                     
  8073                           ; BSR set to: 0
  8074                           ;Interrupt.c: 250:     {;Interrupt.c: 251:         f_int3();
  8075   001B32  ECE5  F015         	call	_f_int3	;wreg free
  8076   001B36                     i2l3511:
  8077                           
  8078                           ;Interrupt.c: 254:     if (dado_RB4 < m_dado_RB4)
  8079   001B36  0100               	movlb	0	; () banked
  8080   001B38  51FA               	movf	read_keyb@m_dado_RB4& (0+255),w,b
  8081   001B3A  5C09               	subwf	read_keyb@dado_RB4^0,w,c
  8082   001B3C  B0D8               	btfsc	status,0,c
  8083   001B3E  EFA3  F00D         	goto	i2u284_41
  8084   001B42  EFA5  F00D         	goto	i2u284_40
  8085   001B46                     i2u284_41:
  8086   001B46  EFA7  F00D         	goto	i2l3515
  8087   001B4A                     i2u284_40:
  8088   001B4A                     
  8089                           ; BSR set to: 0
  8090                           ;Interrupt.c: 255:     {;Interrupt.c: 256:         f_int4();
  8091   001B4A  EC44  F015         	call	_f_int4	;wreg free
  8092   001B4E                     i2l3515:
  8093                           
  8094                           ;Interrupt.c: 259:     if (dado_RB5 < m_dado_RB5)
  8095   001B4E  0100               	movlb	0	; () banked
  8096   001B50  51F9               	movf	read_keyb@m_dado_RB5& (0+255),w,b
  8097   001B52  5C0A               	subwf	read_keyb@dado_RB5^0,w,c
  8098   001B54  B0D8               	btfsc	status,0,c
  8099   001B56  EFAF  F00D         	goto	i2u285_41
  8100   001B5A  EFB1  F00D         	goto	i2u285_40
  8101   001B5E                     i2u285_41:
  8102   001B5E  EFB3  F00D         	goto	i2l3519
  8103   001B62                     i2u285_40:
  8104   001B62                     
  8105                           ; BSR set to: 0
  8106                           ;Interrupt.c: 260:     {;Interrupt.c: 261:         f_int5();
  8107   001B62  ECED  F014         	call	_f_int5	;wreg free
  8108   001B66                     i2l3519:
  8109                           
  8110                           ;Interrupt.c: 264:     m_dado_RB0 = dado_RB0;
  8111   001B66  C005  F0FE         	movff	read_keyb@dado_RB0,read_keyb@m_dado_RB0
  8112   001B6A                     
  8113                           ;Interrupt.c: 265:     m_dado_RB1 = dado_RB1;
  8114   001B6A  C006  F0FD         	movff	read_keyb@dado_RB1,read_keyb@m_dado_RB1
  8115   001B6E                     
  8116                           ;Interrupt.c: 266:     m_dado_RB2 = dado_RB2;
  8117   001B6E  C007  F0FC         	movff	read_keyb@dado_RB2,read_keyb@m_dado_RB2
  8118   001B72                     
  8119                           ;Interrupt.c: 267:     m_dado_RB3 = dado_RB3;
  8120   001B72  C008  F0FB         	movff	read_keyb@dado_RB3,read_keyb@m_dado_RB3
  8121   001B76                     
  8122                           ;Interrupt.c: 268:     m_dado_RB4 = dado_RB4;
  8123   001B76  C009  F0FA         	movff	read_keyb@dado_RB4,read_keyb@m_dado_RB4
  8124   001B7A                     
  8125                           ;Interrupt.c: 269:     m_dado_RB5 = dado_RB5;
  8126   001B7A  C00A  F0F9         	movff	read_keyb@dado_RB5,read_keyb@m_dado_RB5
  8127   001B7E  0012               	return		;funcret
  8128   001B80                     __end_of_read_keyb:
  8129                           	callstack 0
  8130                           
  8131 ;; *************** function _f_int5 *****************
  8132 ;; Defined at:
  8133 ;;		line 307 in file "Interrupt.c"
  8134 ;; Parameters:    Size  Location     Type
  8135 ;;		None
  8136 ;; Auto vars:     Size  Location     Type
  8137 ;;		None
  8138 ;; Return value:  Size  Location     Type
  8139 ;;                  1    wreg      void 
  8140 ;; Registers used:
  8141 ;;		wreg, status,2, status,0, cstack
  8142 ;; Tracked objects:
  8143 ;;		On entry : 0/0
  8144 ;;		On exit  : 0/0
  8145 ;;		Unchanged: 0/0
  8146 ;; Data sizes:     COMRAM   BANK0   BANK1   BANK2   BANK3   BANK4   BANK5
  8147 ;;      Params:         0       0       0       0       0       0       0
  8148 ;;      Locals:         0       0       0       0       0       0       0
  8149 ;;      Temps:          0       0       0       0       0       0       0
  8150 ;;      Totals:         0       0       0       0       0       0       0
  8151 ;;Total ram usage:        0 bytes
  8152 ;; Hardware stack levels used: 1
  8153 ;; Hardware stack levels required when called: 1
  8154 ;; This function calls:
  8155 ;;		_f_pwm
  8156 ;; This function is called by:
  8157 ;;		_read_keyb
  8158 ;; This function uses a non-reentrant model
  8159 ;;
  8160                           
  8161                           	psect	text46
  8162   0029DA                     __ptext46:
  8163                           	callstack 0
  8164   0029DA                     _f_int5:
  8165                           	callstack 22
  8166   0029DA                     
  8167                           ;Interrupt.c: 309:     if(Vent_enable)
  8168   0029DA  0100               	movlb	0	; () banked
  8169   0029DC  51E0               	movf	_Vent_enable& (0+255),w,b
  8170   0029DE  B4D8               	btfsc	status,2,c
  8171   0029E0  EFF4  F014         	goto	i2u253_41
  8172   0029E4  EFF6  F014         	goto	i2u253_40
  8173   0029E8                     i2u253_41:
  8174   0029E8  EFFC  F014         	goto	i2l3195
  8175   0029EC                     i2u253_40:
  8176   0029EC                     
  8177                           ; BSR set to: 0
  8178                           ;Interrupt.c: 310:         f_pwm(Duty_cycle);
  8179   0029EC  C0D6  F001         	movff	_Duty_cycle,f_pwm@duty
  8180   0029F0  C0D7  F002         	movff	_Duty_cycle+1,f_pwm@duty+1
  8181   0029F4  EC74  F015         	call	_f_pwm	;wreg free
  8182   0029F8                     i2l3195:
  8183                           
  8184                           ;Interrupt.c: 311:     if(contagem_iniciada)
  8185   0029F8  0100               	movlb	0	; () banked
  8186   0029FA  51DF               	movf	_contagem_iniciada& (0+255),w,b
  8187   0029FC  B4D8               	btfsc	status,2,c
  8188   0029FE  EF03  F015         	goto	i2u254_41
  8189   002A02  EF05  F015         	goto	i2u254_40
  8190   002A06                     i2u254_41:
  8191   002A06  EF09  F015         	goto	i2l3199
  8192   002A0A                     i2u254_40:
  8193   002A0A                     
  8194                           ; BSR set to: 0
  8195                           ;Interrupt.c: 312:     {;Interrupt.c: 313:         mostra_centesimo_de_segundo = memoria
      +                          _centesimo_de_segundo;
  8196   002A0A  C0E1  F07C         	movff	_memoria_centesimo_de_segundo,_mostra_centesimo_de_segundo
  8197                           
  8198                           ;Interrupt.c: 314:         mostra_segundo = memoria_segundo;
  8199   002A0E  C0E2  F07B         	movff	_memoria_segundo,_mostra_segundo
  8200   002A12                     i2l3199:
  8201                           
  8202                           ; BSR set to: 0
  8203                           ;Interrupt.c: 316:     start_counter = 1;
  8204   002A12  0E01               	movlw	1
  8205   002A14  6FE3               	movwf	_start_counter& (0+255),b
  8206   002A16                     
  8207                           ; BSR set to: 0
  8208   002A16  0012               	return		;funcret
  8209   002A18                     __end_of_f_int5:
  8210                           	callstack 0
  8211                           
  8212 ;; *************** function _f_int4 *****************
  8213 ;; Defined at:
  8214 ;;		line 295 in file "Interrupt.c"
  8215 ;; Parameters:    Size  Location     Type
  8216 ;;		None
  8217 ;; Auto vars:     Size  Location     Type
  8218 ;;		None
  8219 ;; Return value:  Size  Location     Type
  8220 ;;                  1    wreg      void 
  8221 ;; Registers used:
  8222 ;;		wreg, status,2, status,0, cstack
  8223 ;; Tracked objects:
  8224 ;;		On entry : 0/0
  8225 ;;		On exit  : 0/0
  8226 ;;		Unchanged: 0/0
  8227 ;; Data sizes:     COMRAM   BANK0   BANK1   BANK2   BANK3   BANK4   BANK5
  8228 ;;      Params:         0       0       0       0       0       0       0
  8229 ;;      Locals:         0       0       0       0       0       0       0
  8230 ;;      Temps:          0       0       0       0       0       0       0
  8231 ;;      Totals:         0       0       0       0       0       0       0
  8232 ;;Total ram usage:        0 bytes
  8233 ;; Hardware stack levels used: 1
  8234 ;; Hardware stack levels required when called: 1
  8235 ;; This function calls:
  8236 ;;		_f_pwm
  8237 ;; This function is called by:
  8238 ;;		_read_keyb
  8239 ;; This function uses a non-reentrant model
  8240 ;;
  8241                           
  8242                           	psect	text47
  8243   002A88                     __ptext47:
  8244                           	callstack 0
  8245   002A88                     _f_int4:
  8246                           	callstack 22
  8247   002A88                     
  8248                           ;Interrupt.c: 297:     f_pwm(Duty_cycle);
  8249   002A88  C0D6  F001         	movff	_Duty_cycle,f_pwm@duty
  8250   002A8C  C0D7  F002         	movff	_Duty_cycle+1,f_pwm@duty+1
  8251   002A90  EC74  F015         	call	_f_pwm	;wreg free
  8252   002A94                     
  8253                           ;Interrupt.c: 298:     start_counter = 1;
  8254   002A94  0E01               	movlw	1
  8255   002A96  0100               	movlb	0	; () banked
  8256   002A98  6FE3               	movwf	_start_counter& (0+255),b
  8257   002A9A                     
  8258                           ; BSR set to: 0
  8259                           ;Interrupt.c: 299:     memoria_segundo = mostra_segundo = segundo;
  8260   002A9A  C07D  F07B         	movff	_segundo,_mostra_segundo
  8261   002A9E  C07B  F0E2         	movff	_mostra_segundo,_memoria_segundo
  8262   002AA2                     
  8263                           ; BSR set to: 0
  8264                           ;Interrupt.c: 300:     memoria_centesimo_de_segundo = mostra_centesimo_de_segundo = cent
      +                          esimo_de_segundo;
  8265   002AA2  C0E4  F07C         	movff	_centesimo_de_segundo,_mostra_centesimo_de_segundo
  8266   002AA6  C07C  F0E1         	movff	_mostra_centesimo_de_segundo,_memoria_centesimo_de_segundo
  8267   002AAA                     
  8268                           ; BSR set to: 0
  8269                           ;Interrupt.c: 301:     contagem_iniciada = 1;
  8270   002AAA  0E01               	movlw	1
  8271   002AAC  6FDF               	movwf	_contagem_iniciada& (0+255),b
  8272   002AAE                     
  8273                           ; BSR set to: 0
  8274                           ;Interrupt.c: 302:     enable_time_config = 0;
  8275   002AAE  0E00               	movlw	0
  8276   002AB0  6E7E               	movwf	_enable_time_config^0,c
  8277   002AB2                     
  8278                           ; BSR set to: 0
  8279                           ;Interrupt.c: 303:     Vent_enable = 1;
  8280   002AB2  0E01               	movlw	1
  8281   002AB4  6FE0               	movwf	_Vent_enable& (0+255),b
  8282   002AB6                     
  8283                           ; BSR set to: 0
  8284                           ;Interrupt.c: 304:     imprime_linha2 = 1;
  8285   002AB6  0E01               	movlw	1
  8286   002AB8  6FFF               	movwf	_imprime_linha2& (0+255),b
  8287   002ABA                     
  8288                           ; BSR set to: 0
  8289   002ABA  0012               	return		;funcret
  8290   002ABC                     __end_of_f_int4:
  8291                           	callstack 0
  8292                           
  8293 ;; *************** function _f_int3 *****************
  8294 ;; Defined at:
  8295 ;;		line 287 in file "Interrupt.c"
  8296 ;; Parameters:    Size  Location     Type
  8297 ;;		None
  8298 ;; Auto vars:     Size  Location     Type
  8299 ;;		None
  8300 ;; Return value:  Size  Location     Type
  8301 ;;                  1    wreg      void 
  8302 ;; Registers used:
  8303 ;;		wreg, status,2, status,0, cstack
  8304 ;; Tracked objects:
  8305 ;;		On entry : 0/0
  8306 ;;		On exit  : 0/0
  8307 ;;		Unchanged: 0/0
  8308 ;; Data sizes:     COMRAM   BANK0   BANK1   BANK2   BANK3   BANK4   BANK5
  8309 ;;      Params:         0       0       0       0       0       0       0
  8310 ;;      Locals:         0       0       0       0       0       0       0
  8311 ;;      Temps:          0       0       0       0       0       0       0
  8312 ;;      Totals:         0       0       0       0       0       0       0
  8313 ;;Total ram usage:        0 bytes
  8314 ;; Hardware stack levels used: 1
  8315 ;; Hardware stack levels required when called: 1
  8316 ;; This function calls:
  8317 ;;		_f_pwm
  8318 ;; This function is called by:
  8319 ;;		_read_keyb
  8320 ;; This function uses a non-reentrant model
  8321 ;;
  8322                           
  8323                           	psect	text48
  8324   002BCA                     __ptext48:
  8325                           	callstack 0
  8326   002BCA                     _f_int3:
  8327                           	callstack 22
  8328   002BCA                     
  8329                           ;Interrupt.c: 289:     f_pwm(0);
  8330   002BCA  0E00               	movlw	0
  8331   002BCC  6E02               	movwf	(f_pwm@duty+1)^0,c
  8332   002BCE  0E00               	movlw	0
  8333   002BD0  6E01               	movwf	f_pwm@duty^0,c
  8334   002BD2  EC74  F015         	call	_f_pwm	;wreg free
  8335   002BD6                     
  8336                           ;Interrupt.c: 290:     enable_time_config = 1;
  8337   002BD6  0E01               	movlw	1
  8338   002BD8  6E7E               	movwf	_enable_time_config^0,c
  8339   002BDA                     
  8340                           ;Interrupt.c: 291:     Vent_enable = 0;
  8341   002BDA  0E00               	movlw	0
  8342   002BDC  0100               	movlb	0	; () banked
  8343   002BDE  6FE0               	movwf	_Vent_enable& (0+255),b
  8344   002BE0                     
  8345                           ; BSR set to: 0
  8346                           ;Interrupt.c: 292:     contagem_iniciada = 0;
  8347   002BE0  0E00               	movlw	0
  8348   002BE2  6FDF               	movwf	_contagem_iniciada& (0+255),b
  8349   002BE4                     
  8350                           ; BSR set to: 0
  8351   002BE4  0012               	return		;funcret
  8352   002BE6                     __end_of_f_int3:
  8353                           	callstack 0
  8354                           
  8355 ;; *************** function _f_int2 *****************
  8356 ;; Defined at:
  8357 ;;		line 282 in file "Interrupt.c"
  8358 ;; Parameters:    Size  Location     Type
  8359 ;;		None
  8360 ;; Auto vars:     Size  Location     Type
  8361 ;;		None
  8362 ;; Return value:  Size  Location     Type
  8363 ;;                  1    wreg      void 
  8364 ;; Registers used:
  8365 ;;		None
  8366 ;; Tracked objects:
  8367 ;;		On entry : 0/0
  8368 ;;		On exit  : 0/0
  8369 ;;		Unchanged: 0/0
  8370 ;; Data sizes:     COMRAM   BANK0   BANK1   BANK2   BANK3   BANK4   BANK5
  8371 ;;      Params:         0       0       0       0       0       0       0
  8372 ;;      Locals:         0       0       0       0       0       0       0
  8373 ;;      Temps:          0       0       0       0       0       0       0
  8374 ;;      Totals:         0       0       0       0       0       0       0
  8375 ;;Total ram usage:        0 bytes
  8376 ;; Hardware stack levels used: 1
  8377 ;; This function calls:
  8378 ;;		Nothing
  8379 ;; This function is called by:
  8380 ;;		_read_keyb
  8381 ;; This function uses a non-reentrant model
  8382 ;;
  8383                           
  8384                           	psect	text49
  8385   002C6C                     __ptext49:
  8386                           	callstack 0
  8387   002C6C                     _f_int2:
  8388                           	callstack 23
  8389   002C6C  0012               	return		;funcret
  8390   002C6E                     __end_of_f_int2:
  8391                           	callstack 0
  8392                           
  8393 ;; *************** function _f_int1 *****************
  8394 ;; Defined at:
  8395 ;;		line 277 in file "Interrupt.c"
  8396 ;; Parameters:    Size  Location     Type
  8397 ;;		None
  8398 ;; Auto vars:     Size  Location     Type
  8399 ;;		None
  8400 ;; Return value:  Size  Location     Type
  8401 ;;                  1    wreg      void 
  8402 ;; Registers used:
  8403 ;;		None
  8404 ;; Tracked objects:
  8405 ;;		On entry : 0/0
  8406 ;;		On exit  : 0/0
  8407 ;;		Unchanged: 0/0
  8408 ;; Data sizes:     COMRAM   BANK0   BANK1   BANK2   BANK3   BANK4   BANK5
  8409 ;;      Params:         0       0       0       0       0       0       0
  8410 ;;      Locals:         0       0       0       0       0       0       0
  8411 ;;      Temps:          0       0       0       0       0       0       0
  8412 ;;      Totals:         0       0       0       0       0       0       0
  8413 ;;Total ram usage:        0 bytes
  8414 ;; Hardware stack levels used: 1
  8415 ;; This function calls:
  8416 ;;		Nothing
  8417 ;; This function is called by:
  8418 ;;		_read_keyb
  8419 ;; This function uses a non-reentrant model
  8420 ;;
  8421                           
  8422                           	psect	text50
  8423   002C6E                     __ptext50:
  8424                           	callstack 0
  8425   002C6E                     _f_int1:
  8426                           	callstack 23
  8427   002C6E  0012               	return		;funcret
  8428   002C70                     __end_of_f_int1:
  8429                           	callstack 0
  8430                           
  8431 ;; *************** function _f_int0 *****************
  8432 ;; Defined at:
  8433 ;;		line 272 in file "Interrupt.c"
  8434 ;; Parameters:    Size  Location     Type
  8435 ;;		None
  8436 ;; Auto vars:     Size  Location     Type
  8437 ;;		None
  8438 ;; Return value:  Size  Location     Type
  8439 ;;                  1    wreg      void 
  8440 ;; Registers used:
  8441 ;;		None
  8442 ;; Tracked objects:
  8443 ;;		On entry : 0/0
  8444 ;;		On exit  : 0/0
  8445 ;;		Unchanged: 0/0
  8446 ;; Data sizes:     COMRAM   BANK0   BANK1   BANK2   BANK3   BANK4   BANK5
  8447 ;;      Params:         0       0       0       0       0       0       0
  8448 ;;      Locals:         0       0       0       0       0       0       0
  8449 ;;      Temps:          0       0       0       0       0       0       0
  8450 ;;      Totals:         0       0       0       0       0       0       0
  8451 ;;Total ram usage:        0 bytes
  8452 ;; Hardware stack levels used: 1
  8453 ;; This function calls:
  8454 ;;		Nothing
  8455 ;; This function is called by:
  8456 ;;		_read_keyb
  8457 ;; This function uses a non-reentrant model
  8458 ;;
  8459                           
  8460                           	psect	text51
  8461   002C70                     __ptext51:
  8462                           	callstack 0
  8463   002C70                     _f_int0:
  8464                           	callstack 23
  8465   002C70  0012               	return		;funcret
  8466   002C72                     __end_of_f_int0:
  8467                           	callstack 0
  8468                           
  8469 ;; *************** function _mux_display *****************
  8470 ;; Defined at:
  8471 ;;		line 14 in file "Display.c"
  8472 ;; Parameters:    Size  Location     Type
  8473 ;;		None
  8474 ;; Auto vars:     Size  Location     Type
  8475 ;;		None
  8476 ;; Return value:  Size  Location     Type
  8477 ;;                  1    wreg      void 
  8478 ;; Registers used:
  8479 ;;		wreg, fsr2l, fsr2h, status,2, status,0
  8480 ;; Tracked objects:
  8481 ;;		On entry : 0/0
  8482 ;;		On exit  : 0/0
  8483 ;;		Unchanged: 0/0
  8484 ;; Data sizes:     COMRAM   BANK0   BANK1   BANK2   BANK3   BANK4   BANK5
  8485 ;;      Params:         0       0       0       0       0       0       0
  8486 ;;      Locals:         0       0       0       0       0       0       0
  8487 ;;      Temps:          2       0       0       0       0       0       0
  8488 ;;      Totals:         2       0       0       0       0       0       0
  8489 ;;Total ram usage:        2 bytes
  8490 ;; Hardware stack levels used: 1
  8491 ;; This function calls:
  8492 ;;		Nothing
  8493 ;; This function is called by:
  8494 ;;		_f_timers
  8495 ;; This function uses a non-reentrant model
  8496 ;;
  8497                           
  8498                           	psect	text52
  8499   002324                     __ptext52:
  8500                           	callstack 0
  8501   002324                     _mux_display:
  8502                           	callstack 24
  8503   002324                     
  8504                           ;Display.c: 15:     static uint8_t estado = 0;;Display.c: 19:     switch (estado)
  8505   002324  EFCC  F011         	goto	i2l3417
  8506   002328                     i2l60:
  8507                           
  8508                           ; BSR set to: 0
  8509                           ;Display.c: 22:             LATA2 = 1;
  8510   002328  8489               	bsf	3977,2,c	;volatile
  8511                           
  8512                           ;Display.c: 23:             LATA5 = 0;
  8513   00232A  9A89               	bcf	3977,5,c	;volatile
  8514   00232C                     
  8515                           ; BSR set to: 0
  8516                           ;Display.c: 24:             LATD = conv7seg[display1];
  8517   00232C  0E22               	movlw	low _conv7seg
  8518   00232E  25ED               	addwf	_display1& (0+255),w,b
  8519   002330  6ED9               	movwf	fsr2l,c
  8520   002332  6ADA               	clrf	fsr2h,c
  8521   002334  0E01               	movlw	high _conv7seg
  8522   002336  22DA               	addwfc	fsr2h,f,c
  8523   002338  50DF               	movf	indf2,w,c
  8524   00233A  6E8C               	movwf	140,c	;volatile
  8525   00233C                     
  8526                           ; BSR set to: 0
  8527                           ;Display.c: 25:             estado = 1;
  8528   00233C  0E01               	movlw	1
  8529   00233E  6FE7               	movwf	mux_display@estado& (0+255),b
  8530                           
  8531                           ;Display.c: 26:             break;
  8532   002340  EFEA  F011         	goto	i2l65
  8533   002344                     i2l62:
  8534                           
  8535                           ; BSR set to: 0
  8536                           ;Display.c: 29:             LATA2 = 0;
  8537   002344  9489               	bcf	3977,2,c	;volatile
  8538                           
  8539                           ;Display.c: 30:             LATA3 = 1;
  8540   002346  8689               	bsf	3977,3,c	;volatile
  8541   002348                     
  8542                           ; BSR set to: 0
  8543                           ;Display.c: 31:             LATD = conv7seg[display2];
  8544   002348  0E22               	movlw	low _conv7seg
  8545   00234A  25EC               	addwf	_display2& (0+255),w,b
  8546   00234C  6ED9               	movwf	fsr2l,c
  8547   00234E  6ADA               	clrf	fsr2h,c
  8548   002350  0E01               	movlw	high _conv7seg
  8549   002352  22DA               	addwfc	fsr2h,f,c
  8550   002354  50DF               	movf	indf2,w,c
  8551   002356  6E8C               	movwf	140,c	;volatile
  8552   002358                     
  8553                           ; BSR set to: 0
  8554                           ;Display.c: 32:             estado = 2;
  8555   002358  0E02               	movlw	2
  8556   00235A  6FE7               	movwf	mux_display@estado& (0+255),b
  8557                           
  8558                           ;Display.c: 33:             break;
  8559   00235C  EFEA  F011         	goto	i2l65
  8560   002360                     i2l63:
  8561                           
  8562                           ; BSR set to: 0
  8563                           ;Display.c: 36:             LATA3 = 0;
  8564   002360  9689               	bcf	3977,3,c	;volatile
  8565                           
  8566                           ;Display.c: 37:             LATA4 = 1;
  8567   002362  8889               	bsf	3977,4,c	;volatile
  8568   002364                     
  8569                           ; BSR set to: 0
  8570                           ;Display.c: 38:             LATD = conv7seg[display3];
  8571   002364  0E22               	movlw	low _conv7seg
  8572   002366  25EB               	addwf	_display3& (0+255),w,b
  8573   002368  6ED9               	movwf	fsr2l,c
  8574   00236A  6ADA               	clrf	fsr2h,c
  8575   00236C  0E01               	movlw	high _conv7seg
  8576   00236E  22DA               	addwfc	fsr2h,f,c
  8577   002370  50DF               	movf	indf2,w,c
  8578   002372  6E8C               	movwf	140,c	;volatile
  8579   002374                     
  8580                           ; BSR set to: 0
  8581                           ;Display.c: 39:             estado = 3;
  8582   002374  0E03               	movlw	3
  8583   002376  6FE7               	movwf	mux_display@estado& (0+255),b
  8584                           
  8585                           ;Display.c: 40:             break;
  8586   002378  EFEA  F011         	goto	i2l65
  8587   00237C                     i2l64:
  8588                           
  8589                           ; BSR set to: 0
  8590                           ;Display.c: 43:             LATA4 = 0;
  8591   00237C  9889               	bcf	3977,4,c	;volatile
  8592                           
  8593                           ;Display.c: 44:             LATA5 = 1;
  8594   00237E  8A89               	bsf	3977,5,c	;volatile
  8595   002380                     
  8596                           ; BSR set to: 0
  8597                           ;Display.c: 45:             LATD = conv7seg[display4];
  8598   002380  0E22               	movlw	low _conv7seg
  8599   002382  25EA               	addwf	_display4& (0+255),w,b
  8600   002384  6ED9               	movwf	fsr2l,c
  8601   002386  6ADA               	clrf	fsr2h,c
  8602   002388  0E01               	movlw	high _conv7seg
  8603   00238A  22DA               	addwfc	fsr2h,f,c
  8604   00238C  50DF               	movf	indf2,w,c
  8605   00238E  6E8C               	movwf	140,c	;volatile
  8606   002390                     
  8607                           ; BSR set to: 0
  8608                           ;Display.c: 46:             estado = 0;
  8609   002390  0E00               	movlw	0
  8610   002392  6FE7               	movwf	mux_display@estado& (0+255),b
  8611                           
  8612                           ;Display.c: 47:             break;
  8613   002394  EFEA  F011         	goto	i2l65
  8614   002398                     i2l3417:
  8615   002398  0100               	movlb	0	; () banked
  8616   00239A  51E7               	movf	mux_display@estado& (0+255),w,b
  8617   00239C  6E01               	movwf	??_mux_display^0,c
  8618   00239E  6A02               	clrf	(??_mux_display+1)^0,c
  8619                           
  8620                           ; Switch on 2 bytes has been partitioned into a top level switch of size 1, and 1 sub-sw
      +                          itches
  8621                           ; Switch size 1, requested type "simple"
  8622                           ; Number of cases is 1, Range of values is 0 to 0
  8623                           ; switch strategies available:
  8624                           ; Name         Instructions Cycles
  8625                           ; simple_byte            4     3 (average)
  8626                           ;	Chosen strategy is simple_byte
  8627   0023A0  5002               	movf	(??_mux_display+1)^0,w,c
  8628   0023A2  0A00               	xorlw	0	; case 0
  8629   0023A4  B4D8               	btfsc	status,2,c
  8630   0023A6  EFD7  F011         	goto	i2l4163
  8631   0023AA  EFEA  F011         	goto	i2l65
  8632   0023AE                     i2l4163:
  8633                           
  8634                           ; BSR set to: 0
  8635                           ; Switch size 1, requested type "simple"
  8636                           ; Number of cases is 4, Range of values is 0 to 3
  8637                           ; switch strategies available:
  8638                           ; Name         Instructions Cycles
  8639                           ; simple_byte           13     7 (average)
  8640                           ;	Chosen strategy is simple_byte
  8641   0023AE  5001               	movf	??_mux_display^0,w,c
  8642   0023B0  0A00               	xorlw	0	; case 0
  8643   0023B2  B4D8               	btfsc	status,2,c
  8644   0023B4  EF94  F011         	goto	i2l60
  8645   0023B8  0A01               	xorlw	1	; case 1
  8646   0023BA  B4D8               	btfsc	status,2,c
  8647   0023BC  EFA2  F011         	goto	i2l62
  8648   0023C0  0A03               	xorlw	3	; case 2
  8649   0023C2  B4D8               	btfsc	status,2,c
  8650   0023C4  EFB0  F011         	goto	i2l63
  8651   0023C8  0A01               	xorlw	1	; case 3
  8652   0023CA  B4D8               	btfsc	status,2,c
  8653   0023CC  EFBE  F011         	goto	i2l64
  8654   0023D0  EFEA  F011         	goto	i2l65
  8655   0023D4                     i2l65:
  8656                           
  8657                           ; BSR set to: 0
  8658   0023D4  0012               	return		;funcret
  8659   0023D6                     __end_of_mux_display:
  8660                           	callstack 0
  8661                           
  8662 ;; *************** function _clock_regressive *****************
  8663 ;; Defined at:
  8664 ;;		line 319 in file "Interrupt.c"
  8665 ;; Parameters:    Size  Location     Type
  8666 ;;		None
  8667 ;; Auto vars:     Size  Location     Type
  8668 ;;		None
  8669 ;; Return value:  Size  Location     Type
  8670 ;;                  1    wreg      void 
  8671 ;; Registers used:
  8672 ;;		wreg, status,2, status,0, cstack
  8673 ;; Tracked objects:
  8674 ;;		On entry : 0/0
  8675 ;;		On exit  : 0/0
  8676 ;;		Unchanged: 0/0
  8677 ;; Data sizes:     COMRAM   BANK0   BANK1   BANK2   BANK3   BANK4   BANK5
  8678 ;;      Params:         0       0       0       0       0       0       0
  8679 ;;      Locals:         0       0       0       0       0       0       0
  8680 ;;      Temps:          0       0       0       0       0       0       0
  8681 ;;      Totals:         0       0       0       0       0       0       0
  8682 ;;Total ram usage:        0 bytes
  8683 ;; Hardware stack levels used: 1
  8684 ;; Hardware stack levels required when called: 1
  8685 ;; This function calls:
  8686 ;;		_f_pwm
  8687 ;; This function is called by:
  8688 ;;		_f_timers
  8689 ;; This function uses a non-reentrant model
  8690 ;;
  8691                           
  8692                           	psect	text53
  8693   002620                     __ptext53:
  8694                           	callstack 0
  8695   002620                     _clock_regressive:
  8696                           	callstack 23
  8697   002620                     
  8698                           ;Interrupt.c: 322:     if(mostra_centesimo_de_segundo < 1 && mostra_segundo)
  8699   002620  507C               	movf	_mostra_centesimo_de_segundo^0,w,c
  8700   002622  A4D8               	btfss	status,2,c
  8701   002624  EF16  F013         	goto	i2u286_41
  8702   002628  EF18  F013         	goto	i2u286_40
  8703   00262C                     i2u286_41:
  8704   00262C  EF25  F013         	goto	i2l3541
  8705   002630                     i2u286_40:
  8706   002630  507B               	movf	_mostra_segundo^0,w,c
  8707   002632  B4D8               	btfsc	status,2,c
  8708   002634  EF1E  F013         	goto	i2u287_41
  8709   002638  EF20  F013         	goto	i2u287_40
  8710   00263C                     i2u287_41:
  8711   00263C  EF25  F013         	goto	i2l3541
  8712   002640                     i2u287_40:
  8713   002640                     
  8714                           ;Interrupt.c: 323:     {;Interrupt.c: 324:         mostra_centesimo_de_segundo = 59;
  8715   002640  0E3B               	movlw	59
  8716   002642  6E7C               	movwf	_mostra_centesimo_de_segundo^0,c
  8717   002644                     
  8718                           ;Interrupt.c: 325:         mostra_segundo--;
  8719   002644  067B               	decf	_mostra_segundo^0,f,c
  8720   002646  EF48  F013         	goto	i2l376
  8721   00264A                     i2l3541:
  8722                           
  8723                           ;Interrupt.c: 329:     mostra_centesimo_de_segundo--;
  8724   00264A  067C               	decf	_mostra_centesimo_de_segundo^0,f,c
  8725   00264C                     
  8726                           ;Interrupt.c: 331:     if(mostra_segundo < 1 && mostra_centesimo_de_segundo < 1)
  8727   00264C  507B               	movf	_mostra_segundo^0,w,c
  8728   00264E  A4D8               	btfss	status,2,c
  8729   002650  EF2C  F013         	goto	i2u288_41
  8730   002654  EF2E  F013         	goto	i2u288_40
  8731   002658                     i2u288_41:
  8732   002658  EF48  F013         	goto	i2l376
  8733   00265C                     i2u288_40:
  8734   00265C  507C               	movf	_mostra_centesimo_de_segundo^0,w,c
  8735   00265E  A4D8               	btfss	status,2,c
  8736   002660  EF34  F013         	goto	i2u289_41
  8737   002664  EF36  F013         	goto	i2u289_40
  8738   002668                     i2u289_41:
  8739   002668  EF48  F013         	goto	i2l376
  8740   00266C                     i2u289_40:
  8741   00266C                     
  8742                           ;Interrupt.c: 332:     {;Interrupt.c: 333:         mostra_segundo = mostra_centesimo_de_
      +                          segundo = 0;
  8743   00266C  0E00               	movlw	0
  8744   00266E  6E7C               	movwf	_mostra_centesimo_de_segundo^0,c
  8745   002670  C07C  F07B         	movff	_mostra_centesimo_de_segundo,_mostra_segundo
  8746                           
  8747                           ;Interrupt.c: 334:         start_counter = 0;
  8748   002674  0E00               	movlw	0
  8749   002676  0100               	movlb	0	; () banked
  8750   002678  6FE3               	movwf	_start_counter& (0+255),b
  8751   00267A                     
  8752                           ; BSR set to: 0
  8753                           ;Interrupt.c: 335:         f_pwm(0);
  8754   00267A  0E00               	movlw	0
  8755   00267C  6E02               	movwf	(f_pwm@duty+1)^0,c
  8756   00267E  0E00               	movlw	0
  8757   002680  6E01               	movwf	f_pwm@duty^0,c
  8758   002682  EC74  F015         	call	_f_pwm	;wreg free
  8759   002686                     
  8760                           ;Interrupt.c: 336:         enable_time_config = 1;
  8761   002686  0E01               	movlw	1
  8762   002688  6E7E               	movwf	_enable_time_config^0,c
  8763   00268A                     
  8764                           ;Interrupt.c: 337:         contagem_iniciada = 0;
  8765   00268A  0E00               	movlw	0
  8766   00268C  0100               	movlb	0	; () banked
  8767   00268E  6FDF               	movwf	_contagem_iniciada& (0+255),b
  8768   002690                     i2l376:
  8769   002690  0012               	return		;funcret
  8770   002692                     __end_of_clock_regressive:
  8771                           	callstack 0
  8772                           
  8773 ;; *************** function _f_pwm *****************
  8774 ;; Defined at:
  8775 ;;		line 37 in file "p2gI.c"
  8776 ;; Parameters:    Size  Location     Type
  8777 ;;  duty            2    0[COMRAM] unsigned short 
  8778 ;; Auto vars:     Size  Location     Type
  8779 ;;		None
  8780 ;; Return value:  Size  Location     Type
  8781 ;;                  1    wreg      void 
  8782 ;; Registers used:
  8783 ;;		wreg, status,2, status,0
  8784 ;; Tracked objects:
  8785 ;;		On entry : 0/0
  8786 ;;		On exit  : 0/0
  8787 ;;		Unchanged: 0/0
  8788 ;; Data sizes:     COMRAM   BANK0   BANK1   BANK2   BANK3   BANK4   BANK5
  8789 ;;      Params:         2       0       0       0       0       0       0
  8790 ;;      Locals:         0       0       0       0       0       0       0
  8791 ;;      Temps:          2       0       0       0       0       0       0
  8792 ;;      Totals:         4       0       0       0       0       0       0
  8793 ;;Total ram usage:        4 bytes
  8794 ;; Hardware stack levels used: 1
  8795 ;; This function calls:
  8796 ;;		Nothing
  8797 ;; This function is called by:
  8798 ;;		_f_int3
  8799 ;;		_f_int4
  8800 ;;		_f_int5
  8801 ;;		_clock_regressive
  8802 ;; This function uses a non-reentrant model
  8803 ;;
  8804                           
  8805                           	psect	text54
  8806   002AE8                     __ptext54:
  8807                           	callstack 0
  8808   002AE8                     _f_pwm:
  8809                           	callstack 22
  8810   002AE8                     
  8811                           ;p2gI.c: 37: void f_pwm(uint16_t duty);p2gI.c: 38: {;p2gI.c: 39:     CCP1CON &= 0b110011
      +                          11;
  8812   002AE8  0ECF               	movlw	207
  8813   002AEA  16BD               	andwf	189,f,c	;volatile
  8814                           
  8815                           ;p2gI.c: 40:     CCP1CON |= ((duty & 0b11) << 4);
  8816   002AEC  C001  F003         	movff	f_pwm@duty,??_f_pwm	;volatile
  8817   002AF0  0E03               	movlw	3
  8818   002AF2  1603               	andwf	??_f_pwm^0,f,c
  8819   002AF4  3803               	swapf	??_f_pwm^0,w,c
  8820   002AF6  0BF0               	andlw	240
  8821   002AF8  12BD               	iorwf	189,f,c	;volatile
  8822                           
  8823                           ;p2gI.c: 41:     CCPR1L = duty >> 2;
  8824   002AFA  C001  F003         	movff	f_pwm@duty,??_f_pwm
  8825   002AFE  C002  F004         	movff	f_pwm@duty+1,??_f_pwm+1
  8826   002B02  90D8               	bcf	status,0,c
  8827   002B04  3204               	rrcf	(??_f_pwm+1)^0,f,c
  8828   002B06  3203               	rrcf	??_f_pwm^0,f,c
  8829   002B08  90D8               	bcf	status,0,c
  8830   002B0A  3204               	rrcf	(??_f_pwm+1)^0,f,c
  8831   002B0C  3203               	rrcf	??_f_pwm^0,f,c
  8832   002B0E  5003               	movf	??_f_pwm^0,w,c
  8833   002B10  6EBE               	movwf	190,c	;volatile
  8834   002B12  0012               	return		;funcret
  8835   002B14                     __end_of_f_pwm:
  8836                           	callstack 0
  8837                           
  8838 ;; *************** function _ADC_maq *****************
  8839 ;; Defined at:
  8840 ;;		line 32 in file "ADC.c"
  8841 ;; Parameters:    Size  Location     Type
  8842 ;;		None
  8843 ;; Auto vars:     Size  Location     Type
  8844 ;;		None
  8845 ;; Return value:  Size  Location     Type
  8846 ;;                  1    wreg      void 
  8847 ;; Registers used:
  8848 ;;		wreg, status,2, status,0, cstack
  8849 ;; Tracked objects:
  8850 ;;		On entry : 0/0
  8851 ;;		On exit  : 0/0
  8852 ;;		Unchanged: 0/0
  8853 ;; Data sizes:     COMRAM   BANK0   BANK1   BANK2   BANK3   BANK4   BANK5
  8854 ;;      Params:         0       0       0       0       0       0       0
  8855 ;;      Locals:         0       0       0       0       0       0       0
  8856 ;;      Temps:          2       0       0       0       0       0       0
  8857 ;;      Totals:         2       0       0       0       0       0       0
  8858 ;;Total ram usage:        2 bytes
  8859 ;; Hardware stack levels used: 1
  8860 ;; Hardware stack levels required when called: 1
  8861 ;; This function calls:
  8862 ;;		_select_channel
  8863 ;;		i2_start_AD_conversion
  8864 ;; This function is called by:
  8865 ;;		_f_timers
  8866 ;; This function uses a non-reentrant model
  8867 ;;
  8868                           
  8869                           	psect	text55
  8870   002692                     __ptext55:
  8871                           	callstack 0
  8872   002692                     _ADC_maq:
  8873                           	callstack 23
  8874   002692                     
  8875                           ;ADC.c: 34:     static uint8_t estado = 0;;ADC.c: 36:     switch (estado)
  8876   002692  EF67  F013         	goto	i2l3389
  8877   002696                     i2l27:
  8878                           
  8879                           ; BSR set to: 0
  8880                           ;ADC.c: 39:             AD_data[0] = ADRES;
  8881   002696  CFC3 F135          	movff	4035,_AD_data	;volatile
  8882   00269A  CFC4 F136          	movff	4036,_AD_data+1	;volatile
  8883   00269E                     
  8884                           ; BSR set to: 0
  8885                           ;ADC.c: 40:             select_channel(1);
  8886   00269E  0E01               	movlw	1
  8887   0026A0  EC18  F016         	call	_select_channel
  8888   0026A4                     
  8889                           ;ADC.c: 41:             start_AD_conversion();
  8890   0026A4  EC33  F016         	call	i2_start_AD_conversion	;wreg free
  8891   0026A8                     
  8892                           ;ADC.c: 42:             estado = 1;
  8893   0026A8  0E01               	movlw	1
  8894   0026AA  0100               	movlb	0	; () banked
  8895   0026AC  6FEE               	movwf	ADC_maq@estado& (0+255),b
  8896                           
  8897                           ;ADC.c: 43:             break;
  8898   0026AE  EF7D  F013         	goto	i2l30
  8899   0026B2                     i2l29:
  8900                           
  8901                           ; BSR set to: 0
  8902                           ;ADC.c: 46:             AD_data[1] = ADRES;
  8903   0026B2  CFC3 F137          	movff	4035,_AD_data+2	;volatile
  8904   0026B6  CFC4 F138          	movff	4036,_AD_data+3	;volatile
  8905   0026BA                     
  8906                           ; BSR set to: 0
  8907                           ;ADC.c: 47:             select_channel(0);
  8908   0026BA  0E00               	movlw	0
  8909   0026BC  EC18  F016         	call	_select_channel
  8910   0026C0                     
  8911                           ;ADC.c: 48:             start_AD_conversion();
  8912   0026C0  EC33  F016         	call	i2_start_AD_conversion	;wreg free
  8913   0026C4                     
  8914                           ;ADC.c: 49:             estado = 0;
  8915   0026C4  0E00               	movlw	0
  8916   0026C6  0100               	movlb	0	; () banked
  8917   0026C8  6FEE               	movwf	ADC_maq@estado& (0+255),b
  8918                           
  8919                           ;ADC.c: 50:             break;
  8920   0026CA  EF7D  F013         	goto	i2l30
  8921   0026CE                     i2l3389:
  8922   0026CE  0100               	movlb	0	; () banked
  8923   0026D0  51EE               	movf	ADC_maq@estado& (0+255),w,b
  8924   0026D2  6E02               	movwf	??_ADC_maq^0,c
  8925   0026D4  6A03               	clrf	(??_ADC_maq+1)^0,c
  8926                           
  8927                           ; Switch on 2 bytes has been partitioned into a top level switch of size 1, and 1 sub-sw
      +                          itches
  8928                           ; Switch size 1, requested type "simple"
  8929                           ; Number of cases is 1, Range of values is 0 to 0
  8930                           ; switch strategies available:
  8931                           ; Name         Instructions Cycles
  8932                           ; simple_byte            4     3 (average)
  8933                           ;	Chosen strategy is simple_byte
  8934   0026D6  5003               	movf	(??_ADC_maq+1)^0,w,c
  8935   0026D8  0A00               	xorlw	0	; case 0
  8936   0026DA  B4D8               	btfsc	status,2,c
  8937   0026DC  EF72  F013         	goto	i2l4165
  8938   0026E0  EF7D  F013         	goto	i2l30
  8939   0026E4                     i2l4165:
  8940                           
  8941                           ; BSR set to: 0
  8942                           ; Switch size 1, requested type "simple"
  8943                           ; Number of cases is 2, Range of values is 0 to 1
  8944                           ; switch strategies available:
  8945                           ; Name         Instructions Cycles
  8946                           ; simple_byte            7     4 (average)
  8947                           ;	Chosen strategy is simple_byte
  8948   0026E4  5002               	movf	??_ADC_maq^0,w,c
  8949   0026E6  0A00               	xorlw	0	; case 0
  8950   0026E8  B4D8               	btfsc	status,2,c
  8951   0026EA  EF4B  F013         	goto	i2l27
  8952   0026EE  0A01               	xorlw	1	; case 1
  8953   0026F0  B4D8               	btfsc	status,2,c
  8954   0026F2  EF59  F013         	goto	i2l29
  8955   0026F6  EF7D  F013         	goto	i2l30
  8956   0026FA                     i2l30:
  8957                           
  8958                           ; BSR set to: 0
  8959   0026FA  0012               	return		;funcret
  8960   0026FC                     __end_of_ADC_maq:
  8961                           	callstack 0
  8962                           
  8963 ;; *************** function i2_start_AD_conversion *****************
  8964 ;; Defined at:
  8965 ;;		line 19 in file "ADC.c"
  8966 ;; Parameters:    Size  Location     Type
  8967 ;;		None
  8968 ;; Auto vars:     Size  Location     Type
  8969 ;;		None
  8970 ;; Return value:  Size  Location     Type
  8971 ;;                  1    wreg      void 
  8972 ;; Registers used:
  8973 ;;		None
  8974 ;; Tracked objects:
  8975 ;;		On entry : 0/0
  8976 ;;		On exit  : 0/0
  8977 ;;		Unchanged: 0/0
  8978 ;; Data sizes:     COMRAM   BANK0   BANK1   BANK2   BANK3   BANK4   BANK5
  8979 ;;      Params:         0       0       0       0       0       0       0
  8980 ;;      Locals:         0       0       0       0       0       0       0
  8981 ;;      Temps:          0       0       0       0       0       0       0
  8982 ;;      Totals:         0       0       0       0       0       0       0
  8983 ;;Total ram usage:        0 bytes
  8984 ;; Hardware stack levels used: 1
  8985 ;; This function calls:
  8986 ;;		Nothing
  8987 ;; This function is called by:
  8988 ;;		_ADC_maq
  8989 ;; This function uses a non-reentrant model
  8990 ;;
  8991                           
  8992                           	psect	text56
  8993   002C66                     __ptext56:
  8994                           	callstack 0
  8995   002C66                     i2_start_AD_conversion:
  8996                           	callstack 23
  8997   002C66                     
  8998                           ;ADC.c: 21:     GO = 1;
  8999   002C66  82C2               	bsf	4034,1,c	;volatile
  9000   002C68  0012               	return		;funcret
  9001   002C6A                     __end_ofi2_start_AD_conversion:
  9002                           	callstack 0
  9003                           
  9004 ;; *************** function _select_channel *****************
  9005 ;; Defined at:
  9006 ;;		line 24 in file "ADC.c"
  9007 ;; Parameters:    Size  Location     Type
  9008 ;;  channel         1    wreg     unsigned char 
  9009 ;; Auto vars:     Size  Location     Type
  9010 ;;  channel         1    0[COMRAM] unsigned char 
  9011 ;; Return value:  Size  Location     Type
  9012 ;;                  1    wreg      void 
  9013 ;; Registers used:
  9014 ;;		wreg, status,2, status,0
  9015 ;; Tracked objects:
  9016 ;;		On entry : 0/0
  9017 ;;		On exit  : 0/0
  9018 ;;		Unchanged: 0/0
  9019 ;; Data sizes:     COMRAM   BANK0   BANK1   BANK2   BANK3   BANK4   BANK5
  9020 ;;      Params:         0       0       0       0       0       0       0
  9021 ;;      Locals:         1       0       0       0       0       0       0
  9022 ;;      Temps:          0       0       0       0       0       0       0
  9023 ;;      Totals:         1       0       0       0       0       0       0
  9024 ;;Total ram usage:        1 bytes
  9025 ;; Hardware stack levels used: 1
  9026 ;; This function calls:
  9027 ;;		Nothing
  9028 ;; This function is called by:
  9029 ;;		_ADC_maq
  9030 ;; This function uses a non-reentrant model
  9031 ;;
  9032                           
  9033                           	psect	text57
  9034   002C30                     __ptext57:
  9035                           	callstack 0
  9036   002C30                     _select_channel:
  9037                           	callstack 23
  9038                           
  9039                           ;incstack = 0
  9040                           ;select_channel@channel stored from wreg
  9041   002C30  6E01               	movwf	select_channel@channel^0,c
  9042   002C32                     
  9043                           ;ADC.c: 24: void select_channel(uint8_t channel);ADC.c: 25: {;ADC.c: 29:     ADCON0 = 0b
      +                          00000001 | (channel << 2);
  9044   002C32  4401               	rlncf	select_channel@channel^0,w,c
  9045   002C34  46E8               	rlncf	wreg,f,c
  9046   002C36  0BFC               	andlw	252
  9047   002C38  0901               	iorlw	1
  9048   002C3A  6EC2               	movwf	194,c	;volatile
  9049   002C3C  0012               	return		;funcret
  9050   002C3E                     __end_of_select_channel:
  9051                           	callstack 0
  9052                           
  9053                           	psect	rparam
  9054   000000                     
  9055                           	psect	temp
  9056   00007F                     btemp:
  9057                           	callstack 0
  9058   00007F                     	ds	1
  9059   000000                     int$flags	set	btemp
  9060   000000                     wtemp8	set	btemp+1
  9061   000000                     ttemp5	set	btemp+1
  9062   000000                     ttemp6	set	btemp+4
  9063   000000                     ttemp7	set	btemp+8
  9064                           
  9065                           	psect	idloc
  9066                           
  9067                           ;Config register IDLOC0 @ 0x200000
  9068                           ;	unspecified, using default values
  9069   200000                     	org	2097152
  9070   200000  FF                 	db	255
  9071                           
  9072                           ;Config register IDLOC1 @ 0x200001
  9073                           ;	unspecified, using default values
  9074   200001                     	org	2097153
  9075   200001  FF                 	db	255
  9076                           
  9077                           ;Config register IDLOC2 @ 0x200002
  9078                           ;	unspecified, using default values
  9079   200002                     	org	2097154
  9080   200002  FF                 	db	255
  9081                           
  9082                           ;Config register IDLOC3 @ 0x200003
  9083                           ;	unspecified, using default values
  9084   200003                     	org	2097155
  9085   200003  FF                 	db	255
  9086                           
  9087                           ;Config register IDLOC4 @ 0x200004
  9088                           ;	unspecified, using default values
  9089   200004                     	org	2097156
  9090   200004  FF                 	db	255
  9091                           
  9092                           ;Config register IDLOC5 @ 0x200005
  9093                           ;	unspecified, using default values
  9094   200005                     	org	2097157
  9095   200005  FF                 	db	255
  9096                           
  9097                           ;Config register IDLOC6 @ 0x200006
  9098                           ;	unspecified, using default values
  9099   200006                     	org	2097158
  9100   200006  FF                 	db	255
  9101                           
  9102                           ;Config register IDLOC7 @ 0x200007
  9103                           ;	unspecified, using default values
  9104   200007                     	org	2097159
  9105   200007  FF                 	db	255
  9106                           
  9107                           	psect	config
  9108                           
  9109                           ; Padding undefined space
  9110   300000                     	org	3145728
  9111   300000  FF                 	db	255
  9112                           
  9113                           ;Config register CONFIG1H @ 0x300001
  9114                           ;	Oscillator Selection bits
  9115                           ;	OSC = HS, HS oscillator
  9116                           ;	Fail-Safe Clock Monitor Enable bit
  9117                           ;	FCMEN = OFF, Fail-Safe Clock Monitor disabled
  9118                           ;	Internal/External Oscillator Switchover bit
  9119                           ;	IESO = OFF, Oscillator Switchover mode disabled
  9120   300001                     	org	3145729
  9121   300001  02                 	db	2
  9122                           
  9123                           ;Config register CONFIG2L @ 0x300002
  9124                           ;	Power-up Timer Enable bit
  9125                           ;	PWRT = OFF, PWRT disabled
  9126                           ;	Brown-out Reset Enable bits
  9127                           ;	BOREN = SBORDIS, Brown-out Reset enabled in hardware only (SBOREN is disabled)
  9128                           ;	Brown Out Reset Voltage bits
  9129                           ;	BORV = 3, Minimum setting
  9130   300002                     	org	3145730
  9131   300002  1F                 	db	31
  9132                           
  9133                           ;Config register CONFIG2H @ 0x300003
  9134                           ;	Watchdog Timer Enable bit
  9135                           ;	WDT = OFF, WDT disabled (control is placed on the SWDTEN bit)
  9136                           ;	Watchdog Timer Postscale Select bits
  9137                           ;	WDTPS = 32768, 1:32768
  9138   300003                     	org	3145731
  9139   300003  1E                 	db	30
  9140                           
  9141                           ; Padding undefined space
  9142   300004                     	org	3145732
  9143   300004  FF                 	db	255
  9144                           
  9145                           ;Config register CONFIG3H @ 0x300005
  9146                           ;	CCP2 MUX bit
  9147                           ;	CCP2MX = PORTC, CCP2 input/output is multiplexed with RC1
  9148                           ;	PORTB A/D Enable bit
  9149                           ;	PBADEN = ON, PORTB<4:0> pins are configured as analog input channels on Reset
  9150                           ;	Low-Power Timer1 Oscillator Enable bit
  9151                           ;	LPT1OSC = OFF, Timer1 configured for higher power operation
  9152                           ;	MCLR Pin Enable bit
  9153                           ;	MCLRE = ON, MCLR pin enabled; RE3 input pin disabled
  9154   300005                     	org	3145733
  9155   300005  83                 	db	131
  9156                           
  9157                           ;Config register CONFIG4L @ 0x300006
  9158                           ;	Stack Full/Underflow Reset Enable bit
  9159                           ;	STVREN = ON, Stack full/underflow will cause Reset
  9160                           ;	Single-Supply ICSP Enable bit
  9161                           ;	LVP = OFF, Single-Supply ICSP disabled
  9162                           ;	Extended Instruction Set Enable bit
  9163                           ;	XINST = OFF, Instruction set extension and Indexed Addressing mode disabled (Legacy mo
      +                          de)
  9164                           ;	Background Debugger Enable bit
  9165                           ;	DEBUG = 0x1, unprogrammed default
  9166   300006                     	org	3145734
  9167   300006  81                 	db	129
  9168                           
  9169                           ; Padding undefined space
  9170   300007                     	org	3145735
  9171   300007  FF                 	db	255
  9172                           
  9173                           ;Config register CONFIG5L @ 0x300008
  9174                           ;	Code Protection bit
  9175                           ;	CP0 = OFF, Block 0 (000800-001FFFh) not code-protected
  9176                           ;	Code Protection bit
  9177                           ;	CP1 = OFF, Block 1 (002000-003FFFh) not code-protected
  9178                           ;	Code Protection bit
  9179                           ;	CP2 = OFF, Block 2 (004000-005FFFh) not code-protected
  9180                           ;	Code Protection bit
  9181                           ;	CP3 = OFF, Block 3 (006000-007FFFh) not code-protected
  9182   300008                     	org	3145736
  9183   300008  0F                 	db	15
  9184                           
  9185                           ;Config register CONFIG5H @ 0x300009
  9186                           ;	Boot Block Code Protection bit
  9187                           ;	CPB = OFF, Boot block (000000-0007FFh) not code-protected
  9188                           ;	Data EEPROM Code Protection bit
  9189                           ;	CPD = OFF, Data EEPROM not code-protected
  9190   300009                     	org	3145737
  9191   300009  C0                 	db	192
  9192                           
  9193                           ;Config register CONFIG6L @ 0x30000A
  9194                           ;	Write Protection bit
  9195                           ;	WRT0 = OFF, Block 0 (000800-001FFFh) not write-protected
  9196                           ;	Write Protection bit
  9197                           ;	WRT1 = OFF, Block 1 (002000-003FFFh) not write-protected
  9198                           ;	Write Protection bit
  9199                           ;	WRT2 = OFF, Block 2 (004000-005FFFh) not write-protected
  9200                           ;	Write Protection bit
  9201                           ;	WRT3 = OFF, Block 3 (006000-007FFFh) not write-protected
  9202   30000A                     	org	3145738
  9203   30000A  0F                 	db	15
  9204                           
  9205                           ;Config register CONFIG6H @ 0x30000B
  9206                           ;	Configuration Register Write Protection bit
  9207                           ;	WRTC = OFF, Configuration registers (300000-3000FFh) not write-protected
  9208                           ;	Boot Block Write Protection bit
  9209                           ;	WRTB = OFF, Boot block (000000-0007FFh) not write-protected
  9210                           ;	Data EEPROM Write Protection bit
  9211                           ;	WRTD = OFF, Data EEPROM not write-protected
  9212   30000B                     	org	3145739
  9213   30000B  E0                 	db	224
  9214                           
  9215                           ;Config register CONFIG7L @ 0x30000C
  9216                           ;	Table Read Protection bit
  9217                           ;	EBTR0 = OFF, Block 0 (000800-001FFFh) not protected from table reads executed in other
      +                           blocks
  9218                           ;	Table Read Protection bit
  9219                           ;	EBTR1 = OFF, Block 1 (002000-003FFFh) not protected from table reads executed in other
      +                           blocks
  9220                           ;	Table Read Protection bit
  9221                           ;	EBTR2 = OFF, Block 2 (004000-005FFFh) not protected from table reads executed in other
      +                           blocks
  9222                           ;	Table Read Protection bit
  9223                           ;	EBTR3 = OFF, Block 3 (006000-007FFFh) not protected from table reads executed in other
      +                           blocks
  9224   30000C                     	org	3145740
  9225   30000C  0F                 	db	15
  9226                           
  9227                           ;Config register CONFIG7H @ 0x30000D
  9228                           ;	Boot Block Table Read Protection bit
  9229                           ;	EBTRB = OFF, Boot block (000000-0007FFh) not protected from table reads executed in ot
      +                          her blocks
  9230   30000D                     	org	3145741
  9231   30000D  40                 	db	64
  9232                           tosu	equ	0xFFF
  9233                           tosh	equ	0xFFE
  9234                           tosl	equ	0xFFD
  9235                           stkptr	equ	0xFFC
  9236                           pclatu	equ	0xFFB
  9237                           pclath	equ	0xFFA
  9238                           pcl	equ	0xFF9
  9239                           tblptru	equ	0xFF8
  9240                           tblptrh	equ	0xFF7
  9241                           tblptrl	equ	0xFF6
  9242                           tablat	equ	0xFF5
  9243                           prodh	equ	0xFF4
  9244                           prodl	equ	0xFF3
  9245                           indf0	equ	0xFEF
  9246                           postinc0	equ	0xFEE
  9247                           postdec0	equ	0xFED
  9248                           preinc0	equ	0xFEC
  9249                           plusw0	equ	0xFEB
  9250                           fsr0h	equ	0xFEA
  9251                           fsr0l	equ	0xFE9
  9252                           wreg	equ	0xFE8
  9253                           indf1	equ	0xFE7
  9254                           postinc1	equ	0xFE6
  9255                           postdec1	equ	0xFE5
  9256                           preinc1	equ	0xFE4
  9257                           plusw1	equ	0xFE3
  9258                           fsr1h	equ	0xFE2
  9259                           fsr1l	equ	0xFE1
  9260                           bsr	equ	0xFE0
  9261                           indf2	equ	0xFDF
  9262                           postinc2	equ	0xFDE
  9263                           postdec2	equ	0xFDD
  9264                           preinc2	equ	0xFDC
  9265                           plusw2	equ	0xFDB
  9266                           fsr2h	equ	0xFDA
  9267                           fsr2l	equ	0xFD9
  9268                           status	equ	0xFD8

Data Sizes:
    Strings     34
    Constant    0
    Data        71
    BSS         87
    Persistent  0
    Stack       0

Auto Spaces:
    Space          Size  Autos    Used
    COMRAM          126    121     126
    BANK0           128     76     128
    BANK1           256      0     101
    BANK2           256      0       0
    BANK3           256      0       0
    BANK4           256      0       0
    BANK5           256      0       0

Pointer List with Targets:

    fputs@s	PTR const unsigned char  size(2) Largest target is 32
		 -> dbuf(BANK1[32]), 

    fputs@fp	PTR struct _IO_FILE size(2) Largest target is 11
		 -> sprintf@f(COMRAM[11]), 

    fputc@fp...source	PTR const unsigned char  size(2) Largest target is 0

    fputc@fp...buffer	PTR unsigned char  size(2) Largest target is 0

    fputc@fp	PTR struct _IO_FILE size(2) Largest target is 11
		 -> sprintf@f(COMRAM[11]), 

    atoi@s	PTR const unsigned char  size(2) Largest target is 17
		 -> STR_2(CODE[17]), STR_1(CODE[17]), 

    vfprintf@ap	PTR PTR void  size(2) Largest target is 2
		 -> sprintf@ap(COMRAM[2]), 

    vfprintf@fp	PTR struct _IO_FILE size(2) Largest target is 11
		 -> sprintf@f(COMRAM[11]), 

    vfprintf@fmt	PTR const unsigned char  size(2) Largest target is 17
		 -> STR_2(CODE[17]), STR_1(CODE[17]), 

    vfprintf@cfmt	PTR unsigned char  size(2) Largest target is 17
		 -> STR_2(CODE[17]), STR_1(CODE[17]), 

    vfpfcnvrt@cp	PTR unsigned char  size(2) Largest target is 17
		 -> STR_2(CODE[17]), STR_1(CODE[17]), 

    vfpfcnvrt@fp	PTR struct _IO_FILE size(2) Largest target is 11
		 -> sprintf@f(COMRAM[11]), 

    vfpfcnvrt@ap	PTR PTR void  size(2) Largest target is 2
		 -> sprintf@ap(COMRAM[2]), 

    vfpfcnvrt@fmt	PTR PTR unsigned char  size(2) Largest target is 2
		 -> vfprintf@cfmt(COMRAM[2]), 

    S936$vp	PTR void  size(2) Largest target is 0

    convarg.vp	PTR void  size(2) Largest target is 0

    dtoa@fp	PTR struct _IO_FILE size(2) Largest target is 11
		 -> sprintf@f(COMRAM[11]), 

    ctoa@fp	PTR struct _IO_FILE size(2) Largest target is 11
		 -> sprintf@f(COMRAM[11]), 

    pad@fp	PTR struct _IO_FILE size(2) Largest target is 11
		 -> sprintf@f(COMRAM[11]), 

    pad@buf	PTR unsigned char  size(2) Largest target is 32
		 -> dbuf(BANK1[32]), 

    sprintf@fmt	PTR const unsigned char  size(2) Largest target is 17
		 -> STR_2(CODE[17]), STR_1(CODE[17]), 

    sprintf@s	PTR unsigned char  size(2) Largest target is 10
		 -> buffer(BANK1[10]), 

    sprintf@ap	PTR void [1] size(2) Largest target is 2
		 -> ?_sprintf(COMRAM[2]), 

    S883$source	PTR const unsigned char  size(2) Largest target is 0

    f...source	PTR const unsigned char  size(2) Largest target is 0

    S883$buffer	PTR unsigned char  size(2) Largest target is 0

    f...buffer	PTR unsigned char  size(2) Largest target is 0

    lcd_str@str	PTR const unsigned char  size(2) Largest target is 10
		 -> buffer(BANK1[10]), 


Critical Paths under _main in COMRAM

    None.

Critical Paths under _f_interrupt_high in COMRAM

    _show_display_LCD->_sprintf
    i2_lcd_cmd->i2_lcd_wr
    _sprintf->_vfprintf
    _vfprintf->_vfpfcnvrt
    _vfpfcnvrt->_dtoa
    _dtoa->_pad
    _pad->_fputs
    _fputs->_fputc
    _abs->___aomod
    _ctoa->_fputc
    _atoi->___wmul
    _lcd_str->_lcd_dat
    _lcd_dat->i2_lcd_wr
    _f_int5->_f_pwm
    _f_int4->_f_pwm
    _f_int3->_f_pwm
    _clock_regressive->_f_pwm
    _ADC_maq->_select_channel

Critical Paths under _main in BANK0

    _main->_loop
    _setup->_lcd_init
    _lcd_init->_lcd_cmd
    _lcd_cmd->_lcd_wr
    _loop->___fltol
    _show_display->___awdiv
    _mostra_segundos_e_centesimos_de_segundos->___lwdiv
    ___fltol->___fldiv
    ___flmul->___xxtofl
    ___fldiv->___flmul

Critical Paths under _f_interrupt_high in BANK0

    None.

Critical Paths under _main in BANK1

    None.

Critical Paths under _f_interrupt_high in BANK1

    None.

Critical Paths under _main in BANK2

    None.

Critical Paths under _f_interrupt_high in BANK2

    None.

Critical Paths under _main in BANK3

    None.

Critical Paths under _f_interrupt_high in BANK3

    None.

Critical Paths under _main in BANK4

    None.

Critical Paths under _f_interrupt_high in BANK4

    None.

Critical Paths under _main in BANK5

    None.

Critical Paths under _f_interrupt_high in BANK5

    None.

Call Graph Tables:

 ---------------------------------------------------------------------------------
 (Depth) Function   	        Calls       Base Space   Used Autos Params    Refs
 ---------------------------------------------------------------------------------
 (0) _main                                                 0     0      0    6327
                               _loop
                              _setup
 ---------------------------------------------------------------------------------
 (1) _setup                                                0     0      0      44
                            _AD_init
                 _disable_interrupts
                  _enable_interrupts
                     _interrupt_init
                           _lcd_init
                           _setup_io
                _start_AD_conversion
 ---------------------------------------------------------------------------------
 (2) _start_AD_conversion                                  0     0      0       0
 ---------------------------------------------------------------------------------
 (2) _setup_io                                             0     0      0       0
 ---------------------------------------------------------------------------------
 (2) _lcd_init                                             1     1      0      44
                                              2 BANK0      1     1      0
                            _lcd_cmd
 ---------------------------------------------------------------------------------
 (3) _lcd_cmd                                              1     1      0      44
                                              1 BANK0      1     1      0
                             _lcd_wr
 ---------------------------------------------------------------------------------
 (4) _lcd_wr                                               1     1      0      22
                                              0 BANK0      1     1      0
 ---------------------------------------------------------------------------------
 (2) _interrupt_init                                       0     0      0       0
 ---------------------------------------------------------------------------------
 (2) _enable_interrupts                                    0     0      0       0
 ---------------------------------------------------------------------------------
 (2) _disable_interrupts                                   0     0      0       0
 ---------------------------------------------------------------------------------
 (2) _AD_init                                              0     0      0       0
 ---------------------------------------------------------------------------------
 (1) _loop                                                 2     2      0    6283
                                             74 BANK0      2     2      0
                            ___fldiv
                            ___flmul
                            ___fltol
                           ___xxtofl
_mostra_segundos_e_centesimos_de_seg
                       _show_display
 ---------------------------------------------------------------------------------
 (2) _show_display                                         0     0      0    1812
                            ___awdiv
                            ___awmod
 ---------------------------------------------------------------------------------
 (3) ___awmod                                              6     2      4     904
                                              0 BANK0      6     2      4
 ---------------------------------------------------------------------------------
 (3) ___awdiv                                              8     4      4     908
                                              0 BANK0      8     4      4
 ---------------------------------------------------------------------------------
 (2) _mostra_segundos_e_centesimos_de_segundos             0     0      0     625
                            ___lwdiv
                            ___lwmod
 ---------------------------------------------------------------------------------
 (3) ___lwmod                                              5     1      4     311
                                              0 BANK0      5     1      4
 ---------------------------------------------------------------------------------
 (3) ___lwdiv                                              7     3      4     314
                                              0 BANK0      7     3      4
 ---------------------------------------------------------------------------------
 (2) ___xxtofl                                            14    10      4     398
                                              0 BANK0     14    10      4
 ---------------------------------------------------------------------------------
 (2) ___fltol                                             10     6      4     305
                                             64 BANK0     10     6      4
                            ___fldiv (ARG)
                            ___flmul (ARG)
                           ___xxtofl (ARG)
 ---------------------------------------------------------------------------------
 (2) ___flmul                                             25    17      8    1744
                                             14 BANK0     25    17      8
                           ___xxtofl (ARG)
 ---------------------------------------------------------------------------------
 (2) ___fldiv                                             25    17      8    1399
                                             39 BANK0     25    17      8
                            ___flmul (ARG)
                           ___xxtofl (ARG)
 ---------------------------------------------------------------------------------
 Estimated maximum stack depth 4
 ---------------------------------------------------------------------------------
 (Depth) Function   	        Calls       Base Space   Used Autos Params    Refs
 ---------------------------------------------------------------------------------
 (5) _f_interrupt_high                                    10    10      0   13669
                                            111 COMRAM    10    10      0
                           _f_timers
 ---------------------------------------------------------------------------------
 (6) _f_timers                                             0     0      0   13669
                            _ADC_maq
                   _clock_regressive
                        _mux_display
                          _read_keyb
                   _show_display_LCD
 ---------------------------------------------------------------------------------
 (7) _show_display_LCD                                     0     0      0   11846
                            _lcd_str
                            _sprintf
                          i2_lcd_cmd
 ---------------------------------------------------------------------------------
 (8) i2_lcd_cmd                                            1     1      0      44
                                              1 COMRAM     1     1      0
                           i2_lcd_wr
 ---------------------------------------------------------------------------------
 (8) _sprintf                                             23    15      8   11516
                                             90 COMRAM    21    13      8
                           _vfprintf
 ---------------------------------------------------------------------------------
 (9) _vfprintf                                             8     2      6   11007
                                             82 COMRAM     8     2      6
                          _vfpfcnvrt
 ---------------------------------------------------------------------------------
 (10) _vfpfcnvrt                                          24    18      6   10632
                                             62 COMRAM    20    14      6
                               _atoi
                               _ctoa
                               _dtoa
                              _fputc
                            _isdigit
 ---------------------------------------------------------------------------------
 (11) _dtoa                                               35    25     10    5061
                                             27 COMRAM    35    25     10
                            ___aodiv
                            ___aomod
                                _abs
                                _pad
 ---------------------------------------------------------------------------------
 (12) _pad                                                11     5      6    3411
                                             16 COMRAM    11     5      6
                              _fputc
                              _fputs
 ---------------------------------------------------------------------------------
 (13) _fputs                                               7     3      4    1691
                                              9 COMRAM     7     3      4
                              _fputc
 ---------------------------------------------------------------------------------
 (12) _abs                                                 4     2      2     142
                                             18 COMRAM     4     2      2
                            ___aomod (ARG)
 ---------------------------------------------------------------------------------
 (12) ___aomod                                            18     2     16     448
                                              0 COMRAM    18     2     16
 ---------------------------------------------------------------------------------
 (12) ___aodiv                                            26    10     16     452
                                              0 COMRAM    26    10     16
 ---------------------------------------------------------------------------------
 (11) _ctoa                                                8     5      3    1623
                                              9 COMRAM     8     5      3
                              _fputc
 ---------------------------------------------------------------------------------
 (11) _fputc                                               9     5      4    1290
                                              0 COMRAM     9     5      4
                              _putch
 ---------------------------------------------------------------------------------
 (12) _putch                                               1     1      0       0
 ---------------------------------------------------------------------------------
 (11) _atoi                                                9     7      2    1278
                                              6 COMRAM     9     7      2
                             ___wmul
                            _isdigit
                            _isspace
 ---------------------------------------------------------------------------------
 (12) _isspace                                             5     3      2     207
                                              0 COMRAM     5     3      2
 ---------------------------------------------------------------------------------
 (11) _isdigit                                             4     2      2     313
                                              0 COMRAM     4     2      2
 ---------------------------------------------------------------------------------
 (12) ___wmul                                              6     2      4     357
                                              0 COMRAM     6     2      4
 ---------------------------------------------------------------------------------
 (8) _lcd_str                                              3     1      2     286
                                              2 COMRAM     3     1      2
                            _lcd_dat
 ---------------------------------------------------------------------------------
 (9) _lcd_dat                                              1     1      0      44
                                              1 COMRAM     1     1      0
                           i2_lcd_wr
 ---------------------------------------------------------------------------------
 (9) i2_lcd_wr                                             1     1      0      22
                                              0 COMRAM     1     1      0
 ---------------------------------------------------------------------------------
 (7) _read_keyb                                            7     7      0    1453
                                              4 COMRAM     7     7      0
                             _f_int0
                             _f_int1
                             _f_int2
                             _f_int3
                             _f_int4
                             _f_int5
 ---------------------------------------------------------------------------------
 (8) _f_int5                                               0     0      0     348
                              _f_pwm
 ---------------------------------------------------------------------------------
 (8) _f_int4                                               0     0      0     348
                              _f_pwm
 ---------------------------------------------------------------------------------
 (8) _f_int3                                               0     0      0     348
                              _f_pwm
 ---------------------------------------------------------------------------------
 (8) _f_int2                                               0     0      0       0
 ---------------------------------------------------------------------------------
 (8) _f_int1                                               0     0      0       0
 ---------------------------------------------------------------------------------
 (8) _f_int0                                               0     0      0       0
 ---------------------------------------------------------------------------------
 (7) _mux_display                                          2     2      0       0
                                              0 COMRAM     2     2      0
 ---------------------------------------------------------------------------------
 (7) _clock_regressive                                     0     0      0     348
                              _f_pwm
 ---------------------------------------------------------------------------------
 (9) _f_pwm                                                4     2      2     348
                                              0 COMRAM     4     2      2
 ---------------------------------------------------------------------------------
 (7) _ADC_maq                                              2     2      0      22
                                              1 COMRAM     2     2      0
                     _select_channel
              i2_start_AD_conversion
 ---------------------------------------------------------------------------------
 (8) i2_start_AD_conversion                                0     0      0       0
 ---------------------------------------------------------------------------------
 (8) _select_channel                                       1     1      0      22
                                              0 COMRAM     1     1      0
 ---------------------------------------------------------------------------------
 Estimated maximum stack depth 13
 ---------------------------------------------------------------------------------

 Call Graph Graphs:

 _main (ROOT)
   _loop
     ___fldiv
       ___flmul (ARG)
         ___xxtofl (ARG)
       ___xxtofl (ARG)
     ___flmul
     ___fltol
       ___fldiv (ARG)
       ___flmul (ARG)
       ___xxtofl (ARG)
     ___xxtofl
     _mostra_segundos_e_centesimos_de_segundos
       ___lwdiv
       ___lwmod
     _show_display
       ___awdiv
       ___awmod
   _setup
     _AD_init
     _disable_interrupts
     _enable_interrupts
     _interrupt_init
     _lcd_init
       _lcd_cmd
         _lcd_wr
     _setup_io
     _start_AD_conversion

 _f_interrupt_high (ROOT)
   _f_timers
     _ADC_maq
       _select_channel
       i2_start_AD_conversion
     _clock_regressive
       _f_pwm
     _mux_display
     _read_keyb
       _f_int0
       _f_int1
       _f_int2
       _f_int3
         _f_pwm
       _f_int4
         _f_pwm
       _f_int5
         _f_pwm
     _show_display_LCD
       _lcd_str
         _lcd_dat
           i2_lcd_wr
       _sprintf
         _vfprintf
           _vfpfcnvrt
             _atoi
               ___wmul
               _isdigit
               _isspace
             _ctoa
               _fputc
                 _putch
             _dtoa
               ___aodiv
               ___aomod
               _abs
                 ___aomod (ARG)
               _pad
                 _fputc
                 _fputs
                   _fputc
             _fputc
             _isdigit
       i2_lcd_cmd
         i2_lcd_wr

 Address spaces:
Name               Size   Autos  Total    Cost      Usage
BIGRAM             5FF      0       0      29        0.0%
EEDATA             100      0       0       0        0.0%
BITBANK5           100      0       0      14        0.0%
BANK5              100      0       0      15        0.0%
BITBANK4           100      0       0      12        0.0%
BANK4              100      0       0      13        0.0%
BITBANK3           100      0       0      10        0.0%
BANK3              100      0       0      11        0.0%
BITBANK2           100      0       0       8        0.0%
BANK2              100      0       0       9        0.0%
BITBANK1           100      0       0       6        0.0%
BANK1              100      0      65       7       39.5%
BITBANK0            80      0       0       4        0.0%
BANK0               80     4C      80       5      100.0%
BITCOMRAM           7E      0       0       0        0.0%
COMRAM              7E     79      7E       1      100.0%
BITBIGSFRlhhhl      1E      0       0      22        0.0%
BITBIGSFRhhlhl      18      0       0      17        0.0%
BITBIGSFRhhh         D      0       0      16        0.0%
BITBIGSFRlhhlh       6      0       0      23        0.0%
BITBIGSFRlhhll       5      0       0      24        0.0%
BITBIGSFRhl          5      0       0      20        0.0%
BITBIGSFRllh         4      0       0      25        0.0%
BITBIGSFRhhllh       4      0       0      18        0.0%
BITBIGSFRhhlll       4      0       0      19        0.0%
BITBIGSFRlllh        1      0       0      26        0.0%
BITBIGSFRlhhhh       1      0       0      21        0.0%
BITBIGSFRllll        1      0       0      27        0.0%
BIGSFR               0      0       0     200        0.0%
BITSFR               0      0       0     200        0.0%
SFR                  0      0       0     200        0.0%
STACK                0      0       0       2        0.0%
NULL                 0      0       0       0        0.0%
ABS                  0      0     163      28        0.0%
DATA                 0      0     163       3        0.0%
CODE                 0      0       0       0        0.0%


Microchip Technology PIC18 Macro Assembler V2.40 build 20220703182018 
Symbol Table                                                                                   Wed Jan 04 20:06:57 2023

                                    ___fldiv@aexp 00BF                                      ___fldiv@bexp 00BE  
                                    ___fldiv@sign 00B7                                                l15 2C2E  
                                              l18 2C64                                                _GO 007E11  
                                    ___awdiv@sign 0085                               ___wmul@multiplicand 0003  
                                f_timers@counter1 00F5                                  f_timers@counter2 00F3  
                                f_timers@counter3 00F1                                  f_timers@counter4 00EF  
                                f_timers@counter5 0133                            __end_of_interrupt_init 2C00  
                                             l140 2954                                               l143 2B38  
                                             l403 2C46                                               l412 2762  
                                             l502 1E92                                               l406 2B5E  
                                             l291 2C58                                               l294 2C50  
                                             l297 2BFE                                               l491 247E  
                                             l833 1DB8                                               l497 27C8  
                                             l780 2322                                               l767 21B6  
                                             _GIE 007F97                                               _RE0 007C20  
                                             _PR2 000FCB                                               _abs 299A  
                                             _pad 2480                                      ___awmod@sign 0085  
                                             wreg 000FE8                                   __end_of_ADC_maq 26FC  
                                    ___flmul@aexp 009F                                      ___flmul@bexp 00A0  
                                    ___flmul@sign 009A                                      ___flmul@temp 00A5  
                                    ___flmul@prod 00A1                                     ADC_maq@estado 00EE  
                                 __end_of_AD_init 2C30                                      ___fltol@exp1 00C9  
                                            l1120 1028                                              l1034 261E  
                                            l1131 10E6                                              l1123 0FEC  
                                            l1027 2616                                              ?_abs 0013  
                                            l1132 10D4                                              l1044 282E  
                                            l1205 1596                                              l1037 2826  
                                            l1118 11C8                                              l1150 06EA  
                                            l1160 0946                                              l1129 106E  
                                            l1154 0A4E                                              l1157 08E0  
                                            l1167 0A10                                              l1159 0958  
                                            l1191 14A2                                              l3201 2B3E  
                                            l1194 15FE                                              l3211 2B54  
                                            l3203 2B40                                              l3301 22EE  
                                            l3213 2B5C                                              l3205 2B48  
                                            l1198 153A                                              l3311 231A  
                                            l3303 22F6                                              l3207 2B4A  
                                            l3321 25CE                                              l3241 210E  
                                            l3305 22FC                                              l4033 23D6  
                                            l3209 2B52                                              l3331 2608  
                                            l3323 25D6                                              l3315 25AA  
                                            l3251 2134                                              l3243 2112  
                                            l3235 20F2                                              l3307 2302  
                                            l4035 23DE                                              l3139 2C42  
                                            l3333 260A                                              l3325 25E4  
                                            l3317 25B4                                              l3341 27E6  
                                            l3261 216A                                              l3253 2146  
                                            l3245 2120                                              l3237 20F8  
                                            l3309 2312                                              l4037 23F8  
                                            l3335 2610                                              l3327 25EA  
                                            l3319 25C6                                              l3351 2820  
                                            l3343 27EE                                              l3263 2180  
                                            l3255 214E                                              l3271 2196  
                                            l3247 2128                                              l3239 2106  
                                            l4039 2408                                              l3431 26FC  
                                            l3329 2600                                              l3345 27FC  
                                            l3337 27CA                                              l3601 27C0  
                                            l3273 21A6                                              l3265 2188  
                                            l3257 2156                                              l3249 212C  
                                            l3281 2278                                              l3425 2C52  
                                            l3441 2730                                              l3433 2700  
                                            l3611 0E5C                                              l3603 0E2E  
                                            l3347 2812                                              l3339 27DE  
                                            l3275 21AE                                              l3267 218A  
                                            l3259 2164                                              l3291 22A8  
                                            l3283 2286                                              l3451 2750  
                                            l3443 2738                                              l3435 2712  
                                            l3427 2B14                                              l3371 2C62  
                                            l3701 1090                                              l3621 0E96  
                                            l3613 0E6C                                              l3605 0E3C  
                                            l3349 281A                                              l3269 2190  
                                            l3293 22BA                                              l3285 228E  
                                            l3429 2BE6                                              l3453 2756  
                                            l3445 273E                                              l3437 2714  
                                            l4077 2C12                                              l3711 1102  
                                            l3703 109E                                              l3631 0EC2  
                                            l3623 0E9C                                              l3615 0E7C  
                                            l3607 0E4A                                              l3295 22C2  
                                            l3287 2292                                              l3279 2272  
                                            l3455 275C                                              l3447 2744  
                                            l3439 271A                                              l4079 2C16  
                                            l3721 116E                                              l3713 1110  
                                            l3705 10CC                                              l3641 0EFC  
                                            l3633 0ED2                                              l3625 0EA2  
                                            l3617 0E7E                                              l3609 0E4C  
                                            l3801 07B0                                              l3297 22CA  
                                            l3289 22A0                                              l3369 2C22  
                                            l3457 2C48                                              l3449 274A  
                                            l3731 11BC                                              l3723 1188  
                                            l3715 113A                                              l3643 0F12  
                                            l3635 0EE2                                              l3627 0EB0  
                                            l3619 0E86                                              l3811 0812  
                                            l3803 07BC                                              l3299 22D8  
                                            l3733 11BE                                              l3725 11A4  
                                            l3709 10F6                                              l3717 113E  
                                            l3661 0F66                                              l3645 0F22  
                                            l3653 0F42                                              l3637 0EE4  
                                            l3629 0EB2                                              l3821 08A8  
                                            l3813 081E                                              l3805 07CC  
                                            l3741 0624                                              ?_pad 0011  
                                            l3727 11A8                                              l3719 1158  
                                            l3671 0FB8                                              l3663 0F80  
                                            l3655 0F52                                              l3647 0F2A  
                                            l3639 0EEC                                              l3831 08FE  
                                            l3823 08C6                                              l3815 083A  
                                            l3807 07E6                                              l3751 0662  
                                            l3743 0632                                              l3911 1DA8  
                                            l3903 1D6C                                              l3591 2764  
                                            l3729 11B6                                              l3681 1014  
                                            l3673 0FC8                                              l3665 0F90  
                                            l3657 0F52                                              l3649 0F2E  
                                            l3841 0968                                              l3833 0902  
                                            l3825 08D0                                              l3817 0864  
                                            l3809 07F6                                              l3761 0694  
                                            l3753 0672                                              l3745 0640  
                                            l3905 1D78                                              l3921 14B2  
                                            l3593 276C                                              l3585 1DBA  
                                            l3691 1054                                              l3683 1016  
                                            l3675 0FDC                                              l3667 0FA0  
                                            l3851 09CA                                              l3843 0974  
                                            l3835 0910                                              l3827 08DE  
                                            l3819 089A                                              l3771 06D4  
                                            l3763 06A2                                              l3755 0678  
                                            l3747 0642                                              l3907 1D88  
                                            l3931 14F0                                              l3923 14C8  
                                            l3915 144C                                              l3595 2784  
                                            l3587 1DCA                                              l3693 105E  
                                            l3685 1026                                              l3677 0FEA  
                                            l3669 0FB0                                              l3861 0A32  
                                            l3853 09DE                                              l3845 0982  
                                            l3837 093E                                              l3829 08F0  
                                            l3781 071E                                              l3773 06DA  
                                            l3765 06A4                                              l3757 0688  
                                            l3749 0652                                              l3909 1D98  
                                            l3941 1578                                              l3933 1522  
                                            l3917 145E                                              l3597 278C  
                                            l3589 1E30                                              l3695 106C  
                                            l3687 1038                                              l3679 0FF6  
                                            l3863 0A34                                              l3855 09F8  
                                            l3847 09AC                                              l3791 076E  
                                            l3783 072A                                              l3775 06FA  
                                            l3767 06B4                                              l3759 068E  
                                            l3871 1CB2                                              l3951 15CE  
                                            l3943 1586                                              l3935 1524  
                                            l3927 14DC                                              l3919 146C  
                                            l3599 27A6                                              l3689 104E  
                                            l3697 107E                                              l3857 0A14  
                                            l3865 0A3A                                              l3849 09B0  
                                            l3793 077A                                              l3785 0734  
                                            l3777 070A                                              l3769 06C4  
                                            l3881 1D0A                                              l3873 1CCA  
                                            l3953 15DE                                              l3945 15A4  
                                            l3937 1530                                              l3929 14E4  
                                            l3961 2912                                              l3699 108C  
                                            l3867 0A3E                                              l3859 0A24  
                                            l3795 0786                                              l3787 074A  
                                            l3883 1D1A                                              l3955 15EC  
                                            l3947 15A6                                              l3939 156C  
                                            l3971 2924                                              l3963 2916  
                                            l3797 0794                                              l3789 0756  
                                            l3893 1D44                                              l3885 1D1E  
                                            l3877 1CDE                                              l3957 15EE  
                                            l3949 15AA                                              l3981 2932  
                                            l3973 2926                                              l3965 291A  
                       _aciona_imprime_tempratura 00E6                                              l3799 07A0  
                                            l3895 1D4E                                              l3887 1D2C  
                                            l3879 1D08                                              l3991 2944  
                                            l3983 2934                                              l3975 292A  
                                            l3967 291E                                              _ADIE 007CEE  
                                            _ADIF 007CF6                                              l3897 1D58  
                                            l3993 2948                                              l3985 2936  
                                            l3977 292E                                              l3969 2922  
                                            l3987 293A                                              l3979 2930  
                                            l3989 2940                                              STR_1 0601  
                                            STR_2 0612                                              u3000 0ED2  
                                            u3001 0ECE                                              u3010 0F12  
                                            u3011 0F0E                                              u3100 109E  
                                            u3020 0F52                                              u3101 109A  
                                            u3021 0F4E                                              _LATA 000F89  
                                            u3110 10CC                                              u3030 0FC8  
                                            _LATB 000F8A                                              u3111 10C8  
                                            u3031 0FC4                                              _LATC 000F8B  
                                            u3120 10E2                                              u3040 0FEA  
                                            u3200 0662                                              _LATD 000F8C  
                                            u3121 10DE                                              u3041 0FE6  
                                            u3201 065E                                              u3130 10F6  
                                            u3050 1014                                              u3210 06A2  
                                            u3131 10F2                                              u3051 1010  
                                            u3211 069E                                              u3140 1110  
                                            u3060 1038                                              u3300 093E  
                                            u3220 06B4                                              u3141 110C  
                                            u3061 1034                                              u3301 093A  
                                            u3221 06B0                                              u3150 1158  
                                            u3070 104E                                              u3310 0954  
                                            u3230 06C4                                              u3151 1154  
                                            u3071 104A                                              u3311 0950  
                                            u3231 06C0                                              u3160 1188  
                                            u3080 106C                                              u3320 0968  
                                            u3240 06FA                                              u3400 1D40  
                                            u2600 2180                                              u3161 1184  
                                            u3081 1068                                              u3321 0964  
                                            u3241 06F6                                              u3401 1D3C  
                                            u2601 217C                                              u3170 11B6  
                                            u3090 108C                                              u3330 0982  
                                            u3250 070A                                              u3410 1D68  
                                            u2610 21A6                                              u3171 11B2  
                                            u3091 1088                                              u3331 097E  
                                            u3251 0706                                              u3411 1D64  
                                            u2611 21A2                                              u3340 09CA  
                                            u3260 0884                                              u3180 0640  
                                            u3420 1D88                                              u3500 1596  
                                            u2700 2600                                              u2620 2286  
                                            u3341 09C6                                              u3181 063C  
                                            u3421 1D84                                              u3501 1592  
                                            u2701 25FC                                              u2621 2282  
                                            u3350 09F8                                              u3270 08DE  
                                            u3190 0652                                              u3430 1D98  
                                            u3510 15A4                                              u2710 27DE  
                                            u2630 22A0                                              u3351 09F4  
                                            u3271 08DA                                              u3191 064E  
                                            u3431 1D94                                              u3511 15A0  
                                            u2711 27DA                                              u2631 229C  
                                            u3360 0A32                                              u3280 08FE  
                                            u3520 15DE                                              u3440 145E  
                                            u2720 27FC                                              u2560 2106  
                                            u2640 22BA                                              _IPEN 007E87  
                                            u3361 0A2E                                              u3281 08FA  
                                            u3265 087A                                              u3521 15DA  
                                            u3441 145A                                              u2721 27F8  
                                            u2561 2102                                              u2641 22B6  
                                            u3290 0910                                              u3370 1CCA  
                                            u3530 15EC                                              u3450 146C  
                                            u2730 2812                                              u2570 2120  
                                            u2650 22D8                                              u3291 090C  
                                            u3371 1CC6                                              u3531 15E8  
                                            u3451 1468                                              u2731 280E  
                                            u2571 211C                                              u2651 22D4  
                                            u3380 1CFE                                              u3460 14C8  
                                            u2580 2146                                              u2660 22EE  
                                            u3461 14C4                                              u2581 2142  
                                            u2661 22EA                                              u3390 1D2C  
                                            u3470 151E                                              u2590 2164  
                                            u2670 2312                                              u3391 1D28  
                                            u3471 151A                                              u2591 2160  
                                            u2671 230E                                              u3480 1568  
                                            u2680 25C6                                              u3385 1CF4  
                                            u3481 1564                                              u2681 25C2  
                                            u3490 1586                                              u2690 25E4  
                                            u2930 1DCA                                              u3491 1582  
                                            u2691 25E0                                              u2931 1DC6  
                                            _PEIE 007F96                                              u2940 2784  
                                            u2941 2780                                              u2950 0E4A  
                                            u3590 2408                                              u2951 0E46  
                                            u3591 2404                                              u2960 0E5C  
                                            u2961 0E58                                              u2970 0E6C  
                                            u2971 0E68                                              u3747 2708  
                                            u2980 0EB0                                              i2l21 2C3C  
                                            u2981 0EAC                                              u3757 2722  
                                            i2l30 26FA                                              u2990 0EC2  
                                            u2991 0EBE                                              u3767 2732  
                                            u3777 2B4C                                              i2l18 2C68  
                                            i2l27 2696                                              u3787 2B56  
                                            i2l60 2328                                              i2l29 26B2  
                                            i2l62 2344                                              i2l63 2360  
                                            i2l64 237C                                              i2l65 23D4  
                                            _TMR0 000FD6                                              abs@a 0013  
                                            _dbuf 013B                                              _atoi 18EC  
                                            _ctoa 1F5E                                              _main 2C12  
                                            _dtoa 11CA                                              _loop 23D6  
                                            _prec 00CE                                              pad@i 0018  
                                            pad@p 0015                                              fsr1h 000FE2  
                                            fsr2h 000FDA                                              indf2 000FDF  
                                            fsr1l 000FE1                                              pad@w 001A  
                           i2_start_AD_conversion 2C66                                              fsr2l 000FD9  
                                            btemp 007F                                              prodh 000FF4  
                                            prodl 000FF3                                              start 000E  
                                 ___fldiv@new_exp 00B8                                      ___param_bank 000000  
                                           ??_abs 0015                                             ??_pad 0017  
                                   ___fltol@sign1 00C8                                   __end_of___aodiv 1788  
                                           ?_atoi 0007                                             ?_ctoa 000A  
                                           ?_main 0001                                             ?_dtoa 001C  
                                 __end_of___aomod 18EC                                   __end_of___fldiv 11CA  
                                 __end_of___awdiv 21B8                                             _ADRES 000FC3  
                                           ?_loop 0001                                   __end_of___awmod 2324  
                                 __end_of___flmul 0A50                                   __end_of___fltol 1DBA  
                                 ?_interrupt_init 0001                                             _T0CON 000FD5  
                                 ___awdiv@divisor 0082                                             _T2CON 000FCA  
                                           _LATA2 007C4A                                             _LATA3 007C4B  
                                           _LATA4 007C4C                                             _LATA5 007C4D  
                                 __end_of___lwdiv 2620                                   __end_of___lwmod 2830  
                                           i2l403 2C60                                             i2l406 2BA6  
                                           i2l319 1F5C                                             i2l352 1B7E  
                                           i2l361 2C6C                                             i2l409 2BC8  
                                           i2l418 2A50                                             i2l355 2C70  
                                           i2l283 1BF2                                             i2l364 2BE4  
                                           i2l372 2A16                                             i2l284 1C10  
                                           i2l285 1C2E                                             i2l358 2C6E  
                                           i2l390 2270                                             i2l286 1C5A  
                                           i2l367 2ABA                                             i2l376 2690  
                                           i2l536 2B84                                             i2l288 1C86  
                                           i2l650 1786                                             i2l487 2B12  
                                           i2l663 18EA                                   ___awdiv@counter 0084  
                                    vfpfcnvrt@fmt 0041                                             _PORTB 000F81  
                                           _PORTD 000F83                                             _TRISA 000F92  
                                           _TRISB 000F93                                             _TRISC 000F94  
                                           _TRISD 000F95                                             _TRISE 000F96  
                                 __end_of_lcd_dat 2BCA                                   __end_of_lcd_cmd 2B60  
                                   _start_counter 00E3                                   __end_of_lcd_str 2A52  
                                           _f_pwm 2AE8                                             _flags 007A  
                                           _fputc 2028                                             _fputs 2956  
                                 __end_of_isdigit 2AE8                                _disable_interrupts 2C52  
                                           _setup 2912                                             atoi@n 000E  
                                           pad@fp 0011                                             atoi@s 0007  
                                           _width 00CC                                             ctoa@c 000C  
                                           _putch 2C6A                                             ctoa@l 000E  
                                           ctoa@w 0010                                             dtoa@d 001E  
                                           dtoa@i 003C                                             dtoa@n 0034  
                                           dtoa@p 0030                                             dtoa@s 003E  
                                           dtoa@w 0032                                 ?_clock_regressive 0001  
                                 __end_of_isspace 2912                                             tablat 000FF5  
                              ??_clock_regressive 0005                                             ttemp5 0080  
                                           ttemp6 0083                                             ttemp7 0087  
                                           status 000FD8                                             wtemp8 0080  
                                 __end_of_sprintf 287E                                  __end_ofi2_lcd_wr 2C62  
                             ?_disable_interrupts 0001                                  _f_interrupt_high 0008  
                                 __initialization 252A                                      __end_of_atoi 1A36  
                                    __end_of_ctoa 2028                                      __end_of_main 2C22  
                                    __end_of_dtoa 1448                                      __end_of_loop 2480  
                                       ??_ADC_maq 0002                                 read_keyb@dado_RB0 0005  
                               read_keyb@dado_RB1 0006                                 read_keyb@dado_RB2 0007  
                               read_keyb@dado_RB3 0008                                 read_keyb@dado_RB4 0009  
                               read_keyb@dado_RB5 000A  __end_of_mostra_segundos_e_centesimos_de_segundos 27CA  
       ?_mostra_segundos_e_centesimos_de_segundos 0001        ??_mostra_segundos_e_centesimos_de_segundos 0087  
        _mostra_segundos_e_centesimos_de_segundos 2764                                            ??_atoi 0009  
                                          ??_ctoa 000D                                            ??_main 00CC  
                                          ??_dtoa 0026                                            ??_loop 00CA  
                                   __activetblptr 000002                              ??_disable_interrupts 0080  
                                      _Duty_cycle 00D6                                         ??_AD_init 0080  
                                     i2lcd_wr@val 0001                                            ?_f_pwm 0001  
                                          _ADCON0 000FC2                                            _ADCON1 000FC1  
                                          _ADCON2 000FC0                                            ?_fputc 0001  
                                          ?_fputs 000A                                            _CCPR1L 000FBE  
                                ___awdiv@dividend 0080                                            ?_setup 0001  
                                          ?_putch 0001                                            _INT0IE 007F94  
                                          _INT0IF 007F91                                            _INT1IE 007F83  
                                          _INT1IF 007F80                                            _INT2IE 007F84  
                                          _INT2IF 007F81                                            i2l1302 0E2C  
                                          i2l1214 287C                                            i2l1312 28CA  
                                          i2l1241 24C4                                            i2l3001 133E  
                                          i2l3011 13E6                                            i2l3003 1344  
                                          i2l1260 2006                                            i2l1316 29D0  
                                          i2l1244 2506                                            i2l1341 1A2C  
                                          i2l3013 1400                                            i2l3005 134A  
                                          i2l3101 0CC6                                            i2l1262 2026  
                                          i2l1246 2528                                            i2l1270 12A4  
                                          i2l3031 1920                                            i2l3023 18EC  
                                          i2l1319 29D8                                            i2l3015 1410  
                                          i2l3007 13AE                                            i2l3111 0D22  
                                          i2l1344 1A34                                            i2l3033 1954  
                                          i2l3025 1900                                            i2l1257 1FC4  
                                          i2l1281 1446                                            i2l3017 1416  
                                          i2l3009 13C8                                            i2l3121 0DDA  
                                          i2l3113 0D78                                            i2l3105 0CDA  
                                          i2l4001 1EB2                                            i2l1370 20F0  
                                          i2l1347 2AE6                                            i2l1355 2910  
                                          i2l3035 195C                                            i2l3019 1426  
                                          i2l1267 1256                                            i2l3107 0CEA  
                                          i2l4011 1EE6                                            i2l4003 1EBA  
                                          i2l3141 2BAA                                            i2l3045 19CE  
                                          i2l3037 1964                                            i2l3029 1904  
                                          i2l1381 2C6A                                            i2l1269 125E  
                                          i2l3125 0DF2                                            i2l3117 0DA8  
                                          i2l3109 0D06                                            i2l3061 0A90  
                                          i2l3221 2850                                            i2l4021 1F22  
                                          i2l4013 1EEA                                            i2l4005 1EBE  
                                          i2l3135 2C5C                                            i2l3151 2BBE  
                                          i2l3143 2BAC                                            i2l3231 2A32  
                                          i2l3047 19FE                                            i2l3039 1998  
                                          i2l3119 0DCC                                            i2l3071 0B0A  
                                          i2l3063 0A94                                            i2l3055 0A50  
                                          i2l3223 286C                                            i2l3215 2830  
                                          i2l4031 1F52                                            i2l4023 1F26  
                                          i2l4015 1EF4                                            i2l4007 1EC8  
                                          i2l3137 2AE8                                            i2l3401 233C  
                                          i2l3153 2BC6                                            i2l3145 2BB2  
                                          i2l3233 2A34                                            i2l3049 1A10  
                                          i2l3081 0B94                                            i2l3073 0B2A  
                                          i2l3065 0AB8                                            i2l3057 0A74  
                                          i2l3129 0E04                                            i2l3161 28C2  
                                          i2l3217 2840                                            i2l4025 1F30  
                                          i2l4017 1F0A                                            i2l4009 1EDE  
                                          i2l4041 1BAA                                            i2l1378 2998  
                                          i2l3411 2380                                            i2l3403 2348  
                                          i2l3171 2BDA                                            i2l3147 2BB4  
                                          i2l3227 2A18                                            i2l3091 0C2A  
                                          i2l3083 0B9E                                            i2l3067 0AEE  
                                          i2l3059 0A82                                            i2l3155 287E  
                                          i2l3219 2848                                            i2l4027 1F46  
                                          i2l4019 1F12                                            i2l4043 1BB8  
                                          i2l4051 1BD4                                            i2l3165 2C32  
                                          i2l3413 2390                                            i2l3405 2358  
                                          i2l3173 2BE0                                            i2l3181 2AA2  
                                          i2l3501 1B02                                            i2l3149 2BBC  
                                          i2l3229 2A20                                            i2l3085 0BAC  
                                          i2l3077 0B38                                            i2l3069 0AFC  
                                          i2l3157 288A                                            i2l4029 1F4E  
                                          i2l4061 1C1E                                            i2l4053 1BE2  
                                          i2l4045 1BC6                                            i2l3407 2364  
                                          i2l3167 2BCA                                            i2l3183 2AAA  
                                          i2l3175 2A88                                            i2l3191 29DA  
                                          i2l3511 1B36                                            i2l3503 1B06  
                                          i2l3095 0C38                                            i2l3087 0BD0  
                                          i2l3079 0B70                                            i2l3159 28A6  
                                          i2l4071 1C68                                            i2l4063 1C2C  
                                          i2l4055 1BF0                                            i2l4047 1BCE  
                                          i2l3353 2C66                                            i2l3409 2374  
                                          i2l3417 2398                                            i2l3169 2BD6  
                                          i2l3185 2AAE                                            i2l3177 2A94  
                                          i2l3193 29EC                                            i2l3521 1B6A  
                                          i2l3513 1B4A                                            i2l3505 1B1A  
                                          i2l4161 1982                                            i2l2801 2028  
                                          i2l3089 0C0A                                            i2l3097 0C70  
                                          i2l3361 2B92                                            i2l4073 1C76  
                                          i2l4065 1C3C                                            i2l4057 1C00  
                                          i2l4049 1BD2                                            i2l3531 2620  
                                          i2l4163 23AE                                            i2l3187 2AB2  
                                          i2l3179 2A9A                                            i2l3195 29F8  
                                          i2l3523 1B6E                                            i2l3515 1B4E  
                                          i2l3507 1B1E                                            i2l2811 20AA  
                                          i2l2803 203A                                            i2l3099 0C94  
                                          i2l3363 2B9A                                            i2l3355 2B88  
                                          i2l4075 1C84                                            i2l4067 1C4A  
                                          i2l4059 1C0E                                            i2l4165 26E4  
                                          i2l3381 26BA                                            i2l3373 2692  
                                          i2l3533 2630                                            i2l3541 264A  
                                          i2l3189 2AB6                                            i2l3197 2A0A  
                                          i2l3525 1B72                                            i2l3517 1B62  
                                          i2l3509 1B32                                            i2l3461 1A48  
                                          i2l2805 204C                                            i2l2901 189A  
                                          i2l2821 2978                                            i2l3365 2B9C  
                                          i2l3357 2B8A                                            i2l4069 1C58  
                                          i2l3383 26C0                                            i2l3375 269E  
                                          i2l3551 2686                                            i2l3543 264C  
                                          i2l3535 2640                                            i2l3199 2A12  
                                          i2l3527 1B76                                            i2l3519 1B66  
                                          i2l3471 1A6E                                            i2l3463 1A50  
                                          i2l2823 2B60                                            i2l2807 2056  
                                          i2l2831 1604                                            i2l2903 18AA  
                                          i2l2815 2956                                            i2l2911 248E  
                                          i2l3367 2BA4                                            i2l3359 2B90  
                                          i2l3385 26C4                                            i2l3377 26A4  
                                          i2l3553 268A                                            i2l3545 265C  
                                          i2l3537 2644                                            i2l3529 1B7A  
                                          i2l3481 1A9E                                            i2l3473 1A7C  
                                          i2l3465 1A54                                            i2l2825 2B7C  
                                          i2l2809 2074                                            i2l2841 1664  
                                          i2l2833 1612                                            i2l2905 18CA  
                                          i2l2817 2962                                            i2l2921 24E4  
                                          i2l2913 24A2                                            i2l3561 21D6  
                                          i2l3379 26A8                                            i2l3547 266C  
                                          i2l3491 1ACA                                            i2l3483 1AA2  
                                          i2l3475 1A84                                            i2l3467 1A62  
                                          i2l3459 1A36                                            i2l2931 2ABC  
                                          i2l2851 16AE                                            i2l2843 1668  
                                          i2l2835 1632                                            i2l2819 2974  
                                          i2l2923 24E8                                            i2l2915 24B0  
                                          i2l3571 221A                                            i2l3563 21DC  
                                          i2l3555 21B8                                            i2l3389 26CE  
                                          i2l3549 267A                                            i2l3397 2324  
                                          i2l3493 1AD2                                            i2l3485 1AB0  
                                          i2l3477 1A88                                            i2l3469 1A6A  
                                          i2l2941 2906                                            i2l2861 171E  
                                          i2l2853 16BC                                            i2l2845 1674  
                                          i2l2837 1636                                            i2l2829 1600  
                                          i2l2925 2514                                            i2l2917 24BC  
                                          i2l2909 2480                                            i2l3573 222C  
                                          i2l3581 2268                                            i2l3565 21EE  
                                          i2l3557 21BC                                            i2l3399 232C  
                                          i2l3495 1AD6                                            i2l3487 1AB8  
                                          i2l3479 1A96                                            i2l2943 290A  
                                          i2l2935 28CC                                            i2l2951 1F7E  
                                          i2l2863 1730                                            i2l2855 16CE  
                                          i2l2847 1692                                            i2l2839 1644  
                                          i2l2927 299A                                            i2l2919 24D0  
                                          i2l3583 226C                                            i2l3575 2232  
                                          i2l3567 21F4                                            i2l3559 21CC  
                                          i2l3497 1AEA                                            i2l3489 1ABC  
                                          i2l2937 28D0                                            i2l2961 1FBC  
                                          i2l2953 1F8A                                            i2l2857 16FC  
                                          i2l2849 169A                                            i2l2865 1736  
                                          i2l2881 17BE                                            i2l2873 1788  
                                          i2l2929 29B4                                            i2l3577 2256  
                                          i2l3569 220E                                            i2l3499 1AEE  
                                          i2l2939 28E4                                            i2l2963 1FD0  
                                          i2l2955 1F98                                            i2l2947 1F5E  
                                          i2l2867 1746                                            i2l2859 171C  
                                          i2l2891 1826                                            i2l2883 17CC  
                                          i2l2875 178C                                            i2l2971 11CA  
                                          i2l3579 2262                                            i2l2965 1FE4  
                                          i2l2957 1FAA                                            i2l2949 1F72  
                                          i2l2869 1766                                            i2l2893 1834  
                                          i2l2885 17EC                                            i2l2877 179A  
                                          i2l2981 124A                                            i2l2973 11EA  
                                          i2l2967 1FE8                                            i2l2895 1862  
                                          i2l2887 180A                                            i2l2879 17BA  
                                          i2l2991 1298                                            i2l2983 1266  
                                          i2l2975 11FE                                            _INTCON 000FF2  
                                          i2l2969 2014                                            i2l2897 1882  
                                          i2l2889 1812                                            i2l2993 12A0  
                                          i2l2985 1276                                            i2l2977 120E  
                                          i2l2899 1894                                            i2l2995 12AC  
                                          i2l2987 127C                                            i2l2979 122E  
                                          i2l2997 12B6                                            i2l2989 128C  
                                          i2l2999 12BC                                            i2l3995 1E94  
                                          i2l3997 1E96                                            i2l3999 1E9A  
                          ?i2_start_AD_conversion 0001                                            _TMR0IE 007F95  
                                          _TMR0IF 007F92                                            _TMR2IE 007CE9  
                                          _TMR2IF 007CF1                                  __end_of___xxtofl 1600  
                              _enable_time_config 007E                                  __end_of_f_timers 1F5E  
                                    vfprintf@cfmt 0059                                  __end_of_lcd_init 2764  
                                       ??___aodiv 0011                                         ??___aomod 0011  
                                          ___wmul 2B60                                         ??___fldiv 00AF  
                                       ??___awdiv 0084                                            _f_int0 2C70  
                                          _f_int1 2C6E                                            _f_int2 2C6C  
                                          _f_int3 2BCA                                            _f_int4 2A88  
                                          _f_int5 29DA                                         ??___awmod 0084  
                                       ??___flmul 0096                                         ??___fltol 00C4  
                                       ??___lwdiv 0084                                         ??___lwmod 0084  
                                          _buffer 015B                                            _lcd_wr 2C3E  
                                _show_display_LCD 21B8                                            _linha1 0111  
                                          _linha2 0100                                            clear_0 2582  
                                          clear_1 258E                                  ___awdiv@quotient 0086  
                                 ___awmod@divisor 0082                                            isa$std 000001  
                                 ___awmod@counter 0084                                            pad@buf 0013  
                                          ctoa@fp 000A                                         ??_lcd_dat 0002  
                                       ??_lcd_cmd 0081                                            dtoa@fp 001C  
                                       ??_lcd_str 0005                                            fputc@c 0001  
                                          fputs@c 000E                                            fputs@i 000F  
                                    __pdataCOMRAM 007E                                            fputs@s 000A  
                                       ??_isdigit 0003                                _estado_sequencia01 00E9  
                              _estado_sequencia02 00E8                                      __mediumconst 0000  
                                       ??_isspace 0003                          show_display_LCD@old_latd 00DE  
                                          tblptrh 000FF7                                            tblptrl 000FF6  
                                __end_of_setup_io 2B3A                                            tblptru 000FF8  
                                          putch@c 0001                                  __end_of_vfprintf 28CC  
                                       ??_sprintf 0063                                 __end_ofi2_lcd_cmd 2BA8  
                                    ?_mux_display 0001                                      ___xxtofl@arg 008A  
                                    ___xxtofl@exp 0089                                      ___xxtofl@val 0080  
                                      __accesstop 0080                           __end_of__initialization 259C  
                                  _select_channel 2C30                               _start_AD_conversion 2C62  
                               _contagem_iniciada 00DF                                     ___rparam_used 000001  
                                      ___fltol@f1 00C0                                    __pcstackCOMRAM 0001  
                                    __pidataBANK0 2C00                                      __pidataBANK1 2A52  
                                   __end_of_f_pwm 2B14                                     __end_of_fputc 20F2  
                                   __end_of_fputs 299A                                     __end_of_setup 2956  
                                   __end_of_putch 2C6C                              ?_start_AD_conversion 0001  
                                       ?i2_lcd_wr 0001                                      i2lcd_cmd@val 0002  
                                         ??_f_pwm 0003                                           ??_fputc 0005  
                                         ??_fputs 000E                                           ??_setup 0083  
                                         ??_putch 0001                            __end_of_select_channel 2C3E  
                                      __pbssBANK0 00CC                                        __pbssBANK1 0135  
                            show_display_LCD@modo 00DC                                           ?___wmul 0001  
                                ??_interrupt_init 0080                                           ?_f_int0 0001  
                                         ?_f_int1 0001                                           ?_f_int2 0001  
                                         ?_f_int3 0001                                           ?_f_int4 0001  
                                         ?_f_int5 0001                                           ?_lcd_wr 0001  
                                         _CCP1CON 000FBD                      show_display_LCD@memoria_modo 00DD  
                                         _ADC_maq 2692                             ??_start_AD_conversion 0080  
                                         _AD_data 0135                                           _AD_init 2C22  
                                      ??i2_lcd_wr 0001                                           _INTCON2 000FF1  
                                         _INTCON3 000FF0                                         ?___xxtofl 0080  
                        __end_of_f_interrupt_high 1CB2                                         ?_f_timers 0001  
                                       ?_lcd_init 0001                                   ?_select_channel 0001  
                                         __Hparam 0000                                           __Lparam 0000  
                                       ?_setup_io 0001                                           ___aodiv 1600  
                                         ___aomod 1788                                           ___fldiv 0E2E  
                                         ___awdiv 20F2                                           ___awmod 2272  
                                         ___flmul 0624                                           ___fltol 1CB2  
                                         ___lwdiv 25AA                                           ___lwmod 27CA  
                                       ?_vfprintf 0053                                      __psmallconst 0600  
                                         __pcinit 252A                                           __ramtop 0600  
                                         __ptext0 2C12                                           __ptext1 2912  
                                         __ptext2 2C62                                           __ptext3 2B14  
                                         __ptext4 26FC                                           __ptext5 2B3A  
                                         __ptext6 2C3E                                           __ptext7 2BE6  
                                         __ptext8 2C48                                           __ptext9 2C52  
                                         _lcd_dat 2BA8                                           _lcd_cmd 2B3A  
                                         _lcd_str 2A18                                           _isdigit 2ABC  
                                      ??___xxtofl 0084                                  ___awmod@dividend 0080  
                               __end_of_read_keyb 1B80                                           _isspace 28CC  
                                         _segundo 007D                                        ??_f_timers 0070  
                                         atoi@neg 000C                           ??i2_start_AD_conversion 0001  
                                         _sprintf 2830                                        ??_lcd_init 0082  
                                  __pintcode_body 1B80                              end_of_initialization 259C  
                        __end_of_show_display_LCD 2272                                       _Vent_enable 00E0  
                                         fputc@fp 0003                                     __Lmediumconst 0000  
                                         int_func 1B80                                           fputs@fp 000C  
                                 _memoria_segundo 00E2                                 __end_of_vfpfcnvrt 0E2E  
                                         postdec1 000FE5                                           postdec2 000FDD  
                                      ??_setup_io 0080                                           postinc0 000FEE  
                                         postinc1 000FE6                                           postinc2 000FDE  
                                vfpfcnvrt@convarg 0048                                        ??_vfprintf 0059  
                                   ?_show_display 0001                                         _PORTEbits 000F84  
                    _memoria_centesimo_de_segundo 00E1                                     ___xxtofl@sign 0088  
                                      lcd_dat@val 0002                                        lcd_cmd@val 0081  
                                     ___fldiv@grs 00BA                                       ___fldiv@rem 00B3  
                                     ___flmul@grs 009B                                         i2_lcd_cmd 2B86  
                                      lcd_str@str 0003                                    ??_show_display 0088  
                                     vfpfcnvrt@ap 0043                                       vfpfcnvrt@cp 0051  
                                     vfpfcnvrt@fp 003F                                    __end_of___wmul 2B86  
                                  __end_of_f_int0 2C72                                    __end_of_f_int1 2C70  
                                  __end_of_f_int2 2C6E                                    __end_of_f_int3 2BE6  
                                  __end_of_f_int4 2ABC                                    __end_of_f_int5 2A18  
                                   __pidataCOMRAM 2C72                                    __end_of_lcd_wr 2C48  
                               _enable_interrupts 2C48                             select_channel@channel 0001  
                              ?_enable_interrupts 0001                               start_initialization 252A  
                                     __end_of_abs 29DA                                       __end_of_pad 252A  
                             ??_enable_interrupts 0080                                        ?i2_lcd_cmd 0001  
                                     vfprintf@fmt 0055                                          ??___wmul 0005  
                                _clock_regressive 2620                                          ??_f_int0 0001  
                                        ??_f_int1 0001                                          ??_f_int2 0001  
                                        ??_f_int3 0005                                          ??_f_int4 0005  
                                        ??_f_int5 0005                                          ??_lcd_wr 0080  
                                     __pdataBANK0 00EF                                       __pdataBANK1 0100  
                       __end_of_enable_interrupts 2C52                                          ?_ADC_maq 0001  
                                       ___fldiv@a 00AB                                         ___fldiv@b 00A7  
                                        ?_AD_init 0001                                         ___flmul@a 0092  
                                       ___flmul@b 008E                                       __pbssCOMRAM 007A  
                                ??_select_channel 0001                                     __pcstackBANK0 0080  
                                ___aodiv@dividend 0001                                 ?_f_interrupt_high 0001  
                              ??_f_interrupt_high 0070                                  ___lwdiv@dividend 0080  
                                       __pintcode 0008                       __end_of_start_AD_conversion 2C66  
                                  _mostra_segundo 007B                                          ?___aodiv 0001  
                             read_keyb@m_dado_RB0 00FE                               read_keyb@m_dado_RB1 00FD  
                             read_keyb@m_dado_RB2 00FC                               read_keyb@m_dado_RB3 00FB  
                             read_keyb@m_dado_RB4 00FA                               read_keyb@m_dado_RB5 00F9  
                                        ?___aomod 0001                                          ?___fldiv 00A7  
                                        ?___awdiv 0080                                  ___aodiv@quotient 0013  
                                        ?___awmod 0080                                          ?___flmul 008E  
                                        ?___fltol 00C0                                          ?___lwdiv 0080  
                                        ?___lwmod 0080                                          ?_lcd_dat 0001  
                                        ?_lcd_cmd 0001                                          ?_lcd_str 0003  
                                     __smallconst 0600                                          ?_isdigit 0001  
                                        ?_isspace 0001                                  ___lwdiv@quotient 0084  
                                        ?_sprintf 005B                                         _read_keyb 1A36  
                   __end_ofi2_start_AD_conversion 2C6A                                 ?_show_display_LCD 0001  
                            __end_of_show_display 1E94                                       ??i2_lcd_cmd 0002  
                                  ___wmul@product 0005                                ??_show_display_LCD 0070  
   mostra_segundos_e_centesimos_de_segundos@tempo 00D0                                          i2u200_40 1612  
                                        i2u200_41 160E                                          i2u201_40 1644  
                                        i2u201_41 1640                                          i2u210_40 1834  
                                        i2u202_41 166E                                          i2u210_41 1830  
                                        i2u203_40 1692                                          i2u211_40 1862  
                                        i2u203_41 168E                                          i2u211_41 185E  
                                        i2u220_40 28E4                                          i2u204_40 16BC  
                                        i2u212_40 18AA                                          i2u220_41 28E0  
                                        i2u204_41 16B8                                          i2u212_41 18A6  
                                        i2u221_40 2906                                          i2u205_40 16FC  
                                        i2u213_40 248E                                          i2u221_41 2902  
                                        i2u205_41 16F8                                          i2u213_41 248A  
                                        i2u222_40 1F72                                          i2u206_40 1746  
                                        i2u214_40 24B0                                          i2u230_40 124A  
                                        i2u222_41 1F6E                                          i2u206_41 1742  
                                        i2u214_41 24AC                                          i2u230_41 1246  
                                        i2u223_40 1F98                                          i2u207_40 179A  
                                        i2u215_40 2506                                          i2u231_40 1276  
                                        i2u223_41 1F94                                          i2u207_41 1796  
                                        i2u215_41 2502                                          i2u231_41 1272  
                                        i2u240_40 1A10                                          i2u224_40 1FB8  
                                        i2u208_40 17CC                                          i2u216_40 2514  
                                        i2u232_40 128C                                          i2u240_41 1A0C  
                                        i2u224_41 1FB4                                          i2u208_41 17C8  
                                        i2u216_41 2510                                          i2u232_41 1288  
                                        i2u225_40 2006                                          i2u209_40 180A  
                                        i2u217_40 29B4                                          i2u233_40 13C8  
                                        i2u241_40 0A74                                          i2u225_41 2002  
                                        i2u209_41 1806                                          i2u217_41 29B0  
                                        i2u233_41 13C4                                          i2u241_41 0A70  
                                        i2u218_40 2AE0                                          i2u226_40 2014  
                                        i2u234_40 13E6                                          i2u250_40 0D22  
                                        i2u242_40 0AB8                                          i2u218_41 2ADA  
                                        i2u226_41 2010                                          i2u234_41 13E2  
                                        i2u250_41 0D1E                                          i2u242_41 0AB4  
                                       f_pwm@duty 0001                                          i2u219_40 2AE2  
                                        i2u235_40 1400                                          i2u227_40 11FA  
                                        i2u251_40 0DCC                                          i2u243_40 0AFC  
                                        i2u235_41 13FC                                          i2u227_41 11F4  
                                        i2u251_41 0DC8                                          i2u243_41 0AF8  
                                        i2u236_40 1410                                          i2u228_40 11FC  
                                        i2u244_40 0B70                                          i2u252_40 28C2  
                                        i2u236_41 140C                                          i2u244_41 0B6C  
                                        i2u252_41 28BE                                          i2u253_40 29EC  
                                        i2u237_40 1920                                          i2u229_40 120E  
                                        i2u245_40 0B94                                          i2u253_41 29E8  
                                        i2u237_41 191C                                          i2u229_41 120A  
                                        i2u245_41 0B90                                          i2u254_40 2A0A  
                                        i2u238_40 1950                                          i2u246_40 0BD0  
                                        i2u254_41 2A06                                          i2u238_41 194C  
                                        i2u246_41 0BCC                                          i2u255_40 2A50  
                                        i2u239_40 19FE                                          i2u247_40 0C70  
                                        i2u255_41 2A4C                                          i2u239_41 19FA  
                                        i2u247_41 0C6C                                          i2u280_40 1AEA  
                                        i2u248_40 0C94                                          i2u360_40 1BB8  
                                        i2u280_41 1AE6                                          i2u248_41 0C90  
                                        i2u360_41 1BB4                                          i2u281_40 1B02  
                                        i2u249_40 0D06                                          i2u361_40 1BC6  
                                        i2u281_41 1AFE                                          i2u249_41 0D02  
                                        i2u361_41 1BC2                                          i2u282_40 1B1A  
                                        i2u274_40 1A48                                          i2u290_40 21CC  
                                        i2u354_40 1EB2                                          i2u370_40 1C58  
                                        i2u362_40 1BE2                                          i2u282_41 1B16  
                                        i2u274_41 1A44                                          i2u290_41 21C8  
                                        i2u354_41 1EAE                                          i2u370_41 1C54  
                                        i2u362_41 1BDE                                          i2u283_40 1B32  
                                        i2u275_40 1A62                                          i2u195_40 203A  
                                        i2u291_40 21EE                                          i2u355_40 1EDE  
                                        i2u371_40 1C68                                          i2u363_40 1BF0  
                                        i2u283_41 1B2E                                          i2u275_41 1A5E  
                                        i2u195_41 2036                                          i2u291_41 21EA  
                                        i2u355_41 1EDA                                          i2u371_41 1C64  
                                        i2u363_41 1BEC                                          i2u284_40 1B4A  
                                        i2u276_40 1A7C                                          i2u196_40 204C  
                                        i2u292_40 222C                                          i2u356_40 1F0A  
                                        i2u372_40 1C76                                          i2u364_40 1C00  
                                        i2u284_41 1B46                                          i2u276_41 1A78  
                                        i2u196_41 2048                                          i2u292_41 2228  
                                        i2u356_41 1F06                                          i2u372_41 1C72  
                                        i2u364_41 1BFC                                          i2u380_47 2B9E  
                                        i2u285_40 1B62                                          i2u277_40 1A96  
                                        i2u197_40 2074                                          i2u357_40 1F22  
                                        i2u373_40 1C84                                          i2u365_40 1C0E  
                                        i2u285_41 1B5E                                          i2u277_41 1A92  
                                        i2u197_41 2070                                          i2u357_41 1F1E  
                                        i2u373_41 1C80                                          i2u365_41 1C0A  
                                        i2u381_47 2BB6                                          i2u286_40 2630  
                                        i2u278_40 1AB0                                          i2u198_40 20AA  
                                        i2u358_40 1F46                                          i2u366_40 1C1E  
                                        i2u286_41 262C                                          i2u278_41 1AAC  
                                        i2u198_41 20A6                                          i2u358_41 1F42  
                                        i2u366_41 1C1A                                          i2u382_47 2BC0  
                                        i2u287_40 2640                                          i2u279_40 1ACA  
                                        i2u199_40 2998                                          i2u367_40 1C2C  
                                        i2u287_41 263C                                          i2u279_41 1AC6  
                                        i2u199_41 2994                                          i2u367_41 1C28  
                                        i2u288_40 265C                                          i2u368_40 1C3C  
                                        i2u288_41 2658                                          i2u368_41 1C38  
                                        i2u289_40 266C                                          i2u369_40 1C4A  
                                        i2u289_41 2668                                          i2u369_41 1C46  
                                        i2u379_47 2B94                       _mostra_centesimo_de_segundo 007C  
                                       _vfpfcnvrt 0A50                                 ___wmul@multiplier 0001  
                                        i2_lcd_wr 2C5A                                         lcd_wr@val 0080  
                                    _isspace$1029 0005                                    _aciona_read_AD 00E5  
                                      vfpfcnvrt@c 0050                                        ?_read_keyb 0001  
                                       copy_data0 253E                                         copy_data1 255E  
                                   ??_mux_display 0001                                          __Hrparam 0000  
                                      vfprintf@ap 0057                                          __Lrparam 0000  
                                      vfprintf@fp 0053                                        ?_vfpfcnvrt 003F  
                      __end_of_disable_interrupts 2C5A                                   ___aodiv@divisor 0009  
                                 ___aodiv@counter 0011                                        sprintf@fmt 005D  
                                  _imprime_linha2 00FF                                          ___xxtofl 1448  
                                        _dtoa$979 002E                                   ___lwdiv@divisor 0082  
                                        _f_timers 1E94                                   ___lwdiv@counter 0086  
                                        __ptext10 2C22                                          __ptext11 23D6  
                                        __ptext20 0624                                          __ptext12 1DBA  
                                        __ptext21 0E2E                                          __ptext13 2272  
                                        __ptext30 2480                                          __ptext14 20F2  
                                        __ptext31 2956                                          __ptext23 1E94  
                                        __ptext15 2764                                          __ptext40 2ABC  
                                        __ptext32 299A                                          __ptext24 21B8  
                                        __ptext16 27CA                                          __ptext41 2B60  
                                        __ptext33 1788                                          __ptext25 2B86  
                                        __ptext17 25AA                                          __ptext50 2C6E  
                                        __ptext42 2A18                                          __ptext34 1600  
                                        __ptext26 2830                                          __ptext18 1448  
                                        __ptext51 2C70                                          __ptext43 2BA8  
                                        __ptext35 1F5E                                          __ptext27 287E  
                                        __ptext19 1CB2                                          __ptext52 2324  
                                        __ptext44 2C5A                                          __ptext36 2028  
                                        __ptext28 0A50                                          __ptext53 2620  
                                        __ptext45 1A36                                          __ptext37 2C6A  
                                        __ptext29 11CA                                          __ptext54 2AE8  
                                        __ptext46 29DA                                          __ptext38 18EC  
                                        __ptext55 2692                                          __ptext47 2A88  
                                        __ptext39 28CC                                          __ptext56 2C66  
                                        __ptext48 2BCA                                          __ptext57 2C30  
                                        __ptext49 2C6C                                          _conv7seg 0122  
                        __end_of_clock_regressive 2692                                          _lcd_init 26FC  
                                        _display1 00ED                                          _display2 00EC  
                                        _display3 00EB                                          _display4 00EA  
                               mux_display@estado 00E7                               __end_of_mux_display 23D6  
                                        isa$xinst 000000                                     _temporizador1 00DA  
                                   _temporizador2 00D8                                          _setup_io 2B14  
                                        int$flags 007F                                          _vfprintf 287E  
                                        lcd_str@i 0005                                  ___aomod@dividend 0001  
                                        isdigit@c 0001                                       ??_read_keyb 0005  
                                        intlevel2 0000                                         sprintf@ap 0063  
                                ___lwmod@dividend 0080                                          isspace@c 0001  
                                    _temporizacao 00F7                                   ___aomod@divisor 0009  
                                     ??_vfpfcnvrt 0045                                     read_keyb@dado 000B  
                                 ___aomod@counter 0011                                      _show_display 1DBA  
                                        sprintf@f 0065                                          sprintf@s 005B  
                            _centesimo_de_segundo 00E4                                       _tempo_total 00D2  
                                 ___lwmod@divisor 0082                                    _interrupt_init 2BE6  
                                 ___lwmod@counter 0084                                       _porcentagem 00D4  
                                    ___aodiv@sign 0012                                       _mux_display 2324  
                                    ___aomod@sign 0012  
